ARM GAS  C:\Users\Angel\AppData\Local\Temp\ccvqOPgy.s 			page 1


   1              		.syntax unified
   2              		.cpu cortex-m4
   3              		.eabi_attribute 27, 1
   4              		.fpu fpv4-sp-d16
   5              		.eabi_attribute 20, 1
   6              		.eabi_attribute 21, 1
   7              		.eabi_attribute 23, 3
   8              		.eabi_attribute 24, 1
   9              		.eabi_attribute 25, 1
  10              		.eabi_attribute 26, 1
  11              		.eabi_attribute 30, 1
  12              		.eabi_attribute 34, 1
  13              		.eabi_attribute 18, 4
  14              		.thumb
  15              		.syntax unified
  16              		.file	"main_cm4.c"
  17              		.text
  18              	.Ltext0:
  19              		.cfi_sections	.debug_frame
  20              		.section	.text.do_clear,"ax",%progbits
  21              		.align	2
  22              		.global	do_clear
  23              		.thumb
  24              		.thumb_func
  25              		.type	do_clear, %function
  26              	do_clear:
  27              	.LFB534:
  28              		.file 1 "main_cm4.c"
   1:main_cm4.c    **** /* ========================================
   2:main_cm4.c    ****  *
   3:main_cm4.c    ****  * Copyright YOUR COMPANY, THE YEAR
   4:main_cm4.c    ****  * All Rights Reserved
   5:main_cm4.c    ****  * UNPUBLISHED, LICENSED SOFTWARE.
   6:main_cm4.c    ****  *
   7:main_cm4.c    ****  * CONFIDENTIAL AND PROPRIETARY INFORMATION
   8:main_cm4.c    ****  * WHICH IS THE PROPERTY OF your company.
   9:main_cm4.c    ****  *
  10:main_cm4.c    ****  * ========================================
  11:main_cm4.c    **** */
  12:main_cm4.c    **** #include "project.h"
  13:main_cm4.c    **** #include "stdio.h"
  14:main_cm4.c    **** #include "tty_utils.h"
  15:main_cm4.c    **** #include "clcd.h"
  16:main_cm4.c    **** #include "func_list.h"
  17:main_cm4.c    **** 
  18:main_cm4.c    **** void do_help(void) ;
  19:main_cm4.c    **** void do_clear(void) ;
  20:main_cm4.c    **** void do_write(void) ;
  21:main_cm4.c    **** void do_SetDDRAddr(void) ;
  22:main_cm4.c    **** void do_SetCGRAMAddr(void) ;
  23:main_cm4.c    **** void do_Command(void) ;
  24:main_cm4.c    **** void do_print(void) ;
  25:main_cm4.c    **** void do_pos(void) ;
  26:main_cm4.c    **** 
  27:main_cm4.c    **** int row[4];
  28:main_cm4.c    **** int column[4];
  29:main_cm4.c    **** 
ARM GAS  C:\Users\Angel\AppData\Local\Temp\ccvqOPgy.s 			page 2


  30:main_cm4.c    **** void rowselect(int in){
  31:main_cm4.c    **** switch (in)
  32:main_cm4.c    **** {
  33:main_cm4.c    ****     case 0:
  34:main_cm4.c    ****    Cy_GPIO_Write(R0_PORT,R0_NUM,0);
  35:main_cm4.c    ****    Cy_GPIO_Write(R1_PORT,R1_NUM,0);
  36:main_cm4.c    ****    Cy_GPIO_Write(R2_PORT,R2_NUM,0);
  37:main_cm4.c    ****    Cy_GPIO_Write(R3_PORT,R3_NUM,0);
  38:main_cm4.c    **** 
  39:main_cm4.c    ****     break;
  40:main_cm4.c    ****     case 1:
  41:main_cm4.c    ****      Cy_GPIO_Write(R0_PORT,R0_NUM,1);
  42:main_cm4.c    ****      Cy_GPIO_Write(R1_PORT,R1_NUM,0);
  43:main_cm4.c    ****      Cy_GPIO_Write(R2_PORT,R2_NUM,0);
  44:main_cm4.c    ****      Cy_GPIO_Write(R3_PORT,R3_NUM,0);
  45:main_cm4.c    ****     
  46:main_cm4.c    ****     break;
  47:main_cm4.c    ****      case 2:
  48:main_cm4.c    ****      Cy_GPIO_Write(R0_PORT,R0_NUM,0);
  49:main_cm4.c    ****      Cy_GPIO_Write(R1_PORT,R1_NUM,1);
  50:main_cm4.c    ****      Cy_GPIO_Write(R2_PORT,R2_NUM,0);
  51:main_cm4.c    ****      Cy_GPIO_Write(R3_PORT,R3_NUM,0);
  52:main_cm4.c    ****     
  53:main_cm4.c    ****     break;
  54:main_cm4.c    ****      case 3:
  55:main_cm4.c    ****      Cy_GPIO_Write(R0_PORT,R0_NUM,1);
  56:main_cm4.c    ****      Cy_GPIO_Write(R1_PORT,R1_NUM,1);
  57:main_cm4.c    ****      Cy_GPIO_Write(R2_PORT,R2_NUM,0);
  58:main_cm4.c    ****      Cy_GPIO_Write(R3_PORT,R3_NUM,0);
  59:main_cm4.c    ****     
  60:main_cm4.c    ****     break;
  61:main_cm4.c    ****      case 4:
  62:main_cm4.c    ****      Cy_GPIO_Write(R0_PORT,R0_NUM,0);
  63:main_cm4.c    ****      Cy_GPIO_Write(R1_PORT,R1_NUM,0);
  64:main_cm4.c    ****      Cy_GPIO_Write(R2_PORT,R2_NUM,1);
  65:main_cm4.c    ****      Cy_GPIO_Write(R3_PORT,R3_NUM,0);
  66:main_cm4.c    ****     break;
  67:main_cm4.c    ****      case 5:
  68:main_cm4.c    ****      Cy_GPIO_Write(R0_PORT,R0_NUM,1);
  69:main_cm4.c    ****      Cy_GPIO_Write(R1_PORT,R1_NUM,0);
  70:main_cm4.c    ****      Cy_GPIO_Write(R2_PORT,R2_NUM,1);
  71:main_cm4.c    ****      Cy_GPIO_Write(R3_PORT,R3_NUM,0);
  72:main_cm4.c    ****     
  73:main_cm4.c    ****     break;
  74:main_cm4.c    ****      case 6:
  75:main_cm4.c    ****      Cy_GPIO_Write(R0_PORT,R0_NUM,0);
  76:main_cm4.c    ****      Cy_GPIO_Write(R1_PORT,R1_NUM,1);
  77:main_cm4.c    ****      Cy_GPIO_Write(R2_PORT,R2_NUM,1);
  78:main_cm4.c    ****      Cy_GPIO_Write(R3_PORT,R3_NUM,0);
  79:main_cm4.c    **** 
  80:main_cm4.c    ****     break;
  81:main_cm4.c    ****      case 7:
  82:main_cm4.c    ****      Cy_GPIO_Write(R0_PORT,R0_NUM,1);
  83:main_cm4.c    ****      Cy_GPIO_Write(R1_PORT,R1_NUM,1);
  84:main_cm4.c    ****      Cy_GPIO_Write(R2_PORT,R2_NUM,1);
  85:main_cm4.c    ****      Cy_GPIO_Write(R3_PORT,R3_NUM,0);
  86:main_cm4.c    ****     
ARM GAS  C:\Users\Angel\AppData\Local\Temp\ccvqOPgy.s 			page 3


  87:main_cm4.c    ****     break;
  88:main_cm4.c    ****      case 8:
  89:main_cm4.c    ****      Cy_GPIO_Write(R0_PORT,R0_NUM,0);
  90:main_cm4.c    ****      Cy_GPIO_Write(R1_PORT,R1_NUM,0);
  91:main_cm4.c    ****      Cy_GPIO_Write(R2_PORT,R2_NUM,0);
  92:main_cm4.c    ****      Cy_GPIO_Write(R3_PORT,R3_NUM,1);
  93:main_cm4.c    ****     
  94:main_cm4.c    ****     break;
  95:main_cm4.c    ****      case 9:
  96:main_cm4.c    ****      Cy_GPIO_Write(R0_PORT,R0_NUM,1);
  97:main_cm4.c    ****      Cy_GPIO_Write(R1_PORT,R1_NUM,0);
  98:main_cm4.c    ****      Cy_GPIO_Write(R2_PORT,R2_NUM,0);
  99:main_cm4.c    ****      Cy_GPIO_Write(R3_PORT,R3_NUM,1);
 100:main_cm4.c    ****     
 101:main_cm4.c    ****     break;
 102:main_cm4.c    ****      case 10:
 103:main_cm4.c    ****      Cy_GPIO_Write(R0_PORT,R0_NUM,0);
 104:main_cm4.c    ****      Cy_GPIO_Write(R1_PORT,R1_NUM,1);
 105:main_cm4.c    ****      Cy_GPIO_Write(R2_PORT,R2_NUM,0);
 106:main_cm4.c    ****      Cy_GPIO_Write(R3_PORT,R3_NUM,1);
 107:main_cm4.c    ****     
 108:main_cm4.c    ****     break;
 109:main_cm4.c    ****      case 11:
 110:main_cm4.c    ****      Cy_GPIO_Write(R0_PORT,R0_NUM,1);
 111:main_cm4.c    ****      Cy_GPIO_Write(R1_PORT,R1_NUM,1);
 112:main_cm4.c    ****      Cy_GPIO_Write(R2_PORT,R2_NUM,0);
 113:main_cm4.c    ****      Cy_GPIO_Write(R3_PORT,R3_NUM,1);
 114:main_cm4.c    ****     
 115:main_cm4.c    ****     break;
 116:main_cm4.c    ****      case 12:
 117:main_cm4.c    ****      Cy_GPIO_Write(R0_PORT,R0_NUM,0);
 118:main_cm4.c    ****      Cy_GPIO_Write(R1_PORT,R1_NUM,0);
 119:main_cm4.c    ****      Cy_GPIO_Write(R2_PORT,R2_NUM,1);
 120:main_cm4.c    ****      Cy_GPIO_Write(R3_PORT,R3_NUM,1);
 121:main_cm4.c    **** 
 122:main_cm4.c    ****     break;
 123:main_cm4.c    ****      case 13:
 124:main_cm4.c    ****      Cy_GPIO_Write(R0_PORT,R0_NUM,1);
 125:main_cm4.c    ****      Cy_GPIO_Write(R1_PORT,R1_NUM,0);
 126:main_cm4.c    ****      Cy_GPIO_Write(R2_PORT,R2_NUM,1);
 127:main_cm4.c    ****      Cy_GPIO_Write(R3_PORT,R3_NUM,1);
 128:main_cm4.c    ****     
 129:main_cm4.c    ****     break;
 130:main_cm4.c    ****      case 14:
 131:main_cm4.c    ****      Cy_GPIO_Write(R0_PORT,R0_NUM,0);
 132:main_cm4.c    ****      Cy_GPIO_Write(R1_PORT,R1_NUM,1);
 133:main_cm4.c    ****      Cy_GPIO_Write(R2_PORT,R2_NUM,1);
 134:main_cm4.c    ****      Cy_GPIO_Write(R3_PORT,R3_NUM,1);
 135:main_cm4.c    **** 
 136:main_cm4.c    ****     break;
 137:main_cm4.c    ****      case 15:
 138:main_cm4.c    ****      Cy_GPIO_Write(R0_PORT,R0_NUM,1);
 139:main_cm4.c    ****      Cy_GPIO_Write(R1_PORT,R1_NUM,1);
 140:main_cm4.c    ****      Cy_GPIO_Write(R2_PORT,R2_NUM,1);
 141:main_cm4.c    ****      Cy_GPIO_Write(R3_PORT,R3_NUM,1);
 142:main_cm4.c    ****     break;
 143:main_cm4.c    **** }
ARM GAS  C:\Users\Angel\AppData\Local\Temp\ccvqOPgy.s 			page 4


 144:main_cm4.c    **** }
 145:main_cm4.c    **** 
 146:main_cm4.c    **** 
 147:main_cm4.c    **** void columnselect(int in){
 148:main_cm4.c    **** switch (in)
 149:main_cm4.c    **** {
 150:main_cm4.c    ****     case 0:
 151:main_cm4.c    ****    Cy_GPIO_Write(C0_PORT,C0_NUM,0);
 152:main_cm4.c    ****    Cy_GPIO_Write(C1_PORT,C1_NUM,0);
 153:main_cm4.c    ****    Cy_GPIO_Write(C2_PORT,C2_NUM,0);
 154:main_cm4.c    ****    Cy_GPIO_Write(C3_PORT,C3_NUM,0);
 155:main_cm4.c    ****     break;
 156:main_cm4.c    ****     case 1:
 157:main_cm4.c    ****     
 158:main_cm4.c    ****      Cy_GPIO_Write(C0_PORT,C0_NUM,1);
 159:main_cm4.c    ****      Cy_GPIO_Write(C1_PORT,C1_NUM,0);
 160:main_cm4.c    ****      Cy_GPIO_Write(C2_PORT,C2_NUM,0);
 161:main_cm4.c    ****      Cy_GPIO_Write(C3_PORT,C3_NUM,0);
 162:main_cm4.c    ****     break;
 163:main_cm4.c    ****      case 2:
 164:main_cm4.c    ****    
 165:main_cm4.c    ****      Cy_GPIO_Write(C0_PORT,C0_NUM,0);
 166:main_cm4.c    ****      Cy_GPIO_Write(C1_PORT,C1_NUM,1);
 167:main_cm4.c    ****      Cy_GPIO_Write(C2_PORT,C2_NUM,0);
 168:main_cm4.c    ****      Cy_GPIO_Write(C3_PORT,C3_NUM,0);
 169:main_cm4.c    ****     break;
 170:main_cm4.c    ****      case 3:
 171:main_cm4.c    ****   
 172:main_cm4.c    ****      Cy_GPIO_Write(C0_PORT,C0_NUM,1);
 173:main_cm4.c    ****      Cy_GPIO_Write(C1_PORT,C1_NUM,1);
 174:main_cm4.c    ****      Cy_GPIO_Write(C2_PORT,C2_NUM,0);
 175:main_cm4.c    ****      Cy_GPIO_Write(C3_PORT,C3_NUM,0);
 176:main_cm4.c    ****     break;
 177:main_cm4.c    ****      case 4:
 178:main_cm4.c    ****   
 179:main_cm4.c    ****      Cy_GPIO_Write(C0_PORT,C0_NUM,0);
 180:main_cm4.c    ****      Cy_GPIO_Write(C1_PORT,C1_NUM,0);
 181:main_cm4.c    ****      Cy_GPIO_Write(C2_PORT,C2_NUM,1);
 182:main_cm4.c    ****      Cy_GPIO_Write(C3_PORT,C3_NUM,0);
 183:main_cm4.c    ****     break;
 184:main_cm4.c    ****      case 5:
 185:main_cm4.c    ****     
 186:main_cm4.c    ****      Cy_GPIO_Write(C0_PORT,C0_NUM,1);
 187:main_cm4.c    ****      Cy_GPIO_Write(C1_PORT,C1_NUM,0);
 188:main_cm4.c    ****      Cy_GPIO_Write(C2_PORT,C2_NUM,1);
 189:main_cm4.c    ****      Cy_GPIO_Write(C3_PORT,C3_NUM,0);
 190:main_cm4.c    ****     break;
 191:main_cm4.c    ****      case 6:
 192:main_cm4.c    ****    
 193:main_cm4.c    ****      Cy_GPIO_Write(C0_PORT,C0_NUM,0);
 194:main_cm4.c    ****      Cy_GPIO_Write(C1_PORT,C1_NUM,1);
 195:main_cm4.c    ****      Cy_GPIO_Write(C2_PORT,C2_NUM,1);
 196:main_cm4.c    ****      Cy_GPIO_Write(C3_PORT,C3_NUM,0);
 197:main_cm4.c    ****     break;
 198:main_cm4.c    ****      case 7:
 199:main_cm4.c    ****      
 200:main_cm4.c    ****      Cy_GPIO_Write(C0_PORT,C0_NUM,1);
ARM GAS  C:\Users\Angel\AppData\Local\Temp\ccvqOPgy.s 			page 5


 201:main_cm4.c    ****      Cy_GPIO_Write(C1_PORT,C1_NUM,1);
 202:main_cm4.c    ****      Cy_GPIO_Write(C2_PORT,C2_NUM,1);
 203:main_cm4.c    ****      Cy_GPIO_Write(C3_PORT,C3_NUM,0);
 204:main_cm4.c    ****     break;
 205:main_cm4.c    ****      case 8:
 206:main_cm4.c    ****       
 207:main_cm4.c    ****      Cy_GPIO_Write(C0_PORT,C0_NUM,0);
 208:main_cm4.c    ****      Cy_GPIO_Write(C1_PORT,C1_NUM,0);
 209:main_cm4.c    ****      Cy_GPIO_Write(C2_PORT,C2_NUM,0);
 210:main_cm4.c    ****      Cy_GPIO_Write(C3_PORT,C3_NUM,1);
 211:main_cm4.c    ****     break;
 212:main_cm4.c    ****      case 9:
 213:main_cm4.c    ****       
 214:main_cm4.c    ****      Cy_GPIO_Write(C0_PORT,C0_NUM,1);
 215:main_cm4.c    ****      Cy_GPIO_Write(C1_PORT,C1_NUM,0);
 216:main_cm4.c    ****      Cy_GPIO_Write(C2_PORT,C2_NUM,0);
 217:main_cm4.c    ****      Cy_GPIO_Write(C3_PORT,C3_NUM,1);
 218:main_cm4.c    ****     break;
 219:main_cm4.c    ****      case 10:
 220:main_cm4.c    ****     
 221:main_cm4.c    ****      Cy_GPIO_Write(C0_PORT,C0_NUM,0);
 222:main_cm4.c    ****      Cy_GPIO_Write(C1_PORT,C1_NUM,1);
 223:main_cm4.c    ****      Cy_GPIO_Write(C2_PORT,C2_NUM,0);
 224:main_cm4.c    ****      Cy_GPIO_Write(C3_PORT,C3_NUM,1);
 225:main_cm4.c    ****     break;
 226:main_cm4.c    ****      case 11:
 227:main_cm4.c    ****     
 228:main_cm4.c    ****      Cy_GPIO_Write(C0_PORT,C0_NUM,1);
 229:main_cm4.c    ****      Cy_GPIO_Write(C1_PORT,C1_NUM,1);
 230:main_cm4.c    ****      Cy_GPIO_Write(C2_PORT,C2_NUM,0);
 231:main_cm4.c    ****      Cy_GPIO_Write(C3_PORT,C3_NUM,1);
 232:main_cm4.c    ****     break;
 233:main_cm4.c    ****      case 12:
 234:main_cm4.c    ****      Cy_GPIO_Write(C0_PORT,C0_NUM,0);
 235:main_cm4.c    ****      Cy_GPIO_Write(C1_PORT,C1_NUM,0);
 236:main_cm4.c    ****      Cy_GPIO_Write(C2_PORT,C2_NUM,1);
 237:main_cm4.c    ****      Cy_GPIO_Write(C3_PORT,C3_NUM,1);
 238:main_cm4.c    ****     break;
 239:main_cm4.c    ****      case 13: 
 240:main_cm4.c    ****      Cy_GPIO_Write(C0_PORT,C0_NUM,1);
 241:main_cm4.c    ****      Cy_GPIO_Write(C1_PORT,C1_NUM,0);
 242:main_cm4.c    ****      Cy_GPIO_Write(C2_PORT,C2_NUM,1);
 243:main_cm4.c    ****      Cy_GPIO_Write(C3_PORT,C3_NUM,1);
 244:main_cm4.c    ****     
 245:main_cm4.c    ****     break;
 246:main_cm4.c    ****      case 14:
 247:main_cm4.c    ****      Cy_GPIO_Write(C0_PORT,C0_NUM,0);
 248:main_cm4.c    ****      Cy_GPIO_Write(C1_PORT,C1_NUM,1);
 249:main_cm4.c    ****      Cy_GPIO_Write(C2_PORT,C2_NUM,1);
 250:main_cm4.c    ****      Cy_GPIO_Write(C3_PORT,C3_NUM,1);
 251:main_cm4.c    **** 
 252:main_cm4.c    ****     break;
 253:main_cm4.c    ****      case 15:
 254:main_cm4.c    ****      Cy_GPIO_Write(C0_PORT,C0_NUM,1);
 255:main_cm4.c    ****      Cy_GPIO_Write(C1_PORT,C1_NUM,1);
 256:main_cm4.c    ****      Cy_GPIO_Write(C2_PORT,C2_NUM,1);
 257:main_cm4.c    ****      Cy_GPIO_Write(C3_PORT,C3_NUM,1);
ARM GAS  C:\Users\Angel\AppData\Local\Temp\ccvqOPgy.s 			page 6


 258:main_cm4.c    ****     break;
 259:main_cm4.c    **** }
 260:main_cm4.c    **** }
 261:main_cm4.c    **** 
 262:main_cm4.c    **** 
 263:main_cm4.c    **** void states(){
 264:main_cm4.c    ****   row[0]    = Cy_GPIO_ReadOut(R0_PORT,R0_NUM);
 265:main_cm4.c    ****   row[1]    = Cy_GPIO_ReadOut(R1_PORT,R1_NUM);
 266:main_cm4.c    ****   row[2]    = Cy_GPIO_ReadOut(R2_PORT,R2_NUM);
 267:main_cm4.c    ****   row[3]    = Cy_GPIO_ReadOut(R3_PORT,R3_NUM); 
 268:main_cm4.c    ****   column[0] = Cy_GPIO_ReadOut(C0_PORT,R0_NUM);
 269:main_cm4.c    ****   column[1] = Cy_GPIO_ReadOut(C1_PORT,R1_NUM);
 270:main_cm4.c    ****   column[2] = Cy_GPIO_ReadOut(C2_PORT,R2_NUM);
 271:main_cm4.c    ****   column[3] = Cy_GPIO_ReadOut(C3_PORT,R3_NUM); 
 272:main_cm4.c    ****    }
 273:main_cm4.c    **** 
 274:main_cm4.c    **** f_list_type main_func_list[] = {
 275:main_cm4.c    ****     { "help",    do_help,          "show help message"   },
 276:main_cm4.c    ****     { "clear",   do_clear,         "Clear LCD"           },
 277:main_cm4.c    ****     { "write",   do_write,         "Write data to LCD"   },
 278:main_cm4.c    ****     { "print",   do_print,         "Write string to LCD" },
 279:main_cm4.c    ****     { "ddr",     do_SetDDRAddr,    "Set DDR Address"     },
 280:main_cm4.c    ****     { "cg",      do_SetCGRAMAddr,  "Set CG RAM Address"  },
 281:main_cm4.c    ****     { "command", do_Command,       "send instruction"    },
 282:main_cm4.c    ****     { "pos",     do_pos,           "pos line col"        },
 283:main_cm4.c    ****     {     0,     0,                0} /* list terminator */
 284:main_cm4.c    **** } ;
 285:main_cm4.c    **** 
 286:main_cm4.c    **** 
 287:main_cm4.c    **** int main(void)
 288:main_cm4.c    **** 
 289:main_cm4.c    **** {
 290:main_cm4.c    ****     func_ptr func ;
 291:main_cm4.c    ****     uint8_t data ;
 292:main_cm4.c    ****     char cmd[32] ;
 293:main_cm4.c    ****    
 294:main_cm4.c    ****     int size; 
 295:main_cm4.c    ****     size = 8;
 296:main_cm4.c    ****     
 297:main_cm4.c    ****     __enable_irq(); /* Enable global interrupts. */
 298:main_cm4.c    **** 
 299:main_cm4.c    ****     tty_init(USE_CM4) ;
 300:main_cm4.c    ****     
 301:main_cm4.c    ****     CLCD_Init() ;
 302:main_cm4.c    ****     ADC_1_Init();
 303:main_cm4.c    ****     ADC_1_Start();
 304:main_cm4.c    ****     ADC_1_StartConvert();
 305:main_cm4.c    ****    // splash("PSoC 6 CLCD Test\n") ;
 306:main_cm4.c    ****     CySCB_Type *myUart = SCB5;
 307:main_cm4.c    ****     float voltagereading;
 308:main_cm4.c    ****     int actualValue;
 309:main_cm4.c    ****     
 310:main_cm4.c    **** 
 311:main_cm4.c    ****     //CLCD_PutString("Welcome To Group India") ;
 312:main_cm4.c    ****     
 313:main_cm4.c    ****    
 314:main_cm4.c    ****     
ARM GAS  C:\Users\Angel\AppData\Local\Temp\ccvqOPgy.s 			page 7


 315:main_cm4.c    ****    // prompt("> ") ;
 316:main_cm4.c    ****     for(;;)
 317:main_cm4.c    ****     {
 318:main_cm4.c    ****        
 319:main_cm4.c    ****          
 320:main_cm4.c    ****         
 321:main_cm4.c    ****      
 322:main_cm4.c    ****          //voltagereading = ADC_1_CountsTo_Volts(0,actualValue);
 323:main_cm4.c    ****          //voltagereading = (int)voltagereading;
 324:main_cm4.c    ****          
 325:main_cm4.c    ****           
 326:main_cm4.c    ****         
 327:main_cm4.c    ****         if(Cy_GPIO_Read(P0_4_PORT, P0_4_NUM))
 328:main_cm4.c    ****             {
 329:main_cm4.c    ****                 CLCD_PutString("Ready for Pic...") ;
 330:main_cm4.c    ****             }
 331:main_cm4.c    ****         else
 332:main_cm4.c    ****             {
 333:main_cm4.c    ****                CLCD_Clear();
 334:main_cm4.c    ****                CLCD_PutString("Acquiring Pic...");
 335:main_cm4.c    ****                int i, j;
 336:main_cm4.c    ****                 
 337:main_cm4.c    ****                for(i = 0; i < size; i++)
 338:main_cm4.c    ****             {
 339:main_cm4.c    ****                 rowselect(i);
 340:main_cm4.c    ****                 CyDelay(1);//Psoc is 6.7 ns; Mux needs 500 ns delay (THIS IS 1 ms)
 341:main_cm4.c    ****                 for(j=0; j<size; j++)
 342:main_cm4.c    ****                 { 
 343:main_cm4.c    ****                         columnselect(j);
 344:main_cm4.c    ****                         CyDelay(1); //Psoc is 6.7 ns; Mux is 500 ns delay (THIS IS 1 ms)
 345:main_cm4.c    ****                         
 346:main_cm4.c    ****                        // actualValue = ADC_1_GetResult16(0);
 347:main_cm4.c    ****                         char myString[16];
 348:main_cm4.c    ****                     
 349:main_cm4.c    ****                         //adc data printed to UART
 350:main_cm4.c    ****                         ADC_1_StartConvert();
 351:main_cm4.c    ****                         ADC_1_IsEndConversion(1);
 352:main_cm4.c    ****                         
 353:main_cm4.c    ****                         actualValue = ADC_1_GetResult16(0);
 354:main_cm4.c    ****                         sprintf(myString, "%d", actualValue);
 355:main_cm4.c    ****                         printf("%s ", myString);
 356:main_cm4.c    ****                         
 357:main_cm4.c    ****                         UART_PutString(myString);
 358:main_cm4.c    ****                         UART_PutString(" ");
 359:main_cm4.c    ****                 }
 360:main_cm4.c    ****                 
 361:main_cm4.c    ****             }
 362:main_cm4.c    ****                UART_PutString("e ");
 363:main_cm4.c    ****                CLCD_Clear();
 364:main_cm4.c    ****                CLCD_PutString("Done");
 365:main_cm4.c    ****                 
 366:main_cm4.c    ****                 CyDelay(100);
 367:main_cm4.c    ****             }
 368:main_cm4.c    ****         
 369:main_cm4.c    ****     }
 370:main_cm4.c    **** }
 371:main_cm4.c    **** 
ARM GAS  C:\Users\Angel\AppData\Local\Temp\ccvqOPgy.s 			page 8


 372:main_cm4.c    **** void do_help(void)
 373:main_cm4.c    **** {
 374:main_cm4.c    ****     show_help(main_func_list) ;
 375:main_cm4.c    **** }
 376:main_cm4.c    **** 
 377:main_cm4.c    **** void do_clear(void) 
 378:main_cm4.c    **** {
  29              		.loc 1 378 0
  30              		.cfi_startproc
  31              		@ args = 0, pretend = 0, frame = 0
  32              		@ frame_needed = 0, uses_anonymous_args = 0
  33 0000 08B5     		push	{r3, lr}
  34              		.cfi_def_cfa_offset 8
  35              		.cfi_offset 3, -8
  36              		.cfi_offset 14, -4
 379:main_cm4.c    ****     CLCD_Clear() ;
  37              		.loc 1 379 0
  38 0002 FFF7FEFF 		bl	CLCD_Clear
  39              	.LVL0:
  40 0006 08BD     		pop	{r3, pc}
  41              		.cfi_endproc
  42              	.LFE534:
  43              		.size	do_clear, .-do_clear
  44              		.section	.text.do_help,"ax",%progbits
  45              		.align	2
  46              		.global	do_help
  47              		.thumb
  48              		.thumb_func
  49              		.type	do_help, %function
  50              	do_help:
  51              	.LFB533:
 373:main_cm4.c    ****     show_help(main_func_list) ;
  52              		.loc 1 373 0
  53              		.cfi_startproc
  54              		@ args = 0, pretend = 0, frame = 0
  55              		@ frame_needed = 0, uses_anonymous_args = 0
  56 0000 08B5     		push	{r3, lr}
  57              		.cfi_def_cfa_offset 8
  58              		.cfi_offset 3, -8
  59              		.cfi_offset 14, -4
 374:main_cm4.c    **** }
  60              		.loc 1 374 0
  61 0002 0248     		ldr	r0, .L5
  62 0004 FFF7FEFF 		bl	show_help
  63              	.LVL1:
  64 0008 08BD     		pop	{r3, pc}
  65              	.L6:
  66 000a 00BF     		.align	2
  67              	.L5:
  68 000c 00000000 		.word	.LANCHOR0
  69              		.cfi_endproc
  70              	.LFE533:
  71              		.size	do_help, .-do_help
  72              		.section	.text.do_print,"ax",%progbits
  73              		.align	2
  74              		.global	do_print
  75              		.thumb
ARM GAS  C:\Users\Angel\AppData\Local\Temp\ccvqOPgy.s 			page 9


  76              		.thumb_func
  77              		.type	do_print, %function
  78              	do_print:
  79              	.LFB539:
 380:main_cm4.c    **** }
 381:main_cm4.c    **** 
 382:main_cm4.c    **** void do_write(void) 
 383:main_cm4.c    **** {
 384:main_cm4.c    ****     int c ;
 385:main_cm4.c    ****     sscanf(str, "%*s %x", &c) ;
 386:main_cm4.c    ****     CLCD_WriteData(c & 0xFF) ;
 387:main_cm4.c    **** }
 388:main_cm4.c    **** 
 389:main_cm4.c    **** void do_SetDDRAddr(void) 
 390:main_cm4.c    **** {
 391:main_cm4.c    ****     int addr ;
 392:main_cm4.c    ****     sscanf(str, "%*s %x", &addr) ;
 393:main_cm4.c    ****     CLCD_SetDDRAMAddr(addr) ;
 394:main_cm4.c    **** }
 395:main_cm4.c    **** 
 396:main_cm4.c    **** void do_SetCGRAMAddr(void) 
 397:main_cm4.c    **** {
 398:main_cm4.c    ****     int addr ;
 399:main_cm4.c    ****     sscanf(str, "%*s %x", &addr) ;
 400:main_cm4.c    ****     CLCD_SetCGRAMAddr(addr) ;    
 401:main_cm4.c    **** }
 402:main_cm4.c    **** 
 403:main_cm4.c    **** void do_Command(void) 
 404:main_cm4.c    **** {
 405:main_cm4.c    ****     int cmd ;
 406:main_cm4.c    ****     
 407:main_cm4.c    ****     sscanf(str, "%*s %x", &cmd) ;
 408:main_cm4.c    ****     CLCD_WriteCommand(cmd) ;
 409:main_cm4.c    **** }
 410:main_cm4.c    **** 
 411:main_cm4.c    **** void do_print(void)
 412:main_cm4.c    **** {
  80              		.loc 1 412 0
  81              		.cfi_startproc
  82              		@ args = 0, pretend = 0, frame = 88
  83              		@ frame_needed = 0, uses_anonymous_args = 0
  84 0000 00B5     		push	{lr}
  85              		.cfi_def_cfa_offset 4
  86              		.cfi_offset 14, -4
  87 0002 97B0     		sub	sp, sp, #92
  88              		.cfi_def_cfa_offset 96
 413:main_cm4.c    ****     char buf[81] ;
 414:main_cm4.c    ****     sscanf(str, "%*s %s", buf) ;
  89              		.loc 1 414 0
  90 0004 01AA     		add	r2, sp, #4
  91 0006 0549     		ldr	r1, .L9
  92 0008 0548     		ldr	r0, .L9+4
  93 000a FFF7FEFF 		bl	sscanf
  94              	.LVL2:
 415:main_cm4.c    ****     CLCD_PutString(buf) ;
  95              		.loc 1 415 0
  96 000e 01A8     		add	r0, sp, #4
ARM GAS  C:\Users\Angel\AppData\Local\Temp\ccvqOPgy.s 			page 10


  97 0010 FFF7FEFF 		bl	CLCD_PutString
  98              	.LVL3:
 416:main_cm4.c    **** }
  99              		.loc 1 416 0
 100 0014 17B0     		add	sp, sp, #92
 101              		.cfi_def_cfa_offset 4
 102              		@ sp needed
 103 0016 5DF804FB 		ldr	pc, [sp], #4
 104              	.L10:
 105 001a 00BF     		.align	2
 106              	.L9:
 107 001c 00000000 		.word	.LC0
 108 0020 00000000 		.word	str
 109              		.cfi_endproc
 110              	.LFE539:
 111              		.size	do_print, .-do_print
 112              		.section	.text.do_write,"ax",%progbits
 113              		.align	2
 114              		.global	do_write
 115              		.thumb
 116              		.thumb_func
 117              		.type	do_write, %function
 118              	do_write:
 119              	.LFB535:
 383:main_cm4.c    ****     int c ;
 120              		.loc 1 383 0
 121              		.cfi_startproc
 122              		@ args = 0, pretend = 0, frame = 8
 123              		@ frame_needed = 0, uses_anonymous_args = 0
 124 0000 00B5     		push	{lr}
 125              		.cfi_def_cfa_offset 4
 126              		.cfi_offset 14, -4
 127 0002 83B0     		sub	sp, sp, #12
 128              		.cfi_def_cfa_offset 16
 385:main_cm4.c    ****     CLCD_WriteData(c & 0xFF) ;
 129              		.loc 1 385 0
 130 0004 01AA     		add	r2, sp, #4
 131 0006 0549     		ldr	r1, .L13
 132 0008 0548     		ldr	r0, .L13+4
 133 000a FFF7FEFF 		bl	sscanf
 134              	.LVL4:
 386:main_cm4.c    **** }
 135              		.loc 1 386 0
 136 000e 9DF80400 		ldrb	r0, [sp, #4]	@ zero_extendqisi2
 137 0012 FFF7FEFF 		bl	CLCD_WriteData
 138              	.LVL5:
 387:main_cm4.c    **** 
 139              		.loc 1 387 0
 140 0016 03B0     		add	sp, sp, #12
 141              		.cfi_def_cfa_offset 4
 142              		@ sp needed
 143 0018 5DF804FB 		ldr	pc, [sp], #4
 144              	.L14:
 145              		.align	2
 146              	.L13:
 147 001c 08000000 		.word	.LC1
 148 0020 00000000 		.word	str
ARM GAS  C:\Users\Angel\AppData\Local\Temp\ccvqOPgy.s 			page 11


 149              		.cfi_endproc
 150              	.LFE535:
 151              		.size	do_write, .-do_write
 152              		.section	.text.do_SetDDRAddr,"ax",%progbits
 153              		.align	2
 154              		.global	do_SetDDRAddr
 155              		.thumb
 156              		.thumb_func
 157              		.type	do_SetDDRAddr, %function
 158              	do_SetDDRAddr:
 159              	.LFB536:
 390:main_cm4.c    ****     int addr ;
 160              		.loc 1 390 0
 161              		.cfi_startproc
 162              		@ args = 0, pretend = 0, frame = 8
 163              		@ frame_needed = 0, uses_anonymous_args = 0
 164 0000 00B5     		push	{lr}
 165              		.cfi_def_cfa_offset 4
 166              		.cfi_offset 14, -4
 167 0002 83B0     		sub	sp, sp, #12
 168              		.cfi_def_cfa_offset 16
 392:main_cm4.c    ****     CLCD_SetDDRAMAddr(addr) ;
 169              		.loc 1 392 0
 170 0004 01AA     		add	r2, sp, #4
 171 0006 0549     		ldr	r1, .L17
 172 0008 0548     		ldr	r0, .L17+4
 173 000a FFF7FEFF 		bl	sscanf
 174              	.LVL6:
 393:main_cm4.c    **** }
 175              		.loc 1 393 0
 176 000e 9DF80400 		ldrb	r0, [sp, #4]	@ zero_extendqisi2
 177 0012 FFF7FEFF 		bl	CLCD_SetDDRAMAddr
 178              	.LVL7:
 394:main_cm4.c    **** 
 179              		.loc 1 394 0
 180 0016 03B0     		add	sp, sp, #12
 181              		.cfi_def_cfa_offset 4
 182              		@ sp needed
 183 0018 5DF804FB 		ldr	pc, [sp], #4
 184              	.L18:
 185              		.align	2
 186              	.L17:
 187 001c 08000000 		.word	.LC1
 188 0020 00000000 		.word	str
 189              		.cfi_endproc
 190              	.LFE536:
 191              		.size	do_SetDDRAddr, .-do_SetDDRAddr
 192              		.section	.text.do_pos,"ax",%progbits
 193              		.align	2
 194              		.global	do_pos
 195              		.thumb
 196              		.thumb_func
 197              		.type	do_pos, %function
 198              	do_pos:
 199              	.LFB540:
 417:main_cm4.c    **** 
 418:main_cm4.c    **** void do_pos(void)
ARM GAS  C:\Users\Angel\AppData\Local\Temp\ccvqOPgy.s 			page 12


 419:main_cm4.c    **** {
 200              		.loc 1 419 0
 201              		.cfi_startproc
 202              		@ args = 0, pretend = 0, frame = 8
 203              		@ frame_needed = 0, uses_anonymous_args = 0
 204 0000 00B5     		push	{lr}
 205              		.cfi_def_cfa_offset 4
 206              		.cfi_offset 14, -4
 207 0002 83B0     		sub	sp, sp, #12
 208              		.cfi_def_cfa_offset 16
 420:main_cm4.c    ****     int line, col ;
 421:main_cm4.c    ****     int addr ;
 422:main_cm4.c    ****     sscanf(str, "%*s %d %d", &line, &col) ;
 209              		.loc 1 422 0
 210 0004 6B46     		mov	r3, sp
 211 0006 01AA     		add	r2, sp, #4
 212 0008 1149     		ldr	r1, .L25
 213 000a 1248     		ldr	r0, .L25+4
 214 000c FFF7FEFF 		bl	sscanf
 215              	.LVL8:
 423:main_cm4.c    ****     if (line < 1) { 
 216              		.loc 1 423 0
 217 0010 019B     		ldr	r3, [sp, #4]
 218 0012 002B     		cmp	r3, #0
 219 0014 01DC     		bgt	.L20
 424:main_cm4.c    ****         line = 1 ;
 220              		.loc 1 424 0
 221 0016 0123     		movs	r3, #1
 222 0018 0193     		str	r3, [sp, #4]
 223              	.L20:
 425:main_cm4.c    ****     }
 426:main_cm4.c    ****     if (line > CLCD_NUM_ROWS) {
 224              		.loc 1 426 0
 225 001a 019B     		ldr	r3, [sp, #4]
 226 001c 022B     		cmp	r3, #2
 227 001e 01DD     		ble	.L21
 427:main_cm4.c    ****         line = CLCD_NUM_ROWS ;
 228              		.loc 1 427 0
 229 0020 0223     		movs	r3, #2
 230 0022 0193     		str	r3, [sp, #4]
 231              	.L21:
 428:main_cm4.c    ****     }
 429:main_cm4.c    ****     if (col < 1) {
 232              		.loc 1 429 0
 233 0024 009B     		ldr	r3, [sp]
 234 0026 002B     		cmp	r3, #0
 235 0028 01DC     		bgt	.L22
 430:main_cm4.c    ****         col = 1 ;
 236              		.loc 1 430 0
 237 002a 0123     		movs	r3, #1
 238 002c 0093     		str	r3, [sp]
 239              	.L22:
 431:main_cm4.c    ****     } 
 432:main_cm4.c    ****     if (col > CLCD_NUM_COLS) {
 240              		.loc 1 432 0
 241 002e 009B     		ldr	r3, [sp]
 242 0030 102B     		cmp	r3, #16
ARM GAS  C:\Users\Angel\AppData\Local\Temp\ccvqOPgy.s 			page 13


 243 0032 01DD     		ble	.L23
 433:main_cm4.c    ****         col = CLCD_NUM_COLS ;
 244              		.loc 1 433 0
 245 0034 1023     		movs	r3, #16
 246 0036 0093     		str	r3, [sp]
 247              	.L23:
 434:main_cm4.c    ****     }
 435:main_cm4.c    ****     addr = 0x40 * (line-1) + (col-1) ;
 248              		.loc 1 435 0
 249 0038 0198     		ldr	r0, [sp, #4]
 250 003a 0138     		subs	r0, r0, #1
 251 003c 009B     		ldr	r3, [sp]
 252 003e 013B     		subs	r3, r3, #1
 253 0040 03EB8010 		add	r0, r3, r0, lsl #6
 254              	.LVL9:
 436:main_cm4.c    ****     CLCD_SetDDRAMAddr(addr) ;
 255              		.loc 1 436 0
 256 0044 C0B2     		uxtb	r0, r0
 257              	.LVL10:
 258 0046 FFF7FEFF 		bl	CLCD_SetDDRAMAddr
 259              	.LVL11:
 437:main_cm4.c    **** }
 260              		.loc 1 437 0
 261 004a 03B0     		add	sp, sp, #12
 262              		.cfi_def_cfa_offset 4
 263              		@ sp needed
 264 004c 5DF804FB 		ldr	pc, [sp], #4
 265              	.L26:
 266              		.align	2
 267              	.L25:
 268 0050 10000000 		.word	.LC2
 269 0054 00000000 		.word	str
 270              		.cfi_endproc
 271              	.LFE540:
 272              		.size	do_pos, .-do_pos
 273              		.section	.text.do_SetCGRAMAddr,"ax",%progbits
 274              		.align	2
 275              		.global	do_SetCGRAMAddr
 276              		.thumb
 277              		.thumb_func
 278              		.type	do_SetCGRAMAddr, %function
 279              	do_SetCGRAMAddr:
 280              	.LFB537:
 397:main_cm4.c    ****     int addr ;
 281              		.loc 1 397 0
 282              		.cfi_startproc
 283              		@ args = 0, pretend = 0, frame = 8
 284              		@ frame_needed = 0, uses_anonymous_args = 0
 285 0000 00B5     		push	{lr}
 286              		.cfi_def_cfa_offset 4
 287              		.cfi_offset 14, -4
 288 0002 83B0     		sub	sp, sp, #12
 289              		.cfi_def_cfa_offset 16
 399:main_cm4.c    ****     CLCD_SetCGRAMAddr(addr) ;    
 290              		.loc 1 399 0
 291 0004 01AA     		add	r2, sp, #4
 292 0006 0549     		ldr	r1, .L29
ARM GAS  C:\Users\Angel\AppData\Local\Temp\ccvqOPgy.s 			page 14


 293 0008 0548     		ldr	r0, .L29+4
 294 000a FFF7FEFF 		bl	sscanf
 295              	.LVL12:
 400:main_cm4.c    **** }
 296              		.loc 1 400 0
 297 000e 9DF80400 		ldrb	r0, [sp, #4]	@ zero_extendqisi2
 298 0012 FFF7FEFF 		bl	CLCD_SetCGRAMAddr
 299              	.LVL13:
 401:main_cm4.c    **** 
 300              		.loc 1 401 0
 301 0016 03B0     		add	sp, sp, #12
 302              		.cfi_def_cfa_offset 4
 303              		@ sp needed
 304 0018 5DF804FB 		ldr	pc, [sp], #4
 305              	.L30:
 306              		.align	2
 307              	.L29:
 308 001c 08000000 		.word	.LC1
 309 0020 00000000 		.word	str
 310              		.cfi_endproc
 311              	.LFE537:
 312              		.size	do_SetCGRAMAddr, .-do_SetCGRAMAddr
 313              		.section	.text.do_Command,"ax",%progbits
 314              		.align	2
 315              		.global	do_Command
 316              		.thumb
 317              		.thumb_func
 318              		.type	do_Command, %function
 319              	do_Command:
 320              	.LFB538:
 404:main_cm4.c    ****     int cmd ;
 321              		.loc 1 404 0
 322              		.cfi_startproc
 323              		@ args = 0, pretend = 0, frame = 8
 324              		@ frame_needed = 0, uses_anonymous_args = 0
 325 0000 00B5     		push	{lr}
 326              		.cfi_def_cfa_offset 4
 327              		.cfi_offset 14, -4
 328 0002 83B0     		sub	sp, sp, #12
 329              		.cfi_def_cfa_offset 16
 407:main_cm4.c    ****     CLCD_WriteCommand(cmd) ;
 330              		.loc 1 407 0
 331 0004 01AA     		add	r2, sp, #4
 332 0006 0549     		ldr	r1, .L33
 333 0008 0548     		ldr	r0, .L33+4
 334 000a FFF7FEFF 		bl	sscanf
 335              	.LVL14:
 408:main_cm4.c    **** }
 336              		.loc 1 408 0
 337 000e 9DF80400 		ldrb	r0, [sp, #4]	@ zero_extendqisi2
 338 0012 FFF7FEFF 		bl	CLCD_WriteCommand
 339              	.LVL15:
 409:main_cm4.c    **** 
 340              		.loc 1 409 0
 341 0016 03B0     		add	sp, sp, #12
 342              		.cfi_def_cfa_offset 4
 343              		@ sp needed
ARM GAS  C:\Users\Angel\AppData\Local\Temp\ccvqOPgy.s 			page 15


 344 0018 5DF804FB 		ldr	pc, [sp], #4
 345              	.L34:
 346              		.align	2
 347              	.L33:
 348 001c 08000000 		.word	.LC1
 349 0020 00000000 		.word	str
 350              		.cfi_endproc
 351              	.LFE538:
 352              		.size	do_Command, .-do_Command
 353              		.section	.text.rowselect,"ax",%progbits
 354              		.align	2
 355              		.global	rowselect
 356              		.thumb
 357              		.thumb_func
 358              		.type	rowselect, %function
 359              	rowselect:
 360              	.LFB529:
  30:main_cm4.c    **** switch (in)
 361              		.loc 1 30 0
 362              		.cfi_startproc
 363              		@ args = 0, pretend = 0, frame = 0
 364              		@ frame_needed = 0, uses_anonymous_args = 0
 365              		@ link register save eliminated.
 366              	.LVL16:
  31:main_cm4.c    **** {
 367              		.loc 1 31 0
 368 0000 0F28     		cmp	r0, #15
 369 0002 00F2A980 		bhi	.L35
 370 0006 DFE800F0 		tbb	[pc, r0]
 371              	.L38:
 372 000a 08       		.byte	(.L37-.L38)/2
 373 000b 12       		.byte	(.L39-.L38)/2
 374 000c 1C       		.byte	(.L40-.L38)/2
 375 000d 26       		.byte	(.L41-.L38)/2
 376 000e 30       		.byte	(.L42-.L38)/2
 377 000f 3A       		.byte	(.L43-.L38)/2
 378 0010 44       		.byte	(.L44-.L38)/2
 379 0011 4E       		.byte	(.L45-.L38)/2
 380 0012 58       		.byte	(.L46-.L38)/2
 381 0013 62       		.byte	(.L47-.L38)/2
 382 0014 6C       		.byte	(.L48-.L38)/2
 383 0015 76       		.byte	(.L49-.L38)/2
 384 0016 80       		.byte	(.L50-.L38)/2
 385 0017 8A       		.byte	(.L51-.L38)/2
 386 0018 94       		.byte	(.L52-.L38)/2
 387 0019 9E       		.byte	(.L53-.L38)/2
 388              		.p2align 1
 389              	.L37:
 390              	.LVL17:
 391              	.LBB290:
 392              	.LBB291:
 393              		.file 2 "Generated_Source\\PSoC6\\pdl\\drivers/peripheral/gpio/cy_gpio.h"
   1:Generated_Source\PSoC6\pdl\drivers/peripheral/gpio/cy_gpio.h **** /***************************************************************************//**
   2:Generated_Source\PSoC6\pdl\drivers/peripheral/gpio/cy_gpio.h **** * \file cy_gpio.h
   3:Generated_Source\PSoC6\pdl\drivers/peripheral/gpio/cy_gpio.h **** * \version 1.20
   4:Generated_Source\PSoC6\pdl\drivers/peripheral/gpio/cy_gpio.h **** *
   5:Generated_Source\PSoC6\pdl\drivers/peripheral/gpio/cy_gpio.h **** * Provides an API declaration of the GPIO driver
ARM GAS  C:\Users\Angel\AppData\Local\Temp\ccvqOPgy.s 			page 16


   6:Generated_Source\PSoC6\pdl\drivers/peripheral/gpio/cy_gpio.h **** *
   7:Generated_Source\PSoC6\pdl\drivers/peripheral/gpio/cy_gpio.h **** ********************************************************************************
   8:Generated_Source\PSoC6\pdl\drivers/peripheral/gpio/cy_gpio.h **** * \copyright
   9:Generated_Source\PSoC6\pdl\drivers/peripheral/gpio/cy_gpio.h **** * Copyright 2016-2018, Cypress Semiconductor Corporation. All rights reserved.
  10:Generated_Source\PSoC6\pdl\drivers/peripheral/gpio/cy_gpio.h **** * You may use this file only in accordance with the license, terms, conditions,
  11:Generated_Source\PSoC6\pdl\drivers/peripheral/gpio/cy_gpio.h **** * disclaimers, and limitations in the end user license agreement accompanying
  12:Generated_Source\PSoC6\pdl\drivers/peripheral/gpio/cy_gpio.h **** * the software package with which this file was provided.
  13:Generated_Source\PSoC6\pdl\drivers/peripheral/gpio/cy_gpio.h **** *******************************************************************************/
  14:Generated_Source\PSoC6\pdl\drivers/peripheral/gpio/cy_gpio.h **** 
  15:Generated_Source\PSoC6\pdl\drivers/peripheral/gpio/cy_gpio.h **** /**
  16:Generated_Source\PSoC6\pdl\drivers/peripheral/gpio/cy_gpio.h **** * \addtogroup group_gpio
  17:Generated_Source\PSoC6\pdl\drivers/peripheral/gpio/cy_gpio.h **** * \{
  18:Generated_Source\PSoC6\pdl\drivers/peripheral/gpio/cy_gpio.h **** * The GPIO driver provides an API to configure and access device Input/Output pins.
  19:Generated_Source\PSoC6\pdl\drivers/peripheral/gpio/cy_gpio.h **** *
  20:Generated_Source\PSoC6\pdl\drivers/peripheral/gpio/cy_gpio.h **** * The functions and other declarations used in this driver are in cy_gpio.h. 
  21:Generated_Source\PSoC6\pdl\drivers/peripheral/gpio/cy_gpio.h **** * You can include cy_pdl.h (ModusToolbox only) to get access to all functions 
  22:Generated_Source\PSoC6\pdl\drivers/peripheral/gpio/cy_gpio.h **** * and declarations in the PDL.
  23:Generated_Source\PSoC6\pdl\drivers/peripheral/gpio/cy_gpio.h **** *
  24:Generated_Source\PSoC6\pdl\drivers/peripheral/gpio/cy_gpio.h **** * IO pins include all general purpose types such as GPIO, SIO, HSIO, AUXIO, and
  25:Generated_Source\PSoC6\pdl\drivers/peripheral/gpio/cy_gpio.h **** * their variants.
  26:Generated_Source\PSoC6\pdl\drivers/peripheral/gpio/cy_gpio.h **** *
  27:Generated_Source\PSoC6\pdl\drivers/peripheral/gpio/cy_gpio.h **** * Initialization can be performed either at the port level or by configuring the
  28:Generated_Source\PSoC6\pdl\drivers/peripheral/gpio/cy_gpio.h **** * individual pins. For efficient use of code space, port
  29:Generated_Source\PSoC6\pdl\drivers/peripheral/gpio/cy_gpio.h **** * configuration should be used in the field. Refer to the product device header files 
  30:Generated_Source\PSoC6\pdl\drivers/peripheral/gpio/cy_gpio.h **** * for the list of supported ports and pins.
  31:Generated_Source\PSoC6\pdl\drivers/peripheral/gpio/cy_gpio.h **** * 
  32:Generated_Source\PSoC6\pdl\drivers/peripheral/gpio/cy_gpio.h **** * - Single pin configuration is performed by using \ref Cy_GPIO_Pin_FastInit 
  33:Generated_Source\PSoC6\pdl\drivers/peripheral/gpio/cy_gpio.h **** *   (provide specific values) or \ref Cy_GPIO_Pin_Init (provide a filled
  34:Generated_Source\PSoC6\pdl\drivers/peripheral/gpio/cy_gpio.h **** *   cy_stc_gpio_pin_config_t structure).
  35:Generated_Source\PSoC6\pdl\drivers/peripheral/gpio/cy_gpio.h **** * - An entire port can be configured using \ref Cy_GPIO_Port_Init. Provide a filled 
  36:Generated_Source\PSoC6\pdl\drivers/peripheral/gpio/cy_gpio.h **** *   cy_stc_gpio_prt_config_t structure. The values in the structure are 
  37:Generated_Source\PSoC6\pdl\drivers/peripheral/gpio/cy_gpio.h **** *   bitfields representing the desired value for each pin in the port.
  38:Generated_Source\PSoC6\pdl\drivers/peripheral/gpio/cy_gpio.h **** * - Pin configuration and management is based on the port address and pin number.
  39:Generated_Source\PSoC6\pdl\drivers/peripheral/gpio/cy_gpio.h **** *   \ref Cy_GPIO_PortToAddr function can optionally be used to calculate the port
  40:Generated_Source\PSoC6\pdl\drivers/peripheral/gpio/cy_gpio.h **** *   address from the port number at run-time.
  41:Generated_Source\PSoC6\pdl\drivers/peripheral/gpio/cy_gpio.h **** *
  42:Generated_Source\PSoC6\pdl\drivers/peripheral/gpio/cy_gpio.h **** * Once the pin/port initialization is complete, each pin can be accessed by 
  43:Generated_Source\PSoC6\pdl\drivers/peripheral/gpio/cy_gpio.h **** * specifying the port (GPIO_PRT_Type) and the pin (0-7) in the provided API 
  44:Generated_Source\PSoC6\pdl\drivers/peripheral/gpio/cy_gpio.h **** * functions.
  45:Generated_Source\PSoC6\pdl\drivers/peripheral/gpio/cy_gpio.h **** *
  46:Generated_Source\PSoC6\pdl\drivers/peripheral/gpio/cy_gpio.h **** * \section group_gpio_configuration Configuration Considerations
  47:Generated_Source\PSoC6\pdl\drivers/peripheral/gpio/cy_gpio.h **** *
  48:Generated_Source\PSoC6\pdl\drivers/peripheral/gpio/cy_gpio.h **** * 1. Pin multiplexing is controlled through the High-Speed IO Matrix (HSIOM) selection.
  49:Generated_Source\PSoC6\pdl\drivers/peripheral/gpio/cy_gpio.h **** *    This allows the pin to connect to signal sources/sinks throughout the device,
  50:Generated_Source\PSoC6\pdl\drivers/peripheral/gpio/cy_gpio.h **** *    as defined by the pin HSIOM selection options (en_hsiom_sel_t).
  51:Generated_Source\PSoC6\pdl\drivers/peripheral/gpio/cy_gpio.h **** * 2. All pins are initialized to High-Z drive mode with HSIOM connected to CPU (SW
  52:Generated_Source\PSoC6\pdl\drivers/peripheral/gpio/cy_gpio.h **** *    control digital pin only) at Power-On-Reset(POR).
  53:Generated_Source\PSoC6\pdl\drivers/peripheral/gpio/cy_gpio.h **** * 3. Some API functions perform read-modify-write operations on shared port
  54:Generated_Source\PSoC6\pdl\drivers/peripheral/gpio/cy_gpio.h **** *    registers. These functions are not thread safe and care must be taken when
  55:Generated_Source\PSoC6\pdl\drivers/peripheral/gpio/cy_gpio.h **** *    called by the application.
  56:Generated_Source\PSoC6\pdl\drivers/peripheral/gpio/cy_gpio.h **** * 4. Digital input buffer provides a high-impedance buffer for the external 
  57:Generated_Source\PSoC6\pdl\drivers/peripheral/gpio/cy_gpio.h **** *    digital input. The input buffer is connected to the HSIOM for routing to 
  58:Generated_Source\PSoC6\pdl\drivers/peripheral/gpio/cy_gpio.h **** *    the CPU port registers and selected peripheral. Enabling the input 
  59:Generated_Source\PSoC6\pdl\drivers/peripheral/gpio/cy_gpio.h **** *    buffer provides possibility to read the pin state via the CPU.
  60:Generated_Source\PSoC6\pdl\drivers/peripheral/gpio/cy_gpio.h **** *    If pin is connected to an analog signal, the input buffer should be 
  61:Generated_Source\PSoC6\pdl\drivers/peripheral/gpio/cy_gpio.h **** *    disabled to avoid crowbar currents. For more information refer to device 
  62:Generated_Source\PSoC6\pdl\drivers/peripheral/gpio/cy_gpio.h **** *    TRM and the device datasheet.
ARM GAS  C:\Users\Angel\AppData\Local\Temp\ccvqOPgy.s 			page 17


  63:Generated_Source\PSoC6\pdl\drivers/peripheral/gpio/cy_gpio.h **** *
  64:Generated_Source\PSoC6\pdl\drivers/peripheral/gpio/cy_gpio.h **** * Multiple pins on a port can be updated using direct port register writes with an
  65:Generated_Source\PSoC6\pdl\drivers/peripheral/gpio/cy_gpio.h **** * appropriate port mask. An example is shown below, highlighting the different ways of 
  66:Generated_Source\PSoC6\pdl\drivers/peripheral/gpio/cy_gpio.h **** * configuring Port 1 pins using:
  67:Generated_Source\PSoC6\pdl\drivers/peripheral/gpio/cy_gpio.h **** * 
  68:Generated_Source\PSoC6\pdl\drivers/peripheral/gpio/cy_gpio.h **** * - Port output data register
  69:Generated_Source\PSoC6\pdl\drivers/peripheral/gpio/cy_gpio.h **** * - Port output data set register
  70:Generated_Source\PSoC6\pdl\drivers/peripheral/gpio/cy_gpio.h **** * - Port output data clear register
  71:Generated_Source\PSoC6\pdl\drivers/peripheral/gpio/cy_gpio.h **** *
  72:Generated_Source\PSoC6\pdl\drivers/peripheral/gpio/cy_gpio.h **** * \snippet gpio/gpio_v1_10_sut_01.cydsn/main_cm4.c Cy_GPIO_Snippet
  73:Generated_Source\PSoC6\pdl\drivers/peripheral/gpio/cy_gpio.h **** *
  74:Generated_Source\PSoC6\pdl\drivers/peripheral/gpio/cy_gpio.h **** * \section group_gpio_more_information More Information
  75:Generated_Source\PSoC6\pdl\drivers/peripheral/gpio/cy_gpio.h **** *
  76:Generated_Source\PSoC6\pdl\drivers/peripheral/gpio/cy_gpio.h **** * Refer to the technical reference manual (TRM) and the device datasheet.
  77:Generated_Source\PSoC6\pdl\drivers/peripheral/gpio/cy_gpio.h **** *
  78:Generated_Source\PSoC6\pdl\drivers/peripheral/gpio/cy_gpio.h **** * \section group_gpio_MISRA MISRA-C Compliance
  79:Generated_Source\PSoC6\pdl\drivers/peripheral/gpio/cy_gpio.h **** * The GPIO driver has the following specific deviations:
  80:Generated_Source\PSoC6\pdl\drivers/peripheral/gpio/cy_gpio.h **** *
  81:Generated_Source\PSoC6\pdl\drivers/peripheral/gpio/cy_gpio.h **** * <table class="doxtable">
  82:Generated_Source\PSoC6\pdl\drivers/peripheral/gpio/cy_gpio.h **** *   <tr>
  83:Generated_Source\PSoC6\pdl\drivers/peripheral/gpio/cy_gpio.h **** *     <th>MISRA Rule</th>
  84:Generated_Source\PSoC6\pdl\drivers/peripheral/gpio/cy_gpio.h **** *     <th>Rule Class (Required/Advisory)</th>
  85:Generated_Source\PSoC6\pdl\drivers/peripheral/gpio/cy_gpio.h **** *     <th>Rule Description</th>
  86:Generated_Source\PSoC6\pdl\drivers/peripheral/gpio/cy_gpio.h **** *     <th>Description of Deviation(s)</th>
  87:Generated_Source\PSoC6\pdl\drivers/peripheral/gpio/cy_gpio.h **** *   </tr>
  88:Generated_Source\PSoC6\pdl\drivers/peripheral/gpio/cy_gpio.h **** *   <tr>
  89:Generated_Source\PSoC6\pdl\drivers/peripheral/gpio/cy_gpio.h **** *     <td>11.4</td>
  90:Generated_Source\PSoC6\pdl\drivers/peripheral/gpio/cy_gpio.h **** *     <td>A</td>
  91:Generated_Source\PSoC6\pdl\drivers/peripheral/gpio/cy_gpio.h **** *     <td>A cast should not be performed between a pointer to object type and
  92:Generated_Source\PSoC6\pdl\drivers/peripheral/gpio/cy_gpio.h **** *         a different pointer to object type.</td>
  93:Generated_Source\PSoC6\pdl\drivers/peripheral/gpio/cy_gpio.h **** *     <td> This code is safe because the elements of both GPIO_PRT_V1_Type and GPIO_PRT_V2_Type 
  94:Generated_Source\PSoC6\pdl\drivers/peripheral/gpio/cy_gpio.h **** *          types have identical alignment.</td>
  95:Generated_Source\PSoC6\pdl\drivers/peripheral/gpio/cy_gpio.h **** *   </tr>
  96:Generated_Source\PSoC6\pdl\drivers/peripheral/gpio/cy_gpio.h **** *   <tr>
  97:Generated_Source\PSoC6\pdl\drivers/peripheral/gpio/cy_gpio.h **** *     <td>16.7</td>
  98:Generated_Source\PSoC6\pdl\drivers/peripheral/gpio/cy_gpio.h **** *     <td>A</td>
  99:Generated_Source\PSoC6\pdl\drivers/peripheral/gpio/cy_gpio.h **** *     <td>A pointer parameter in a function prototype should be declared as pointer 
 100:Generated_Source\PSoC6\pdl\drivers/peripheral/gpio/cy_gpio.h **** *         to const if the pointer is not used to modify the addressed object.</td>
 101:Generated_Source\PSoC6\pdl\drivers/peripheral/gpio/cy_gpio.h **** *     <td>The objects pointed to by the base addresses of the GPIO port are not always modified.
 102:Generated_Source\PSoC6\pdl\drivers/peripheral/gpio/cy_gpio.h **** *         While a const qualifier can be used in select scenarios, it brings little benefit
 103:Generated_Source\PSoC6\pdl\drivers/peripheral/gpio/cy_gpio.h **** *         in adding this to the affected functions. </td>
 104:Generated_Source\PSoC6\pdl\drivers/peripheral/gpio/cy_gpio.h **** *   </tr>
 105:Generated_Source\PSoC6\pdl\drivers/peripheral/gpio/cy_gpio.h **** * </table>
 106:Generated_Source\PSoC6\pdl\drivers/peripheral/gpio/cy_gpio.h **** *
 107:Generated_Source\PSoC6\pdl\drivers/peripheral/gpio/cy_gpio.h **** * \section group_gpio_changelog Changelog
 108:Generated_Source\PSoC6\pdl\drivers/peripheral/gpio/cy_gpio.h **** * <table class="doxtable">
 109:Generated_Source\PSoC6\pdl\drivers/peripheral/gpio/cy_gpio.h **** *   <tr><th>Version</th><th>Changes</th><th>Reason for Change</th></tr>
 110:Generated_Source\PSoC6\pdl\drivers/peripheral/gpio/cy_gpio.h **** *   <tr>
 111:Generated_Source\PSoC6\pdl\drivers/peripheral/gpio/cy_gpio.h **** *     <td rowspan="3">1.20</td>
 112:Generated_Source\PSoC6\pdl\drivers/peripheral/gpio/cy_gpio.h **** *     <td>Flattened the organization of the driver source code into the single source directory and
 113:Generated_Source\PSoC6\pdl\drivers/peripheral/gpio/cy_gpio.h **** *     <td>Driver library directory-structure simplification.</td>
 114:Generated_Source\PSoC6\pdl\drivers/peripheral/gpio/cy_gpio.h **** *   </tr>
 115:Generated_Source\PSoC6\pdl\drivers/peripheral/gpio/cy_gpio.h **** *   <tr>
 116:Generated_Source\PSoC6\pdl\drivers/peripheral/gpio/cy_gpio.h **** *     <td>Added the functions for configuring the AMux bus splitter switch cells:
 117:Generated_Source\PSoC6\pdl\drivers/peripheral/gpio/cy_gpio.h **** *     - \ref Cy_GPIO_SetAmuxSplit
 118:Generated_Source\PSoC6\pdl\drivers/peripheral/gpio/cy_gpio.h **** *     - \ref Cy_GPIO_GetAmuxSplit
 119:Generated_Source\PSoC6\pdl\drivers/peripheral/gpio/cy_gpio.h **** *     </td>
ARM GAS  C:\Users\Angel\AppData\Local\Temp\ccvqOPgy.s 			page 18


 120:Generated_Source\PSoC6\pdl\drivers/peripheral/gpio/cy_gpio.h **** *     <td>Added a new functionality related to AMux bus.</td>
 121:Generated_Source\PSoC6\pdl\drivers/peripheral/gpio/cy_gpio.h **** *   </tr>
 122:Generated_Source\PSoC6\pdl\drivers/peripheral/gpio/cy_gpio.h **** *   <tr>
 123:Generated_Source\PSoC6\pdl\drivers/peripheral/gpio/cy_gpio.h **** *     <td>Added register access layer. Use register access macros instead
 124:Generated_Source\PSoC6\pdl\drivers/peripheral/gpio/cy_gpio.h **** *         of direct register access using dereferenced pointers.</td>
 125:Generated_Source\PSoC6\pdl\drivers/peripheral/gpio/cy_gpio.h **** *     <td>Makes register access device-independent, so that the PDL does 
 126:Generated_Source\PSoC6\pdl\drivers/peripheral/gpio/cy_gpio.h **** *         not need to be recompiled for each supported part number.</td>
 127:Generated_Source\PSoC6\pdl\drivers/peripheral/gpio/cy_gpio.h **** *   </tr>
 128:Generated_Source\PSoC6\pdl\drivers/peripheral/gpio/cy_gpio.h **** *   <tr>
 129:Generated_Source\PSoC6\pdl\drivers/peripheral/gpio/cy_gpio.h **** *     <td>1.10.1</td>
 130:Generated_Source\PSoC6\pdl\drivers/peripheral/gpio/cy_gpio.h **** *     <td>Updated description for the functions: \ref Cy_GPIO_GetInterruptStatus, 
 131:Generated_Source\PSoC6\pdl\drivers/peripheral/gpio/cy_gpio.h **** *         \ref Cy_GPIO_GetInterruptMask, \ref Cy_GPIO_GetInterruptStatusMasked.
 132:Generated_Source\PSoC6\pdl\drivers/peripheral/gpio/cy_gpio.h **** *
 133:Generated_Source\PSoC6\pdl\drivers/peripheral/gpio/cy_gpio.h **** *         Minor documentation edits.
 134:Generated_Source\PSoC6\pdl\drivers/peripheral/gpio/cy_gpio.h **** *     </td>
 135:Generated_Source\PSoC6\pdl\drivers/peripheral/gpio/cy_gpio.h **** *     <td>Documentation update and clarification</td>
 136:Generated_Source\PSoC6\pdl\drivers/peripheral/gpio/cy_gpio.h **** *   </tr>
 137:Generated_Source\PSoC6\pdl\drivers/peripheral/gpio/cy_gpio.h **** *   <tr>
 138:Generated_Source\PSoC6\pdl\drivers/peripheral/gpio/cy_gpio.h **** *     <td>1.10</td>
 139:Generated_Source\PSoC6\pdl\drivers/peripheral/gpio/cy_gpio.h **** *     <td>Added input parameter validation to the API functions</td>
 140:Generated_Source\PSoC6\pdl\drivers/peripheral/gpio/cy_gpio.h **** *     <td></td>
 141:Generated_Source\PSoC6\pdl\drivers/peripheral/gpio/cy_gpio.h **** *   </tr>
 142:Generated_Source\PSoC6\pdl\drivers/peripheral/gpio/cy_gpio.h **** *   <tr>
 143:Generated_Source\PSoC6\pdl\drivers/peripheral/gpio/cy_gpio.h **** *     <td>1.0</td>
 144:Generated_Source\PSoC6\pdl\drivers/peripheral/gpio/cy_gpio.h **** *     <td>Initial version</td>
 145:Generated_Source\PSoC6\pdl\drivers/peripheral/gpio/cy_gpio.h **** *     <td></td>
 146:Generated_Source\PSoC6\pdl\drivers/peripheral/gpio/cy_gpio.h **** *   </tr>
 147:Generated_Source\PSoC6\pdl\drivers/peripheral/gpio/cy_gpio.h **** * </table>
 148:Generated_Source\PSoC6\pdl\drivers/peripheral/gpio/cy_gpio.h **** *
 149:Generated_Source\PSoC6\pdl\drivers/peripheral/gpio/cy_gpio.h **** * \defgroup group_gpio_macros Macros
 150:Generated_Source\PSoC6\pdl\drivers/peripheral/gpio/cy_gpio.h **** * \defgroup group_gpio_functions Functions
 151:Generated_Source\PSoC6\pdl\drivers/peripheral/gpio/cy_gpio.h **** * \{
 152:Generated_Source\PSoC6\pdl\drivers/peripheral/gpio/cy_gpio.h **** *   \defgroup group_gpio_functions_init       Initialization Functions
 153:Generated_Source\PSoC6\pdl\drivers/peripheral/gpio/cy_gpio.h **** *   \defgroup group_gpio_functions_gpio       GPIO Functions
 154:Generated_Source\PSoC6\pdl\drivers/peripheral/gpio/cy_gpio.h **** *   \defgroup group_gpio_functions_sio        SIO Functions
 155:Generated_Source\PSoC6\pdl\drivers/peripheral/gpio/cy_gpio.h **** *   \defgroup group_gpio_functions_interrupt  Port Interrupt Functions
 156:Generated_Source\PSoC6\pdl\drivers/peripheral/gpio/cy_gpio.h **** * \}
 157:Generated_Source\PSoC6\pdl\drivers/peripheral/gpio/cy_gpio.h **** * \defgroup group_gpio_data_structures Data Structures
 158:Generated_Source\PSoC6\pdl\drivers/peripheral/gpio/cy_gpio.h **** * \defgroup group_gpio_enums Enumerated Types
 159:Generated_Source\PSoC6\pdl\drivers/peripheral/gpio/cy_gpio.h **** */
 160:Generated_Source\PSoC6\pdl\drivers/peripheral/gpio/cy_gpio.h **** 
 161:Generated_Source\PSoC6\pdl\drivers/peripheral/gpio/cy_gpio.h **** #if !defined(CY_GPIO_H)
 162:Generated_Source\PSoC6\pdl\drivers/peripheral/gpio/cy_gpio.h **** #define CY_GPIO_H
 163:Generated_Source\PSoC6\pdl\drivers/peripheral/gpio/cy_gpio.h **** 
 164:Generated_Source\PSoC6\pdl\drivers/peripheral/gpio/cy_gpio.h **** #include <stddef.h>
 165:Generated_Source\PSoC6\pdl\drivers/peripheral/gpio/cy_gpio.h **** #include "cy_device.h"
 166:Generated_Source\PSoC6\pdl\drivers/peripheral/gpio/cy_gpio.h **** #include "cy_device_headers.h"
 167:Generated_Source\PSoC6\pdl\drivers/peripheral/gpio/cy_gpio.h **** #include "cy_syslib.h"
 168:Generated_Source\PSoC6\pdl\drivers/peripheral/gpio/cy_gpio.h **** 
 169:Generated_Source\PSoC6\pdl\drivers/peripheral/gpio/cy_gpio.h **** #if defined(__cplusplus)
 170:Generated_Source\PSoC6\pdl\drivers/peripheral/gpio/cy_gpio.h **** extern "C" {
 171:Generated_Source\PSoC6\pdl\drivers/peripheral/gpio/cy_gpio.h **** #endif
 172:Generated_Source\PSoC6\pdl\drivers/peripheral/gpio/cy_gpio.h **** 
 173:Generated_Source\PSoC6\pdl\drivers/peripheral/gpio/cy_gpio.h **** /** \addtogroup group_gpio_macros
 174:Generated_Source\PSoC6\pdl\drivers/peripheral/gpio/cy_gpio.h **** * \{
 175:Generated_Source\PSoC6\pdl\drivers/peripheral/gpio/cy_gpio.h **** */
 176:Generated_Source\PSoC6\pdl\drivers/peripheral/gpio/cy_gpio.h **** 
ARM GAS  C:\Users\Angel\AppData\Local\Temp\ccvqOPgy.s 			page 19


 177:Generated_Source\PSoC6\pdl\drivers/peripheral/gpio/cy_gpio.h **** /** Driver major version */
 178:Generated_Source\PSoC6\pdl\drivers/peripheral/gpio/cy_gpio.h **** #define CY_GPIO_DRV_VERSION_MAJOR       1
 179:Generated_Source\PSoC6\pdl\drivers/peripheral/gpio/cy_gpio.h **** 
 180:Generated_Source\PSoC6\pdl\drivers/peripheral/gpio/cy_gpio.h **** /** Driver minor version */
 181:Generated_Source\PSoC6\pdl\drivers/peripheral/gpio/cy_gpio.h **** #define CY_GPIO_DRV_VERSION_MINOR       20
 182:Generated_Source\PSoC6\pdl\drivers/peripheral/gpio/cy_gpio.h **** 
 183:Generated_Source\PSoC6\pdl\drivers/peripheral/gpio/cy_gpio.h **** /** GPIO driver ID */
 184:Generated_Source\PSoC6\pdl\drivers/peripheral/gpio/cy_gpio.h **** #define CY_GPIO_ID CY_PDL_DRV_ID(0x16U)
 185:Generated_Source\PSoC6\pdl\drivers/peripheral/gpio/cy_gpio.h **** 
 186:Generated_Source\PSoC6\pdl\drivers/peripheral/gpio/cy_gpio.h **** /** \} group_gpio_macros */
 187:Generated_Source\PSoC6\pdl\drivers/peripheral/gpio/cy_gpio.h **** 
 188:Generated_Source\PSoC6\pdl\drivers/peripheral/gpio/cy_gpio.h **** 
 189:Generated_Source\PSoC6\pdl\drivers/peripheral/gpio/cy_gpio.h **** /***************************************
 190:Generated_Source\PSoC6\pdl\drivers/peripheral/gpio/cy_gpio.h **** *       Enumerations
 191:Generated_Source\PSoC6\pdl\drivers/peripheral/gpio/cy_gpio.h **** ***************************************/
 192:Generated_Source\PSoC6\pdl\drivers/peripheral/gpio/cy_gpio.h **** /**
 193:Generated_Source\PSoC6\pdl\drivers/peripheral/gpio/cy_gpio.h **** * \addtogroup group_gpio_enums
 194:Generated_Source\PSoC6\pdl\drivers/peripheral/gpio/cy_gpio.h **** * \{
 195:Generated_Source\PSoC6\pdl\drivers/peripheral/gpio/cy_gpio.h **** */
 196:Generated_Source\PSoC6\pdl\drivers/peripheral/gpio/cy_gpio.h **** 
 197:Generated_Source\PSoC6\pdl\drivers/peripheral/gpio/cy_gpio.h **** /** GPIO Driver error codes */
 198:Generated_Source\PSoC6\pdl\drivers/peripheral/gpio/cy_gpio.h **** typedef enum 
 199:Generated_Source\PSoC6\pdl\drivers/peripheral/gpio/cy_gpio.h **** {
 200:Generated_Source\PSoC6\pdl\drivers/peripheral/gpio/cy_gpio.h ****     CY_GPIO_SUCCESS   = 0x00U,                                    /**< Returned successful */
 201:Generated_Source\PSoC6\pdl\drivers/peripheral/gpio/cy_gpio.h ****     CY_GPIO_BAD_PARAM = CY_GPIO_ID | CY_PDL_STATUS_ERROR | 0x01U, /**< Bad parameter was passed */
 202:Generated_Source\PSoC6\pdl\drivers/peripheral/gpio/cy_gpio.h **** } cy_en_gpio_status_t;
 203:Generated_Source\PSoC6\pdl\drivers/peripheral/gpio/cy_gpio.h **** 
 204:Generated_Source\PSoC6\pdl\drivers/peripheral/gpio/cy_gpio.h **** /** AMux switch open/close config */
 205:Generated_Source\PSoC6\pdl\drivers/peripheral/gpio/cy_gpio.h **** typedef enum
 206:Generated_Source\PSoC6\pdl\drivers/peripheral/gpio/cy_gpio.h **** {
 207:Generated_Source\PSoC6\pdl\drivers/peripheral/gpio/cy_gpio.h ****     CY_GPIO_AMUX_OPENALL,   /**< Open ground switch. Open right switch. Open left switch */
 208:Generated_Source\PSoC6\pdl\drivers/peripheral/gpio/cy_gpio.h ****     CY_GPIO_AMUX_L,         /**< Open ground switch. Open right switch. Close left switch */
 209:Generated_Source\PSoC6\pdl\drivers/peripheral/gpio/cy_gpio.h ****     CY_GPIO_AMUX_R,         /**< Open ground switch. Close right switch. Open left switch */
 210:Generated_Source\PSoC6\pdl\drivers/peripheral/gpio/cy_gpio.h ****     CY_GPIO_AMUX_LR,        /**< Open ground switch. Close right switch. Close left switch */
 211:Generated_Source\PSoC6\pdl\drivers/peripheral/gpio/cy_gpio.h ****     CY_GPIO_AMUX_G,         /**< Close ground switch. Open right switch. Open left switch */
 212:Generated_Source\PSoC6\pdl\drivers/peripheral/gpio/cy_gpio.h ****     CY_GPIO_AMUX_GL,        /**< Close ground switch. Open right switch. Close left switch */
 213:Generated_Source\PSoC6\pdl\drivers/peripheral/gpio/cy_gpio.h ****     CY_GPIO_AMUX_GR,        /**< Close ground switch. Close right switch. Open left switch */
 214:Generated_Source\PSoC6\pdl\drivers/peripheral/gpio/cy_gpio.h ****     CY_GPIO_AMUX_GLR,       /**< Close ground switch. Close right switch. Close left switch */
 215:Generated_Source\PSoC6\pdl\drivers/peripheral/gpio/cy_gpio.h **** }cy_en_gpio_amuxconnect_t;
 216:Generated_Source\PSoC6\pdl\drivers/peripheral/gpio/cy_gpio.h **** 
 217:Generated_Source\PSoC6\pdl\drivers/peripheral/gpio/cy_gpio.h **** /**
 218:Generated_Source\PSoC6\pdl\drivers/peripheral/gpio/cy_gpio.h **** * AMux Bus selection
 219:Generated_Source\PSoC6\pdl\drivers/peripheral/gpio/cy_gpio.h **** */
 220:Generated_Source\PSoC6\pdl\drivers/peripheral/gpio/cy_gpio.h **** typedef enum
 221:Generated_Source\PSoC6\pdl\drivers/peripheral/gpio/cy_gpio.h **** {
 222:Generated_Source\PSoC6\pdl\drivers/peripheral/gpio/cy_gpio.h ****     CY_GPIO_AMUXBUSA,       /**< AMuxBus A */
 223:Generated_Source\PSoC6\pdl\drivers/peripheral/gpio/cy_gpio.h ****     CY_GPIO_AMUXBUSB        /**< AMuxBus B */
 224:Generated_Source\PSoC6\pdl\drivers/peripheral/gpio/cy_gpio.h **** }cy_en_gpio_amuxselect_t;
 225:Generated_Source\PSoC6\pdl\drivers/peripheral/gpio/cy_gpio.h **** 
 226:Generated_Source\PSoC6\pdl\drivers/peripheral/gpio/cy_gpio.h **** /** \} group_gpio_enums */
 227:Generated_Source\PSoC6\pdl\drivers/peripheral/gpio/cy_gpio.h **** 
 228:Generated_Source\PSoC6\pdl\drivers/peripheral/gpio/cy_gpio.h **** 
 229:Generated_Source\PSoC6\pdl\drivers/peripheral/gpio/cy_gpio.h **** /***************************************
 230:Generated_Source\PSoC6\pdl\drivers/peripheral/gpio/cy_gpio.h **** *       Configuration Structures
 231:Generated_Source\PSoC6\pdl\drivers/peripheral/gpio/cy_gpio.h **** ***************************************/
 232:Generated_Source\PSoC6\pdl\drivers/peripheral/gpio/cy_gpio.h **** 
 233:Generated_Source\PSoC6\pdl\drivers/peripheral/gpio/cy_gpio.h **** /**
ARM GAS  C:\Users\Angel\AppData\Local\Temp\ccvqOPgy.s 			page 20


 234:Generated_Source\PSoC6\pdl\drivers/peripheral/gpio/cy_gpio.h **** * \addtogroup group_gpio_data_structures
 235:Generated_Source\PSoC6\pdl\drivers/peripheral/gpio/cy_gpio.h **** * \{
 236:Generated_Source\PSoC6\pdl\drivers/peripheral/gpio/cy_gpio.h **** */
 237:Generated_Source\PSoC6\pdl\drivers/peripheral/gpio/cy_gpio.h **** 
 238:Generated_Source\PSoC6\pdl\drivers/peripheral/gpio/cy_gpio.h **** /** This structure is used to initialize a port of GPIO pins */
 239:Generated_Source\PSoC6\pdl\drivers/peripheral/gpio/cy_gpio.h **** typedef struct 
 240:Generated_Source\PSoC6\pdl\drivers/peripheral/gpio/cy_gpio.h **** {
 241:Generated_Source\PSoC6\pdl\drivers/peripheral/gpio/cy_gpio.h ****     uint32_t out;           /**< Initial output data for the IO pins in the port */
 242:Generated_Source\PSoC6\pdl\drivers/peripheral/gpio/cy_gpio.h ****     uint32_t intrMask;      /**< Interrupt enable mask for the port interrupt */
 243:Generated_Source\PSoC6\pdl\drivers/peripheral/gpio/cy_gpio.h ****     uint32_t intrCfg;       /**< Port pin interrupt edge detection configuration */
 244:Generated_Source\PSoC6\pdl\drivers/peripheral/gpio/cy_gpio.h ****     uint32_t cfg;           /**< Port pin drive modes and input buffer enable configuration */
 245:Generated_Source\PSoC6\pdl\drivers/peripheral/gpio/cy_gpio.h ****     uint32_t cfgIn;         /**< Port pin input buffer configuration */
 246:Generated_Source\PSoC6\pdl\drivers/peripheral/gpio/cy_gpio.h ****     uint32_t cfgOut;        /**< Port pin output buffer configuration */
 247:Generated_Source\PSoC6\pdl\drivers/peripheral/gpio/cy_gpio.h ****     uint32_t cfgSIO;        /**< Port SIO pins configuration */
 248:Generated_Source\PSoC6\pdl\drivers/peripheral/gpio/cy_gpio.h ****     uint32_t sel0Active;    /**< HSIOM selection for port pins 0,1,2,3 */
 249:Generated_Source\PSoC6\pdl\drivers/peripheral/gpio/cy_gpio.h ****     uint32_t sel1Active;    /**< HSIOM selection for port pins 4,5,6,7 */
 250:Generated_Source\PSoC6\pdl\drivers/peripheral/gpio/cy_gpio.h **** } cy_stc_gpio_prt_config_t;
 251:Generated_Source\PSoC6\pdl\drivers/peripheral/gpio/cy_gpio.h **** 
 252:Generated_Source\PSoC6\pdl\drivers/peripheral/gpio/cy_gpio.h **** /** This structure is used to initialize a single GPIO pin */
 253:Generated_Source\PSoC6\pdl\drivers/peripheral/gpio/cy_gpio.h **** typedef struct
 254:Generated_Source\PSoC6\pdl\drivers/peripheral/gpio/cy_gpio.h **** {
 255:Generated_Source\PSoC6\pdl\drivers/peripheral/gpio/cy_gpio.h ****     uint32_t outVal;         /**< Pin output state */
 256:Generated_Source\PSoC6\pdl\drivers/peripheral/gpio/cy_gpio.h ****     uint32_t driveMode;      /**< Drive mode */
 257:Generated_Source\PSoC6\pdl\drivers/peripheral/gpio/cy_gpio.h ****     en_hsiom_sel_t hsiom;    /**< HSIOM selection */
 258:Generated_Source\PSoC6\pdl\drivers/peripheral/gpio/cy_gpio.h ****     uint32_t intEdge;        /**< Interrupt Edge type */
 259:Generated_Source\PSoC6\pdl\drivers/peripheral/gpio/cy_gpio.h ****     uint32_t intMask;        /**< Interrupt enable mask */
 260:Generated_Source\PSoC6\pdl\drivers/peripheral/gpio/cy_gpio.h ****     uint32_t vtrip;          /**< Input buffer voltage trip type */
 261:Generated_Source\PSoC6\pdl\drivers/peripheral/gpio/cy_gpio.h ****     uint32_t slewRate;       /**< Output buffer slew rate */
 262:Generated_Source\PSoC6\pdl\drivers/peripheral/gpio/cy_gpio.h ****     uint32_t driveSel;       /**< Drive strength */
 263:Generated_Source\PSoC6\pdl\drivers/peripheral/gpio/cy_gpio.h ****     uint32_t vregEn;         /**< SIO pair output buffer mode */
 264:Generated_Source\PSoC6\pdl\drivers/peripheral/gpio/cy_gpio.h ****     uint32_t ibufMode;       /**< SIO pair input buffer mode */
 265:Generated_Source\PSoC6\pdl\drivers/peripheral/gpio/cy_gpio.h ****     uint32_t vtripSel;       /**< SIO pair input buffer trip point */
 266:Generated_Source\PSoC6\pdl\drivers/peripheral/gpio/cy_gpio.h ****     uint32_t vrefSel;        /**< SIO pair reference voltage for input buffer trip point */
 267:Generated_Source\PSoC6\pdl\drivers/peripheral/gpio/cy_gpio.h ****     uint32_t vohSel;         /**< SIO pair regulated voltage output level */
 268:Generated_Source\PSoC6\pdl\drivers/peripheral/gpio/cy_gpio.h **** } cy_stc_gpio_pin_config_t;
 269:Generated_Source\PSoC6\pdl\drivers/peripheral/gpio/cy_gpio.h **** 
 270:Generated_Source\PSoC6\pdl\drivers/peripheral/gpio/cy_gpio.h **** /** \} group_gpio_data_structures */
 271:Generated_Source\PSoC6\pdl\drivers/peripheral/gpio/cy_gpio.h **** 
 272:Generated_Source\PSoC6\pdl\drivers/peripheral/gpio/cy_gpio.h **** /***************************************
 273:Generated_Source\PSoC6\pdl\drivers/peripheral/gpio/cy_gpio.h **** *        Constants
 274:Generated_Source\PSoC6\pdl\drivers/peripheral/gpio/cy_gpio.h **** ***************************************/
 275:Generated_Source\PSoC6\pdl\drivers/peripheral/gpio/cy_gpio.h **** 
 276:Generated_Source\PSoC6\pdl\drivers/peripheral/gpio/cy_gpio.h **** /** \cond INTERNAL */
 277:Generated_Source\PSoC6\pdl\drivers/peripheral/gpio/cy_gpio.h **** 
 278:Generated_Source\PSoC6\pdl\drivers/peripheral/gpio/cy_gpio.h **** /* General Constants */
 279:Generated_Source\PSoC6\pdl\drivers/peripheral/gpio/cy_gpio.h **** #define CY_GPIO_PRT_HALF                       (4UL)      /**< Half-way point of a GPIO port */
 280:Generated_Source\PSoC6\pdl\drivers/peripheral/gpio/cy_gpio.h **** #define CY_GPIO_PRT_DEINIT                     (0UL)      /**< De-init value for port registers */
 281:Generated_Source\PSoC6\pdl\drivers/peripheral/gpio/cy_gpio.h **** 
 282:Generated_Source\PSoC6\pdl\drivers/peripheral/gpio/cy_gpio.h **** /* GPIO Masks */
 283:Generated_Source\PSoC6\pdl\drivers/peripheral/gpio/cy_gpio.h **** #define CY_GPIO_HSIOM_MASK                     (0x1FUL)   /**< HSIOM selection mask */
 284:Generated_Source\PSoC6\pdl\drivers/peripheral/gpio/cy_gpio.h **** #define CY_GPIO_OUT_MASK                       (0x01UL)   /**< Single pin mask for OUT register */
 285:Generated_Source\PSoC6\pdl\drivers/peripheral/gpio/cy_gpio.h **** #define CY_GPIO_IN_MASK                        (0x01UL)   /**< Single pin mask for IN register */
 286:Generated_Source\PSoC6\pdl\drivers/peripheral/gpio/cy_gpio.h **** #define CY_GPIO_CFG_DM_MASK                    (0x0FUL)   /**< Single pin mask for drive mode in CF
 287:Generated_Source\PSoC6\pdl\drivers/peripheral/gpio/cy_gpio.h **** #define CY_GPIO_CFG_IN_VTRIP_SEL_MASK          (0x01UL)   /**< Single pin mask for VTRIP selection 
 288:Generated_Source\PSoC6\pdl\drivers/peripheral/gpio/cy_gpio.h **** #define CY_GPIO_CFG_OUT_SLOW_MASK              (0x01UL)   /**< Single pin mask for slew rate in CFG
 289:Generated_Source\PSoC6\pdl\drivers/peripheral/gpio/cy_gpio.h **** #define CY_GPIO_CFG_OUT_DRIVE_SEL_MASK         (0x03UL)   /**< Single pin mask for drive strength i
 290:Generated_Source\PSoC6\pdl\drivers/peripheral/gpio/cy_gpio.h **** #define CY_GPIO_INTR_STATUS_MASK               (0x01UL)   /**< Single pin mask for interrupt status
ARM GAS  C:\Users\Angel\AppData\Local\Temp\ccvqOPgy.s 			page 21


 291:Generated_Source\PSoC6\pdl\drivers/peripheral/gpio/cy_gpio.h **** #define CY_GPIO_INTR_EN_MASK                   (0x01UL)   /**< Single pin mask for interrupt status
 292:Generated_Source\PSoC6\pdl\drivers/peripheral/gpio/cy_gpio.h **** #define CY_GPIO_INTR_MASKED_MASK               (0x01UL)   /**< Single pin mask for masked interrupt
 293:Generated_Source\PSoC6\pdl\drivers/peripheral/gpio/cy_gpio.h **** #define CY_GPIO_INTR_SET_MASK                  (0x01UL)   /**< Single pin mask for setting the inte
 294:Generated_Source\PSoC6\pdl\drivers/peripheral/gpio/cy_gpio.h **** #define CY_GPIO_INTR_EDGE_MASK                 (0x03UL)   /**< Single pin mask for interrupt edge t
 295:Generated_Source\PSoC6\pdl\drivers/peripheral/gpio/cy_gpio.h **** #define CY_GPIO_INTR_FLT_EDGE_MASK             (0x07UL)   /**< Single pin mask for setting filtered
 296:Generated_Source\PSoC6\pdl\drivers/peripheral/gpio/cy_gpio.h **** 
 297:Generated_Source\PSoC6\pdl\drivers/peripheral/gpio/cy_gpio.h **** /* SIO Masks */
 298:Generated_Source\PSoC6\pdl\drivers/peripheral/gpio/cy_gpio.h **** #define CY_GPIO_VREG_EN_MASK                   (0x01UL)   /**< Single SIO pin mask for voltage regu
 299:Generated_Source\PSoC6\pdl\drivers/peripheral/gpio/cy_gpio.h **** #define CY_GPIO_IBUF_MASK                      (0x01UL)   /**< Single SIO pin mask for input buffer
 300:Generated_Source\PSoC6\pdl\drivers/peripheral/gpio/cy_gpio.h **** #define CY_GPIO_IBUF_SHIFT                     (0x01UL)   /**< Single SIO pin shift for input buffe
 301:Generated_Source\PSoC6\pdl\drivers/peripheral/gpio/cy_gpio.h **** #define CY_GPIO_VTRIP_SEL_MASK                 (0x01UL)   /**< Single SIO pin mask for the input bu
 302:Generated_Source\PSoC6\pdl\drivers/peripheral/gpio/cy_gpio.h **** #define CY_GPIO_VTRIP_SEL_SHIFT                (0x02UL)   /**< Single SIO pin shift for the input b
 303:Generated_Source\PSoC6\pdl\drivers/peripheral/gpio/cy_gpio.h **** #define CY_GPIO_VREF_SEL_MASK                  (0x03UL)   /**< Single SIO pin mask for voltage refe
 304:Generated_Source\PSoC6\pdl\drivers/peripheral/gpio/cy_gpio.h **** #define CY_GPIO_VREF_SEL_SHIFT                 (0x03UL)   /**< Single SIO pin shift for voltage ref
 305:Generated_Source\PSoC6\pdl\drivers/peripheral/gpio/cy_gpio.h **** #define CY_GPIO_VOH_SEL_MASK                   (0x07UL)   /**< Single SIO pin mask for VOH */
 306:Generated_Source\PSoC6\pdl\drivers/peripheral/gpio/cy_gpio.h **** #define CY_GPIO_VOH_SEL_SHIFT                  (0x05UL)   /**< Single SIO pin shift for VOH */
 307:Generated_Source\PSoC6\pdl\drivers/peripheral/gpio/cy_gpio.h **** 
 308:Generated_Source\PSoC6\pdl\drivers/peripheral/gpio/cy_gpio.h **** /* Special mask for SIO pin pair setting */
 309:Generated_Source\PSoC6\pdl\drivers/peripheral/gpio/cy_gpio.h **** #define CY_GPIO_SIO_ODD_PIN_MASK               (0x00FEUL) /**< SIO pin pair selection mask */
 310:Generated_Source\PSoC6\pdl\drivers/peripheral/gpio/cy_gpio.h **** #define CY_GPIO_SIO_PIN_MASK                   (0x00FFUL) /**< SIO pin pair mask */
 311:Generated_Source\PSoC6\pdl\drivers/peripheral/gpio/cy_gpio.h **** 
 312:Generated_Source\PSoC6\pdl\drivers/peripheral/gpio/cy_gpio.h **** /* Offsets */
 313:Generated_Source\PSoC6\pdl\drivers/peripheral/gpio/cy_gpio.h **** #define CY_GPIO_HSIOM_OFFSET                   (3UL)      /**< Offset for HSIOM */
 314:Generated_Source\PSoC6\pdl\drivers/peripheral/gpio/cy_gpio.h **** #define CY_GPIO_DRIVE_MODE_OFFSET              (2UL)      /**< Offset for Drive mode */
 315:Generated_Source\PSoC6\pdl\drivers/peripheral/gpio/cy_gpio.h **** #define CY_GPIO_INBUF_OFFSET                   (3UL)      /**< Offset for input buffer */
 316:Generated_Source\PSoC6\pdl\drivers/peripheral/gpio/cy_gpio.h **** #define CY_GPIO_CFG_OUT_DRIVE_OFFSET           (16UL)     /**< Offset for drive strength */
 317:Generated_Source\PSoC6\pdl\drivers/peripheral/gpio/cy_gpio.h **** #define CY_GPIO_INTR_CFG_OFFSET                (1UL)      /**< Offset for interrupt config */
 318:Generated_Source\PSoC6\pdl\drivers/peripheral/gpio/cy_gpio.h **** #define CY_GPIO_INTR_FILT_OFFSET               (18UL)     /**< Offset for filtered interrupt config
 319:Generated_Source\PSoC6\pdl\drivers/peripheral/gpio/cy_gpio.h **** #define CY_GPIO_CFG_SIO_OFFSET                 (2UL)      /**< Offset for SIO config */
 320:Generated_Source\PSoC6\pdl\drivers/peripheral/gpio/cy_gpio.h **** 
 321:Generated_Source\PSoC6\pdl\drivers/peripheral/gpio/cy_gpio.h **** /* Parameter validation constants */
 322:Generated_Source\PSoC6\pdl\drivers/peripheral/gpio/cy_gpio.h **** #define CY_GPIO_PINS_MAX                       (8UL)      /**< Number of pins in the port */
 323:Generated_Source\PSoC6\pdl\drivers/peripheral/gpio/cy_gpio.h **** #define CY_GPIO_PRT_PINS_MASK                  (0x0000000FFUL)
 324:Generated_Source\PSoC6\pdl\drivers/peripheral/gpio/cy_gpio.h **** #define CY_GPIO_PRT_INTR_CFG_EDGE_SEL_MASK     (GPIO_PRT_INTR_CFG_EDGE0_SEL_Msk | \
 325:Generated_Source\PSoC6\pdl\drivers/peripheral/gpio/cy_gpio.h ****                                                 GPIO_PRT_INTR_CFG_EDGE1_SEL_Msk | \
 326:Generated_Source\PSoC6\pdl\drivers/peripheral/gpio/cy_gpio.h ****                                                 GPIO_PRT_INTR_CFG_EDGE2_SEL_Msk | \
 327:Generated_Source\PSoC6\pdl\drivers/peripheral/gpio/cy_gpio.h ****                                                 GPIO_PRT_INTR_CFG_EDGE3_SEL_Msk | \
 328:Generated_Source\PSoC6\pdl\drivers/peripheral/gpio/cy_gpio.h ****                                                 GPIO_PRT_INTR_CFG_EDGE4_SEL_Msk | \
 329:Generated_Source\PSoC6\pdl\drivers/peripheral/gpio/cy_gpio.h ****                                                 GPIO_PRT_INTR_CFG_EDGE5_SEL_Msk | \
 330:Generated_Source\PSoC6\pdl\drivers/peripheral/gpio/cy_gpio.h ****                                                 GPIO_PRT_INTR_CFG_EDGE6_SEL_Msk | \
 331:Generated_Source\PSoC6\pdl\drivers/peripheral/gpio/cy_gpio.h ****                                                 GPIO_PRT_INTR_CFG_EDGE7_SEL_Msk)
 332:Generated_Source\PSoC6\pdl\drivers/peripheral/gpio/cy_gpio.h **** #define CY_GPIO_PRT_INTR_CFG_RANGE_MASK        (CY_GPIO_PRT_INTR_CFG_EDGE_SEL_MASK | \
 333:Generated_Source\PSoC6\pdl\drivers/peripheral/gpio/cy_gpio.h ****                                                 GPIO_PRT_INTR_CFG_FLT_EDGE_SEL_Msk | \
 334:Generated_Source\PSoC6\pdl\drivers/peripheral/gpio/cy_gpio.h ****                                                 GPIO_PRT_INTR_CFG_FLT_SEL_Msk)
 335:Generated_Source\PSoC6\pdl\drivers/peripheral/gpio/cy_gpio.h **** #define CY_GPIO_PRT_INT_MASK_MASK              (0x0000001FFUL)
 336:Generated_Source\PSoC6\pdl\drivers/peripheral/gpio/cy_gpio.h **** #define CY_GPIO_PRT_SEL_ACTIVE_MASK            (0x1FFFFFFFUL)
 337:Generated_Source\PSoC6\pdl\drivers/peripheral/gpio/cy_gpio.h **** 
 338:Generated_Source\PSoC6\pdl\drivers/peripheral/gpio/cy_gpio.h **** #define GPIO_MAX_SPLIT_CELL_SEGMENTS           (9U)
 339:Generated_Source\PSoC6\pdl\drivers/peripheral/gpio/cy_gpio.h **** 
 340:Generated_Source\PSoC6\pdl\drivers/peripheral/gpio/cy_gpio.h **** /* Parameter validation macros */
 341:Generated_Source\PSoC6\pdl\drivers/peripheral/gpio/cy_gpio.h **** #define CY_GPIO_IS_PIN_VALID(pinNum)           (CY_GPIO_PINS_MAX > (pinNum))
 342:Generated_Source\PSoC6\pdl\drivers/peripheral/gpio/cy_gpio.h **** #define CY_GPIO_IS_FILTER_PIN_VALID(pinNum)    (CY_GPIO_PINS_MAX >= (pinNum))
 343:Generated_Source\PSoC6\pdl\drivers/peripheral/gpio/cy_gpio.h **** #define CY_GPIO_IS_VALUE_VALID(outVal)         (1UL >= (outVal))
 344:Generated_Source\PSoC6\pdl\drivers/peripheral/gpio/cy_gpio.h **** #define CY_GPIO_IS_DM_VALID(driveMode)         (0U == ((driveMode) & (uint32_t)~CY_GPIO_CFG_DM_MASK
 345:Generated_Source\PSoC6\pdl\drivers/peripheral/gpio/cy_gpio.h **** 
 346:Generated_Source\PSoC6\pdl\drivers/peripheral/gpio/cy_gpio.h **** #define CY_GPIO_IS_HSIOM_VALID(hsiom)          (0U == ((hsiom) & (uint32_t)~CY_GPIO_HSIOM_MASK))
 347:Generated_Source\PSoC6\pdl\drivers/peripheral/gpio/cy_gpio.h **** 
ARM GAS  C:\Users\Angel\AppData\Local\Temp\ccvqOPgy.s 			page 22


 348:Generated_Source\PSoC6\pdl\drivers/peripheral/gpio/cy_gpio.h **** #define CY_GPIO_IS_INT_EDGE_VALID(intEdge)     ((CY_GPIO_INTR_DISABLE  == (intEdge)) || \
 349:Generated_Source\PSoC6\pdl\drivers/peripheral/gpio/cy_gpio.h ****                                                 (CY_GPIO_INTR_RISING   == (intEdge)) || \
 350:Generated_Source\PSoC6\pdl\drivers/peripheral/gpio/cy_gpio.h ****                                                 (CY_GPIO_INTR_FALLING  == (intEdge)) || \
 351:Generated_Source\PSoC6\pdl\drivers/peripheral/gpio/cy_gpio.h ****                                                 (CY_GPIO_INTR_BOTH     == (intEdge)))
 352:Generated_Source\PSoC6\pdl\drivers/peripheral/gpio/cy_gpio.h **** 
 353:Generated_Source\PSoC6\pdl\drivers/peripheral/gpio/cy_gpio.h **** #define CY_GPIO_IS_DRIVE_SEL_VALID(driveSel)   ((CY_GPIO_DRIVE_FULL    == (driveSel)) || \
 354:Generated_Source\PSoC6\pdl\drivers/peripheral/gpio/cy_gpio.h ****                                                 (CY_GPIO_DRIVE_1_2     == (driveSel)) || \
 355:Generated_Source\PSoC6\pdl\drivers/peripheral/gpio/cy_gpio.h ****                                                 (CY_GPIO_DRIVE_1_4     == (driveSel)) || \
 356:Generated_Source\PSoC6\pdl\drivers/peripheral/gpio/cy_gpio.h ****                                                 (CY_GPIO_DRIVE_1_8     == (driveSel)))
 357:Generated_Source\PSoC6\pdl\drivers/peripheral/gpio/cy_gpio.h **** 
 358:Generated_Source\PSoC6\pdl\drivers/peripheral/gpio/cy_gpio.h **** #define CY_GPIO_IS_VREF_SEL_VALID(vrefSel)     ((CY_SIO_VREF_PINREF    == (vrefSel)) || \
 359:Generated_Source\PSoC6\pdl\drivers/peripheral/gpio/cy_gpio.h ****                                                 (CY_SIO_VREF_1_2V      == (vrefSel)) || \
 360:Generated_Source\PSoC6\pdl\drivers/peripheral/gpio/cy_gpio.h ****                                                 (CY_SIO_VREF_AMUX_A    == (vrefSel)) || \
 361:Generated_Source\PSoC6\pdl\drivers/peripheral/gpio/cy_gpio.h ****                                                 (CY_SIO_VREF_AMUX_B    == (vrefSel)))
 362:Generated_Source\PSoC6\pdl\drivers/peripheral/gpio/cy_gpio.h **** 
 363:Generated_Source\PSoC6\pdl\drivers/peripheral/gpio/cy_gpio.h **** #define CY_GPIO_IS_VOH_SEL_VALID(vrefSel)      ((CY_SIO_VOH_1_00       == (vrefSel)) || \
 364:Generated_Source\PSoC6\pdl\drivers/peripheral/gpio/cy_gpio.h ****                                                 (CY_SIO_VOH_1_25       == (vrefSel)) || \
 365:Generated_Source\PSoC6\pdl\drivers/peripheral/gpio/cy_gpio.h ****                                                 (CY_SIO_VOH_1_49       == (vrefSel)) || \
 366:Generated_Source\PSoC6\pdl\drivers/peripheral/gpio/cy_gpio.h ****                                                 (CY_SIO_VOH_1_67       == (vrefSel)) || \
 367:Generated_Source\PSoC6\pdl\drivers/peripheral/gpio/cy_gpio.h ****                                                 (CY_SIO_VOH_2_08       == (vrefSel)) || \
 368:Generated_Source\PSoC6\pdl\drivers/peripheral/gpio/cy_gpio.h ****                                                 (CY_SIO_VOH_2_50       == (vrefSel)) || \
 369:Generated_Source\PSoC6\pdl\drivers/peripheral/gpio/cy_gpio.h ****                                                 (CY_SIO_VOH_2_78       == (vrefSel)) || \
 370:Generated_Source\PSoC6\pdl\drivers/peripheral/gpio/cy_gpio.h ****                                                 (CY_SIO_VOH_4_16       == (vrefSel)))
 371:Generated_Source\PSoC6\pdl\drivers/peripheral/gpio/cy_gpio.h ****                    
 372:Generated_Source\PSoC6\pdl\drivers/peripheral/gpio/cy_gpio.h **** #define CY_GPIO_IS_PIN_BIT_VALID(pinBit)       (0U == ((pinBit) & (uint32_t)~CY_GPIO_PRT_PINS_MASK)
 373:Generated_Source\PSoC6\pdl\drivers/peripheral/gpio/cy_gpio.h **** #define CY_GPIO_IS_INTR_CFG_VALID(intrCfg)     (0U == ((intrCfg) & (uint32_t)~CY_GPIO_PRT_INTR_CFG_
 374:Generated_Source\PSoC6\pdl\drivers/peripheral/gpio/cy_gpio.h **** #define CY_GPIO_IS_INTR_MASK_VALID(intrMask)   (0U == ((intrMask) & (uint32_t)~CY_GPIO_PRT_INT_MASK
 375:Generated_Source\PSoC6\pdl\drivers/peripheral/gpio/cy_gpio.h **** #define CY_GPIO_IS_SEL_ACT_VALID(selActive)    (0U == ((selActive) & (uint32_t)~CY_GPIO_PRT_SEL_ACT
 376:Generated_Source\PSoC6\pdl\drivers/peripheral/gpio/cy_gpio.h **** 
 377:Generated_Source\PSoC6\pdl\drivers/peripheral/gpio/cy_gpio.h **** #define CY_GPIO_IS_AMUX_SPLIT_VALID(switchCtrl)       (((uint32_t) (switchCtrl)) < GPIO_MAX_SPLIT_C
 378:Generated_Source\PSoC6\pdl\drivers/peripheral/gpio/cy_gpio.h **** 
 379:Generated_Source\PSoC6\pdl\drivers/peripheral/gpio/cy_gpio.h **** #define CY_GPIO_IS_AMUX_CONNECT_VALID(amuxConnect)    ((CY_GPIO_AMUX_OPENALL == (amuxConnect)) || \
 380:Generated_Source\PSoC6\pdl\drivers/peripheral/gpio/cy_gpio.h ****                                                        (CY_GPIO_AMUX_L       == (amuxConnect)) || \
 381:Generated_Source\PSoC6\pdl\drivers/peripheral/gpio/cy_gpio.h ****                                                        (CY_GPIO_AMUX_R       == (amuxConnect)) || \
 382:Generated_Source\PSoC6\pdl\drivers/peripheral/gpio/cy_gpio.h ****                                                        (CY_GPIO_AMUX_LR      == (amuxConnect)) || \
 383:Generated_Source\PSoC6\pdl\drivers/peripheral/gpio/cy_gpio.h ****                                                        (CY_GPIO_AMUX_G       == (amuxConnect)) || \
 384:Generated_Source\PSoC6\pdl\drivers/peripheral/gpio/cy_gpio.h ****                                                        (CY_GPIO_AMUX_GL      == (amuxConnect)) || \
 385:Generated_Source\PSoC6\pdl\drivers/peripheral/gpio/cy_gpio.h ****                                                        (CY_GPIO_AMUX_GR      == (amuxConnect)) || \
 386:Generated_Source\PSoC6\pdl\drivers/peripheral/gpio/cy_gpio.h ****                                                        (CY_GPIO_AMUX_GLR     == (amuxConnect)))
 387:Generated_Source\PSoC6\pdl\drivers/peripheral/gpio/cy_gpio.h **** 
 388:Generated_Source\PSoC6\pdl\drivers/peripheral/gpio/cy_gpio.h **** #define CY_GPIO_IS_AMUX_SELECT_VALID(amuxBus)       ((CY_GPIO_AMUXBUSA       == (amuxBus)) || \
 389:Generated_Source\PSoC6\pdl\drivers/peripheral/gpio/cy_gpio.h ****                                                      (CY_GPIO_AMUXBUSB       == (amuxBus)))
 390:Generated_Source\PSoC6\pdl\drivers/peripheral/gpio/cy_gpio.h **** /** \endcond */
 391:Generated_Source\PSoC6\pdl\drivers/peripheral/gpio/cy_gpio.h **** 
 392:Generated_Source\PSoC6\pdl\drivers/peripheral/gpio/cy_gpio.h **** 
 393:Generated_Source\PSoC6\pdl\drivers/peripheral/gpio/cy_gpio.h **** /***************************************
 394:Generated_Source\PSoC6\pdl\drivers/peripheral/gpio/cy_gpio.h **** *        Function Constants
 395:Generated_Source\PSoC6\pdl\drivers/peripheral/gpio/cy_gpio.h **** ***************************************/
 396:Generated_Source\PSoC6\pdl\drivers/peripheral/gpio/cy_gpio.h **** 
 397:Generated_Source\PSoC6\pdl\drivers/peripheral/gpio/cy_gpio.h **** /**
 398:Generated_Source\PSoC6\pdl\drivers/peripheral/gpio/cy_gpio.h **** * \addtogroup group_gpio_macros
 399:Generated_Source\PSoC6\pdl\drivers/peripheral/gpio/cy_gpio.h **** * \{
 400:Generated_Source\PSoC6\pdl\drivers/peripheral/gpio/cy_gpio.h **** */
 401:Generated_Source\PSoC6\pdl\drivers/peripheral/gpio/cy_gpio.h **** 
 402:Generated_Source\PSoC6\pdl\drivers/peripheral/gpio/cy_gpio.h **** /**
 403:Generated_Source\PSoC6\pdl\drivers/peripheral/gpio/cy_gpio.h **** * \defgroup group_gpio_driveModes Pin drive mode
 404:Generated_Source\PSoC6\pdl\drivers/peripheral/gpio/cy_gpio.h **** * \{
ARM GAS  C:\Users\Angel\AppData\Local\Temp\ccvqOPgy.s 			page 23


 405:Generated_Source\PSoC6\pdl\drivers/peripheral/gpio/cy_gpio.h **** * Constants to be used for setting the drive mode of the pin.
 406:Generated_Source\PSoC6\pdl\drivers/peripheral/gpio/cy_gpio.h **** */
 407:Generated_Source\PSoC6\pdl\drivers/peripheral/gpio/cy_gpio.h **** #define CY_GPIO_DM_ANALOG                      (0x00UL) /**< Analog High-Z. Input buffer off */
 408:Generated_Source\PSoC6\pdl\drivers/peripheral/gpio/cy_gpio.h **** #define CY_GPIO_DM_PULLUP_IN_OFF               (0x02UL) /**< Resistive Pull-Up. Input buffer off */
 409:Generated_Source\PSoC6\pdl\drivers/peripheral/gpio/cy_gpio.h **** #define CY_GPIO_DM_PULLDOWN_IN_OFF             (0x03UL) /**< Resistive Pull-Down. Input buffer off 
 410:Generated_Source\PSoC6\pdl\drivers/peripheral/gpio/cy_gpio.h **** #define CY_GPIO_DM_OD_DRIVESLOW_IN_OFF         (0x04UL) /**< Open Drain, Drives Low. Input buffer o
 411:Generated_Source\PSoC6\pdl\drivers/peripheral/gpio/cy_gpio.h **** #define CY_GPIO_DM_OD_DRIVESHIGH_IN_OFF        (0x05UL) /**< Open Drain, Drives High. Input buffer 
 412:Generated_Source\PSoC6\pdl\drivers/peripheral/gpio/cy_gpio.h **** #define CY_GPIO_DM_STRONG_IN_OFF               (0x06UL) /**< Strong Drive. Input buffer off */
 413:Generated_Source\PSoC6\pdl\drivers/peripheral/gpio/cy_gpio.h **** #define CY_GPIO_DM_PULLUP_DOWN_IN_OFF          (0x07UL) /**< Resistive Pull-Up/Down. Input buffer o
 414:Generated_Source\PSoC6\pdl\drivers/peripheral/gpio/cy_gpio.h **** #define CY_GPIO_DM_HIGHZ                       (0x08UL) /**< Digital High-Z. Input buffer on */
 415:Generated_Source\PSoC6\pdl\drivers/peripheral/gpio/cy_gpio.h **** #define CY_GPIO_DM_PULLUP                      (0x0AUL) /**< Resistive Pull-Up. Input buffer on */
 416:Generated_Source\PSoC6\pdl\drivers/peripheral/gpio/cy_gpio.h **** #define CY_GPIO_DM_PULLDOWN                    (0x0BUL) /**< Resistive Pull-Down. Input buffer on *
 417:Generated_Source\PSoC6\pdl\drivers/peripheral/gpio/cy_gpio.h **** #define CY_GPIO_DM_OD_DRIVESLOW                (0x0CUL) /**< Open Drain, Drives Low. Input buffer o
 418:Generated_Source\PSoC6\pdl\drivers/peripheral/gpio/cy_gpio.h **** #define CY_GPIO_DM_OD_DRIVESHIGH               (0x0DUL) /**< Open Drain, Drives High. Input buffer 
 419:Generated_Source\PSoC6\pdl\drivers/peripheral/gpio/cy_gpio.h **** #define CY_GPIO_DM_STRONG                      (0x0EUL) /**< Strong Drive. Input buffer on */
 420:Generated_Source\PSoC6\pdl\drivers/peripheral/gpio/cy_gpio.h **** #define CY_GPIO_DM_PULLUP_DOWN                 (0x0FUL) /**< Resistive Pull-Up/Down. Input buffer o
 421:Generated_Source\PSoC6\pdl\drivers/peripheral/gpio/cy_gpio.h **** /** \} */
 422:Generated_Source\PSoC6\pdl\drivers/peripheral/gpio/cy_gpio.h **** 
 423:Generated_Source\PSoC6\pdl\drivers/peripheral/gpio/cy_gpio.h **** /**
 424:Generated_Source\PSoC6\pdl\drivers/peripheral/gpio/cy_gpio.h **** * \defgroup group_gpio_vtrip Voltage trip mode
 425:Generated_Source\PSoC6\pdl\drivers/peripheral/gpio/cy_gpio.h **** * \{
 426:Generated_Source\PSoC6\pdl\drivers/peripheral/gpio/cy_gpio.h **** * Constants to be used for setting the voltage trip type on the pin.
 427:Generated_Source\PSoC6\pdl\drivers/peripheral/gpio/cy_gpio.h **** */
 428:Generated_Source\PSoC6\pdl\drivers/peripheral/gpio/cy_gpio.h **** #define CY_GPIO_VTRIP_CMOS                     (0x00UL) /**< Input buffer compatible with CMOS and 
 429:Generated_Source\PSoC6\pdl\drivers/peripheral/gpio/cy_gpio.h **** #define CY_GPIO_VTRIP_TTL                      (0x01UL) /**< Input buffer compatible with TTL and M
 430:Generated_Source\PSoC6\pdl\drivers/peripheral/gpio/cy_gpio.h **** /** \} */
 431:Generated_Source\PSoC6\pdl\drivers/peripheral/gpio/cy_gpio.h **** 
 432:Generated_Source\PSoC6\pdl\drivers/peripheral/gpio/cy_gpio.h **** /**
 433:Generated_Source\PSoC6\pdl\drivers/peripheral/gpio/cy_gpio.h **** * \defgroup group_gpio_slewRate Slew Rate Mode
 434:Generated_Source\PSoC6\pdl\drivers/peripheral/gpio/cy_gpio.h **** * \{
 435:Generated_Source\PSoC6\pdl\drivers/peripheral/gpio/cy_gpio.h **** * Constants to be used for setting the slew rate of the pin.
 436:Generated_Source\PSoC6\pdl\drivers/peripheral/gpio/cy_gpio.h **** */
 437:Generated_Source\PSoC6\pdl\drivers/peripheral/gpio/cy_gpio.h **** #define CY_GPIO_SLEW_FAST                      (0x00UL) /**< Fast slew rate */
 438:Generated_Source\PSoC6\pdl\drivers/peripheral/gpio/cy_gpio.h **** #define CY_GPIO_SLEW_SLOW                      (0x01UL) /**< Slow slew rate */
 439:Generated_Source\PSoC6\pdl\drivers/peripheral/gpio/cy_gpio.h **** /** \} */
 440:Generated_Source\PSoC6\pdl\drivers/peripheral/gpio/cy_gpio.h **** 
 441:Generated_Source\PSoC6\pdl\drivers/peripheral/gpio/cy_gpio.h **** /**
 442:Generated_Source\PSoC6\pdl\drivers/peripheral/gpio/cy_gpio.h **** * \defgroup group_gpio_driveStrength Pin drive strength
 443:Generated_Source\PSoC6\pdl\drivers/peripheral/gpio/cy_gpio.h **** * \{
 444:Generated_Source\PSoC6\pdl\drivers/peripheral/gpio/cy_gpio.h **** * Constants to be used for setting the drive strength of the pin.
 445:Generated_Source\PSoC6\pdl\drivers/peripheral/gpio/cy_gpio.h **** */
 446:Generated_Source\PSoC6\pdl\drivers/peripheral/gpio/cy_gpio.h **** #define CY_GPIO_DRIVE_FULL                     (0x00UL) /**< Full drive strength: Max drive current
 447:Generated_Source\PSoC6\pdl\drivers/peripheral/gpio/cy_gpio.h **** #define CY_GPIO_DRIVE_1_2                      (0x01UL) /**< 1/2 drive strength: 1/2 drive current 
 448:Generated_Source\PSoC6\pdl\drivers/peripheral/gpio/cy_gpio.h **** #define CY_GPIO_DRIVE_1_4                      (0x02UL) /**< 1/4 drive strength: 1/4 drive current 
 449:Generated_Source\PSoC6\pdl\drivers/peripheral/gpio/cy_gpio.h **** #define CY_GPIO_DRIVE_1_8                      (0x03UL) /**< 1/8 drive strength: 1/8 drive current 
 450:Generated_Source\PSoC6\pdl\drivers/peripheral/gpio/cy_gpio.h **** /** \} */
 451:Generated_Source\PSoC6\pdl\drivers/peripheral/gpio/cy_gpio.h **** 
 452:Generated_Source\PSoC6\pdl\drivers/peripheral/gpio/cy_gpio.h **** /**
 453:Generated_Source\PSoC6\pdl\drivers/peripheral/gpio/cy_gpio.h **** * \defgroup group_gpio_interruptTrigger Interrupt trigger type
 454:Generated_Source\PSoC6\pdl\drivers/peripheral/gpio/cy_gpio.h **** * \{
 455:Generated_Source\PSoC6\pdl\drivers/peripheral/gpio/cy_gpio.h **** * Constants to be used for setting the interrupt trigger type on the pin.
 456:Generated_Source\PSoC6\pdl\drivers/peripheral/gpio/cy_gpio.h **** */
 457:Generated_Source\PSoC6\pdl\drivers/peripheral/gpio/cy_gpio.h **** #define CY_GPIO_INTR_DISABLE                   (0x00UL) /**< Disable the pin interrupt generation *
 458:Generated_Source\PSoC6\pdl\drivers/peripheral/gpio/cy_gpio.h **** #define CY_GPIO_INTR_RISING                    (0x01UL) /**< Rising-Edge interrupt */
 459:Generated_Source\PSoC6\pdl\drivers/peripheral/gpio/cy_gpio.h **** #define CY_GPIO_INTR_FALLING                   (0x02UL) /**< Falling-Edge interrupt */
 460:Generated_Source\PSoC6\pdl\drivers/peripheral/gpio/cy_gpio.h **** #define CY_GPIO_INTR_BOTH                      (0x03UL) /**< Both-Edge interrupt */
 461:Generated_Source\PSoC6\pdl\drivers/peripheral/gpio/cy_gpio.h **** /** \} */
ARM GAS  C:\Users\Angel\AppData\Local\Temp\ccvqOPgy.s 			page 24


 462:Generated_Source\PSoC6\pdl\drivers/peripheral/gpio/cy_gpio.h **** 
 463:Generated_Source\PSoC6\pdl\drivers/peripheral/gpio/cy_gpio.h **** /**
 464:Generated_Source\PSoC6\pdl\drivers/peripheral/gpio/cy_gpio.h **** * \defgroup group_gpio_sioVreg SIO output buffer mode
 465:Generated_Source\PSoC6\pdl\drivers/peripheral/gpio/cy_gpio.h **** * \{
 466:Generated_Source\PSoC6\pdl\drivers/peripheral/gpio/cy_gpio.h **** * Constants to be used for setting the SIO output buffer mode on the pin.
 467:Generated_Source\PSoC6\pdl\drivers/peripheral/gpio/cy_gpio.h **** */
 468:Generated_Source\PSoC6\pdl\drivers/peripheral/gpio/cy_gpio.h **** #define CY_SIO_VREG_UNREGULATED                (0x00UL) /**< Unregulated output buffer */
 469:Generated_Source\PSoC6\pdl\drivers/peripheral/gpio/cy_gpio.h **** #define CY_SIO_VREG_REGULATED                  (0x01UL) /**< Regulated output buffer */
 470:Generated_Source\PSoC6\pdl\drivers/peripheral/gpio/cy_gpio.h **** /** \} */
 471:Generated_Source\PSoC6\pdl\drivers/peripheral/gpio/cy_gpio.h **** 
 472:Generated_Source\PSoC6\pdl\drivers/peripheral/gpio/cy_gpio.h **** /**
 473:Generated_Source\PSoC6\pdl\drivers/peripheral/gpio/cy_gpio.h **** * \defgroup group_gpio_sioIbuf SIO input buffer mode
 474:Generated_Source\PSoC6\pdl\drivers/peripheral/gpio/cy_gpio.h **** * \{
 475:Generated_Source\PSoC6\pdl\drivers/peripheral/gpio/cy_gpio.h **** * Constants to be used for setting the SIO input buffer mode on the pin.
 476:Generated_Source\PSoC6\pdl\drivers/peripheral/gpio/cy_gpio.h **** */
 477:Generated_Source\PSoC6\pdl\drivers/peripheral/gpio/cy_gpio.h **** #define CY_SIO_IBUF_SINGLEENDED                (0x00UL) /**< Single ended input buffer */
 478:Generated_Source\PSoC6\pdl\drivers/peripheral/gpio/cy_gpio.h **** #define CY_SIO_IBUF_DIFFERENTIAL               (0x01UL) /**< Differential input buffer */
 479:Generated_Source\PSoC6\pdl\drivers/peripheral/gpio/cy_gpio.h **** /** \} */
 480:Generated_Source\PSoC6\pdl\drivers/peripheral/gpio/cy_gpio.h **** 
 481:Generated_Source\PSoC6\pdl\drivers/peripheral/gpio/cy_gpio.h **** /**
 482:Generated_Source\PSoC6\pdl\drivers/peripheral/gpio/cy_gpio.h **** * \defgroup group_gpio_sioVtrip SIO input buffer trip-point
 483:Generated_Source\PSoC6\pdl\drivers/peripheral/gpio/cy_gpio.h **** * \{
 484:Generated_Source\PSoC6\pdl\drivers/peripheral/gpio/cy_gpio.h **** * Constants to be used for setting the SIO input buffer trip-point of the pin.
 485:Generated_Source\PSoC6\pdl\drivers/peripheral/gpio/cy_gpio.h **** */
 486:Generated_Source\PSoC6\pdl\drivers/peripheral/gpio/cy_gpio.h **** #define CY_SIO_VTRIP_CMOS                      (0x00UL) /**< CMOS input buffer (single-ended) */
 487:Generated_Source\PSoC6\pdl\drivers/peripheral/gpio/cy_gpio.h **** #define CY_SIO_VTRIP_TTL                       (0x01UL) /**< TTL input buffer (single-ended) */
 488:Generated_Source\PSoC6\pdl\drivers/peripheral/gpio/cy_gpio.h **** #define CY_SIO_VTRIP_0_5VDDIO_0_5VOH           (0x00UL) /**< 0.5xVddio or 0.5xVoh (differential) */
 489:Generated_Source\PSoC6\pdl\drivers/peripheral/gpio/cy_gpio.h **** #define CY_SIO_VTRIP_0_4VDDIO_1_0VREF          (0x01UL) /**< 0.4xVddio or 0.4xVoh (differential) */
 490:Generated_Source\PSoC6\pdl\drivers/peripheral/gpio/cy_gpio.h **** /** \} */
 491:Generated_Source\PSoC6\pdl\drivers/peripheral/gpio/cy_gpio.h **** 
 492:Generated_Source\PSoC6\pdl\drivers/peripheral/gpio/cy_gpio.h **** /**
 493:Generated_Source\PSoC6\pdl\drivers/peripheral/gpio/cy_gpio.h **** * \defgroup group_gpio_sioVref SIO reference voltage for input buffer trip-point
 494:Generated_Source\PSoC6\pdl\drivers/peripheral/gpio/cy_gpio.h **** * \{
 495:Generated_Source\PSoC6\pdl\drivers/peripheral/gpio/cy_gpio.h **** * Constants to be used for setting the reference voltage of SIO input buffer trip-point.
 496:Generated_Source\PSoC6\pdl\drivers/peripheral/gpio/cy_gpio.h **** */
 497:Generated_Source\PSoC6\pdl\drivers/peripheral/gpio/cy_gpio.h **** #define CY_SIO_VREF_PINREF                     (0x00UL) /**< Vref from analog pin */
 498:Generated_Source\PSoC6\pdl\drivers/peripheral/gpio/cy_gpio.h **** #define CY_SIO_VREF_1_2V                       (0x01UL) /**< Vref from internal 1.2V reference */
 499:Generated_Source\PSoC6\pdl\drivers/peripheral/gpio/cy_gpio.h **** #define CY_SIO_VREF_AMUX_A                     (0x02UL) /**< Vref from AMUXBUS_A */
 500:Generated_Source\PSoC6\pdl\drivers/peripheral/gpio/cy_gpio.h **** #define CY_SIO_VREF_AMUX_B                     (0x03UL) /**< Vref from AMUXBUS_B */
 501:Generated_Source\PSoC6\pdl\drivers/peripheral/gpio/cy_gpio.h **** /** \} */
 502:Generated_Source\PSoC6\pdl\drivers/peripheral/gpio/cy_gpio.h **** 
 503:Generated_Source\PSoC6\pdl\drivers/peripheral/gpio/cy_gpio.h **** /**
 504:Generated_Source\PSoC6\pdl\drivers/peripheral/gpio/cy_gpio.h **** * \defgroup group_gpio_sioVoh Regulated output voltage level (Voh) and input buffer trip-point of a
 505:Generated_Source\PSoC6\pdl\drivers/peripheral/gpio/cy_gpio.h **** * \{
 506:Generated_Source\PSoC6\pdl\drivers/peripheral/gpio/cy_gpio.h **** * Constants to be used for setting the Voh and input buffer trip-point of an SIO pair
 507:Generated_Source\PSoC6\pdl\drivers/peripheral/gpio/cy_gpio.h **** */
 508:Generated_Source\PSoC6\pdl\drivers/peripheral/gpio/cy_gpio.h **** #define CY_SIO_VOH_1_00                        (0x00UL) /**< Voh = 1 x Reference */
 509:Generated_Source\PSoC6\pdl\drivers/peripheral/gpio/cy_gpio.h **** #define CY_SIO_VOH_1_25                        (0x01UL) /**< Voh = 1.25 x Reference */
 510:Generated_Source\PSoC6\pdl\drivers/peripheral/gpio/cy_gpio.h **** #define CY_SIO_VOH_1_49                        (0x02UL) /**< Voh = 1.49 x Reference */
 511:Generated_Source\PSoC6\pdl\drivers/peripheral/gpio/cy_gpio.h **** #define CY_SIO_VOH_1_67                        (0x03UL) /**< Voh = 1.67 x Reference */
 512:Generated_Source\PSoC6\pdl\drivers/peripheral/gpio/cy_gpio.h **** #define CY_SIO_VOH_2_08                        (0x04UL) /**< Voh = 2.08 x Reference */
 513:Generated_Source\PSoC6\pdl\drivers/peripheral/gpio/cy_gpio.h **** #define CY_SIO_VOH_2_50                        (0x05UL) /**< Voh = 2.50 x Reference */
 514:Generated_Source\PSoC6\pdl\drivers/peripheral/gpio/cy_gpio.h **** #define CY_SIO_VOH_2_78                        (0x06UL) /**< Voh = 2.78 x Reference */
 515:Generated_Source\PSoC6\pdl\drivers/peripheral/gpio/cy_gpio.h **** #define CY_SIO_VOH_4_16                        (0x07UL) /**< Voh = 4.16 x Reference */
 516:Generated_Source\PSoC6\pdl\drivers/peripheral/gpio/cy_gpio.h **** /** \} */
 517:Generated_Source\PSoC6\pdl\drivers/peripheral/gpio/cy_gpio.h **** 
 518:Generated_Source\PSoC6\pdl\drivers/peripheral/gpio/cy_gpio.h **** /** \} group_gpio_macros */
ARM GAS  C:\Users\Angel\AppData\Local\Temp\ccvqOPgy.s 			page 25


 519:Generated_Source\PSoC6\pdl\drivers/peripheral/gpio/cy_gpio.h **** 
 520:Generated_Source\PSoC6\pdl\drivers/peripheral/gpio/cy_gpio.h **** /***************************************
 521:Generated_Source\PSoC6\pdl\drivers/peripheral/gpio/cy_gpio.h **** *        Function Prototypes
 522:Generated_Source\PSoC6\pdl\drivers/peripheral/gpio/cy_gpio.h **** ***************************************/
 523:Generated_Source\PSoC6\pdl\drivers/peripheral/gpio/cy_gpio.h **** 
 524:Generated_Source\PSoC6\pdl\drivers/peripheral/gpio/cy_gpio.h **** /**
 525:Generated_Source\PSoC6\pdl\drivers/peripheral/gpio/cy_gpio.h **** * \addtogroup group_gpio_functions
 526:Generated_Source\PSoC6\pdl\drivers/peripheral/gpio/cy_gpio.h **** * \{
 527:Generated_Source\PSoC6\pdl\drivers/peripheral/gpio/cy_gpio.h **** */
 528:Generated_Source\PSoC6\pdl\drivers/peripheral/gpio/cy_gpio.h **** 
 529:Generated_Source\PSoC6\pdl\drivers/peripheral/gpio/cy_gpio.h **** /**
 530:Generated_Source\PSoC6\pdl\drivers/peripheral/gpio/cy_gpio.h **** * \addtogroup group_gpio_functions_init
 531:Generated_Source\PSoC6\pdl\drivers/peripheral/gpio/cy_gpio.h **** * \{
 532:Generated_Source\PSoC6\pdl\drivers/peripheral/gpio/cy_gpio.h **** */
 533:Generated_Source\PSoC6\pdl\drivers/peripheral/gpio/cy_gpio.h **** 
 534:Generated_Source\PSoC6\pdl\drivers/peripheral/gpio/cy_gpio.h **** cy_en_gpio_status_t Cy_GPIO_Pin_Init(GPIO_PRT_Type* base, uint32_t pinNum, const cy_stc_gpio_pin_co
 535:Generated_Source\PSoC6\pdl\drivers/peripheral/gpio/cy_gpio.h **** cy_en_gpio_status_t Cy_GPIO_Port_Init(GPIO_PRT_Type* base, const cy_stc_gpio_prt_config_t *config);
 536:Generated_Source\PSoC6\pdl\drivers/peripheral/gpio/cy_gpio.h **** void Cy_GPIO_Pin_FastInit(GPIO_PRT_Type* base, uint32_t pinNum, uint32_t driveMode, uint32_t outVal
 537:Generated_Source\PSoC6\pdl\drivers/peripheral/gpio/cy_gpio.h **** void Cy_GPIO_Port_Deinit(GPIO_PRT_Type* base);
 538:Generated_Source\PSoC6\pdl\drivers/peripheral/gpio/cy_gpio.h **** __STATIC_INLINE void Cy_GPIO_SetHSIOM(GPIO_PRT_Type* base, uint32_t pinNum, en_hsiom_sel_t value);
 539:Generated_Source\PSoC6\pdl\drivers/peripheral/gpio/cy_gpio.h **** __STATIC_INLINE en_hsiom_sel_t Cy_GPIO_GetHSIOM(GPIO_PRT_Type* base, uint32_t pinNum);
 540:Generated_Source\PSoC6\pdl\drivers/peripheral/gpio/cy_gpio.h **** __STATIC_INLINE GPIO_PRT_Type* Cy_GPIO_PortToAddr(uint32_t portNum);
 541:Generated_Source\PSoC6\pdl\drivers/peripheral/gpio/cy_gpio.h **** 
 542:Generated_Source\PSoC6\pdl\drivers/peripheral/gpio/cy_gpio.h **** /** \} group_gpio_functions_init */
 543:Generated_Source\PSoC6\pdl\drivers/peripheral/gpio/cy_gpio.h **** 
 544:Generated_Source\PSoC6\pdl\drivers/peripheral/gpio/cy_gpio.h **** /**
 545:Generated_Source\PSoC6\pdl\drivers/peripheral/gpio/cy_gpio.h **** * \addtogroup group_gpio_functions_gpio
 546:Generated_Source\PSoC6\pdl\drivers/peripheral/gpio/cy_gpio.h **** * \{
 547:Generated_Source\PSoC6\pdl\drivers/peripheral/gpio/cy_gpio.h **** */
 548:Generated_Source\PSoC6\pdl\drivers/peripheral/gpio/cy_gpio.h **** 
 549:Generated_Source\PSoC6\pdl\drivers/peripheral/gpio/cy_gpio.h **** void Cy_GPIO_SetAmuxSplit(cy_en_amux_split_t switchCtrl, cy_en_gpio_amuxconnect_t amuxConnect, cy_e
 550:Generated_Source\PSoC6\pdl\drivers/peripheral/gpio/cy_gpio.h **** cy_en_gpio_amuxconnect_t Cy_GPIO_GetAmuxSplit(cy_en_amux_split_t switchCtrl, cy_en_gpio_amuxselect_
 551:Generated_Source\PSoC6\pdl\drivers/peripheral/gpio/cy_gpio.h **** 
 552:Generated_Source\PSoC6\pdl\drivers/peripheral/gpio/cy_gpio.h **** __STATIC_INLINE uint32_t Cy_GPIO_Read(GPIO_PRT_Type* base, uint32_t pinNum);
 553:Generated_Source\PSoC6\pdl\drivers/peripheral/gpio/cy_gpio.h **** __STATIC_INLINE void Cy_GPIO_Write(GPIO_PRT_Type* base, uint32_t pinNum, uint32_t value);
 554:Generated_Source\PSoC6\pdl\drivers/peripheral/gpio/cy_gpio.h **** __STATIC_INLINE uint32_t Cy_GPIO_ReadOut(GPIO_PRT_Type* base, uint32_t pinNum);
 555:Generated_Source\PSoC6\pdl\drivers/peripheral/gpio/cy_gpio.h **** __STATIC_INLINE void Cy_GPIO_Set(GPIO_PRT_Type* base, uint32_t pinNum);
 556:Generated_Source\PSoC6\pdl\drivers/peripheral/gpio/cy_gpio.h **** __STATIC_INLINE void Cy_GPIO_Clr(GPIO_PRT_Type* base, uint32_t pinNum);
 557:Generated_Source\PSoC6\pdl\drivers/peripheral/gpio/cy_gpio.h **** __STATIC_INLINE void Cy_GPIO_Inv(GPIO_PRT_Type* base, uint32_t pinNum);
 558:Generated_Source\PSoC6\pdl\drivers/peripheral/gpio/cy_gpio.h **** __STATIC_INLINE void Cy_GPIO_SetDrivemode(GPIO_PRT_Type* base, uint32_t pinNum, uint32_t value);
 559:Generated_Source\PSoC6\pdl\drivers/peripheral/gpio/cy_gpio.h **** __STATIC_INLINE uint32_t Cy_GPIO_GetDrivemode(GPIO_PRT_Type* base, uint32_t pinNum);
 560:Generated_Source\PSoC6\pdl\drivers/peripheral/gpio/cy_gpio.h **** __STATIC_INLINE void Cy_GPIO_SetVtrip(GPIO_PRT_Type* base, uint32_t pinNum, uint32_t value);
 561:Generated_Source\PSoC6\pdl\drivers/peripheral/gpio/cy_gpio.h **** __STATIC_INLINE uint32_t Cy_GPIO_GetVtrip(GPIO_PRT_Type* base, uint32_t pinNum);
 562:Generated_Source\PSoC6\pdl\drivers/peripheral/gpio/cy_gpio.h **** __STATIC_INLINE void Cy_GPIO_SetSlewRate(GPIO_PRT_Type* base, uint32_t pinNum, uint32_t value);
 563:Generated_Source\PSoC6\pdl\drivers/peripheral/gpio/cy_gpio.h **** __STATIC_INLINE uint32_t Cy_GPIO_GetSlewRate(GPIO_PRT_Type* base, uint32_t pinNum);
 564:Generated_Source\PSoC6\pdl\drivers/peripheral/gpio/cy_gpio.h **** __STATIC_INLINE void Cy_GPIO_SetDriveSel(GPIO_PRT_Type* base, uint32_t pinNum, uint32_t value);
 565:Generated_Source\PSoC6\pdl\drivers/peripheral/gpio/cy_gpio.h **** __STATIC_INLINE uint32_t Cy_GPIO_GetDriveSel(GPIO_PRT_Type* base, uint32_t pinNum);
 566:Generated_Source\PSoC6\pdl\drivers/peripheral/gpio/cy_gpio.h **** 
 567:Generated_Source\PSoC6\pdl\drivers/peripheral/gpio/cy_gpio.h **** /** \} group_gpio_functions_gpio */
 568:Generated_Source\PSoC6\pdl\drivers/peripheral/gpio/cy_gpio.h **** 
 569:Generated_Source\PSoC6\pdl\drivers/peripheral/gpio/cy_gpio.h **** /**
 570:Generated_Source\PSoC6\pdl\drivers/peripheral/gpio/cy_gpio.h **** * \addtogroup group_gpio_functions_sio
 571:Generated_Source\PSoC6\pdl\drivers/peripheral/gpio/cy_gpio.h **** * \{
 572:Generated_Source\PSoC6\pdl\drivers/peripheral/gpio/cy_gpio.h **** */
 573:Generated_Source\PSoC6\pdl\drivers/peripheral/gpio/cy_gpio.h **** 
 574:Generated_Source\PSoC6\pdl\drivers/peripheral/gpio/cy_gpio.h **** __STATIC_INLINE void Cy_GPIO_SetVregEn(GPIO_PRT_Type* base, uint32_t pinNum, uint32_t value);
 575:Generated_Source\PSoC6\pdl\drivers/peripheral/gpio/cy_gpio.h **** __STATIC_INLINE uint32_t Cy_GPIO_GetVregEn(GPIO_PRT_Type* base, uint32_t pinNum);
ARM GAS  C:\Users\Angel\AppData\Local\Temp\ccvqOPgy.s 			page 26


 576:Generated_Source\PSoC6\pdl\drivers/peripheral/gpio/cy_gpio.h **** __STATIC_INLINE void Cy_GPIO_SetIbufMode(GPIO_PRT_Type* base, uint32_t pinNum, uint32_t value);
 577:Generated_Source\PSoC6\pdl\drivers/peripheral/gpio/cy_gpio.h **** __STATIC_INLINE uint32_t Cy_GPIO_GetIbufMode(GPIO_PRT_Type* base, uint32_t pinNum);
 578:Generated_Source\PSoC6\pdl\drivers/peripheral/gpio/cy_gpio.h **** __STATIC_INLINE void Cy_GPIO_SetVtripSel(GPIO_PRT_Type* base, uint32_t pinNum, uint32_t value);
 579:Generated_Source\PSoC6\pdl\drivers/peripheral/gpio/cy_gpio.h **** __STATIC_INLINE uint32_t Cy_GPIO_GetVtripSel(GPIO_PRT_Type* base, uint32_t pinNum);
 580:Generated_Source\PSoC6\pdl\drivers/peripheral/gpio/cy_gpio.h **** __STATIC_INLINE void Cy_GPIO_SetVrefSel(GPIO_PRT_Type* base, uint32_t pinNum, uint32_t value);
 581:Generated_Source\PSoC6\pdl\drivers/peripheral/gpio/cy_gpio.h **** __STATIC_INLINE uint32_t Cy_GPIO_GetVrefSel(GPIO_PRT_Type* base, uint32_t pinNum);
 582:Generated_Source\PSoC6\pdl\drivers/peripheral/gpio/cy_gpio.h **** __STATIC_INLINE void Cy_GPIO_SetVohSel(GPIO_PRT_Type* base, uint32_t pinNum, uint32_t value);
 583:Generated_Source\PSoC6\pdl\drivers/peripheral/gpio/cy_gpio.h **** __STATIC_INLINE uint32_t Cy_GPIO_GetVohSel(GPIO_PRT_Type* base, uint32_t pinNum);
 584:Generated_Source\PSoC6\pdl\drivers/peripheral/gpio/cy_gpio.h **** 
 585:Generated_Source\PSoC6\pdl\drivers/peripheral/gpio/cy_gpio.h **** /** \} group_gpio_functions_sio */
 586:Generated_Source\PSoC6\pdl\drivers/peripheral/gpio/cy_gpio.h **** 
 587:Generated_Source\PSoC6\pdl\drivers/peripheral/gpio/cy_gpio.h **** /**
 588:Generated_Source\PSoC6\pdl\drivers/peripheral/gpio/cy_gpio.h **** * \addtogroup group_gpio_functions_interrupt
 589:Generated_Source\PSoC6\pdl\drivers/peripheral/gpio/cy_gpio.h **** * \{
 590:Generated_Source\PSoC6\pdl\drivers/peripheral/gpio/cy_gpio.h **** */
 591:Generated_Source\PSoC6\pdl\drivers/peripheral/gpio/cy_gpio.h **** 
 592:Generated_Source\PSoC6\pdl\drivers/peripheral/gpio/cy_gpio.h **** __STATIC_INLINE uint32_t Cy_GPIO_GetInterruptStatus(GPIO_PRT_Type* base, uint32_t pinNum);
 593:Generated_Source\PSoC6\pdl\drivers/peripheral/gpio/cy_gpio.h **** __STATIC_INLINE void Cy_GPIO_ClearInterrupt(GPIO_PRT_Type* base, uint32_t pinNum);
 594:Generated_Source\PSoC6\pdl\drivers/peripheral/gpio/cy_gpio.h **** __STATIC_INLINE void Cy_GPIO_SetInterruptMask(GPIO_PRT_Type* base, uint32_t pinNum, uint32_t value)
 595:Generated_Source\PSoC6\pdl\drivers/peripheral/gpio/cy_gpio.h **** __STATIC_INLINE uint32_t Cy_GPIO_GetInterruptMask(GPIO_PRT_Type* base, uint32_t pinNum);
 596:Generated_Source\PSoC6\pdl\drivers/peripheral/gpio/cy_gpio.h **** __STATIC_INLINE uint32_t Cy_GPIO_GetInterruptStatusMasked(GPIO_PRT_Type* base, uint32_t pinNum);
 597:Generated_Source\PSoC6\pdl\drivers/peripheral/gpio/cy_gpio.h **** __STATIC_INLINE void Cy_GPIO_SetSwInterrupt(GPIO_PRT_Type* base, uint32_t pinNum);
 598:Generated_Source\PSoC6\pdl\drivers/peripheral/gpio/cy_gpio.h **** __STATIC_INLINE void Cy_GPIO_SetInterruptEdge(GPIO_PRT_Type* base, uint32_t pinNum, uint32_t value)
 599:Generated_Source\PSoC6\pdl\drivers/peripheral/gpio/cy_gpio.h **** __STATIC_INLINE uint32_t Cy_GPIO_GetInterruptEdge(GPIO_PRT_Type* base, uint32_t pinNum);
 600:Generated_Source\PSoC6\pdl\drivers/peripheral/gpio/cy_gpio.h **** __STATIC_INLINE void Cy_GPIO_SetFilter(GPIO_PRT_Type* base, uint32_t value);
 601:Generated_Source\PSoC6\pdl\drivers/peripheral/gpio/cy_gpio.h **** __STATIC_INLINE uint32_t Cy_GPIO_GetFilter(GPIO_PRT_Type* base);
 602:Generated_Source\PSoC6\pdl\drivers/peripheral/gpio/cy_gpio.h **** 
 603:Generated_Source\PSoC6\pdl\drivers/peripheral/gpio/cy_gpio.h **** __STATIC_INLINE uint32_t Cy_GPIO_GetInterruptCause0(void);
 604:Generated_Source\PSoC6\pdl\drivers/peripheral/gpio/cy_gpio.h **** __STATIC_INLINE uint32_t Cy_GPIO_GetInterruptCause1(void);
 605:Generated_Source\PSoC6\pdl\drivers/peripheral/gpio/cy_gpio.h **** __STATIC_INLINE uint32_t Cy_GPIO_GetInterruptCause2(void);
 606:Generated_Source\PSoC6\pdl\drivers/peripheral/gpio/cy_gpio.h **** __STATIC_INLINE uint32_t Cy_GPIO_GetInterruptCause3(void);
 607:Generated_Source\PSoC6\pdl\drivers/peripheral/gpio/cy_gpio.h **** 
 608:Generated_Source\PSoC6\pdl\drivers/peripheral/gpio/cy_gpio.h **** /** \} group_gpio_functions_interrupt */
 609:Generated_Source\PSoC6\pdl\drivers/peripheral/gpio/cy_gpio.h **** 
 610:Generated_Source\PSoC6\pdl\drivers/peripheral/gpio/cy_gpio.h **** 
 611:Generated_Source\PSoC6\pdl\drivers/peripheral/gpio/cy_gpio.h **** /**
 612:Generated_Source\PSoC6\pdl\drivers/peripheral/gpio/cy_gpio.h **** * \addtogroup group_gpio_functions_init
 613:Generated_Source\PSoC6\pdl\drivers/peripheral/gpio/cy_gpio.h **** * \{
 614:Generated_Source\PSoC6\pdl\drivers/peripheral/gpio/cy_gpio.h **** */
 615:Generated_Source\PSoC6\pdl\drivers/peripheral/gpio/cy_gpio.h **** 
 616:Generated_Source\PSoC6\pdl\drivers/peripheral/gpio/cy_gpio.h **** /*******************************************************************************
 617:Generated_Source\PSoC6\pdl\drivers/peripheral/gpio/cy_gpio.h **** * Function Name: Cy_GPIO_SetHSIOM
 618:Generated_Source\PSoC6\pdl\drivers/peripheral/gpio/cy_gpio.h **** ****************************************************************************//**
 619:Generated_Source\PSoC6\pdl\drivers/peripheral/gpio/cy_gpio.h **** *
 620:Generated_Source\PSoC6\pdl\drivers/peripheral/gpio/cy_gpio.h **** * Configures the HSIOM connection to the pin.
 621:Generated_Source\PSoC6\pdl\drivers/peripheral/gpio/cy_gpio.h **** *
 622:Generated_Source\PSoC6\pdl\drivers/peripheral/gpio/cy_gpio.h **** * Connects the specified High-Speed Input Output Multiplexer (HSIOM) selection
 623:Generated_Source\PSoC6\pdl\drivers/peripheral/gpio/cy_gpio.h **** * to the pin.
 624:Generated_Source\PSoC6\pdl\drivers/peripheral/gpio/cy_gpio.h **** *
 625:Generated_Source\PSoC6\pdl\drivers/peripheral/gpio/cy_gpio.h **** * \param base
 626:Generated_Source\PSoC6\pdl\drivers/peripheral/gpio/cy_gpio.h **** * Pointer to the pin's port register base address
 627:Generated_Source\PSoC6\pdl\drivers/peripheral/gpio/cy_gpio.h **** *
 628:Generated_Source\PSoC6\pdl\drivers/peripheral/gpio/cy_gpio.h **** * \param pinNum
 629:Generated_Source\PSoC6\pdl\drivers/peripheral/gpio/cy_gpio.h **** * Position of the pin bit-field within the port register
 630:Generated_Source\PSoC6\pdl\drivers/peripheral/gpio/cy_gpio.h **** *
 631:Generated_Source\PSoC6\pdl\drivers/peripheral/gpio/cy_gpio.h **** * \param value
 632:Generated_Source\PSoC6\pdl\drivers/peripheral/gpio/cy_gpio.h **** * HSIOM input selection
ARM GAS  C:\Users\Angel\AppData\Local\Temp\ccvqOPgy.s 			page 27


 633:Generated_Source\PSoC6\pdl\drivers/peripheral/gpio/cy_gpio.h **** *
 634:Generated_Source\PSoC6\pdl\drivers/peripheral/gpio/cy_gpio.h **** * \note 
 635:Generated_Source\PSoC6\pdl\drivers/peripheral/gpio/cy_gpio.h **** * This function modifies a port register in a read-modify-write operation. It is
 636:Generated_Source\PSoC6\pdl\drivers/peripheral/gpio/cy_gpio.h **** * not thread safe as the resource is shared among multiple pins on a port.
 637:Generated_Source\PSoC6\pdl\drivers/peripheral/gpio/cy_gpio.h **** *
 638:Generated_Source\PSoC6\pdl\drivers/peripheral/gpio/cy_gpio.h **** * \funcusage
 639:Generated_Source\PSoC6\pdl\drivers/peripheral/gpio/cy_gpio.h **** * \snippet gpio/gpio_v1_10_sut_01.cydsn/main_cm4.c snippet_Cy_GPIO_SetHSIOM
 640:Generated_Source\PSoC6\pdl\drivers/peripheral/gpio/cy_gpio.h **** *
 641:Generated_Source\PSoC6\pdl\drivers/peripheral/gpio/cy_gpio.h **** *******************************************************************************/
 642:Generated_Source\PSoC6\pdl\drivers/peripheral/gpio/cy_gpio.h **** __STATIC_INLINE void Cy_GPIO_SetHSIOM(GPIO_PRT_Type* base, uint32_t pinNum, en_hsiom_sel_t value)
 643:Generated_Source\PSoC6\pdl\drivers/peripheral/gpio/cy_gpio.h **** {
 644:Generated_Source\PSoC6\pdl\drivers/peripheral/gpio/cy_gpio.h ****     uint32_t portNum;
 645:Generated_Source\PSoC6\pdl\drivers/peripheral/gpio/cy_gpio.h ****     uint32_t tempReg;
 646:Generated_Source\PSoC6\pdl\drivers/peripheral/gpio/cy_gpio.h ****     HSIOM_PRT_V1_Type* portAddrHSIOM;
 647:Generated_Source\PSoC6\pdl\drivers/peripheral/gpio/cy_gpio.h **** 
 648:Generated_Source\PSoC6\pdl\drivers/peripheral/gpio/cy_gpio.h ****     CY_ASSERT_L2(CY_GPIO_IS_PIN_VALID(pinNum));
 649:Generated_Source\PSoC6\pdl\drivers/peripheral/gpio/cy_gpio.h ****     CY_ASSERT_L2(CY_GPIO_IS_HSIOM_VALID(value));
 650:Generated_Source\PSoC6\pdl\drivers/peripheral/gpio/cy_gpio.h **** 
 651:Generated_Source\PSoC6\pdl\drivers/peripheral/gpio/cy_gpio.h ****     portNum = ((uint32_t)(base) - CY_GPIO_BASE) / GPIO_PRT_SECTION_SIZE;
 652:Generated_Source\PSoC6\pdl\drivers/peripheral/gpio/cy_gpio.h ****     portAddrHSIOM = (HSIOM_PRT_V1_Type*)(CY_HSIOM_BASE + (HSIOM_PRT_SECTION_SIZE * portNum));
 653:Generated_Source\PSoC6\pdl\drivers/peripheral/gpio/cy_gpio.h **** 
 654:Generated_Source\PSoC6\pdl\drivers/peripheral/gpio/cy_gpio.h ****     if(pinNum < CY_GPIO_PRT_HALF)
 655:Generated_Source\PSoC6\pdl\drivers/peripheral/gpio/cy_gpio.h ****     {
 656:Generated_Source\PSoC6\pdl\drivers/peripheral/gpio/cy_gpio.h ****         tempReg = HSIOM_PRT_PORT_SEL0(portAddrHSIOM) & ~(CY_GPIO_HSIOM_MASK << (pinNum << CY_GPIO_H
 657:Generated_Source\PSoC6\pdl\drivers/peripheral/gpio/cy_gpio.h ****         HSIOM_PRT_PORT_SEL0(portAddrHSIOM) = tempReg | ((value & CY_GPIO_HSIOM_MASK) << (pinNum << 
 658:Generated_Source\PSoC6\pdl\drivers/peripheral/gpio/cy_gpio.h ****     }
 659:Generated_Source\PSoC6\pdl\drivers/peripheral/gpio/cy_gpio.h ****     else
 660:Generated_Source\PSoC6\pdl\drivers/peripheral/gpio/cy_gpio.h ****     {
 661:Generated_Source\PSoC6\pdl\drivers/peripheral/gpio/cy_gpio.h ****         pinNum -= CY_GPIO_PRT_HALF;
 662:Generated_Source\PSoC6\pdl\drivers/peripheral/gpio/cy_gpio.h ****         tempReg = HSIOM_PRT_PORT_SEL1(portAddrHSIOM) & ~(CY_GPIO_HSIOM_MASK << (pinNum << CY_GPIO_H
 663:Generated_Source\PSoC6\pdl\drivers/peripheral/gpio/cy_gpio.h ****         HSIOM_PRT_PORT_SEL1(portAddrHSIOM) = tempReg | ((value & CY_GPIO_HSIOM_MASK) << (pinNum << 
 664:Generated_Source\PSoC6\pdl\drivers/peripheral/gpio/cy_gpio.h ****     }
 665:Generated_Source\PSoC6\pdl\drivers/peripheral/gpio/cy_gpio.h **** }
 666:Generated_Source\PSoC6\pdl\drivers/peripheral/gpio/cy_gpio.h **** 
 667:Generated_Source\PSoC6\pdl\drivers/peripheral/gpio/cy_gpio.h **** 
 668:Generated_Source\PSoC6\pdl\drivers/peripheral/gpio/cy_gpio.h **** /*******************************************************************************
 669:Generated_Source\PSoC6\pdl\drivers/peripheral/gpio/cy_gpio.h **** * Function Name: Cy_GPIO_GetHSIOM
 670:Generated_Source\PSoC6\pdl\drivers/peripheral/gpio/cy_gpio.h **** ****************************************************************************//**
 671:Generated_Source\PSoC6\pdl\drivers/peripheral/gpio/cy_gpio.h **** *
 672:Generated_Source\PSoC6\pdl\drivers/peripheral/gpio/cy_gpio.h **** * Returns the current HSIOM multiplexer connection to the pin.
 673:Generated_Source\PSoC6\pdl\drivers/peripheral/gpio/cy_gpio.h **** *
 674:Generated_Source\PSoC6\pdl\drivers/peripheral/gpio/cy_gpio.h **** * \param base
 675:Generated_Source\PSoC6\pdl\drivers/peripheral/gpio/cy_gpio.h **** * Pointer to the pin's port register base address
 676:Generated_Source\PSoC6\pdl\drivers/peripheral/gpio/cy_gpio.h **** *
 677:Generated_Source\PSoC6\pdl\drivers/peripheral/gpio/cy_gpio.h **** * \param pinNum
 678:Generated_Source\PSoC6\pdl\drivers/peripheral/gpio/cy_gpio.h **** * Position of the pin bit-field within the port register
 679:Generated_Source\PSoC6\pdl\drivers/peripheral/gpio/cy_gpio.h **** *
 680:Generated_Source\PSoC6\pdl\drivers/peripheral/gpio/cy_gpio.h **** * \return
 681:Generated_Source\PSoC6\pdl\drivers/peripheral/gpio/cy_gpio.h **** * HSIOM input selection
 682:Generated_Source\PSoC6\pdl\drivers/peripheral/gpio/cy_gpio.h **** *
 683:Generated_Source\PSoC6\pdl\drivers/peripheral/gpio/cy_gpio.h **** * \funcusage
 684:Generated_Source\PSoC6\pdl\drivers/peripheral/gpio/cy_gpio.h **** * \snippet gpio/gpio_v1_10_sut_01.cydsn/main_cm4.c snippet_Cy_GPIO_SetHSIOM
 685:Generated_Source\PSoC6\pdl\drivers/peripheral/gpio/cy_gpio.h **** *
 686:Generated_Source\PSoC6\pdl\drivers/peripheral/gpio/cy_gpio.h **** *******************************************************************************/
 687:Generated_Source\PSoC6\pdl\drivers/peripheral/gpio/cy_gpio.h **** __STATIC_INLINE en_hsiom_sel_t Cy_GPIO_GetHSIOM(GPIO_PRT_Type* base, uint32_t pinNum)
 688:Generated_Source\PSoC6\pdl\drivers/peripheral/gpio/cy_gpio.h **** {
 689:Generated_Source\PSoC6\pdl\drivers/peripheral/gpio/cy_gpio.h ****     uint32_t returnValue;
ARM GAS  C:\Users\Angel\AppData\Local\Temp\ccvqOPgy.s 			page 28


 690:Generated_Source\PSoC6\pdl\drivers/peripheral/gpio/cy_gpio.h ****     uint32_t portNum;
 691:Generated_Source\PSoC6\pdl\drivers/peripheral/gpio/cy_gpio.h ****     HSIOM_PRT_V1_Type* portAddrHSIOM;
 692:Generated_Source\PSoC6\pdl\drivers/peripheral/gpio/cy_gpio.h ****     
 693:Generated_Source\PSoC6\pdl\drivers/peripheral/gpio/cy_gpio.h ****     CY_ASSERT_L2(CY_GPIO_IS_PIN_VALID(pinNum));
 694:Generated_Source\PSoC6\pdl\drivers/peripheral/gpio/cy_gpio.h **** 
 695:Generated_Source\PSoC6\pdl\drivers/peripheral/gpio/cy_gpio.h ****     portNum = ((uint32_t)(base) - CY_GPIO_BASE) / GPIO_PRT_SECTION_SIZE;
 696:Generated_Source\PSoC6\pdl\drivers/peripheral/gpio/cy_gpio.h ****     portAddrHSIOM = (HSIOM_PRT_V1_Type*)(CY_HSIOM_BASE + (HSIOM_PRT_SECTION_SIZE * portNum));
 697:Generated_Source\PSoC6\pdl\drivers/peripheral/gpio/cy_gpio.h **** 
 698:Generated_Source\PSoC6\pdl\drivers/peripheral/gpio/cy_gpio.h ****     if(pinNum < CY_GPIO_PRT_HALF)
 699:Generated_Source\PSoC6\pdl\drivers/peripheral/gpio/cy_gpio.h ****     {
 700:Generated_Source\PSoC6\pdl\drivers/peripheral/gpio/cy_gpio.h ****         returnValue = (HSIOM_PRT_PORT_SEL0(portAddrHSIOM) >> (pinNum << CY_GPIO_HSIOM_OFFSET)) & CY
 701:Generated_Source\PSoC6\pdl\drivers/peripheral/gpio/cy_gpio.h ****     }
 702:Generated_Source\PSoC6\pdl\drivers/peripheral/gpio/cy_gpio.h ****     else
 703:Generated_Source\PSoC6\pdl\drivers/peripheral/gpio/cy_gpio.h ****     {
 704:Generated_Source\PSoC6\pdl\drivers/peripheral/gpio/cy_gpio.h ****         pinNum -= CY_GPIO_PRT_HALF;
 705:Generated_Source\PSoC6\pdl\drivers/peripheral/gpio/cy_gpio.h ****         returnValue = (HSIOM_PRT_PORT_SEL1(portAddrHSIOM) >> (pinNum << CY_GPIO_HSIOM_OFFSET)) & CY
 706:Generated_Source\PSoC6\pdl\drivers/peripheral/gpio/cy_gpio.h ****     }
 707:Generated_Source\PSoC6\pdl\drivers/peripheral/gpio/cy_gpio.h **** 
 708:Generated_Source\PSoC6\pdl\drivers/peripheral/gpio/cy_gpio.h ****     return (en_hsiom_sel_t)returnValue;
 709:Generated_Source\PSoC6\pdl\drivers/peripheral/gpio/cy_gpio.h **** }
 710:Generated_Source\PSoC6\pdl\drivers/peripheral/gpio/cy_gpio.h **** 
 711:Generated_Source\PSoC6\pdl\drivers/peripheral/gpio/cy_gpio.h **** 
 712:Generated_Source\PSoC6\pdl\drivers/peripheral/gpio/cy_gpio.h **** /*******************************************************************************
 713:Generated_Source\PSoC6\pdl\drivers/peripheral/gpio/cy_gpio.h **** * Function Name: Cy_GPIO_PortToAddr
 714:Generated_Source\PSoC6\pdl\drivers/peripheral/gpio/cy_gpio.h **** ****************************************************************************//**
 715:Generated_Source\PSoC6\pdl\drivers/peripheral/gpio/cy_gpio.h **** *
 716:Generated_Source\PSoC6\pdl\drivers/peripheral/gpio/cy_gpio.h **** * Retrieves the port address based on the given port number.
 717:Generated_Source\PSoC6\pdl\drivers/peripheral/gpio/cy_gpio.h **** *
 718:Generated_Source\PSoC6\pdl\drivers/peripheral/gpio/cy_gpio.h **** * This is a helper function to calculate the port base address when given a port
 719:Generated_Source\PSoC6\pdl\drivers/peripheral/gpio/cy_gpio.h **** * number. It is to be used when pin access needs to be calculated at runtime.
 720:Generated_Source\PSoC6\pdl\drivers/peripheral/gpio/cy_gpio.h **** *
 721:Generated_Source\PSoC6\pdl\drivers/peripheral/gpio/cy_gpio.h **** * \param portNum
 722:Generated_Source\PSoC6\pdl\drivers/peripheral/gpio/cy_gpio.h **** * Port number
 723:Generated_Source\PSoC6\pdl\drivers/peripheral/gpio/cy_gpio.h **** *
 724:Generated_Source\PSoC6\pdl\drivers/peripheral/gpio/cy_gpio.h **** * \return
 725:Generated_Source\PSoC6\pdl\drivers/peripheral/gpio/cy_gpio.h **** * Base address of the port register structure
 726:Generated_Source\PSoC6\pdl\drivers/peripheral/gpio/cy_gpio.h **** *
 727:Generated_Source\PSoC6\pdl\drivers/peripheral/gpio/cy_gpio.h **** * \funcusage
 728:Generated_Source\PSoC6\pdl\drivers/peripheral/gpio/cy_gpio.h **** * \snippet gpio/gpio_v1_10_sut_01.cydsn/main_cm4.c snippet_Cy_GPIO_PortToAddr
 729:Generated_Source\PSoC6\pdl\drivers/peripheral/gpio/cy_gpio.h **** *
 730:Generated_Source\PSoC6\pdl\drivers/peripheral/gpio/cy_gpio.h **** *******************************************************************************/
 731:Generated_Source\PSoC6\pdl\drivers/peripheral/gpio/cy_gpio.h **** __STATIC_INLINE GPIO_PRT_Type* Cy_GPIO_PortToAddr(uint32_t portNum)
 732:Generated_Source\PSoC6\pdl\drivers/peripheral/gpio/cy_gpio.h **** {
 733:Generated_Source\PSoC6\pdl\drivers/peripheral/gpio/cy_gpio.h ****     GPIO_PRT_Type* portBase;
 734:Generated_Source\PSoC6\pdl\drivers/peripheral/gpio/cy_gpio.h ****     
 735:Generated_Source\PSoC6\pdl\drivers/peripheral/gpio/cy_gpio.h ****     if(portNum < (uint32_t)IOSS_GPIO_GPIO_PORT_NR)
 736:Generated_Source\PSoC6\pdl\drivers/peripheral/gpio/cy_gpio.h ****     {
 737:Generated_Source\PSoC6\pdl\drivers/peripheral/gpio/cy_gpio.h ****         portBase = (GPIO_PRT_Type *)(CY_GPIO_BASE + (GPIO_PRT_SECTION_SIZE * portNum));
 738:Generated_Source\PSoC6\pdl\drivers/peripheral/gpio/cy_gpio.h ****     }
 739:Generated_Source\PSoC6\pdl\drivers/peripheral/gpio/cy_gpio.h ****     else
 740:Generated_Source\PSoC6\pdl\drivers/peripheral/gpio/cy_gpio.h ****     {
 741:Generated_Source\PSoC6\pdl\drivers/peripheral/gpio/cy_gpio.h ****         /* Error: Return default base address */
 742:Generated_Source\PSoC6\pdl\drivers/peripheral/gpio/cy_gpio.h ****         portBase = (GPIO_PRT_Type *)(CY_GPIO_BASE);
 743:Generated_Source\PSoC6\pdl\drivers/peripheral/gpio/cy_gpio.h ****     }
 744:Generated_Source\PSoC6\pdl\drivers/peripheral/gpio/cy_gpio.h **** 
 745:Generated_Source\PSoC6\pdl\drivers/peripheral/gpio/cy_gpio.h ****     return (portBase);
 746:Generated_Source\PSoC6\pdl\drivers/peripheral/gpio/cy_gpio.h **** }
ARM GAS  C:\Users\Angel\AppData\Local\Temp\ccvqOPgy.s 			page 29


 747:Generated_Source\PSoC6\pdl\drivers/peripheral/gpio/cy_gpio.h **** 
 748:Generated_Source\PSoC6\pdl\drivers/peripheral/gpio/cy_gpio.h **** /** \} group_gpio_functions_init */
 749:Generated_Source\PSoC6\pdl\drivers/peripheral/gpio/cy_gpio.h **** 
 750:Generated_Source\PSoC6\pdl\drivers/peripheral/gpio/cy_gpio.h **** /**
 751:Generated_Source\PSoC6\pdl\drivers/peripheral/gpio/cy_gpio.h **** * \addtogroup group_gpio_functions_gpio
 752:Generated_Source\PSoC6\pdl\drivers/peripheral/gpio/cy_gpio.h **** * \{
 753:Generated_Source\PSoC6\pdl\drivers/peripheral/gpio/cy_gpio.h **** */
 754:Generated_Source\PSoC6\pdl\drivers/peripheral/gpio/cy_gpio.h **** 
 755:Generated_Source\PSoC6\pdl\drivers/peripheral/gpio/cy_gpio.h **** /*******************************************************************************
 756:Generated_Source\PSoC6\pdl\drivers/peripheral/gpio/cy_gpio.h **** * Function Name: Cy_GPIO_Read
 757:Generated_Source\PSoC6\pdl\drivers/peripheral/gpio/cy_gpio.h **** ****************************************************************************//**
 758:Generated_Source\PSoC6\pdl\drivers/peripheral/gpio/cy_gpio.h **** *
 759:Generated_Source\PSoC6\pdl\drivers/peripheral/gpio/cy_gpio.h **** * Reads the current logic level on the input buffer of the pin.
 760:Generated_Source\PSoC6\pdl\drivers/peripheral/gpio/cy_gpio.h **** *
 761:Generated_Source\PSoC6\pdl\drivers/peripheral/gpio/cy_gpio.h **** * \param base
 762:Generated_Source\PSoC6\pdl\drivers/peripheral/gpio/cy_gpio.h **** * Pointer to the pin's port register base address
 763:Generated_Source\PSoC6\pdl\drivers/peripheral/gpio/cy_gpio.h **** *
 764:Generated_Source\PSoC6\pdl\drivers/peripheral/gpio/cy_gpio.h **** * \param pinNum
 765:Generated_Source\PSoC6\pdl\drivers/peripheral/gpio/cy_gpio.h **** * Position of the pin bit-field within the port register.
 766:Generated_Source\PSoC6\pdl\drivers/peripheral/gpio/cy_gpio.h **** * Bit position 8 is the routed pin through the port glitch filter.
 767:Generated_Source\PSoC6\pdl\drivers/peripheral/gpio/cy_gpio.h **** *
 768:Generated_Source\PSoC6\pdl\drivers/peripheral/gpio/cy_gpio.h **** * \return
 769:Generated_Source\PSoC6\pdl\drivers/peripheral/gpio/cy_gpio.h **** * Logic level present on the pin
 770:Generated_Source\PSoC6\pdl\drivers/peripheral/gpio/cy_gpio.h **** *
 771:Generated_Source\PSoC6\pdl\drivers/peripheral/gpio/cy_gpio.h **** * \funcusage
 772:Generated_Source\PSoC6\pdl\drivers/peripheral/gpio/cy_gpio.h **** * \snippet gpio/gpio_v1_10_sut_01.cydsn/main_cm4.c snippet_Cy_GPIO_Read
 773:Generated_Source\PSoC6\pdl\drivers/peripheral/gpio/cy_gpio.h **** *
 774:Generated_Source\PSoC6\pdl\drivers/peripheral/gpio/cy_gpio.h **** *******************************************************************************/
 775:Generated_Source\PSoC6\pdl\drivers/peripheral/gpio/cy_gpio.h **** __STATIC_INLINE uint32_t Cy_GPIO_Read(GPIO_PRT_Type* base, uint32_t pinNum)
 776:Generated_Source\PSoC6\pdl\drivers/peripheral/gpio/cy_gpio.h **** {
 777:Generated_Source\PSoC6\pdl\drivers/peripheral/gpio/cy_gpio.h ****     CY_ASSERT_L2(CY_GPIO_IS_FILTER_PIN_VALID(pinNum));
 778:Generated_Source\PSoC6\pdl\drivers/peripheral/gpio/cy_gpio.h ****     
 779:Generated_Source\PSoC6\pdl\drivers/peripheral/gpio/cy_gpio.h ****     return (GPIO_PRT_IN(base) >> (pinNum)) & CY_GPIO_IN_MASK;
 780:Generated_Source\PSoC6\pdl\drivers/peripheral/gpio/cy_gpio.h **** }
 781:Generated_Source\PSoC6\pdl\drivers/peripheral/gpio/cy_gpio.h **** 
 782:Generated_Source\PSoC6\pdl\drivers/peripheral/gpio/cy_gpio.h **** 
 783:Generated_Source\PSoC6\pdl\drivers/peripheral/gpio/cy_gpio.h **** /*******************************************************************************
 784:Generated_Source\PSoC6\pdl\drivers/peripheral/gpio/cy_gpio.h **** * Function Name: Cy_GPIO_Write
 785:Generated_Source\PSoC6\pdl\drivers/peripheral/gpio/cy_gpio.h **** ****************************************************************************//**
 786:Generated_Source\PSoC6\pdl\drivers/peripheral/gpio/cy_gpio.h **** *
 787:Generated_Source\PSoC6\pdl\drivers/peripheral/gpio/cy_gpio.h **** * Write a logic 0 or logic 1 state to the output driver.
 788:Generated_Source\PSoC6\pdl\drivers/peripheral/gpio/cy_gpio.h **** *
 789:Generated_Source\PSoC6\pdl\drivers/peripheral/gpio/cy_gpio.h **** * This function should be used only for software driven pins. It does not have
 790:Generated_Source\PSoC6\pdl\drivers/peripheral/gpio/cy_gpio.h **** * any effect on peripheral driven pins.
 791:Generated_Source\PSoC6\pdl\drivers/peripheral/gpio/cy_gpio.h **** *
 792:Generated_Source\PSoC6\pdl\drivers/peripheral/gpio/cy_gpio.h **** * \param base
 793:Generated_Source\PSoC6\pdl\drivers/peripheral/gpio/cy_gpio.h **** * Pointer to the pin's port register base address
 794:Generated_Source\PSoC6\pdl\drivers/peripheral/gpio/cy_gpio.h **** *
 795:Generated_Source\PSoC6\pdl\drivers/peripheral/gpio/cy_gpio.h **** * \param pinNum
 796:Generated_Source\PSoC6\pdl\drivers/peripheral/gpio/cy_gpio.h **** * Position of the pin bit-field within the port register
 797:Generated_Source\PSoC6\pdl\drivers/peripheral/gpio/cy_gpio.h **** *
 798:Generated_Source\PSoC6\pdl\drivers/peripheral/gpio/cy_gpio.h **** * \param value
 799:Generated_Source\PSoC6\pdl\drivers/peripheral/gpio/cy_gpio.h **** * Logic level to drive out on the pin
 800:Generated_Source\PSoC6\pdl\drivers/peripheral/gpio/cy_gpio.h **** *
 801:Generated_Source\PSoC6\pdl\drivers/peripheral/gpio/cy_gpio.h **** * \funcusage
 802:Generated_Source\PSoC6\pdl\drivers/peripheral/gpio/cy_gpio.h **** * \snippet gpio/gpio_v1_10_sut_01.cydsn/main_cm4.c snippet_Cy_GPIO_Write
 803:Generated_Source\PSoC6\pdl\drivers/peripheral/gpio/cy_gpio.h **** *
ARM GAS  C:\Users\Angel\AppData\Local\Temp\ccvqOPgy.s 			page 30


 804:Generated_Source\PSoC6\pdl\drivers/peripheral/gpio/cy_gpio.h **** *******************************************************************************/
 805:Generated_Source\PSoC6\pdl\drivers/peripheral/gpio/cy_gpio.h **** __STATIC_INLINE void Cy_GPIO_Write(GPIO_PRT_Type* base, uint32_t pinNum, uint32_t value)
 806:Generated_Source\PSoC6\pdl\drivers/peripheral/gpio/cy_gpio.h **** {
 807:Generated_Source\PSoC6\pdl\drivers/peripheral/gpio/cy_gpio.h ****     CY_ASSERT_L2(CY_GPIO_IS_PIN_VALID(pinNum));
 808:Generated_Source\PSoC6\pdl\drivers/peripheral/gpio/cy_gpio.h ****     CY_ASSERT_L2(CY_GPIO_IS_VALUE_VALID(value));
 809:Generated_Source\PSoC6\pdl\drivers/peripheral/gpio/cy_gpio.h **** 
 810:Generated_Source\PSoC6\pdl\drivers/peripheral/gpio/cy_gpio.h ****     /* Thread-safe: Directly access the pin registers instead of base->OUT */
 811:Generated_Source\PSoC6\pdl\drivers/peripheral/gpio/cy_gpio.h ****     if(0UL == value)
 812:Generated_Source\PSoC6\pdl\drivers/peripheral/gpio/cy_gpio.h ****     {
 813:Generated_Source\PSoC6\pdl\drivers/peripheral/gpio/cy_gpio.h ****         GPIO_PRT_OUT_CLR(base) = CY_GPIO_OUT_MASK << pinNum;
 394              		.loc 2 813 0
 395 001a 504B     		ldr	r3, .L54
 396 001c 0122     		movs	r2, #1
 397 001e 5A60     		str	r2, [r3, #4]
 398              	.LVL18:
 399              	.LBE291:
 400              	.LBE290:
 401              	.LBB292:
 402              	.LBB293:
 403 0020 0222     		movs	r2, #2
 404 0022 5A60     		str	r2, [r3, #4]
 405              	.LVL19:
 406              	.LBE293:
 407              	.LBE292:
 408              	.LBB294:
 409              	.LBB295:
 410 0024 0422     		movs	r2, #4
 411 0026 5A60     		str	r2, [r3, #4]
 412              	.LVL20:
 413              	.LBE295:
 414              	.LBE294:
 415              	.LBB296:
 416              	.LBB297:
 417 0028 0822     		movs	r2, #8
 418 002a 5A60     		str	r2, [r3, #4]
 419 002c 7047     		bx	lr
 420              	.LVL21:
 421              	.L39:
 422              	.LBE297:
 423              	.LBE296:
 424              	.LBB298:
 425              	.LBB299:
 814:Generated_Source\PSoC6\pdl\drivers/peripheral/gpio/cy_gpio.h ****     }
 815:Generated_Source\PSoC6\pdl\drivers/peripheral/gpio/cy_gpio.h ****     else
 816:Generated_Source\PSoC6\pdl\drivers/peripheral/gpio/cy_gpio.h ****     {
 817:Generated_Source\PSoC6\pdl\drivers/peripheral/gpio/cy_gpio.h ****         GPIO_PRT_OUT_SET(base) = CY_GPIO_OUT_MASK << pinNum;
 426              		.loc 2 817 0
 427 002e 4B4B     		ldr	r3, .L54
 428 0030 0122     		movs	r2, #1
 429 0032 9A60     		str	r2, [r3, #8]
 430              	.LVL22:
 431              	.LBE299:
 432              	.LBE298:
 433              	.LBB300:
 434              	.LBB301:
 813:Generated_Source\PSoC6\pdl\drivers/peripheral/gpio/cy_gpio.h ****     }
 435              		.loc 2 813 0
ARM GAS  C:\Users\Angel\AppData\Local\Temp\ccvqOPgy.s 			page 31


 436 0034 0222     		movs	r2, #2
 437 0036 5A60     		str	r2, [r3, #4]
 438              	.LVL23:
 439              	.LBE301:
 440              	.LBE300:
 441              	.LBB302:
 442              	.LBB303:
 443 0038 0422     		movs	r2, #4
 444 003a 5A60     		str	r2, [r3, #4]
 445              	.LVL24:
 446              	.LBE303:
 447              	.LBE302:
 448              	.LBB304:
 449              	.LBB305:
 450 003c 0822     		movs	r2, #8
 451 003e 5A60     		str	r2, [r3, #4]
 452 0040 7047     		bx	lr
 453              	.LVL25:
 454              	.L40:
 455              	.LBE305:
 456              	.LBE304:
 457              	.LBB306:
 458              	.LBB307:
 459 0042 464B     		ldr	r3, .L54
 460 0044 0122     		movs	r2, #1
 461 0046 5A60     		str	r2, [r3, #4]
 462              	.LVL26:
 463              	.LBE307:
 464              	.LBE306:
 465              	.LBB308:
 466              	.LBB309:
 467              		.loc 2 817 0
 468 0048 0222     		movs	r2, #2
 469 004a 9A60     		str	r2, [r3, #8]
 470              	.LVL27:
 471              	.LBE309:
 472              	.LBE308:
 473              	.LBB310:
 474              	.LBB311:
 813:Generated_Source\PSoC6\pdl\drivers/peripheral/gpio/cy_gpio.h ****     }
 475              		.loc 2 813 0
 476 004c 0422     		movs	r2, #4
 477 004e 5A60     		str	r2, [r3, #4]
 478              	.LVL28:
 479              	.LBE311:
 480              	.LBE310:
 481              	.LBB312:
 482              	.LBB313:
 483 0050 0822     		movs	r2, #8
 484 0052 5A60     		str	r2, [r3, #4]
 485 0054 7047     		bx	lr
 486              	.LVL29:
 487              	.L41:
 488              	.LBE313:
 489              	.LBE312:
 490              	.LBB314:
 491              	.LBB315:
ARM GAS  C:\Users\Angel\AppData\Local\Temp\ccvqOPgy.s 			page 32


 492              		.loc 2 817 0
 493 0056 414B     		ldr	r3, .L54
 494 0058 0122     		movs	r2, #1
 495 005a 9A60     		str	r2, [r3, #8]
 496              	.LVL30:
 497              	.LBE315:
 498              	.LBE314:
 499              	.LBB316:
 500              	.LBB317:
 501 005c 0222     		movs	r2, #2
 502 005e 9A60     		str	r2, [r3, #8]
 503              	.LVL31:
 504              	.LBE317:
 505              	.LBE316:
 506              	.LBB318:
 507              	.LBB319:
 813:Generated_Source\PSoC6\pdl\drivers/peripheral/gpio/cy_gpio.h ****     }
 508              		.loc 2 813 0
 509 0060 0422     		movs	r2, #4
 510 0062 5A60     		str	r2, [r3, #4]
 511              	.LVL32:
 512              	.LBE319:
 513              	.LBE318:
 514              	.LBB320:
 515              	.LBB321:
 516 0064 0822     		movs	r2, #8
 517 0066 5A60     		str	r2, [r3, #4]
 518 0068 7047     		bx	lr
 519              	.LVL33:
 520              	.L42:
 521              	.LBE321:
 522              	.LBE320:
 523              	.LBB322:
 524              	.LBB323:
 525 006a 3C4B     		ldr	r3, .L54
 526 006c 0122     		movs	r2, #1
 527 006e 5A60     		str	r2, [r3, #4]
 528              	.LVL34:
 529              	.LBE323:
 530              	.LBE322:
 531              	.LBB324:
 532              	.LBB325:
 533 0070 0222     		movs	r2, #2
 534 0072 5A60     		str	r2, [r3, #4]
 535              	.LVL35:
 536              	.LBE325:
 537              	.LBE324:
 538              	.LBB326:
 539              	.LBB327:
 540              		.loc 2 817 0
 541 0074 0422     		movs	r2, #4
 542 0076 9A60     		str	r2, [r3, #8]
 543              	.LVL36:
 544              	.LBE327:
 545              	.LBE326:
 546              	.LBB328:
 547              	.LBB329:
ARM GAS  C:\Users\Angel\AppData\Local\Temp\ccvqOPgy.s 			page 33


 813:Generated_Source\PSoC6\pdl\drivers/peripheral/gpio/cy_gpio.h ****     }
 548              		.loc 2 813 0
 549 0078 0822     		movs	r2, #8
 550 007a 5A60     		str	r2, [r3, #4]
 551 007c 7047     		bx	lr
 552              	.LVL37:
 553              	.L43:
 554              	.LBE329:
 555              	.LBE328:
 556              	.LBB330:
 557              	.LBB331:
 558              		.loc 2 817 0
 559 007e 374B     		ldr	r3, .L54
 560 0080 0122     		movs	r2, #1
 561 0082 9A60     		str	r2, [r3, #8]
 562              	.LVL38:
 563              	.LBE331:
 564              	.LBE330:
 565              	.LBB332:
 566              	.LBB333:
 813:Generated_Source\PSoC6\pdl\drivers/peripheral/gpio/cy_gpio.h ****     }
 567              		.loc 2 813 0
 568 0084 0222     		movs	r2, #2
 569 0086 5A60     		str	r2, [r3, #4]
 570              	.LVL39:
 571              	.LBE333:
 572              	.LBE332:
 573              	.LBB334:
 574              	.LBB335:
 575              		.loc 2 817 0
 576 0088 0422     		movs	r2, #4
 577 008a 9A60     		str	r2, [r3, #8]
 578              	.LVL40:
 579              	.LBE335:
 580              	.LBE334:
 581              	.LBB336:
 582              	.LBB337:
 813:Generated_Source\PSoC6\pdl\drivers/peripheral/gpio/cy_gpio.h ****     }
 583              		.loc 2 813 0
 584 008c 0822     		movs	r2, #8
 585 008e 5A60     		str	r2, [r3, #4]
 586 0090 7047     		bx	lr
 587              	.LVL41:
 588              	.L44:
 589              	.LBE337:
 590              	.LBE336:
 591              	.LBB338:
 592              	.LBB339:
 593 0092 324B     		ldr	r3, .L54
 594 0094 0122     		movs	r2, #1
 595 0096 5A60     		str	r2, [r3, #4]
 596              	.LVL42:
 597              	.LBE339:
 598              	.LBE338:
 599              	.LBB340:
 600              	.LBB341:
 601              		.loc 2 817 0
ARM GAS  C:\Users\Angel\AppData\Local\Temp\ccvqOPgy.s 			page 34


 602 0098 0222     		movs	r2, #2
 603 009a 9A60     		str	r2, [r3, #8]
 604              	.LVL43:
 605              	.LBE341:
 606              	.LBE340:
 607              	.LBB342:
 608              	.LBB343:
 609 009c 0422     		movs	r2, #4
 610 009e 9A60     		str	r2, [r3, #8]
 611              	.LVL44:
 612              	.LBE343:
 613              	.LBE342:
 614              	.LBB344:
 615              	.LBB345:
 813:Generated_Source\PSoC6\pdl\drivers/peripheral/gpio/cy_gpio.h ****     }
 616              		.loc 2 813 0
 617 00a0 0822     		movs	r2, #8
 618 00a2 5A60     		str	r2, [r3, #4]
 619 00a4 7047     		bx	lr
 620              	.LVL45:
 621              	.L45:
 622              	.LBE345:
 623              	.LBE344:
 624              	.LBB346:
 625              	.LBB347:
 626              		.loc 2 817 0
 627 00a6 2D4B     		ldr	r3, .L54
 628 00a8 0122     		movs	r2, #1
 629 00aa 9A60     		str	r2, [r3, #8]
 630              	.LVL46:
 631              	.LBE347:
 632              	.LBE346:
 633              	.LBB348:
 634              	.LBB349:
 635 00ac 0222     		movs	r2, #2
 636 00ae 9A60     		str	r2, [r3, #8]
 637              	.LVL47:
 638              	.LBE349:
 639              	.LBE348:
 640              	.LBB350:
 641              	.LBB351:
 642 00b0 0422     		movs	r2, #4
 643 00b2 9A60     		str	r2, [r3, #8]
 644              	.LVL48:
 645              	.LBE351:
 646              	.LBE350:
 647              	.LBB352:
 648              	.LBB353:
 813:Generated_Source\PSoC6\pdl\drivers/peripheral/gpio/cy_gpio.h ****     }
 649              		.loc 2 813 0
 650 00b4 0822     		movs	r2, #8
 651 00b6 5A60     		str	r2, [r3, #4]
 652 00b8 7047     		bx	lr
 653              	.LVL49:
 654              	.L46:
 655              	.LBE353:
 656              	.LBE352:
ARM GAS  C:\Users\Angel\AppData\Local\Temp\ccvqOPgy.s 			page 35


 657              	.LBB354:
 658              	.LBB355:
 659 00ba 284B     		ldr	r3, .L54
 660 00bc 0122     		movs	r2, #1
 661 00be 5A60     		str	r2, [r3, #4]
 662              	.LVL50:
 663              	.LBE355:
 664              	.LBE354:
 665              	.LBB356:
 666              	.LBB357:
 667 00c0 0222     		movs	r2, #2
 668 00c2 5A60     		str	r2, [r3, #4]
 669              	.LVL51:
 670              	.LBE357:
 671              	.LBE356:
 672              	.LBB358:
 673              	.LBB359:
 674 00c4 0422     		movs	r2, #4
 675 00c6 5A60     		str	r2, [r3, #4]
 676              	.LVL52:
 677              	.LBE359:
 678              	.LBE358:
 679              	.LBB360:
 680              	.LBB361:
 681              		.loc 2 817 0
 682 00c8 0822     		movs	r2, #8
 683 00ca 9A60     		str	r2, [r3, #8]
 684 00cc 7047     		bx	lr
 685              	.LVL53:
 686              	.L47:
 687              	.LBE361:
 688              	.LBE360:
 689              	.LBB362:
 690              	.LBB363:
 691 00ce 234B     		ldr	r3, .L54
 692 00d0 0122     		movs	r2, #1
 693 00d2 9A60     		str	r2, [r3, #8]
 694              	.LVL54:
 695              	.LBE363:
 696              	.LBE362:
 697              	.LBB364:
 698              	.LBB365:
 813:Generated_Source\PSoC6\pdl\drivers/peripheral/gpio/cy_gpio.h ****     }
 699              		.loc 2 813 0
 700 00d4 0222     		movs	r2, #2
 701 00d6 5A60     		str	r2, [r3, #4]
 702              	.LVL55:
 703              	.LBE365:
 704              	.LBE364:
 705              	.LBB366:
 706              	.LBB367:
 707 00d8 0422     		movs	r2, #4
 708 00da 5A60     		str	r2, [r3, #4]
 709              	.LVL56:
 710              	.LBE367:
 711              	.LBE366:
 712              	.LBB368:
ARM GAS  C:\Users\Angel\AppData\Local\Temp\ccvqOPgy.s 			page 36


 713              	.LBB369:
 714              		.loc 2 817 0
 715 00dc 0822     		movs	r2, #8
 716 00de 9A60     		str	r2, [r3, #8]
 717 00e0 7047     		bx	lr
 718              	.LVL57:
 719              	.L48:
 720              	.LBE369:
 721              	.LBE368:
 722              	.LBB370:
 723              	.LBB371:
 813:Generated_Source\PSoC6\pdl\drivers/peripheral/gpio/cy_gpio.h ****     }
 724              		.loc 2 813 0
 725 00e2 1E4B     		ldr	r3, .L54
 726 00e4 0122     		movs	r2, #1
 727 00e6 5A60     		str	r2, [r3, #4]
 728              	.LVL58:
 729              	.LBE371:
 730              	.LBE370:
 731              	.LBB372:
 732              	.LBB373:
 733              		.loc 2 817 0
 734 00e8 0222     		movs	r2, #2
 735 00ea 9A60     		str	r2, [r3, #8]
 736              	.LVL59:
 737              	.LBE373:
 738              	.LBE372:
 739              	.LBB374:
 740              	.LBB375:
 813:Generated_Source\PSoC6\pdl\drivers/peripheral/gpio/cy_gpio.h ****     }
 741              		.loc 2 813 0
 742 00ec 0422     		movs	r2, #4
 743 00ee 5A60     		str	r2, [r3, #4]
 744              	.LVL60:
 745              	.LBE375:
 746              	.LBE374:
 747              	.LBB376:
 748              	.LBB377:
 749              		.loc 2 817 0
 750 00f0 0822     		movs	r2, #8
 751 00f2 9A60     		str	r2, [r3, #8]
 752 00f4 7047     		bx	lr
 753              	.LVL61:
 754              	.L49:
 755              	.LBE377:
 756              	.LBE376:
 757              	.LBB378:
 758              	.LBB379:
 759 00f6 194B     		ldr	r3, .L54
 760 00f8 0122     		movs	r2, #1
 761 00fa 9A60     		str	r2, [r3, #8]
 762              	.LVL62:
 763              	.LBE379:
 764              	.LBE378:
 765              	.LBB380:
 766              	.LBB381:
 767 00fc 0222     		movs	r2, #2
ARM GAS  C:\Users\Angel\AppData\Local\Temp\ccvqOPgy.s 			page 37


 768 00fe 9A60     		str	r2, [r3, #8]
 769              	.LVL63:
 770              	.LBE381:
 771              	.LBE380:
 772              	.LBB382:
 773              	.LBB383:
 813:Generated_Source\PSoC6\pdl\drivers/peripheral/gpio/cy_gpio.h ****     }
 774              		.loc 2 813 0
 775 0100 0422     		movs	r2, #4
 776 0102 5A60     		str	r2, [r3, #4]
 777              	.LVL64:
 778              	.LBE383:
 779              	.LBE382:
 780              	.LBB384:
 781              	.LBB385:
 782              		.loc 2 817 0
 783 0104 0822     		movs	r2, #8
 784 0106 9A60     		str	r2, [r3, #8]
 785 0108 7047     		bx	lr
 786              	.LVL65:
 787              	.L50:
 788              	.LBE385:
 789              	.LBE384:
 790              	.LBB386:
 791              	.LBB387:
 813:Generated_Source\PSoC6\pdl\drivers/peripheral/gpio/cy_gpio.h ****     }
 792              		.loc 2 813 0
 793 010a 144B     		ldr	r3, .L54
 794 010c 0122     		movs	r2, #1
 795 010e 5A60     		str	r2, [r3, #4]
 796              	.LVL66:
 797              	.LBE387:
 798              	.LBE386:
 799              	.LBB388:
 800              	.LBB389:
 801 0110 0222     		movs	r2, #2
 802 0112 5A60     		str	r2, [r3, #4]
 803              	.LVL67:
 804              	.LBE389:
 805              	.LBE388:
 806              	.LBB390:
 807              	.LBB391:
 808              		.loc 2 817 0
 809 0114 0422     		movs	r2, #4
 810 0116 9A60     		str	r2, [r3, #8]
 811              	.LVL68:
 812              	.LBE391:
 813              	.LBE390:
 814              	.LBB392:
 815              	.LBB393:
 816 0118 0822     		movs	r2, #8
 817 011a 9A60     		str	r2, [r3, #8]
 818 011c 7047     		bx	lr
 819              	.LVL69:
 820              	.L51:
 821              	.LBE393:
 822              	.LBE392:
ARM GAS  C:\Users\Angel\AppData\Local\Temp\ccvqOPgy.s 			page 38


 823              	.LBB394:
 824              	.LBB395:
 825 011e 0F4B     		ldr	r3, .L54
 826 0120 0122     		movs	r2, #1
 827 0122 9A60     		str	r2, [r3, #8]
 828              	.LVL70:
 829              	.LBE395:
 830              	.LBE394:
 831              	.LBB396:
 832              	.LBB397:
 813:Generated_Source\PSoC6\pdl\drivers/peripheral/gpio/cy_gpio.h ****     }
 833              		.loc 2 813 0
 834 0124 0222     		movs	r2, #2
 835 0126 5A60     		str	r2, [r3, #4]
 836              	.LVL71:
 837              	.LBE397:
 838              	.LBE396:
 839              	.LBB398:
 840              	.LBB399:
 841              		.loc 2 817 0
 842 0128 0422     		movs	r2, #4
 843 012a 9A60     		str	r2, [r3, #8]
 844              	.LVL72:
 845              	.LBE399:
 846              	.LBE398:
 847              	.LBB400:
 848              	.LBB401:
 849 012c 0822     		movs	r2, #8
 850 012e 9A60     		str	r2, [r3, #8]
 851 0130 7047     		bx	lr
 852              	.LVL73:
 853              	.L52:
 854              	.LBE401:
 855              	.LBE400:
 856              	.LBB402:
 857              	.LBB403:
 813:Generated_Source\PSoC6\pdl\drivers/peripheral/gpio/cy_gpio.h ****     }
 858              		.loc 2 813 0
 859 0132 0A4B     		ldr	r3, .L54
 860 0134 0122     		movs	r2, #1
 861 0136 5A60     		str	r2, [r3, #4]
 862              	.LVL74:
 863              	.LBE403:
 864              	.LBE402:
 865              	.LBB404:
 866              	.LBB405:
 867              		.loc 2 817 0
 868 0138 0222     		movs	r2, #2
 869 013a 9A60     		str	r2, [r3, #8]
 870              	.LVL75:
 871              	.LBE405:
 872              	.LBE404:
 873              	.LBB406:
 874              	.LBB407:
 875 013c 0422     		movs	r2, #4
 876 013e 9A60     		str	r2, [r3, #8]
 877              	.LVL76:
ARM GAS  C:\Users\Angel\AppData\Local\Temp\ccvqOPgy.s 			page 39


 878              	.LBE407:
 879              	.LBE406:
 880              	.LBB408:
 881              	.LBB409:
 882 0140 0822     		movs	r2, #8
 883 0142 9A60     		str	r2, [r3, #8]
 884 0144 7047     		bx	lr
 885              	.LVL77:
 886              	.L53:
 887              	.LBE409:
 888              	.LBE408:
 889              	.LBB410:
 890              	.LBB411:
 891 0146 054B     		ldr	r3, .L54
 892 0148 0122     		movs	r2, #1
 893 014a 9A60     		str	r2, [r3, #8]
 894              	.LVL78:
 895              	.LBE411:
 896              	.LBE410:
 897              	.LBB412:
 898              	.LBB413:
 899 014c 0222     		movs	r2, #2
 900 014e 9A60     		str	r2, [r3, #8]
 901              	.LVL79:
 902              	.LBE413:
 903              	.LBE412:
 904              	.LBB414:
 905              	.LBB415:
 906 0150 0422     		movs	r2, #4
 907 0152 9A60     		str	r2, [r3, #8]
 908              	.LVL80:
 909              	.LBE415:
 910              	.LBE414:
 911              	.LBB416:
 912              	.LBB417:
 913 0154 0822     		movs	r2, #8
 914 0156 9A60     		str	r2, [r3, #8]
 915              	.LVL81:
 916              	.L35:
 917 0158 7047     		bx	lr
 918              	.L55:
 919 015a 00BF     		.align	2
 920              	.L54:
 921 015c 80043240 		.word	1077019776
 922              	.LBE417:
 923              	.LBE416:
 924              		.cfi_endproc
 925              	.LFE529:
 926              		.size	rowselect, .-rowselect
 927              		.section	.text.columnselect,"ax",%progbits
 928              		.align	2
 929              		.global	columnselect
 930              		.thumb
 931              		.thumb_func
 932              		.type	columnselect, %function
 933              	columnselect:
 934              	.LFB530:
ARM GAS  C:\Users\Angel\AppData\Local\Temp\ccvqOPgy.s 			page 40


 147:main_cm4.c    **** switch (in)
 935              		.loc 1 147 0
 936              		.cfi_startproc
 937              		@ args = 0, pretend = 0, frame = 0
 938              		@ frame_needed = 0, uses_anonymous_args = 0
 939              		@ link register save eliminated.
 940              	.LVL82:
 148:main_cm4.c    **** {
 941              		.loc 1 148 0
 942 0000 0F28     		cmp	r0, #15
 943 0002 00F2D180 		bhi	.L56
 944 0006 DFE810F0 		tbh	[pc, r0, lsl #1]
 945              	.L59:
 946 000a 1000     		.2byte	(.L58-.L59)/2
 947 000c 1C00     		.2byte	(.L60-.L59)/2
 948 000e 2800     		.2byte	(.L61-.L59)/2
 949 0010 3400     		.2byte	(.L62-.L59)/2
 950 0012 4000     		.2byte	(.L63-.L59)/2
 951 0014 4C00     		.2byte	(.L64-.L59)/2
 952 0016 5800     		.2byte	(.L65-.L59)/2
 953 0018 6400     		.2byte	(.L66-.L59)/2
 954 001a 7000     		.2byte	(.L67-.L59)/2
 955 001c 7C00     		.2byte	(.L68-.L59)/2
 956 001e 8800     		.2byte	(.L69-.L59)/2
 957 0020 9400     		.2byte	(.L70-.L59)/2
 958 0022 A000     		.2byte	(.L71-.L59)/2
 959 0024 AC00     		.2byte	(.L72-.L59)/2
 960 0026 B800     		.2byte	(.L73-.L59)/2
 961 0028 C400     		.2byte	(.L74-.L59)/2
 962              		.p2align 1
 963              	.L58:
 964              	.LVL83:
 965              	.LBB418:
 966              	.LBB419:
 813:Generated_Source\PSoC6\pdl\drivers/peripheral/gpio/cy_gpio.h ****     }
 967              		.loc 2 813 0
 968 002a 604B     		ldr	r3, .L75
 969 002c 2022     		movs	r2, #32
 970 002e 5A60     		str	r2, [r3, #4]
 971              	.LVL84:
 972              	.LBE419:
 973              	.LBE418:
 974              	.LBB420:
 975              	.LBB421:
 976 0030 4022     		movs	r2, #64
 977 0032 5A60     		str	r2, [r3, #4]
 978              	.LVL85:
 979              	.LBE421:
 980              	.LBE420:
 981              	.LBB422:
 982              	.LBB423:
 983 0034 A3F5C073 		sub	r3, r3, #384
 984 0038 0422     		movs	r2, #4
 985 003a 5A60     		str	r2, [r3, #4]
 986              	.LVL86:
 987              	.LBE423:
 988              	.LBE422:
ARM GAS  C:\Users\Angel\AppData\Local\Temp\ccvqOPgy.s 			page 41


 989              	.LBB424:
 990              	.LBB425:
 991 003c 0822     		movs	r2, #8
 992 003e 5A60     		str	r2, [r3, #4]
 993 0040 7047     		bx	lr
 994              	.LVL87:
 995              	.L60:
 996              	.LBE425:
 997              	.LBE424:
 998              	.LBB426:
 999              	.LBB427:
 1000              		.loc 2 817 0
 1001 0042 5A4B     		ldr	r3, .L75
 1002 0044 2022     		movs	r2, #32
 1003 0046 9A60     		str	r2, [r3, #8]
 1004              	.LVL88:
 1005              	.LBE427:
 1006              	.LBE426:
 1007              	.LBB428:
 1008              	.LBB429:
 813:Generated_Source\PSoC6\pdl\drivers/peripheral/gpio/cy_gpio.h ****     }
 1009              		.loc 2 813 0
 1010 0048 4022     		movs	r2, #64
 1011 004a 5A60     		str	r2, [r3, #4]
 1012              	.LVL89:
 1013              	.LBE429:
 1014              	.LBE428:
 1015              	.LBB430:
 1016              	.LBB431:
 1017 004c A3F5C073 		sub	r3, r3, #384
 1018 0050 0422     		movs	r2, #4
 1019 0052 5A60     		str	r2, [r3, #4]
 1020              	.LVL90:
 1021              	.LBE431:
 1022              	.LBE430:
 1023              	.LBB432:
 1024              	.LBB433:
 1025 0054 0822     		movs	r2, #8
 1026 0056 5A60     		str	r2, [r3, #4]
 1027 0058 7047     		bx	lr
 1028              	.LVL91:
 1029              	.L61:
 1030              	.LBE433:
 1031              	.LBE432:
 1032              	.LBB434:
 1033              	.LBB435:
 1034 005a 544B     		ldr	r3, .L75
 1035 005c 2022     		movs	r2, #32
 1036 005e 5A60     		str	r2, [r3, #4]
 1037              	.LVL92:
 1038              	.LBE435:
 1039              	.LBE434:
 1040              	.LBB436:
 1041              	.LBB437:
 1042              		.loc 2 817 0
 1043 0060 4022     		movs	r2, #64
 1044 0062 9A60     		str	r2, [r3, #8]
ARM GAS  C:\Users\Angel\AppData\Local\Temp\ccvqOPgy.s 			page 42


 1045              	.LVL93:
 1046              	.LBE437:
 1047              	.LBE436:
 1048              	.LBB438:
 1049              	.LBB439:
 813:Generated_Source\PSoC6\pdl\drivers/peripheral/gpio/cy_gpio.h ****     }
 1050              		.loc 2 813 0
 1051 0064 A3F5C073 		sub	r3, r3, #384
 1052 0068 0422     		movs	r2, #4
 1053 006a 5A60     		str	r2, [r3, #4]
 1054              	.LVL94:
 1055              	.LBE439:
 1056              	.LBE438:
 1057              	.LBB440:
 1058              	.LBB441:
 1059 006c 0822     		movs	r2, #8
 1060 006e 5A60     		str	r2, [r3, #4]
 1061 0070 7047     		bx	lr
 1062              	.LVL95:
 1063              	.L62:
 1064              	.LBE441:
 1065              	.LBE440:
 1066              	.LBB442:
 1067              	.LBB443:
 1068              		.loc 2 817 0
 1069 0072 4E4B     		ldr	r3, .L75
 1070 0074 2022     		movs	r2, #32
 1071 0076 9A60     		str	r2, [r3, #8]
 1072              	.LVL96:
 1073              	.LBE443:
 1074              	.LBE442:
 1075              	.LBB444:
 1076              	.LBB445:
 1077 0078 4022     		movs	r2, #64
 1078 007a 9A60     		str	r2, [r3, #8]
 1079              	.LVL97:
 1080              	.LBE445:
 1081              	.LBE444:
 1082              	.LBB446:
 1083              	.LBB447:
 813:Generated_Source\PSoC6\pdl\drivers/peripheral/gpio/cy_gpio.h ****     }
 1084              		.loc 2 813 0
 1085 007c A3F5C073 		sub	r3, r3, #384
 1086 0080 0422     		movs	r2, #4
 1087 0082 5A60     		str	r2, [r3, #4]
 1088              	.LVL98:
 1089              	.LBE447:
 1090              	.LBE446:
 1091              	.LBB448:
 1092              	.LBB449:
 1093 0084 0822     		movs	r2, #8
 1094 0086 5A60     		str	r2, [r3, #4]
 1095 0088 7047     		bx	lr
 1096              	.LVL99:
 1097              	.L63:
 1098              	.LBE449:
 1099              	.LBE448:
ARM GAS  C:\Users\Angel\AppData\Local\Temp\ccvqOPgy.s 			page 43


 1100              	.LBB450:
 1101              	.LBB451:
 1102 008a 484B     		ldr	r3, .L75
 1103 008c 2022     		movs	r2, #32
 1104 008e 5A60     		str	r2, [r3, #4]
 1105              	.LVL100:
 1106              	.LBE451:
 1107              	.LBE450:
 1108              	.LBB452:
 1109              	.LBB453:
 1110 0090 4022     		movs	r2, #64
 1111 0092 5A60     		str	r2, [r3, #4]
 1112              	.LVL101:
 1113              	.LBE453:
 1114              	.LBE452:
 1115              	.LBB454:
 1116              	.LBB455:
 1117              		.loc 2 817 0
 1118 0094 A3F5C073 		sub	r3, r3, #384
 1119 0098 0422     		movs	r2, #4
 1120 009a 9A60     		str	r2, [r3, #8]
 1121              	.LVL102:
 1122              	.LBE455:
 1123              	.LBE454:
 1124              	.LBB456:
 1125              	.LBB457:
 813:Generated_Source\PSoC6\pdl\drivers/peripheral/gpio/cy_gpio.h ****     }
 1126              		.loc 2 813 0
 1127 009c 0822     		movs	r2, #8
 1128 009e 5A60     		str	r2, [r3, #4]
 1129 00a0 7047     		bx	lr
 1130              	.LVL103:
 1131              	.L64:
 1132              	.LBE457:
 1133              	.LBE456:
 1134              	.LBB458:
 1135              	.LBB459:
 1136              		.loc 2 817 0
 1137 00a2 424B     		ldr	r3, .L75
 1138 00a4 2022     		movs	r2, #32
 1139 00a6 9A60     		str	r2, [r3, #8]
 1140              	.LVL104:
 1141              	.LBE459:
 1142              	.LBE458:
 1143              	.LBB460:
 1144              	.LBB461:
 813:Generated_Source\PSoC6\pdl\drivers/peripheral/gpio/cy_gpio.h ****     }
 1145              		.loc 2 813 0
 1146 00a8 4022     		movs	r2, #64
 1147 00aa 5A60     		str	r2, [r3, #4]
 1148              	.LVL105:
 1149              	.LBE461:
 1150              	.LBE460:
 1151              	.LBB462:
 1152              	.LBB463:
 1153              		.loc 2 817 0
 1154 00ac A3F5C073 		sub	r3, r3, #384
ARM GAS  C:\Users\Angel\AppData\Local\Temp\ccvqOPgy.s 			page 44


 1155 00b0 0422     		movs	r2, #4
 1156 00b2 9A60     		str	r2, [r3, #8]
 1157              	.LVL106:
 1158              	.LBE463:
 1159              	.LBE462:
 1160              	.LBB464:
 1161              	.LBB465:
 813:Generated_Source\PSoC6\pdl\drivers/peripheral/gpio/cy_gpio.h ****     }
 1162              		.loc 2 813 0
 1163 00b4 0822     		movs	r2, #8
 1164 00b6 5A60     		str	r2, [r3, #4]
 1165 00b8 7047     		bx	lr
 1166              	.LVL107:
 1167              	.L65:
 1168              	.LBE465:
 1169              	.LBE464:
 1170              	.LBB466:
 1171              	.LBB467:
 1172 00ba 3C4B     		ldr	r3, .L75
 1173 00bc 2022     		movs	r2, #32
 1174 00be 5A60     		str	r2, [r3, #4]
 1175              	.LVL108:
 1176              	.LBE467:
 1177              	.LBE466:
 1178              	.LBB468:
 1179              	.LBB469:
 1180              		.loc 2 817 0
 1181 00c0 4022     		movs	r2, #64
 1182 00c2 9A60     		str	r2, [r3, #8]
 1183              	.LVL109:
 1184              	.LBE469:
 1185              	.LBE468:
 1186              	.LBB470:
 1187              	.LBB471:
 1188 00c4 A3F5C073 		sub	r3, r3, #384
 1189 00c8 0422     		movs	r2, #4
 1190 00ca 9A60     		str	r2, [r3, #8]
 1191              	.LVL110:
 1192              	.LBE471:
 1193              	.LBE470:
 1194              	.LBB472:
 1195              	.LBB473:
 813:Generated_Source\PSoC6\pdl\drivers/peripheral/gpio/cy_gpio.h ****     }
 1196              		.loc 2 813 0
 1197 00cc 0822     		movs	r2, #8
 1198 00ce 5A60     		str	r2, [r3, #4]
 1199 00d0 7047     		bx	lr
 1200              	.LVL111:
 1201              	.L66:
 1202              	.LBE473:
 1203              	.LBE472:
 1204              	.LBB474:
 1205              	.LBB475:
 1206              		.loc 2 817 0
 1207 00d2 364B     		ldr	r3, .L75
 1208 00d4 2022     		movs	r2, #32
 1209 00d6 9A60     		str	r2, [r3, #8]
ARM GAS  C:\Users\Angel\AppData\Local\Temp\ccvqOPgy.s 			page 45


 1210              	.LVL112:
 1211              	.LBE475:
 1212              	.LBE474:
 1213              	.LBB476:
 1214              	.LBB477:
 1215 00d8 4022     		movs	r2, #64
 1216 00da 9A60     		str	r2, [r3, #8]
 1217              	.LVL113:
 1218              	.LBE477:
 1219              	.LBE476:
 1220              	.LBB478:
 1221              	.LBB479:
 1222 00dc A3F5C073 		sub	r3, r3, #384
 1223 00e0 0422     		movs	r2, #4
 1224 00e2 9A60     		str	r2, [r3, #8]
 1225              	.LVL114:
 1226              	.LBE479:
 1227              	.LBE478:
 1228              	.LBB480:
 1229              	.LBB481:
 813:Generated_Source\PSoC6\pdl\drivers/peripheral/gpio/cy_gpio.h ****     }
 1230              		.loc 2 813 0
 1231 00e4 0822     		movs	r2, #8
 1232 00e6 5A60     		str	r2, [r3, #4]
 1233 00e8 7047     		bx	lr
 1234              	.LVL115:
 1235              	.L67:
 1236              	.LBE481:
 1237              	.LBE480:
 1238              	.LBB482:
 1239              	.LBB483:
 1240 00ea 304B     		ldr	r3, .L75
 1241 00ec 2022     		movs	r2, #32
 1242 00ee 5A60     		str	r2, [r3, #4]
 1243              	.LVL116:
 1244              	.LBE483:
 1245              	.LBE482:
 1246              	.LBB484:
 1247              	.LBB485:
 1248 00f0 4022     		movs	r2, #64
 1249 00f2 5A60     		str	r2, [r3, #4]
 1250              	.LVL117:
 1251              	.LBE485:
 1252              	.LBE484:
 1253              	.LBB486:
 1254              	.LBB487:
 1255 00f4 A3F5C073 		sub	r3, r3, #384
 1256 00f8 0422     		movs	r2, #4
 1257 00fa 5A60     		str	r2, [r3, #4]
 1258              	.LVL118:
 1259              	.LBE487:
 1260              	.LBE486:
 1261              	.LBB488:
 1262              	.LBB489:
 1263              		.loc 2 817 0
 1264 00fc 0822     		movs	r2, #8
 1265 00fe 9A60     		str	r2, [r3, #8]
ARM GAS  C:\Users\Angel\AppData\Local\Temp\ccvqOPgy.s 			page 46


 1266 0100 7047     		bx	lr
 1267              	.LVL119:
 1268              	.L68:
 1269              	.LBE489:
 1270              	.LBE488:
 1271              	.LBB490:
 1272              	.LBB491:
 1273 0102 2A4B     		ldr	r3, .L75
 1274 0104 2022     		movs	r2, #32
 1275 0106 9A60     		str	r2, [r3, #8]
 1276              	.LVL120:
 1277              	.LBE491:
 1278              	.LBE490:
 1279              	.LBB492:
 1280              	.LBB493:
 813:Generated_Source\PSoC6\pdl\drivers/peripheral/gpio/cy_gpio.h ****     }
 1281              		.loc 2 813 0
 1282 0108 4022     		movs	r2, #64
 1283 010a 5A60     		str	r2, [r3, #4]
 1284              	.LVL121:
 1285              	.LBE493:
 1286              	.LBE492:
 1287              	.LBB494:
 1288              	.LBB495:
 1289 010c A3F5C073 		sub	r3, r3, #384
 1290 0110 0422     		movs	r2, #4
 1291 0112 5A60     		str	r2, [r3, #4]
 1292              	.LVL122:
 1293              	.LBE495:
 1294              	.LBE494:
 1295              	.LBB496:
 1296              	.LBB497:
 1297              		.loc 2 817 0
 1298 0114 0822     		movs	r2, #8
 1299 0116 9A60     		str	r2, [r3, #8]
 1300 0118 7047     		bx	lr
 1301              	.LVL123:
 1302              	.L69:
 1303              	.LBE497:
 1304              	.LBE496:
 1305              	.LBB498:
 1306              	.LBB499:
 813:Generated_Source\PSoC6\pdl\drivers/peripheral/gpio/cy_gpio.h ****     }
 1307              		.loc 2 813 0
 1308 011a 244B     		ldr	r3, .L75
 1309 011c 2022     		movs	r2, #32
 1310 011e 5A60     		str	r2, [r3, #4]
 1311              	.LVL124:
 1312              	.LBE499:
 1313              	.LBE498:
 1314              	.LBB500:
 1315              	.LBB501:
 1316              		.loc 2 817 0
 1317 0120 4022     		movs	r2, #64
 1318 0122 9A60     		str	r2, [r3, #8]
 1319              	.LVL125:
 1320              	.LBE501:
ARM GAS  C:\Users\Angel\AppData\Local\Temp\ccvqOPgy.s 			page 47


 1321              	.LBE500:
 1322              	.LBB502:
 1323              	.LBB503:
 813:Generated_Source\PSoC6\pdl\drivers/peripheral/gpio/cy_gpio.h ****     }
 1324              		.loc 2 813 0
 1325 0124 A3F5C073 		sub	r3, r3, #384
 1326 0128 0422     		movs	r2, #4
 1327 012a 5A60     		str	r2, [r3, #4]
 1328              	.LVL126:
 1329              	.LBE503:
 1330              	.LBE502:
 1331              	.LBB504:
 1332              	.LBB505:
 1333              		.loc 2 817 0
 1334 012c 0822     		movs	r2, #8
 1335 012e 9A60     		str	r2, [r3, #8]
 1336 0130 7047     		bx	lr
 1337              	.LVL127:
 1338              	.L70:
 1339              	.LBE505:
 1340              	.LBE504:
 1341              	.LBB506:
 1342              	.LBB507:
 1343 0132 1E4B     		ldr	r3, .L75
 1344 0134 2022     		movs	r2, #32
 1345 0136 9A60     		str	r2, [r3, #8]
 1346              	.LVL128:
 1347              	.LBE507:
 1348              	.LBE506:
 1349              	.LBB508:
 1350              	.LBB509:
 1351 0138 4022     		movs	r2, #64
 1352 013a 9A60     		str	r2, [r3, #8]
 1353              	.LVL129:
 1354              	.LBE509:
 1355              	.LBE508:
 1356              	.LBB510:
 1357              	.LBB511:
 813:Generated_Source\PSoC6\pdl\drivers/peripheral/gpio/cy_gpio.h ****     }
 1358              		.loc 2 813 0
 1359 013c A3F5C073 		sub	r3, r3, #384
 1360 0140 0422     		movs	r2, #4
 1361 0142 5A60     		str	r2, [r3, #4]
 1362              	.LVL130:
 1363              	.LBE511:
 1364              	.LBE510:
 1365              	.LBB512:
 1366              	.LBB513:
 1367              		.loc 2 817 0
 1368 0144 0822     		movs	r2, #8
 1369 0146 9A60     		str	r2, [r3, #8]
 1370 0148 7047     		bx	lr
 1371              	.LVL131:
 1372              	.L71:
 1373              	.LBE513:
 1374              	.LBE512:
 1375              	.LBB514:
ARM GAS  C:\Users\Angel\AppData\Local\Temp\ccvqOPgy.s 			page 48


 1376              	.LBB515:
 813:Generated_Source\PSoC6\pdl\drivers/peripheral/gpio/cy_gpio.h ****     }
 1377              		.loc 2 813 0
 1378 014a 184B     		ldr	r3, .L75
 1379 014c 2022     		movs	r2, #32
 1380 014e 5A60     		str	r2, [r3, #4]
 1381              	.LVL132:
 1382              	.LBE515:
 1383              	.LBE514:
 1384              	.LBB516:
 1385              	.LBB517:
 1386 0150 4022     		movs	r2, #64
 1387 0152 5A60     		str	r2, [r3, #4]
 1388              	.LVL133:
 1389              	.LBE517:
 1390              	.LBE516:
 1391              	.LBB518:
 1392              	.LBB519:
 1393              		.loc 2 817 0
 1394 0154 A3F5C073 		sub	r3, r3, #384
 1395 0158 0422     		movs	r2, #4
 1396 015a 9A60     		str	r2, [r3, #8]
 1397              	.LVL134:
 1398              	.LBE519:
 1399              	.LBE518:
 1400              	.LBB520:
 1401              	.LBB521:
 1402 015c 0822     		movs	r2, #8
 1403 015e 9A60     		str	r2, [r3, #8]
 1404 0160 7047     		bx	lr
 1405              	.LVL135:
 1406              	.L72:
 1407              	.LBE521:
 1408              	.LBE520:
 1409              	.LBB522:
 1410              	.LBB523:
 1411 0162 124B     		ldr	r3, .L75
 1412 0164 2022     		movs	r2, #32
 1413 0166 9A60     		str	r2, [r3, #8]
 1414              	.LVL136:
 1415              	.LBE523:
 1416              	.LBE522:
 1417              	.LBB524:
 1418              	.LBB525:
 813:Generated_Source\PSoC6\pdl\drivers/peripheral/gpio/cy_gpio.h ****     }
 1419              		.loc 2 813 0
 1420 0168 4022     		movs	r2, #64
 1421 016a 5A60     		str	r2, [r3, #4]
 1422              	.LVL137:
 1423              	.LBE525:
 1424              	.LBE524:
 1425              	.LBB526:
 1426              	.LBB527:
 1427              		.loc 2 817 0
 1428 016c A3F5C073 		sub	r3, r3, #384
 1429 0170 0422     		movs	r2, #4
 1430 0172 9A60     		str	r2, [r3, #8]
ARM GAS  C:\Users\Angel\AppData\Local\Temp\ccvqOPgy.s 			page 49


 1431              	.LVL138:
 1432              	.LBE527:
 1433              	.LBE526:
 1434              	.LBB528:
 1435              	.LBB529:
 1436 0174 0822     		movs	r2, #8
 1437 0176 9A60     		str	r2, [r3, #8]
 1438 0178 7047     		bx	lr
 1439              	.LVL139:
 1440              	.L73:
 1441              	.LBE529:
 1442              	.LBE528:
 1443              	.LBB530:
 1444              	.LBB531:
 813:Generated_Source\PSoC6\pdl\drivers/peripheral/gpio/cy_gpio.h ****     }
 1445              		.loc 2 813 0
 1446 017a 0C4B     		ldr	r3, .L75
 1447 017c 2022     		movs	r2, #32
 1448 017e 5A60     		str	r2, [r3, #4]
 1449              	.LVL140:
 1450              	.LBE531:
 1451              	.LBE530:
 1452              	.LBB532:
 1453              	.LBB533:
 1454              		.loc 2 817 0
 1455 0180 4022     		movs	r2, #64
 1456 0182 9A60     		str	r2, [r3, #8]
 1457              	.LVL141:
 1458              	.LBE533:
 1459              	.LBE532:
 1460              	.LBB534:
 1461              	.LBB535:
 1462 0184 A3F5C073 		sub	r3, r3, #384
 1463 0188 0422     		movs	r2, #4
 1464 018a 9A60     		str	r2, [r3, #8]
 1465              	.LVL142:
 1466              	.LBE535:
 1467              	.LBE534:
 1468              	.LBB536:
 1469              	.LBB537:
 1470 018c 0822     		movs	r2, #8
 1471 018e 9A60     		str	r2, [r3, #8]
 1472 0190 7047     		bx	lr
 1473              	.LVL143:
 1474              	.L74:
 1475              	.LBE537:
 1476              	.LBE536:
 1477              	.LBB538:
 1478              	.LBB539:
 1479 0192 064B     		ldr	r3, .L75
 1480 0194 2022     		movs	r2, #32
 1481 0196 9A60     		str	r2, [r3, #8]
 1482              	.LVL144:
 1483              	.LBE539:
 1484              	.LBE538:
 1485              	.LBB540:
 1486              	.LBB541:
ARM GAS  C:\Users\Angel\AppData\Local\Temp\ccvqOPgy.s 			page 50


 1487 0198 4022     		movs	r2, #64
 1488 019a 9A60     		str	r2, [r3, #8]
 1489              	.LVL145:
 1490              	.LBE541:
 1491              	.LBE540:
 1492              	.LBB542:
 1493              	.LBB543:
 1494 019c A3F5C073 		sub	r3, r3, #384
 1495 01a0 0422     		movs	r2, #4
 1496 01a2 9A60     		str	r2, [r3, #8]
 1497              	.LVL146:
 1498              	.LBE543:
 1499              	.LBE542:
 1500              	.LBB544:
 1501              	.LBB545:
 1502 01a4 0822     		movs	r2, #8
 1503 01a6 9A60     		str	r2, [r3, #8]
 1504              	.LVL147:
 1505              	.L56:
 1506 01a8 7047     		bx	lr
 1507              	.L76:
 1508 01aa 00BF     		.align	2
 1509              	.L75:
 1510 01ac 80043240 		.word	1077019776
 1511              	.LBE545:
 1512              	.LBE544:
 1513              		.cfi_endproc
 1514              	.LFE530:
 1515              		.size	columnselect, .-columnselect
 1516              		.section	.text.states,"ax",%progbits
 1517              		.align	2
 1518              		.global	states
 1519              		.thumb
 1520              		.thumb_func
 1521              		.type	states, %function
 1522              	states:
 1523              	.LFB531:
 263:main_cm4.c    ****   row[0]    = Cy_GPIO_ReadOut(R0_PORT,R0_NUM);
 1524              		.loc 1 263 0
 1525              		.cfi_startproc
 1526              		@ args = 0, pretend = 0, frame = 0
 1527              		@ frame_needed = 0, uses_anonymous_args = 0
 1528              		@ link register save eliminated.
 1529              	.LVL148:
 1530              	.LBB546:
 1531              	.LBB547:
 818:Generated_Source\PSoC6\pdl\drivers/peripheral/gpio/cy_gpio.h ****     }
 819:Generated_Source\PSoC6\pdl\drivers/peripheral/gpio/cy_gpio.h **** }
 820:Generated_Source\PSoC6\pdl\drivers/peripheral/gpio/cy_gpio.h **** 
 821:Generated_Source\PSoC6\pdl\drivers/peripheral/gpio/cy_gpio.h **** 
 822:Generated_Source\PSoC6\pdl\drivers/peripheral/gpio/cy_gpio.h **** /*******************************************************************************
 823:Generated_Source\PSoC6\pdl\drivers/peripheral/gpio/cy_gpio.h **** * Function Name: Cy_GPIO_ReadOut
 824:Generated_Source\PSoC6\pdl\drivers/peripheral/gpio/cy_gpio.h **** ****************************************************************************//**
 825:Generated_Source\PSoC6\pdl\drivers/peripheral/gpio/cy_gpio.h **** *
 826:Generated_Source\PSoC6\pdl\drivers/peripheral/gpio/cy_gpio.h **** * Reads the current logic level on the pin output driver.
 827:Generated_Source\PSoC6\pdl\drivers/peripheral/gpio/cy_gpio.h **** *
 828:Generated_Source\PSoC6\pdl\drivers/peripheral/gpio/cy_gpio.h **** * \param base
ARM GAS  C:\Users\Angel\AppData\Local\Temp\ccvqOPgy.s 			page 51


 829:Generated_Source\PSoC6\pdl\drivers/peripheral/gpio/cy_gpio.h **** * Pointer to the pin's port register base address
 830:Generated_Source\PSoC6\pdl\drivers/peripheral/gpio/cy_gpio.h **** *
 831:Generated_Source\PSoC6\pdl\drivers/peripheral/gpio/cy_gpio.h **** * \param pinNum
 832:Generated_Source\PSoC6\pdl\drivers/peripheral/gpio/cy_gpio.h **** * Position of the pin bit-field within the port register
 833:Generated_Source\PSoC6\pdl\drivers/peripheral/gpio/cy_gpio.h **** *
 834:Generated_Source\PSoC6\pdl\drivers/peripheral/gpio/cy_gpio.h **** * \return
 835:Generated_Source\PSoC6\pdl\drivers/peripheral/gpio/cy_gpio.h **** * Logic level on the pin output driver
 836:Generated_Source\PSoC6\pdl\drivers/peripheral/gpio/cy_gpio.h **** *
 837:Generated_Source\PSoC6\pdl\drivers/peripheral/gpio/cy_gpio.h **** * \funcusage
 838:Generated_Source\PSoC6\pdl\drivers/peripheral/gpio/cy_gpio.h **** * \snippet gpio/gpio_v1_10_sut_01.cydsn/main_cm4.c snippet_Cy_GPIO_ReadOut
 839:Generated_Source\PSoC6\pdl\drivers/peripheral/gpio/cy_gpio.h **** *
 840:Generated_Source\PSoC6\pdl\drivers/peripheral/gpio/cy_gpio.h **** *******************************************************************************/
 841:Generated_Source\PSoC6\pdl\drivers/peripheral/gpio/cy_gpio.h **** __STATIC_INLINE uint32_t Cy_GPIO_ReadOut(GPIO_PRT_Type* base, uint32_t pinNum)
 842:Generated_Source\PSoC6\pdl\drivers/peripheral/gpio/cy_gpio.h **** {
 843:Generated_Source\PSoC6\pdl\drivers/peripheral/gpio/cy_gpio.h ****     CY_ASSERT_L2(CY_GPIO_IS_PIN_VALID(pinNum));
 844:Generated_Source\PSoC6\pdl\drivers/peripheral/gpio/cy_gpio.h **** 
 845:Generated_Source\PSoC6\pdl\drivers/peripheral/gpio/cy_gpio.h ****     return (GPIO_PRT_OUT(base) >> pinNum) & CY_GPIO_OUT_MASK;
 1532              		.loc 2 845 0
 1533 0000 124B     		ldr	r3, .L78
 1534 0002 1968     		ldr	r1, [r3]
 1535 0004 01F00101 		and	r1, r1, #1
 1536              	.LVL149:
 1537              	.LBE547:
 1538              	.LBE546:
 264:main_cm4.c    ****   row[1]    = Cy_GPIO_ReadOut(R1_PORT,R1_NUM);
 1539              		.loc 1 264 0
 1540 0008 114A     		ldr	r2, .L78+4
 1541 000a 1160     		str	r1, [r2]
 1542              	.LVL150:
 1543              	.LBB548:
 1544              	.LBB549:
 1545              		.loc 2 845 0
 1546 000c 1968     		ldr	r1, [r3]
 1547 000e C1F34001 		ubfx	r1, r1, #1, #1
 1548              	.LVL151:
 1549              	.LBE549:
 1550              	.LBE548:
 265:main_cm4.c    ****   row[2]    = Cy_GPIO_ReadOut(R2_PORT,R2_NUM);
 1551              		.loc 1 265 0
 1552 0012 5160     		str	r1, [r2, #4]
 1553              	.LVL152:
 1554              	.LBB550:
 1555              	.LBB551:
 1556              		.loc 2 845 0
 1557 0014 1968     		ldr	r1, [r3]
 1558 0016 C1F38001 		ubfx	r1, r1, #2, #1
 1559              	.LVL153:
 1560              	.LBE551:
 1561              	.LBE550:
 266:main_cm4.c    ****   row[3]    = Cy_GPIO_ReadOut(R3_PORT,R3_NUM); 
 1562              		.loc 1 266 0
 1563 001a 9160     		str	r1, [r2, #8]
 1564              	.LVL154:
 1565              	.LBB552:
 1566              	.LBB553:
 1567              		.loc 2 845 0
 1568 001c 1968     		ldr	r1, [r3]
ARM GAS  C:\Users\Angel\AppData\Local\Temp\ccvqOPgy.s 			page 52


 1569 001e C1F3C001 		ubfx	r1, r1, #3, #1
 1570              	.LVL155:
 1571              	.LBE553:
 1572              	.LBE552:
 267:main_cm4.c    ****   column[0] = Cy_GPIO_ReadOut(C0_PORT,R0_NUM);
 1573              		.loc 1 267 0
 1574 0022 D160     		str	r1, [r2, #12]
 1575              	.LVL156:
 1576              	.LBB554:
 1577              	.LBB555:
 1578              		.loc 2 845 0
 1579 0024 1968     		ldr	r1, [r3]
 1580 0026 01F00101 		and	r1, r1, #1
 1581              	.LVL157:
 1582              	.LBE555:
 1583              	.LBE554:
 268:main_cm4.c    ****   column[1] = Cy_GPIO_ReadOut(C1_PORT,R1_NUM);
 1584              		.loc 1 268 0
 1585 002a 0A4A     		ldr	r2, .L78+8
 1586 002c 1160     		str	r1, [r2]
 1587              	.LVL158:
 1588              	.LBB556:
 1589              	.LBB557:
 1590              		.loc 2 845 0
 1591 002e 1B68     		ldr	r3, [r3]
 1592 0030 C3F34003 		ubfx	r3, r3, #1, #1
 1593              	.LVL159:
 1594              	.LBE557:
 1595              	.LBE556:
 269:main_cm4.c    ****   column[2] = Cy_GPIO_ReadOut(C2_PORT,R2_NUM);
 1596              		.loc 1 269 0
 1597 0034 5360     		str	r3, [r2, #4]
 1598              	.LVL160:
 1599              	.LBB558:
 1600              	.LBB559:
 1601              		.loc 2 845 0
 1602 0036 0849     		ldr	r1, .L78+12
 1603 0038 0B68     		ldr	r3, [r1]
 1604 003a C3F38003 		ubfx	r3, r3, #2, #1
 1605              	.LVL161:
 1606              	.LBE559:
 1607              	.LBE558:
 270:main_cm4.c    ****   column[3] = Cy_GPIO_ReadOut(C3_PORT,R3_NUM); 
 1608              		.loc 1 270 0
 1609 003e 9360     		str	r3, [r2, #8]
 1610              	.LVL162:
 1611              	.LBB560:
 1612              	.LBB561:
 1613              		.loc 2 845 0
 1614 0040 0B68     		ldr	r3, [r1]
 1615 0042 C3F3C003 		ubfx	r3, r3, #3, #1
 1616              	.LVL163:
 1617              	.LBE561:
 1618              	.LBE560:
 271:main_cm4.c    ****    }
 1619              		.loc 1 271 0
 1620 0046 D360     		str	r3, [r2, #12]
ARM GAS  C:\Users\Angel\AppData\Local\Temp\ccvqOPgy.s 			page 53


 1621 0048 7047     		bx	lr
 1622              	.L79:
 1623 004a 00BF     		.align	2
 1624              	.L78:
 1625 004c 80043240 		.word	1077019776
 1626 0050 00000000 		.word	row
 1627 0054 00000000 		.word	column
 1628 0058 00033240 		.word	1077019392
 1629              		.cfi_endproc
 1630              	.LFE531:
 1631              		.size	states, .-states
 1632              		.section	.text.main,"ax",%progbits
 1633              		.align	2
 1634              		.global	main
 1635              		.thumb
 1636              		.thumb_func
 1637              		.type	main, %function
 1638              	main:
 1639              	.LFB532:
 289:main_cm4.c    ****     func_ptr func ;
 1640              		.loc 1 289 0
 1641              		.cfi_startproc
 1642              		@ args = 0, pretend = 0, frame = 16
 1643              		@ frame_needed = 0, uses_anonymous_args = 0
 1644 0000 70B5     		push	{r4, r5, r6, lr}
 1645              		.cfi_def_cfa_offset 16
 1646              		.cfi_offset 4, -16
 1647              		.cfi_offset 5, -12
 1648              		.cfi_offset 6, -8
 1649              		.cfi_offset 14, -4
 1650 0002 84B0     		sub	sp, sp, #16
 1651              		.cfi_def_cfa_offset 32
 1652              	.LVL164:
 1653              	.LBB582:
 1654              	.LBB583:
 1655              		.file 3 "Generated_Source\\PSoC6\\pdl\\cmsis/include/cmsis_gcc.h"
   1:Generated_Source\PSoC6\pdl\cmsis/include/cmsis_gcc.h **** /**************************************************************************//**
   2:Generated_Source\PSoC6\pdl\cmsis/include/cmsis_gcc.h ****  * @file     cmsis_gcc.h
   3:Generated_Source\PSoC6\pdl\cmsis/include/cmsis_gcc.h ****  * @brief    CMSIS compiler GCC header file
   4:Generated_Source\PSoC6\pdl\cmsis/include/cmsis_gcc.h ****  * @version  V5.0.3
   5:Generated_Source\PSoC6\pdl\cmsis/include/cmsis_gcc.h ****  * @date     16. January 2018
   6:Generated_Source\PSoC6\pdl\cmsis/include/cmsis_gcc.h ****  ******************************************************************************/
   7:Generated_Source\PSoC6\pdl\cmsis/include/cmsis_gcc.h **** /*
   8:Generated_Source\PSoC6\pdl\cmsis/include/cmsis_gcc.h ****  * Copyright (c) 2009-2017 ARM Limited. All rights reserved.
   9:Generated_Source\PSoC6\pdl\cmsis/include/cmsis_gcc.h ****  *
  10:Generated_Source\PSoC6\pdl\cmsis/include/cmsis_gcc.h ****  * SPDX-License-Identifier: Apache-2.0
  11:Generated_Source\PSoC6\pdl\cmsis/include/cmsis_gcc.h ****  *
  12:Generated_Source\PSoC6\pdl\cmsis/include/cmsis_gcc.h ****  * Licensed under the Apache License, Version 2.0 (the License); you may
  13:Generated_Source\PSoC6\pdl\cmsis/include/cmsis_gcc.h ****  * not use this file except in compliance with the License.
  14:Generated_Source\PSoC6\pdl\cmsis/include/cmsis_gcc.h ****  * You may obtain a copy of the License at
  15:Generated_Source\PSoC6\pdl\cmsis/include/cmsis_gcc.h ****  *
  16:Generated_Source\PSoC6\pdl\cmsis/include/cmsis_gcc.h ****  * www.apache.org/licenses/LICENSE-2.0
  17:Generated_Source\PSoC6\pdl\cmsis/include/cmsis_gcc.h ****  *
  18:Generated_Source\PSoC6\pdl\cmsis/include/cmsis_gcc.h ****  * Unless required by applicable law or agreed to in writing, software
  19:Generated_Source\PSoC6\pdl\cmsis/include/cmsis_gcc.h ****  * distributed under the License is distributed on an AS IS BASIS, WITHOUT
  20:Generated_Source\PSoC6\pdl\cmsis/include/cmsis_gcc.h ****  * WARRANTIES OR CONDITIONS OF ANY KIND, either express or implied.
  21:Generated_Source\PSoC6\pdl\cmsis/include/cmsis_gcc.h ****  * See the License for the specific language governing permissions and
ARM GAS  C:\Users\Angel\AppData\Local\Temp\ccvqOPgy.s 			page 54


  22:Generated_Source\PSoC6\pdl\cmsis/include/cmsis_gcc.h ****  * limitations under the License.
  23:Generated_Source\PSoC6\pdl\cmsis/include/cmsis_gcc.h ****  */
  24:Generated_Source\PSoC6\pdl\cmsis/include/cmsis_gcc.h **** 
  25:Generated_Source\PSoC6\pdl\cmsis/include/cmsis_gcc.h **** #ifndef __CMSIS_GCC_H
  26:Generated_Source\PSoC6\pdl\cmsis/include/cmsis_gcc.h **** #define __CMSIS_GCC_H
  27:Generated_Source\PSoC6\pdl\cmsis/include/cmsis_gcc.h **** 
  28:Generated_Source\PSoC6\pdl\cmsis/include/cmsis_gcc.h **** /* ignore some GCC warnings */
  29:Generated_Source\PSoC6\pdl\cmsis/include/cmsis_gcc.h **** #pragma GCC diagnostic push
  30:Generated_Source\PSoC6\pdl\cmsis/include/cmsis_gcc.h **** #pragma GCC diagnostic ignored "-Wsign-conversion"
  31:Generated_Source\PSoC6\pdl\cmsis/include/cmsis_gcc.h **** #pragma GCC diagnostic ignored "-Wconversion"
  32:Generated_Source\PSoC6\pdl\cmsis/include/cmsis_gcc.h **** #pragma GCC diagnostic ignored "-Wunused-parameter"
  33:Generated_Source\PSoC6\pdl\cmsis/include/cmsis_gcc.h **** 
  34:Generated_Source\PSoC6\pdl\cmsis/include/cmsis_gcc.h **** /* Fallback for __has_builtin */
  35:Generated_Source\PSoC6\pdl\cmsis/include/cmsis_gcc.h **** #ifndef __has_builtin
  36:Generated_Source\PSoC6\pdl\cmsis/include/cmsis_gcc.h ****   #define __has_builtin(x) (0)
  37:Generated_Source\PSoC6\pdl\cmsis/include/cmsis_gcc.h **** #endif
  38:Generated_Source\PSoC6\pdl\cmsis/include/cmsis_gcc.h **** 
  39:Generated_Source\PSoC6\pdl\cmsis/include/cmsis_gcc.h **** /* CMSIS compiler specific defines */
  40:Generated_Source\PSoC6\pdl\cmsis/include/cmsis_gcc.h **** #ifndef   __ASM
  41:Generated_Source\PSoC6\pdl\cmsis/include/cmsis_gcc.h ****   #define __ASM                                  __asm
  42:Generated_Source\PSoC6\pdl\cmsis/include/cmsis_gcc.h **** #endif
  43:Generated_Source\PSoC6\pdl\cmsis/include/cmsis_gcc.h **** #ifndef   __INLINE
  44:Generated_Source\PSoC6\pdl\cmsis/include/cmsis_gcc.h ****   #define __INLINE                               inline
  45:Generated_Source\PSoC6\pdl\cmsis/include/cmsis_gcc.h **** #endif
  46:Generated_Source\PSoC6\pdl\cmsis/include/cmsis_gcc.h **** #ifndef   __STATIC_INLINE
  47:Generated_Source\PSoC6\pdl\cmsis/include/cmsis_gcc.h ****   #define __STATIC_INLINE                        static inline
  48:Generated_Source\PSoC6\pdl\cmsis/include/cmsis_gcc.h **** #endif
  49:Generated_Source\PSoC6\pdl\cmsis/include/cmsis_gcc.h **** #ifndef   __STATIC_FORCEINLINE                 
  50:Generated_Source\PSoC6\pdl\cmsis/include/cmsis_gcc.h ****   #define __STATIC_FORCEINLINE                   __attribute__((always_inline)) static inline
  51:Generated_Source\PSoC6\pdl\cmsis/include/cmsis_gcc.h **** #endif                                           
  52:Generated_Source\PSoC6\pdl\cmsis/include/cmsis_gcc.h **** #ifndef   __NO_RETURN
  53:Generated_Source\PSoC6\pdl\cmsis/include/cmsis_gcc.h ****   #define __NO_RETURN                            __attribute__((__noreturn__))
  54:Generated_Source\PSoC6\pdl\cmsis/include/cmsis_gcc.h **** #endif
  55:Generated_Source\PSoC6\pdl\cmsis/include/cmsis_gcc.h **** #ifndef   __USED
  56:Generated_Source\PSoC6\pdl\cmsis/include/cmsis_gcc.h ****   #define __USED                                 __attribute__((used))
  57:Generated_Source\PSoC6\pdl\cmsis/include/cmsis_gcc.h **** #endif
  58:Generated_Source\PSoC6\pdl\cmsis/include/cmsis_gcc.h **** #ifndef   __WEAK
  59:Generated_Source\PSoC6\pdl\cmsis/include/cmsis_gcc.h ****   #define __WEAK                                 __attribute__((weak))
  60:Generated_Source\PSoC6\pdl\cmsis/include/cmsis_gcc.h **** #endif
  61:Generated_Source\PSoC6\pdl\cmsis/include/cmsis_gcc.h **** #ifndef   __PACKED
  62:Generated_Source\PSoC6\pdl\cmsis/include/cmsis_gcc.h ****   #define __PACKED                               __attribute__((packed, aligned(1)))
  63:Generated_Source\PSoC6\pdl\cmsis/include/cmsis_gcc.h **** #endif
  64:Generated_Source\PSoC6\pdl\cmsis/include/cmsis_gcc.h **** #ifndef   __PACKED_STRUCT
  65:Generated_Source\PSoC6\pdl\cmsis/include/cmsis_gcc.h ****   #define __PACKED_STRUCT                        struct __attribute__((packed, aligned(1)))
  66:Generated_Source\PSoC6\pdl\cmsis/include/cmsis_gcc.h **** #endif
  67:Generated_Source\PSoC6\pdl\cmsis/include/cmsis_gcc.h **** #ifndef   __PACKED_UNION
  68:Generated_Source\PSoC6\pdl\cmsis/include/cmsis_gcc.h ****   #define __PACKED_UNION                         union __attribute__((packed, aligned(1)))
  69:Generated_Source\PSoC6\pdl\cmsis/include/cmsis_gcc.h **** #endif
  70:Generated_Source\PSoC6\pdl\cmsis/include/cmsis_gcc.h **** #ifndef   __UNALIGNED_UINT32        /* deprecated */
  71:Generated_Source\PSoC6\pdl\cmsis/include/cmsis_gcc.h ****   #pragma GCC diagnostic push
  72:Generated_Source\PSoC6\pdl\cmsis/include/cmsis_gcc.h ****   #pragma GCC diagnostic ignored "-Wpacked"
  73:Generated_Source\PSoC6\pdl\cmsis/include/cmsis_gcc.h ****   #pragma GCC diagnostic ignored "-Wattributes"
  74:Generated_Source\PSoC6\pdl\cmsis/include/cmsis_gcc.h ****   struct __attribute__((packed)) T_UINT32 { uint32_t v; };
  75:Generated_Source\PSoC6\pdl\cmsis/include/cmsis_gcc.h ****   #pragma GCC diagnostic pop
  76:Generated_Source\PSoC6\pdl\cmsis/include/cmsis_gcc.h ****   #define __UNALIGNED_UINT32(x)                  (((struct T_UINT32 *)(x))->v)
  77:Generated_Source\PSoC6\pdl\cmsis/include/cmsis_gcc.h **** #endif
  78:Generated_Source\PSoC6\pdl\cmsis/include/cmsis_gcc.h **** #ifndef   __UNALIGNED_UINT16_WRITE
ARM GAS  C:\Users\Angel\AppData\Local\Temp\ccvqOPgy.s 			page 55


  79:Generated_Source\PSoC6\pdl\cmsis/include/cmsis_gcc.h ****   #pragma GCC diagnostic push
  80:Generated_Source\PSoC6\pdl\cmsis/include/cmsis_gcc.h ****   #pragma GCC diagnostic ignored "-Wpacked"
  81:Generated_Source\PSoC6\pdl\cmsis/include/cmsis_gcc.h ****   #pragma GCC diagnostic ignored "-Wattributes"
  82:Generated_Source\PSoC6\pdl\cmsis/include/cmsis_gcc.h ****   __PACKED_STRUCT T_UINT16_WRITE { uint16_t v; };
  83:Generated_Source\PSoC6\pdl\cmsis/include/cmsis_gcc.h ****   #pragma GCC diagnostic pop
  84:Generated_Source\PSoC6\pdl\cmsis/include/cmsis_gcc.h ****   #define __UNALIGNED_UINT16_WRITE(addr, val)    (void)((((struct T_UINT16_WRITE *)(void *)(addr))-
  85:Generated_Source\PSoC6\pdl\cmsis/include/cmsis_gcc.h **** #endif
  86:Generated_Source\PSoC6\pdl\cmsis/include/cmsis_gcc.h **** #ifndef   __UNALIGNED_UINT16_READ
  87:Generated_Source\PSoC6\pdl\cmsis/include/cmsis_gcc.h ****   #pragma GCC diagnostic push
  88:Generated_Source\PSoC6\pdl\cmsis/include/cmsis_gcc.h ****   #pragma GCC diagnostic ignored "-Wpacked"
  89:Generated_Source\PSoC6\pdl\cmsis/include/cmsis_gcc.h ****   #pragma GCC diagnostic ignored "-Wattributes"
  90:Generated_Source\PSoC6\pdl\cmsis/include/cmsis_gcc.h ****   __PACKED_STRUCT T_UINT16_READ { uint16_t v; };
  91:Generated_Source\PSoC6\pdl\cmsis/include/cmsis_gcc.h ****   #pragma GCC diagnostic pop
  92:Generated_Source\PSoC6\pdl\cmsis/include/cmsis_gcc.h ****   #define __UNALIGNED_UINT16_READ(addr)          (((const struct T_UINT16_READ *)(const void *)(add
  93:Generated_Source\PSoC6\pdl\cmsis/include/cmsis_gcc.h **** #endif
  94:Generated_Source\PSoC6\pdl\cmsis/include/cmsis_gcc.h **** #ifndef   __UNALIGNED_UINT32_WRITE
  95:Generated_Source\PSoC6\pdl\cmsis/include/cmsis_gcc.h ****   #pragma GCC diagnostic push
  96:Generated_Source\PSoC6\pdl\cmsis/include/cmsis_gcc.h ****   #pragma GCC diagnostic ignored "-Wpacked"
  97:Generated_Source\PSoC6\pdl\cmsis/include/cmsis_gcc.h ****   #pragma GCC diagnostic ignored "-Wattributes"
  98:Generated_Source\PSoC6\pdl\cmsis/include/cmsis_gcc.h ****   __PACKED_STRUCT T_UINT32_WRITE { uint32_t v; };
  99:Generated_Source\PSoC6\pdl\cmsis/include/cmsis_gcc.h ****   #pragma GCC diagnostic pop
 100:Generated_Source\PSoC6\pdl\cmsis/include/cmsis_gcc.h ****   #define __UNALIGNED_UINT32_WRITE(addr, val)    (void)((((struct T_UINT32_WRITE *)(void *)(addr))-
 101:Generated_Source\PSoC6\pdl\cmsis/include/cmsis_gcc.h **** #endif
 102:Generated_Source\PSoC6\pdl\cmsis/include/cmsis_gcc.h **** #ifndef   __UNALIGNED_UINT32_READ
 103:Generated_Source\PSoC6\pdl\cmsis/include/cmsis_gcc.h ****   #pragma GCC diagnostic push
 104:Generated_Source\PSoC6\pdl\cmsis/include/cmsis_gcc.h ****   #pragma GCC diagnostic ignored "-Wpacked"
 105:Generated_Source\PSoC6\pdl\cmsis/include/cmsis_gcc.h ****   #pragma GCC diagnostic ignored "-Wattributes"
 106:Generated_Source\PSoC6\pdl\cmsis/include/cmsis_gcc.h ****   __PACKED_STRUCT T_UINT32_READ { uint32_t v; };
 107:Generated_Source\PSoC6\pdl\cmsis/include/cmsis_gcc.h ****   #pragma GCC diagnostic pop
 108:Generated_Source\PSoC6\pdl\cmsis/include/cmsis_gcc.h ****   #define __UNALIGNED_UINT32_READ(addr)          (((const struct T_UINT32_READ *)(const void *)(add
 109:Generated_Source\PSoC6\pdl\cmsis/include/cmsis_gcc.h **** #endif
 110:Generated_Source\PSoC6\pdl\cmsis/include/cmsis_gcc.h **** #ifndef   __ALIGNED
 111:Generated_Source\PSoC6\pdl\cmsis/include/cmsis_gcc.h ****   #define __ALIGNED(x)                           __attribute__((aligned(x)))
 112:Generated_Source\PSoC6\pdl\cmsis/include/cmsis_gcc.h **** #endif
 113:Generated_Source\PSoC6\pdl\cmsis/include/cmsis_gcc.h **** #ifndef   __RESTRICT
 114:Generated_Source\PSoC6\pdl\cmsis/include/cmsis_gcc.h ****   #define __RESTRICT                             __restrict
 115:Generated_Source\PSoC6\pdl\cmsis/include/cmsis_gcc.h **** #endif
 116:Generated_Source\PSoC6\pdl\cmsis/include/cmsis_gcc.h **** 
 117:Generated_Source\PSoC6\pdl\cmsis/include/cmsis_gcc.h **** 
 118:Generated_Source\PSoC6\pdl\cmsis/include/cmsis_gcc.h **** /* ###########################  Core Function Access  ########################### */
 119:Generated_Source\PSoC6\pdl\cmsis/include/cmsis_gcc.h **** /** \ingroup  CMSIS_Core_FunctionInterface
 120:Generated_Source\PSoC6\pdl\cmsis/include/cmsis_gcc.h ****     \defgroup CMSIS_Core_RegAccFunctions CMSIS Core Register Access Functions
 121:Generated_Source\PSoC6\pdl\cmsis/include/cmsis_gcc.h ****   @{
 122:Generated_Source\PSoC6\pdl\cmsis/include/cmsis_gcc.h ****  */
 123:Generated_Source\PSoC6\pdl\cmsis/include/cmsis_gcc.h **** 
 124:Generated_Source\PSoC6\pdl\cmsis/include/cmsis_gcc.h **** /**
 125:Generated_Source\PSoC6\pdl\cmsis/include/cmsis_gcc.h ****   \brief   Enable IRQ Interrupts
 126:Generated_Source\PSoC6\pdl\cmsis/include/cmsis_gcc.h ****   \details Enables IRQ interrupts by clearing the I-bit in the CPSR.
 127:Generated_Source\PSoC6\pdl\cmsis/include/cmsis_gcc.h ****            Can only be executed in Privileged modes.
 128:Generated_Source\PSoC6\pdl\cmsis/include/cmsis_gcc.h ****  */
 129:Generated_Source\PSoC6\pdl\cmsis/include/cmsis_gcc.h **** __STATIC_FORCEINLINE void __enable_irq(void)
 130:Generated_Source\PSoC6\pdl\cmsis/include/cmsis_gcc.h **** {
 131:Generated_Source\PSoC6\pdl\cmsis/include/cmsis_gcc.h ****   __ASM volatile ("cpsie i" : : : "memory");
 1656              		.loc 3 131 0
 1657              		.syntax unified
 1658              	@ 131 "Generated_Source\PSoC6\pdl\cmsis/include/cmsis_gcc.h" 1
 1659 0004 62B6     		cpsie i
ARM GAS  C:\Users\Angel\AppData\Local\Temp\ccvqOPgy.s 			page 56


 1660              	@ 0 "" 2
 1661              		.thumb
 1662              		.syntax unified
 1663              	.LBE583:
 1664              	.LBE582:
 299:main_cm4.c    ****     
 1665              		.loc 1 299 0
 1666 0006 0220     		movs	r0, #2
 1667 0008 FFF7FEFF 		bl	tty_init
 1668              	.LVL165:
 301:main_cm4.c    ****     ADC_1_Init();
 1669              		.loc 1 301 0
 1670 000c FFF7FEFF 		bl	CLCD_Init
 1671              	.LVL166:
 302:main_cm4.c    ****     ADC_1_Start();
 1672              		.loc 1 302 0
 1673 0010 FFF7FEFF 		bl	ADC_1_Init
 1674              	.LVL167:
 303:main_cm4.c    ****     ADC_1_StartConvert();
 1675              		.loc 1 303 0
 1676 0014 FFF7FEFF 		bl	ADC_1_Start
 1677              	.LVL168:
 304:main_cm4.c    ****    // splash("PSoC 6 CLCD Test\n") ;
 1678              		.loc 1 304 0
 1679 0018 FFF7FEFF 		bl	ADC_1_StartConvert
 1680              	.LVL169:
 1681              	.L81:
 1682              	.LBB584:
 1683              	.LBB585:
 779:Generated_Source\PSoC6\pdl\drivers/peripheral/gpio/cy_gpio.h **** }
 1684              		.loc 2 779 0
 1685 001c 2C4B     		ldr	r3, .L90
 1686 001e 1B69     		ldr	r3, [r3, #16]
 1687              	.LVL170:
 1688              	.LBE585:
 1689              	.LBE584:
 327:main_cm4.c    ****             {
 1690              		.loc 1 327 0
 1691 0020 13F0100F 		tst	r3, #16
 1692 0024 03D0     		beq	.L82
 329:main_cm4.c    ****             }
 1693              		.loc 1 329 0
 1694 0026 2B48     		ldr	r0, .L90+4
 1695 0028 FFF7FEFF 		bl	CLCD_PutString
 1696              	.LVL171:
 1697 002c F6E7     		b	.L81
 1698              	.L82:
 1699              	.LBB586:
 333:main_cm4.c    ****                CLCD_PutString("Acquiring Pic...");
 1700              		.loc 1 333 0
 1701 002e FFF7FEFF 		bl	CLCD_Clear
 1702              	.LVL172:
 334:main_cm4.c    ****                int i, j;
 1703              		.loc 1 334 0
 1704 0032 2948     		ldr	r0, .L90+8
 1705 0034 FFF7FEFF 		bl	CLCD_PutString
 1706              	.LVL173:
ARM GAS  C:\Users\Angel\AppData\Local\Temp\ccvqOPgy.s 			page 57


 337:main_cm4.c    ****             {
 1707              		.loc 1 337 0
 1708 0038 0026     		movs	r6, #0
 1709 003a 3AE0     		b	.L84
 1710              	.LVL174:
 1711              	.L88:
 339:main_cm4.c    ****                 CyDelay(1);//Psoc is 6.7 ns; Mux needs 500 ns delay (THIS IS 1 ms)
 1712              		.loc 1 339 0
 1713 003c 3046     		mov	r0, r6
 1714 003e FFF7FEFF 		bl	rowselect
 1715              	.LVL175:
 340:main_cm4.c    ****                 for(j=0; j<size; j++)
 1716              		.loc 1 340 0
 1717 0042 0120     		movs	r0, #1
 1718 0044 FFF7FEFF 		bl	Cy_SysLib_Delay
 1719              	.LVL176:
 341:main_cm4.c    ****                 { 
 1720              		.loc 1 341 0
 1721 0048 0024     		movs	r4, #0
 1722 004a 2FE0     		b	.L85
 1723              	.LVL177:
 1724              	.L87:
 1725              	.LBB587:
 343:main_cm4.c    ****                         CyDelay(1); //Psoc is 6.7 ns; Mux is 500 ns delay (THIS IS 1 ms)
 1726              		.loc 1 343 0 discriminator 3
 1727 004c 2046     		mov	r0, r4
 1728 004e FFF7FEFF 		bl	columnselect
 1729              	.LVL178:
 344:main_cm4.c    ****                         
 1730              		.loc 1 344 0 discriminator 3
 1731 0052 0120     		movs	r0, #1
 1732 0054 FFF7FEFF 		bl	Cy_SysLib_Delay
 1733              	.LVL179:
 350:main_cm4.c    ****                         ADC_1_IsEndConversion(1);
 1734              		.loc 1 350 0 discriminator 3
 1735 0058 FFF7FEFF 		bl	ADC_1_StartConvert
 1736              	.LVL180:
 351:main_cm4.c    ****                         
 1737              		.loc 1 351 0 discriminator 3
 1738 005c 0120     		movs	r0, #1
 1739 005e FFF7FEFF 		bl	ADC_1_IsEndConversion
 1740              	.LVL181:
 1741              	.LBB588:
 1742              	.LBB589:
 1743              		.file 4 "Generated_Source\\PSoC6/ADC_1.h"
   1:Generated_Source\PSoC6/ADC_1.h **** /***************************************************************************//**
   2:Generated_Source\PSoC6/ADC_1.h **** * \file     ADC_1.h
   3:Generated_Source\PSoC6/ADC_1.h **** * \version  3.10
   4:Generated_Source\PSoC6/ADC_1.h **** *
   5:Generated_Source\PSoC6/ADC_1.h **** * \brief
   6:Generated_Source\PSoC6/ADC_1.h **** * Provides the source code to the API for the ADC_1 Component.
   7:Generated_Source\PSoC6/ADC_1.h **** *
   8:Generated_Source\PSoC6/ADC_1.h **** ********************************************************************************
   9:Generated_Source\PSoC6/ADC_1.h **** * \copyright
  10:Generated_Source\PSoC6/ADC_1.h **** * (c) 2017-2018, Cypress Semiconductor Corporation. All rights reserved.
  11:Generated_Source\PSoC6/ADC_1.h **** * This software, including source code, documentation and related
  12:Generated_Source\PSoC6/ADC_1.h **** * materials ("Software"), is owned by Cypress Semiconductor
ARM GAS  C:\Users\Angel\AppData\Local\Temp\ccvqOPgy.s 			page 58


  13:Generated_Source\PSoC6/ADC_1.h **** * Corporation ("Cypress") and is protected by and subject to worldwide
  14:Generated_Source\PSoC6/ADC_1.h **** * patent protection (United States and foreign), United States copyright
  15:Generated_Source\PSoC6/ADC_1.h **** * laws and international treaty provisions. Therefore, you may use this
  16:Generated_Source\PSoC6/ADC_1.h **** * Software only as provided in the license agreement accompanying the
  17:Generated_Source\PSoC6/ADC_1.h **** * software package from which you obtained this Software ("EULA").
  18:Generated_Source\PSoC6/ADC_1.h **** * If no EULA applies, Cypress hereby grants you a personal, nonexclusive,
  19:Generated_Source\PSoC6/ADC_1.h **** * non-transferable license to copy, modify, and compile the
  20:Generated_Source\PSoC6/ADC_1.h **** * Software source code solely for use in connection with Cypress's
  21:Generated_Source\PSoC6/ADC_1.h **** * integrated circuit products. Any reproduction, modification, translation,
  22:Generated_Source\PSoC6/ADC_1.h **** * compilation, or representation of this Software except as specified
  23:Generated_Source\PSoC6/ADC_1.h **** * above is prohibited without the express written permission of Cypress.
  24:Generated_Source\PSoC6/ADC_1.h **** * Disclaimer: THIS SOFTWARE IS PROVIDED AS-IS, WITH NO
  25:Generated_Source\PSoC6/ADC_1.h **** * WARRANTY OF ANY KIND, EXPRESS OR IMPLIED, INCLUDING,
  26:Generated_Source\PSoC6/ADC_1.h **** * BUT NOT LIMITED TO, NONINFRINGEMENT, IMPLIED
  27:Generated_Source\PSoC6/ADC_1.h **** * WARRANTIES OF MERCHANTABILITY AND FITNESS FOR A
  28:Generated_Source\PSoC6/ADC_1.h **** * PARTICULAR PURPOSE. Cypress reserves the right to make
  29:Generated_Source\PSoC6/ADC_1.h **** * changes to the Software without notice. Cypress does not assume any
  30:Generated_Source\PSoC6/ADC_1.h **** * liability arising out of the application or use of the Software or any
  31:Generated_Source\PSoC6/ADC_1.h **** * product or circuit described in the Software. Cypress does not
  32:Generated_Source\PSoC6/ADC_1.h **** * authorize its products for use in any products where a malfunction or
  33:Generated_Source\PSoC6/ADC_1.h **** * failure of the Cypress product may reasonably be expected to result in
  34:Generated_Source\PSoC6/ADC_1.h **** * significant property damage, injury or death ("High Risk Product"). By
  35:Generated_Source\PSoC6/ADC_1.h **** * including Cypress's product in a High Risk Product, the manufacturer
  36:Generated_Source\PSoC6/ADC_1.h **** * of such system or application assumes all risk of such use and in doing
  37:Generated_Source\PSoC6/ADC_1.h **** * so agrees to indemnify Cypress against all liability.
  38:Generated_Source\PSoC6/ADC_1.h **** *******************************************************************************/
  39:Generated_Source\PSoC6/ADC_1.h **** #if !defined(CY_ADC_1_H)
  40:Generated_Source\PSoC6/ADC_1.h **** #define CY_ADC_1_H
  41:Generated_Source\PSoC6/ADC_1.h **** 
  42:Generated_Source\PSoC6/ADC_1.h **** #include <cy_device_headers.h>
  43:Generated_Source\PSoC6/ADC_1.h **** #include <sar/cy_sar.h>
  44:Generated_Source\PSoC6/ADC_1.h **** 
  45:Generated_Source\PSoC6/ADC_1.h **** #define ADC_1_VREF_ROUTED                  ((0) == 1u)
  46:Generated_Source\PSoC6/ADC_1.h **** #if (ADC_1_VREF_ROUTED)
  47:Generated_Source\PSoC6/ADC_1.h **** #include "ADC_1_vrefAMux.h"
  48:Generated_Source\PSoC6/ADC_1.h **** #endif
  49:Generated_Source\PSoC6/ADC_1.h **** 
  50:Generated_Source\PSoC6/ADC_1.h **** #define ADC_1_CLOCK_INTERNAL               ((1) == 1u)
  51:Generated_Source\PSoC6/ADC_1.h **** #if (ADC_1_CLOCK_INTERNAL)
  52:Generated_Source\PSoC6/ADC_1.h **** #include "ADC_1_intSarClock.h"
  53:Generated_Source\PSoC6/ADC_1.h **** #endif /* ADC_1_CLOCK_INTERNAL */
  54:Generated_Source\PSoC6/ADC_1.h **** 
  55:Generated_Source\PSoC6/ADC_1.h **** /**
  56:Generated_Source\PSoC6/ADC_1.h **** * \addtogroup group_structures
  57:Generated_Source\PSoC6/ADC_1.h **** *
  58:Generated_Source\PSoC6/ADC_1.h **** */
  59:Generated_Source\PSoC6/ADC_1.h **** typedef struct
  60:Generated_Source\PSoC6/ADC_1.h **** {
  61:Generated_Source\PSoC6/ADC_1.h ****     uint32_t channelBase;                   /* Start of channels for the configuration */
  62:Generated_Source\PSoC6/ADC_1.h ****     uint32_t numChannels;                   /* Number of channels in the configuration */
  63:Generated_Source\PSoC6/ADC_1.h ****     const cy_stc_sar_config_t *hwConfigStc; /* PDL structure */
  64:Generated_Source\PSoC6/ADC_1.h ****     uint32_t miscConfig;                    /* Miscellaneous configuration bits broken down as foll
  65:Generated_Source\PSoC6/ADC_1.h ****                                             [0] - Freerunning: Set if the sample mode is freerunnin
  66:Generated_Source\PSoC6/ADC_1.h ****                                             [2] - Mux Switch 0: Set when VSSA is used for the neg i
  67:Generated_Source\PSoC6/ADC_1.h ****                                             */
  68:Generated_Source\PSoC6/ADC_1.h **** #if (ADC_1_CLOCK_INTERNAL)
  69:Generated_Source\PSoC6/ADC_1.h ****     uint32_t clkDivider;                    /* Clock divider */
ARM GAS  C:\Users\Angel\AppData\Local\Temp\ccvqOPgy.s 			page 59


  70:Generated_Source\PSoC6/ADC_1.h **** #endif /* ADC_1_CLOCK_INTERNAL */
  71:Generated_Source\PSoC6/ADC_1.h **** 
  72:Generated_Source\PSoC6/ADC_1.h **** } ADC_1_CONFIG_STRUCT;
  73:Generated_Source\PSoC6/ADC_1.h **** /** @} structures */
  74:Generated_Source\PSoC6/ADC_1.h **** 
  75:Generated_Source\PSoC6/ADC_1.h **** /*******************************************************************************
  76:Generated_Source\PSoC6/ADC_1.h **** * Function Prototypes
  77:Generated_Source\PSoC6/ADC_1.h **** *******************************************************************************/
  78:Generated_Source\PSoC6/ADC_1.h **** void ADC_1_SelectConfig(uint32_t config, uint32_t restart);
  79:Generated_Source\PSoC6/ADC_1.h **** void ADC_1_InitConfig(const ADC_1_CONFIG_STRUCT *config);
  80:Generated_Source\PSoC6/ADC_1.h **** void ADC_1_Init(void);
  81:Generated_Source\PSoC6/ADC_1.h **** __STATIC_INLINE void ADC_1_Enable(void);
  82:Generated_Source\PSoC6/ADC_1.h **** 
  83:Generated_Source\PSoC6/ADC_1.h **** /**
  84:Generated_Source\PSoC6/ADC_1.h **** * \addtogroup group_general
  85:Generated_Source\PSoC6/ADC_1.h **** * @{
  86:Generated_Source\PSoC6/ADC_1.h **** */
  87:Generated_Source\PSoC6/ADC_1.h **** void ADC_1_Start(void);
  88:Generated_Source\PSoC6/ADC_1.h **** void ADC_1_StartEx(cy_israddress userIsr);
  89:Generated_Source\PSoC6/ADC_1.h **** __STATIC_INLINE void ADC_1_Stop(void);
  90:Generated_Source\PSoC6/ADC_1.h **** void ADC_1_StartConvert(void);
  91:Generated_Source\PSoC6/ADC_1.h **** __STATIC_INLINE void ADC_1_StopConvert(void);
  92:Generated_Source\PSoC6/ADC_1.h **** void ADC_1_SetConvertMode(cy_en_sar_start_convert_sel_t mode);
  93:Generated_Source\PSoC6/ADC_1.h **** void ADC_1_SetEosMask(uint32_t mask);
  94:Generated_Source\PSoC6/ADC_1.h **** uint32_t ADC_1_IsEndConversion(cy_en_sar_return_mode_t retMode);
  95:Generated_Source\PSoC6/ADC_1.h **** __STATIC_INLINE int16_t ADC_1_GetResult16(uint32_t chan);
  96:Generated_Source\PSoC6/ADC_1.h **** __STATIC_INLINE int32_t ADC_1_GetResult32(uint32_t chan);
  97:Generated_Source\PSoC6/ADC_1.h **** __STATIC_INLINE void ADC_1_SetLowLimit(uint32_t lowLimit);
  98:Generated_Source\PSoC6/ADC_1.h **** __STATIC_INLINE void ADC_1_SetHighLimit(uint32_t highLimit);
  99:Generated_Source\PSoC6/ADC_1.h **** __STATIC_INLINE void ADC_1_SetLimitMask(uint32_t limitMask);
 100:Generated_Source\PSoC6/ADC_1.h **** __STATIC_INLINE void ADC_1_SetSatMask(uint32_t satMask);
 101:Generated_Source\PSoC6/ADC_1.h **** __STATIC_INLINE cy_en_sar_status_t ADC_1_SetOffset(uint32_t chan, int16_t offset);
 102:Generated_Source\PSoC6/ADC_1.h **** __STATIC_INLINE cy_en_sar_status_t ADC_1_SetGain(uint32_t chan, int32_t adcGain);
 103:Generated_Source\PSoC6/ADC_1.h **** __STATIC_INLINE float32_t ADC_1_CountsTo_Volts(uint32_t chan, int16_t adcCounts);
 104:Generated_Source\PSoC6/ADC_1.h **** __STATIC_INLINE int16_t ADC_1_CountsTo_mVolts(uint32_t chan, int16_t adcCounts);
 105:Generated_Source\PSoC6/ADC_1.h **** __STATIC_INLINE int32_t ADC_1_CountsTo_uVolts(uint32_t chan, int16_t adcCounts);
 106:Generated_Source\PSoC6/ADC_1.h **** 
 107:Generated_Source\PSoC6/ADC_1.h **** /** @} general */
 108:Generated_Source\PSoC6/ADC_1.h **** 
 109:Generated_Source\PSoC6/ADC_1.h **** void ADC_1_SetChanMask(uint32_t enableMask);
 110:Generated_Source\PSoC6/ADC_1.h **** 
 111:Generated_Source\PSoC6/ADC_1.h **** /**
 112:Generated_Source\PSoC6/ADC_1.h **** * \addtogroup group_power
 113:Generated_Source\PSoC6/ADC_1.h **** * @{
 114:Generated_Source\PSoC6/ADC_1.h **** */
 115:Generated_Source\PSoC6/ADC_1.h **** __STATIC_INLINE void ADC_1_Sleep(void);
 116:Generated_Source\PSoC6/ADC_1.h **** __STATIC_INLINE void ADC_1_Wakeup(void);
 117:Generated_Source\PSoC6/ADC_1.h **** 
 118:Generated_Source\PSoC6/ADC_1.h **** /** @} power */
 119:Generated_Source\PSoC6/ADC_1.h **** 
 120:Generated_Source\PSoC6/ADC_1.h **** /**
 121:Generated_Source\PSoC6/ADC_1.h **** * \addtogroup group_interrupt
 122:Generated_Source\PSoC6/ADC_1.h **** * @{
 123:Generated_Source\PSoC6/ADC_1.h **** */
 124:Generated_Source\PSoC6/ADC_1.h **** void ADC_1_ISR(void);
 125:Generated_Source\PSoC6/ADC_1.h **** void ADC_1_IRQ_Enable(void);
 126:Generated_Source\PSoC6/ADC_1.h **** void ADC_1_IRQ_Disable(void);
ARM GAS  C:\Users\Angel\AppData\Local\Temp\ccvqOPgy.s 			page 60


 127:Generated_Source\PSoC6/ADC_1.h **** 
 128:Generated_Source\PSoC6/ADC_1.h **** /** @} interrupt */
 129:Generated_Source\PSoC6/ADC_1.h **** 
 130:Generated_Source\PSoC6/ADC_1.h **** /*******************************************************************************
 131:Generated_Source\PSoC6/ADC_1.h ****                                   Parameters
 132:Generated_Source\PSoC6/ADC_1.h **** The parameters that are set in the customizer are redefined as constants here.
 133:Generated_Source\PSoC6/ADC_1.h **** *******************************************************************************/
 134:Generated_Source\PSoC6/ADC_1.h **** 
 135:Generated_Source\PSoC6/ADC_1.h **** /*  Sample Mode setting constants */
 136:Generated_Source\PSoC6/ADC_1.h **** #define ADC_1_TOTAL_CONFIGS                (1ul)
 137:Generated_Source\PSoC6/ADC_1.h **** 
 138:Generated_Source\PSoC6/ADC_1.h **** /* ************************************************************************** */
 139:Generated_Source\PSoC6/ADC_1.h **** /* Begin configuration 0 customizer defines                                   */
 140:Generated_Source\PSoC6/ADC_1.h **** /* ************************************************************************** */
 141:Generated_Source\PSoC6/ADC_1.h **** 
 142:Generated_Source\PSoC6/ADC_1.h **** #define ADC_1_CFG0_SAMPLE_RATE             (100000)
 143:Generated_Source\PSoC6/ADC_1.h **** #define ADC_1_CFG0_CHANNEL_BASE            (0u)
 144:Generated_Source\PSoC6/ADC_1.h **** #define ADC_1_CFG0_CHANNEL_COUNT           (1u)
 145:Generated_Source\PSoC6/ADC_1.h **** #define ADC_1_CFG0_VREF_SEL_MASK           (0x70u)
 146:Generated_Source\PSoC6/ADC_1.h **** #define ADC_1_CFG0_NOMINAL_CLOCK_FREQ      (16666666u)
 147:Generated_Source\PSoC6/ADC_1.h **** #define ADC_1_CFG0_CHANNEL_EN              (0x1u)
 148:Generated_Source\PSoC6/ADC_1.h **** 
 149:Generated_Source\PSoC6/ADC_1.h **** /* Sample Control Register */
 150:Generated_Source\PSoC6/ADC_1.h **** #define ADC_1_CFG0_SINGLE_ENDED_FORMAT     (1uL)
 151:Generated_Source\PSoC6/ADC_1.h **** #define ADC_1_CFG0_DIFFERENTIAL_FORMAT     (1uL)
 152:Generated_Source\PSoC6/ADC_1.h **** #define ADC_1_CFG0_SAMPLES_AVERAGED        (7uL)
 153:Generated_Source\PSoC6/ADC_1.h **** #define ADC_1_CFG0_RANGE_INTR_MASK         (0x0u)
 154:Generated_Source\PSoC6/ADC_1.h **** #define ADC_1_CFG0_SATURATE_INTR_MASK      (0x0u)
 155:Generated_Source\PSoC6/ADC_1.h **** #define ADC_1_CFG0_VNEG_INPUT_SEL          (7)
 156:Generated_Source\PSoC6/ADC_1.h **** #define ADC_1_CFG0_SINGLE_PRESENT          (1)
 157:Generated_Source\PSoC6/ADC_1.h **** #define ADC_1_CFG0_VREF_MV_VALUE           (3300)
 158:Generated_Source\PSoC6/ADC_1.h **** #define ADC_1_CFG0_APERTURE_TIME0          (4uL)
 159:Generated_Source\PSoC6/ADC_1.h **** #define ADC_1_CFG0_APERTURE_TIME1          (2uL)
 160:Generated_Source\PSoC6/ADC_1.h **** #define ADC_1_CFG0_APERTURE_TIME2          (2uL)
 161:Generated_Source\PSoC6/ADC_1.h **** #define ADC_1_CFG0_APERTURE_TIME3          (2uL)
 162:Generated_Source\PSoC6/ADC_1.h **** #define ADC_1_CFG0_FREERUNNING             (0u)
 163:Generated_Source\PSoC6/ADC_1.h **** #define ADC_1_CFG0_AVGERAGING_MODE         (1uL)
 164:Generated_Source\PSoC6/ADC_1.h **** #define ADC_1_CFG0_LOW_LIMIT               (512u)
 165:Generated_Source\PSoC6/ADC_1.h **** #define ADC_1_CFG0_HIGH_LIMIT              (3584u)
 166:Generated_Source\PSoC6/ADC_1.h **** #define ADC_1_CFG0_RANGE_COND              (3uL)
 167:Generated_Source\PSoC6/ADC_1.h **** #define ADC_1_CFG0_USE_SOC                 (0uL)
 168:Generated_Source\PSoC6/ADC_1.h **** #define ADC_1_CFG0_VREF_PWR                (2uL)
 169:Generated_Source\PSoC6/ADC_1.h **** #define ADC_1_CFG0_COMP_PWR                (3uL)
 170:Generated_Source\PSoC6/ADC_1.h **** #define ADC_1_CFG0_COMP_DLY                (3uL)
 171:Generated_Source\PSoC6/ADC_1.h **** 
 172:Generated_Source\PSoC6/ADC_1.h **** /* Clock parameters*/
 173:Generated_Source\PSoC6/ADC_1.h **** #if (ADC_1_CLOCK_INTERNAL)
 174:Generated_Source\PSoC6/ADC_1.h ****     #define ADC_1_CFG0_CLOCKDIVIDER        (((CYDEV_CLK_PERICLK__HZ) / (ADC_1_CFG0_NOMINAL_CLOCK_FR
 175:Generated_Source\PSoC6/ADC_1.h **** #endif /* (ADC_1_CLOCK_INTERNAL) */
 176:Generated_Source\PSoC6/ADC_1.h **** 
 177:Generated_Source\PSoC6/ADC_1.h **** /* ************************************************************************** */
 178:Generated_Source\PSoC6/ADC_1.h **** /* End configuration 0 customizer defines                                     */
 179:Generated_Source\PSoC6/ADC_1.h **** /* ************************************************************************** */
 180:Generated_Source\PSoC6/ADC_1.h **** 
 181:Generated_Source\PSoC6/ADC_1.h **** /* ************************************************************************** */
 182:Generated_Source\PSoC6/ADC_1.h **** /* Begin configuration 1 customizer defines                                   */
 183:Generated_Source\PSoC6/ADC_1.h **** /* ************************************************************************** */
ARM GAS  C:\Users\Angel\AppData\Local\Temp\ccvqOPgy.s 			page 61


 184:Generated_Source\PSoC6/ADC_1.h **** 
 185:Generated_Source\PSoC6/ADC_1.h **** #if(ADC_1_TOTAL_CONFIGS > 1)
 186:Generated_Source\PSoC6/ADC_1.h ****     #define ADC_1_CFG1_SAMPLE_RATE             ()
 187:Generated_Source\PSoC6/ADC_1.h ****     #define ADC_1_CFG1_CHANNEL_BASE            (u)
 188:Generated_Source\PSoC6/ADC_1.h ****     #define ADC_1_CFG1_CHANNEL_COUNT           (u)
 189:Generated_Source\PSoC6/ADC_1.h ****     #define ADC_1_CFG1_VREF_SEL_MASK           (u)
 190:Generated_Source\PSoC6/ADC_1.h ****     #define ADC_1_CFG1_NOMINAL_CLOCK_FREQ      (u)
 191:Generated_Source\PSoC6/ADC_1.h ****     #define ADC_1_CFG1_CHANNEL_EN              (u)
 192:Generated_Source\PSoC6/ADC_1.h **** 
 193:Generated_Source\PSoC6/ADC_1.h ****     /* Sample Control Register */
 194:Generated_Source\PSoC6/ADC_1.h ****     #define ADC_1_CFG1_SINGLE_ENDED_FORMAT     (uL)
 195:Generated_Source\PSoC6/ADC_1.h ****     #define ADC_1_CFG1_DIFFERENTIAL_FORMAT     (uL)
 196:Generated_Source\PSoC6/ADC_1.h ****     #define ADC_1_CFG1_SAMPLES_AVERAGED        (uL)
 197:Generated_Source\PSoC6/ADC_1.h ****     #define ADC_1_CFG1_RANGE_INTR_MASK         (u)
 198:Generated_Source\PSoC6/ADC_1.h ****     #define ADC_1_CFG1_SATURATE_INTR_MASK      (u)
 199:Generated_Source\PSoC6/ADC_1.h ****     #define ADC_1_CFG1_VNEG_INPUT_SEL          ()
 200:Generated_Source\PSoC6/ADC_1.h ****     #define ADC_1_CFG1_SINGLE_PRESENT          ()
 201:Generated_Source\PSoC6/ADC_1.h ****     #define ADC_1_CFG1_VREF_MV_VALUE           ()
 202:Generated_Source\PSoC6/ADC_1.h ****     #define ADC_1_CFG1_APERTURE_TIME0          (uL)
 203:Generated_Source\PSoC6/ADC_1.h ****     #define ADC_1_CFG1_APERTURE_TIME1          (uL)
 204:Generated_Source\PSoC6/ADC_1.h ****     #define ADC_1_CFG1_APERTURE_TIME2          (uL)
 205:Generated_Source\PSoC6/ADC_1.h ****     #define ADC_1_CFG1_APERTURE_TIME3          (uL)
 206:Generated_Source\PSoC6/ADC_1.h ****     #define ADC_1_CFG1_FREERUNNING             (u)
 207:Generated_Source\PSoC6/ADC_1.h ****     #define ADC_1_CFG1_AVGERAGING_MODE         (uL)
 208:Generated_Source\PSoC6/ADC_1.h ****     #define ADC_1_CFG1_LOW_LIMIT               (u)
 209:Generated_Source\PSoC6/ADC_1.h ****     #define ADC_1_CFG1_HIGH_LIMIT              (u)
 210:Generated_Source\PSoC6/ADC_1.h ****     #define ADC_1_CFG1_RANGE_COND              (uL)
 211:Generated_Source\PSoC6/ADC_1.h ****     #define ADC_1_CFG1_USE_SOC                 (0uL)
 212:Generated_Source\PSoC6/ADC_1.h ****     #define ADC_1_CFG1_VREF_PWR                (uL)
 213:Generated_Source\PSoC6/ADC_1.h ****     #define ADC_1_CFG1_COMP_PWR                (uL)
 214:Generated_Source\PSoC6/ADC_1.h ****     #define ADC_1_CFG1_COMP_DLY                (uL)
 215:Generated_Source\PSoC6/ADC_1.h **** 
 216:Generated_Source\PSoC6/ADC_1.h ****     /* Clock parameters*/
 217:Generated_Source\PSoC6/ADC_1.h ****     #if (ADC_1_CLOCK_INTERNAL)
 218:Generated_Source\PSoC6/ADC_1.h ****         #define ADC_1_CFG1_CLOCKDIVIDER        (((CYDEV_CLK_PERICLK__HZ) / (ADC_1_CFG1_NOMINAL_CLOC
 219:Generated_Source\PSoC6/ADC_1.h ****     #endif /* (ADC_1_CLOCK_INTERNAL) */
 220:Generated_Source\PSoC6/ADC_1.h **** #endif /* #if(ADC_1_TOTAL_CONFIGS > 1) */
 221:Generated_Source\PSoC6/ADC_1.h **** 
 222:Generated_Source\PSoC6/ADC_1.h **** /* ************************************************************************** */
 223:Generated_Source\PSoC6/ADC_1.h **** /* End configuration 1 customizer defines                                     */
 224:Generated_Source\PSoC6/ADC_1.h **** /* ************************************************************************** */
 225:Generated_Source\PSoC6/ADC_1.h **** 
 226:Generated_Source\PSoC6/ADC_1.h **** /* ************************************************************************** */
 227:Generated_Source\PSoC6/ADC_1.h **** /* Begin configuration 2 customizer defines                                         */
 228:Generated_Source\PSoC6/ADC_1.h **** /* ************************************************************************** */
 229:Generated_Source\PSoC6/ADC_1.h **** 
 230:Generated_Source\PSoC6/ADC_1.h **** #if(ADC_1_TOTAL_CONFIGS > 2)
 231:Generated_Source\PSoC6/ADC_1.h ****     #define ADC_1_CFG2_SAMPLE_RATE             ()
 232:Generated_Source\PSoC6/ADC_1.h ****     #define ADC_1_CFG2_CHANNEL_BASE            (u)
 233:Generated_Source\PSoC6/ADC_1.h ****     #define ADC_1_CFG2_CHANNEL_COUNT           (u)
 234:Generated_Source\PSoC6/ADC_1.h ****     #define ADC_1_CFG2_VREF_SEL_MASK           (u)
 235:Generated_Source\PSoC6/ADC_1.h ****     #define ADC_1_CFG2_NOMINAL_CLOCK_FREQ      (u)
 236:Generated_Source\PSoC6/ADC_1.h ****     #define ADC_1_CFG2_CHANNEL_EN              (u)
 237:Generated_Source\PSoC6/ADC_1.h **** 
 238:Generated_Source\PSoC6/ADC_1.h ****     /* Sample Control Register */
 239:Generated_Source\PSoC6/ADC_1.h ****     #define ADC_1_CFG2_SINGLE_ENDED_FORMAT     (uL)
 240:Generated_Source\PSoC6/ADC_1.h ****     #define ADC_1_CFG2_DIFFERENTIAL_FORMAT     (uL)
ARM GAS  C:\Users\Angel\AppData\Local\Temp\ccvqOPgy.s 			page 62


 241:Generated_Source\PSoC6/ADC_1.h ****     #define ADC_1_CFG2_SAMPLES_AVERAGED        (uL)
 242:Generated_Source\PSoC6/ADC_1.h ****     #define ADC_1_CFG2_RANGE_INTR_MASK         (u)
 243:Generated_Source\PSoC6/ADC_1.h ****     #define ADC_1_CFG2_SATURATE_INTR_MASK      (u)
 244:Generated_Source\PSoC6/ADC_1.h ****     #define ADC_1_CFG2_VNEG_INPUT_SEL          ()
 245:Generated_Source\PSoC6/ADC_1.h ****     #define ADC_1_CFG2_SINGLE_PRESENT          ()
 246:Generated_Source\PSoC6/ADC_1.h ****     #define ADC_1_CFG2_VREF_MV_VALUE           ()
 247:Generated_Source\PSoC6/ADC_1.h ****     #define ADC_1_CFG2_APERTURE_TIME0          (uL)
 248:Generated_Source\PSoC6/ADC_1.h ****     #define ADC_1_CFG2_APERTURE_TIME1          (uL)
 249:Generated_Source\PSoC6/ADC_1.h ****     #define ADC_1_CFG2_APERTURE_TIME2          (uL)
 250:Generated_Source\PSoC6/ADC_1.h ****     #define ADC_1_CFG2_APERTURE_TIME3          (uL)
 251:Generated_Source\PSoC6/ADC_1.h ****     #define ADC_1_CFG2_FREERUNNING             (u)
 252:Generated_Source\PSoC6/ADC_1.h ****     #define ADC_1_CFG2_AVGERAGING_MODE         (uL)
 253:Generated_Source\PSoC6/ADC_1.h ****     #define ADC_1_CFG2_LOW_LIMIT               (u)
 254:Generated_Source\PSoC6/ADC_1.h ****     #define ADC_1_CFG2_HIGH_LIMIT              (u)
 255:Generated_Source\PSoC6/ADC_1.h ****     #define ADC_1_CFG2_RANGE_COND              (uL)
 256:Generated_Source\PSoC6/ADC_1.h ****     #define ADC_1_CFG2_USE_SOC                 (0uL)
 257:Generated_Source\PSoC6/ADC_1.h ****     #define ADC_1_CFG2_VREF_PWR                (uL)
 258:Generated_Source\PSoC6/ADC_1.h ****     #define ADC_1_CFG2_COMP_PWR                (uL)
 259:Generated_Source\PSoC6/ADC_1.h ****     #define ADC_1_CFG2_COMP_DLY                (uL)
 260:Generated_Source\PSoC6/ADC_1.h **** 
 261:Generated_Source\PSoC6/ADC_1.h ****     /* Clock parameters*/
 262:Generated_Source\PSoC6/ADC_1.h ****     #if (ADC_1_CLOCK_INTERNAL)
 263:Generated_Source\PSoC6/ADC_1.h ****         #define ADC_1_CFG2_CLOCKDIVIDER        (((CYDEV_CLK_PERICLK__HZ) / (ADC_1_CFG2_NOMINAL_CLOC
 264:Generated_Source\PSoC6/ADC_1.h ****     #endif /* (ADC_1_CLOCK_INTERNAL) */
 265:Generated_Source\PSoC6/ADC_1.h **** #endif /* (ADC_1_TOTAL_CONFIGS > 2) */
 266:Generated_Source\PSoC6/ADC_1.h **** 
 267:Generated_Source\PSoC6/ADC_1.h **** 
 268:Generated_Source\PSoC6/ADC_1.h **** /* ************************************************************************** */
 269:Generated_Source\PSoC6/ADC_1.h **** /* End configuration 2 customizer defines                                     */
 270:Generated_Source\PSoC6/ADC_1.h **** /* ************************************************************************** */
 271:Generated_Source\PSoC6/ADC_1.h **** 
 272:Generated_Source\PSoC6/ADC_1.h **** /* ************************************************************************** */
 273:Generated_Source\PSoC6/ADC_1.h **** /* Begin configuration 3 customizer defines                                   */
 274:Generated_Source\PSoC6/ADC_1.h **** /* ************************************************************************** */
 275:Generated_Source\PSoC6/ADC_1.h **** #if(ADC_1_TOTAL_CONFIGS > 3)
 276:Generated_Source\PSoC6/ADC_1.h ****     #define ADC_1_CFG3_SAMPLE_RATE             ()
 277:Generated_Source\PSoC6/ADC_1.h ****     #define ADC_1_CFG3_CHANNEL_BASE            (u)
 278:Generated_Source\PSoC6/ADC_1.h ****     #define ADC_1_CFG3_CHANNEL_COUNT           (u)
 279:Generated_Source\PSoC6/ADC_1.h ****     #define ADC_1_CFG3_VREF_SEL_MASK           (u)
 280:Generated_Source\PSoC6/ADC_1.h ****     #define ADC_1_CFG3_NOMINAL_CLOCK_FREQ      (u)
 281:Generated_Source\PSoC6/ADC_1.h ****     #define ADC_1_CFG3_CHANNEL_EN              (u)
 282:Generated_Source\PSoC6/ADC_1.h **** 
 283:Generated_Source\PSoC6/ADC_1.h ****     /* Sample Control Register */
 284:Generated_Source\PSoC6/ADC_1.h ****     #define ADC_1_CFG3_SINGLE_ENDED_FORMAT     (uL)
 285:Generated_Source\PSoC6/ADC_1.h ****     #define ADC_1_CFG3_DIFFERENTIAL_FORMAT     (uL)
 286:Generated_Source\PSoC6/ADC_1.h ****     #define ADC_1_CFG3_SAMPLES_AVERAGED        (uL)
 287:Generated_Source\PSoC6/ADC_1.h ****     #define ADC_1_CFG3_RANGE_INTR_MASK         (u)
 288:Generated_Source\PSoC6/ADC_1.h ****     #define ADC_1_CFG3_SATURATE_INTR_MASK      (u)
 289:Generated_Source\PSoC6/ADC_1.h ****     #define ADC_1_CFG3_VNEG_INPUT_SEL          ()
 290:Generated_Source\PSoC6/ADC_1.h ****     #define ADC_1_CFG3_SINGLE_PRESENT          ()
 291:Generated_Source\PSoC6/ADC_1.h ****     #define ADC_1_CFG3_VREF_MV_VALUE           ()
 292:Generated_Source\PSoC6/ADC_1.h ****     #define ADC_1_CFG3_APERTURE_TIME0          (uL)
 293:Generated_Source\PSoC6/ADC_1.h ****     #define ADC_1_CFG3_APERTURE_TIME1          (uL)
 294:Generated_Source\PSoC6/ADC_1.h ****     #define ADC_1_CFG3_APERTURE_TIME2          (uL)
 295:Generated_Source\PSoC6/ADC_1.h ****     #define ADC_1_CFG3_APERTURE_TIME3          (uL)
 296:Generated_Source\PSoC6/ADC_1.h ****     #define ADC_1_CFG3_FREERUNNING             (u)
 297:Generated_Source\PSoC6/ADC_1.h ****     #define ADC_1_CFG3_AVGERAGING_MODE         (uL)
ARM GAS  C:\Users\Angel\AppData\Local\Temp\ccvqOPgy.s 			page 63


 298:Generated_Source\PSoC6/ADC_1.h ****     #define ADC_1_CFG3_LOW_LIMIT               (u)
 299:Generated_Source\PSoC6/ADC_1.h ****     #define ADC_1_CFG3_HIGH_LIMIT              (u)
 300:Generated_Source\PSoC6/ADC_1.h ****     #define ADC_1_CFG3_RANGE_COND              (uL)
 301:Generated_Source\PSoC6/ADC_1.h ****     #define ADC_1_CFG3_USE_SOC                 (0uL)
 302:Generated_Source\PSoC6/ADC_1.h ****     #define ADC_1_CFG3_VREF_PWR                (uL)
 303:Generated_Source\PSoC6/ADC_1.h ****     #define ADC_1_CFG3_COMP_PWR                (uL)
 304:Generated_Source\PSoC6/ADC_1.h ****     #define ADC_1_CFG3_COMP_DLY                (uL)
 305:Generated_Source\PSoC6/ADC_1.h **** 
 306:Generated_Source\PSoC6/ADC_1.h ****     /* Clock parameters*/
 307:Generated_Source\PSoC6/ADC_1.h ****     #if (ADC_1_CLOCK_INTERNAL)
 308:Generated_Source\PSoC6/ADC_1.h ****         #define ADC_1_CFG3_CLOCKDIVIDER        (((CYDEV_CLK_PERICLK__HZ) / (ADC_1_CFG3_NOMINAL_CLOC
 309:Generated_Source\PSoC6/ADC_1.h ****     #endif /* (ADC_1_CLOCK_INTERNAL) */
 310:Generated_Source\PSoC6/ADC_1.h **** #endif /* (ADC_1_TOTAL_CONFIGS > 3) */
 311:Generated_Source\PSoC6/ADC_1.h **** 
 312:Generated_Source\PSoC6/ADC_1.h **** /* ************************************************************************** */
 313:Generated_Source\PSoC6/ADC_1.h **** /* End configuration 3 customizer defines                                     */
 314:Generated_Source\PSoC6/ADC_1.h **** /* ************************************************************************** */
 315:Generated_Source\PSoC6/ADC_1.h **** 
 316:Generated_Source\PSoC6/ADC_1.h **** #define ADC_1_DEFAULT_SAMPLE_MODE_SEL      (0u)
 317:Generated_Source\PSoC6/ADC_1.h **** #define ADC_1_FREERUNNING                  (1u)
 318:Generated_Source\PSoC6/ADC_1.h **** #define ADC_1_HARDWARESOC                  (1u)
 319:Generated_Source\PSoC6/ADC_1.h **** #define ADC_1_NEG_SEL_VSSA_KELVIN          (0x0uL)
 320:Generated_Source\PSoC6/ADC_1.h **** #define ADC_1_NEG_SEL_VREF                 (0x7uL)
 321:Generated_Source\PSoC6/ADC_1.h **** #define ADC_1_PWR_CTRL_VREF_NORMAL_PWR     (0x0uL)
 322:Generated_Source\PSoC6/ADC_1.h **** 
 323:Generated_Source\PSoC6/ADC_1.h **** /** ADC_1_TOTAL_CHANNELS_NUM
 324:Generated_Source\PSoC6/ADC_1.h **** * This constant represents the number of input channels available for scanning.
 325:Generated_Source\PSoC6/ADC_1.h **** */
 326:Generated_Source\PSoC6/ADC_1.h **** #define ADC_1_TOTAL_CHANNELS_NUM           (1u)
 327:Generated_Source\PSoC6/ADC_1.h **** 
 328:Generated_Source\PSoC6/ADC_1.h **** /*******************************************************************************
 329:Generated_Source\PSoC6/ADC_1.h **** *    Variables with External Linkage
 330:Generated_Source\PSoC6/ADC_1.h **** *******************************************************************************/
 331:Generated_Source\PSoC6/ADC_1.h **** /**
 332:Generated_Source\PSoC6/ADC_1.h **** * \addtogroup group_globals
 333:Generated_Source\PSoC6/ADC_1.h **** * Globals are noted in the descriptions of the functions that use globals.
 334:Generated_Source\PSoC6/ADC_1.h **** * They are marked with (R), (W), or (RW) noting whether the variable is read,
 335:Generated_Source\PSoC6/ADC_1.h **** * write, or read/write.
 336:Generated_Source\PSoC6/ADC_1.h **** * @{
 337:Generated_Source\PSoC6/ADC_1.h **** */
 338:Generated_Source\PSoC6/ADC_1.h **** 
 339:Generated_Source\PSoC6/ADC_1.h **** /** ADC_1_initVar
 340:Generated_Source\PSoC6/ADC_1.h **** * The ADC_1_initVar variable is used to indicate
 341:Generated_Source\PSoC6/ADC_1.h **** * initial configuration of this component. The variable is initialized to zero and
 342:Generated_Source\PSoC6/ADC_1.h **** * set to 1 the first time ADC_1_Start() is called. This allows for
 343:Generated_Source\PSoC6/ADC_1.h **** * component initialization without reinitialization in all subsequent calls to the
 344:Generated_Source\PSoC6/ADC_1.h **** * ADC_1_Start() routine.
 345:Generated_Source\PSoC6/ADC_1.h **** *
 346:Generated_Source\PSoC6/ADC_1.h **** * If reinitialization of the component is required, then the ADC_1_Init() function
 347:Generated_Source\PSoC6/ADC_1.h **** * can be called before the ADC_1_Start() or ADC_1_Enable()
 348:Generated_Source\PSoC6/ADC_1.h **** * functions.
 349:Generated_Source\PSoC6/ADC_1.h **** */
 350:Generated_Source\PSoC6/ADC_1.h **** extern uint8_t ADC_1_initVar;
 351:Generated_Source\PSoC6/ADC_1.h **** extern uint8_t ADC_1_selected;
 352:Generated_Source\PSoC6/ADC_1.h **** extern uint32_t ADC_1_currentConfig;
 353:Generated_Source\PSoC6/ADC_1.h **** 
 354:Generated_Source\PSoC6/ADC_1.h **** #define ADC_1_INIT_VAR_INIT_FLAG     (0x01u)
ARM GAS  C:\Users\Angel\AppData\Local\Temp\ccvqOPgy.s 			page 64


 355:Generated_Source\PSoC6/ADC_1.h **** 
 356:Generated_Source\PSoC6/ADC_1.h **** extern const ADC_1_CONFIG_STRUCT ADC_1_allConfigs[ADC_1_TOTAL_CONFIGS];
 357:Generated_Source\PSoC6/ADC_1.h **** 
 358:Generated_Source\PSoC6/ADC_1.h **** /* SysPm callback structure for deep sleep entry and exit.
 359:Generated_Source\PSoC6/ADC_1.h ****  * Call the Cy_SysPm_RegisterCallback function with this
 360:Generated_Source\PSoC6/ADC_1.h ****  * structure before calling Cy_SysPm_DeepSleep.
 361:Generated_Source\PSoC6/ADC_1.h **** */
 362:Generated_Source\PSoC6/ADC_1.h **** extern cy_stc_syspm_callback_t ADC_1_DeepSleepCallbackStruct;
 363:Generated_Source\PSoC6/ADC_1.h **** 
 364:Generated_Source\PSoC6/ADC_1.h **** /** @} globals */
 365:Generated_Source\PSoC6/ADC_1.h **** 
 366:Generated_Source\PSoC6/ADC_1.h **** /* ************************************************************************** */
 367:Generated_Source\PSoC6/ADC_1.h **** /* *******************Global MUX_SWITCH0 Definitions ************************ */
 368:Generated_Source\PSoC6/ADC_1.h **** /* ************************************************************************** */
 369:Generated_Source\PSoC6/ADC_1.h **** #if(ADC_1_CFG0_VNEG_INPUT_SEL == ADC_1_NEG_SEL_VSSA_KELVIN)
 370:Generated_Source\PSoC6/ADC_1.h ****     /* Do not connect VSSA to VMINUS when one channel in differential mode used */
 371:Generated_Source\PSoC6/ADC_1.h ****     #if((ADC_1_TOTAL_CHANNELS_NUM == 1u) && (ADC_1_CFG0_SINGLE_PRESENT == 0u))
 372:Generated_Source\PSoC6/ADC_1.h ****         #define ADC_1_MUX_SWITCH0_INIT      0u
 373:Generated_Source\PSoC6/ADC_1.h ****     #else    /* multiple channels or one single ended channel */
 374:Generated_Source\PSoC6/ADC_1.h ****         #define ADC_1_MUX_SWITCH0_INIT      1u
 375:Generated_Source\PSoC6/ADC_1.h ****     #endif /* ((ADC_1_TOTAL_CHANNELS_NUM == 1u) && (ADC_1_CFG0_SINGLE_PRESENT == 0u)) */
 376:Generated_Source\PSoC6/ADC_1.h **** #else
 377:Generated_Source\PSoC6/ADC_1.h ****     #define ADC_1_MUX_SWITCH0_INIT          0u
 378:Generated_Source\PSoC6/ADC_1.h **** #endif /* ADC_1_CFG0_VNEG_INPUT_SEL == ADC_1_NEG_SEL_VSSA_KELVIN */
 379:Generated_Source\PSoC6/ADC_1.h **** 
 380:Generated_Source\PSoC6/ADC_1.h **** /* ************************************************************************** */
 381:Generated_Source\PSoC6/ADC_1.h **** /* Begin configuration 0 calculated defines                                   */
 382:Generated_Source\PSoC6/ADC_1.h **** /* ************************************************************************** */
 383:Generated_Source\PSoC6/ADC_1.h **** #define ADC_1_CFG0_SAMPLE_TIME01_INIT \
 384:Generated_Source\PSoC6/ADC_1.h ****         ((ADC_1_CFG0_APERTURE_TIME0 \
 385:Generated_Source\PSoC6/ADC_1.h ****         << SAR_SAMPLE_TIME01_SAMPLE_TIME0_Pos) \
 386:Generated_Source\PSoC6/ADC_1.h ****         | (ADC_1_CFG0_APERTURE_TIME1 \
 387:Generated_Source\PSoC6/ADC_1.h ****         << SAR_SAMPLE_TIME01_SAMPLE_TIME1_Pos))
 388:Generated_Source\PSoC6/ADC_1.h **** 
 389:Generated_Source\PSoC6/ADC_1.h **** #define ADC_1_CFG0_SAMPLE_TIME23_INIT \
 390:Generated_Source\PSoC6/ADC_1.h ****         ((ADC_1_CFG0_APERTURE_TIME2 \
 391:Generated_Source\PSoC6/ADC_1.h ****         << SAR_SAMPLE_TIME23_SAMPLE_TIME2_Pos) \
 392:Generated_Source\PSoC6/ADC_1.h ****         | (ADC_1_CFG0_APERTURE_TIME3 \
 393:Generated_Source\PSoC6/ADC_1.h ****         << SAR_SAMPLE_TIME23_SAMPLE_TIME3_Pos))
 394:Generated_Source\PSoC6/ADC_1.h **** 
 395:Generated_Source\PSoC6/ADC_1.h **** /* Enable soc pin if used */
 396:Generated_Source\PSoC6/ADC_1.h **** #define ADC_1_CFG0_DSI_TRIGGER_EN_INIT \
 397:Generated_Source\PSoC6/ADC_1.h ****         (ADC_1_CFG0_USE_SOC \
 398:Generated_Source\PSoC6/ADC_1.h ****         << SAR_SAMPLE_CTRL_DSI_TRIGGER_EN_Pos)
 399:Generated_Source\PSoC6/ADC_1.h **** 
 400:Generated_Source\PSoC6/ADC_1.h **** /* Set soc operation to edge or level based on sample mode */
 401:Generated_Source\PSoC6/ADC_1.h **** #if(ADC_1_CFG0_FREERUNNING == ADC_1_FREERUNNING)
 402:Generated_Source\PSoC6/ADC_1.h ****     #define ADC_1_CFG0_DSI_TRIGGER_LEVEL_INIT    (SAR_SAMPLE_CTRL_DSI_TRIGGER_LEVEL_Msk)
 403:Generated_Source\PSoC6/ADC_1.h **** #else /* Edge trigger */
 404:Generated_Source\PSoC6/ADC_1.h ****     #define ADC_1_CFG0_DSI_TRIGGER_LEVEL_INIT    (0u)
 405:Generated_Source\PSoC6/ADC_1.h **** #endif /* End ADC_1_CFG0_FREERUNNING == ADC_1_FREERUNNING */
 406:Generated_Source\PSoC6/ADC_1.h **** 
 407:Generated_Source\PSoC6/ADC_1.h **** /* Set SE_NEG_INPUT */
 408:Generated_Source\PSoC6/ADC_1.h **** #if(ADC_1_CFG0_VNEG_INPUT_SEL == ADC_1_NEG_SEL_VSSA_KELVIN)
 409:Generated_Source\PSoC6/ADC_1.h ****     #define ADC_1_CFG0_SE_NEG_INPUT_INIT \
 410:Generated_Source\PSoC6/ADC_1.h ****             ((uint32)(ADC_1_NEG_SEL_VSSA_KELVIN \
 411:Generated_Source\PSoC6/ADC_1.h ****             << SAR_CTRL_NEG_SEL_Pos ))
ARM GAS  C:\Users\Angel\AppData\Local\Temp\ccvqOPgy.s 			page 65


 412:Generated_Source\PSoC6/ADC_1.h **** #elif(ADC_1_CFG0_VNEG_INPUT_SEL == ADC_1_NEG_SEL_VREF)
 413:Generated_Source\PSoC6/ADC_1.h **** 
 414:Generated_Source\PSoC6/ADC_1.h ****     /* Do not connect VNEG to VREF when one channel in differential mode used */
 415:Generated_Source\PSoC6/ADC_1.h ****     /* Only needed for config 0 since 2+ configs == 2+ channels */
 416:Generated_Source\PSoC6/ADC_1.h ****     #if((ADC_1_CFG0_CHANNEL_COUNT == 1u) && (ADC_1_CFG0_SINGLE_PRESENT == 0u))
 417:Generated_Source\PSoC6/ADC_1.h ****         #define ADC_1_CFG0_SE_NEG_INPUT_INIT     0u
 418:Generated_Source\PSoC6/ADC_1.h ****     #else    /* multiple channels or one single channel */
 419:Generated_Source\PSoC6/ADC_1.h ****         #define ADC_1_CFG0_SE_NEG_INPUT_INIT     (ADC_1_NEG_SEL_VREF \
 420:Generated_Source\PSoC6/ADC_1.h ****                                                             << SAR_CTRL_NEG_SEL_Pos )
 421:Generated_Source\PSoC6/ADC_1.h ****     #endif /* (ADC_1_CFG0_CHANNEL_COUNT == 1u) && (ADC_1_CFG0_CHANNELS_MODE != 0u) */
 422:Generated_Source\PSoC6/ADC_1.h **** #elif (ADC_1_CFG0_SINGLE_PRESENT != 0u)
 423:Generated_Source\PSoC6/ADC_1.h ****     #define ADC_1_CFG0_SE_NEG_INPUT_INIT         ADC_1_CFG0_NEG_OTHER
 424:Generated_Source\PSoC6/ADC_1.h **** #else
 425:Generated_Source\PSoC6/ADC_1.h ****     #define ADC_1_CFG0_SE_NEG_INPUT_INIT         0u
 426:Generated_Source\PSoC6/ADC_1.h **** #endif /* ADC_1_CFG0_VNEG_INPUT_SEL == ADC_1_NEG_SEL_VSSA_KELVIN */
 427:Generated_Source\PSoC6/ADC_1.h **** 
 428:Generated_Source\PSoC6/ADC_1.h **** #if(ADC_1_TOTAL_CHANNELS_NUM > 1u)
 429:Generated_Source\PSoC6/ADC_1.h ****     #define ADC_1_CFG0_NEG_OTHER                 (uint16)((uint16)ADC_1_SARMUX__VNEG0 << SAR_CTRL_N
 430:Generated_Source\PSoC6/ADC_1.h ****     #define ADC_1_CFG0_SWITCH_CONF_INIT          0u
 431:Generated_Source\PSoC6/ADC_1.h **** #else /* Disable SAR sequencer from enabling routing switches in single channel mode */
 432:Generated_Source\PSoC6/ADC_1.h ****     #define ADC_1_CFG0_SWITCH_CONF_INIT          SAR_CTRL_SWITCH_DISABLE_Msk
 433:Generated_Source\PSoC6/ADC_1.h ****     #define ADC_1_CFG0_NEG_OTHER                 0u
 434:Generated_Source\PSoC6/ADC_1.h **** #endif /* ADC_1_CFG0_CHANNEL_COUNT > 1u */
 435:Generated_Source\PSoC6/ADC_1.h **** 
 436:Generated_Source\PSoC6/ADC_1.h **** /* If the SAR is configured for multiple channels, always set SAR_HW_CTRL_NEGVREF to 1 */
 437:Generated_Source\PSoC6/ADC_1.h **** #if(ADC_1_TOTAL_CHANNELS_NUM == 1u)
 438:Generated_Source\PSoC6/ADC_1.h ****     #define ADC_1_CFG0_HW_CTRL_NEGVREF_INIT      0u
 439:Generated_Source\PSoC6/ADC_1.h **** #else
 440:Generated_Source\PSoC6/ADC_1.h ****     #define ADC_1_CFG0_HW_CTRL_NEGVREF_INIT      SAR_CTRL_SAR_HW_CTRL_NEGVREF_Msk
 441:Generated_Source\PSoC6/ADC_1.h **** #endif /* ADC_1_CFG0_CHANNEL_COUNT == 1u */
 442:Generated_Source\PSoC6/ADC_1.h **** 
 443:Generated_Source\PSoC6/ADC_1.h **** #define ADC_1_CFG0_POWER_INIT  (ADC_1_PWR_CTRL_VREF_NORMAL_PWR)
 444:Generated_Source\PSoC6/ADC_1.h **** 
 445:Generated_Source\PSoC6/ADC_1.h **** /* SAMPLE_CTRL initial values */
 446:Generated_Source\PSoC6/ADC_1.h **** #define ADC_1_CFG0_SE_RESULT_FORMAT_INIT \
 447:Generated_Source\PSoC6/ADC_1.h ****         (ADC_1_CFG0_SINGLE_ENDED_FORMAT \
 448:Generated_Source\PSoC6/ADC_1.h ****         << SAR_SAMPLE_CTRL_SINGLE_ENDED_SIGNED_Pos)
 449:Generated_Source\PSoC6/ADC_1.h **** 
 450:Generated_Source\PSoC6/ADC_1.h **** #define ADC_1_CFG0_DIFF_RESULT_FORMAT_INIT \
 451:Generated_Source\PSoC6/ADC_1.h ****         (ADC_1_CFG0_DIFFERENTIAL_FORMAT \
 452:Generated_Source\PSoC6/ADC_1.h ****         << SAR_SAMPLE_CTRL_DIFFERENTIAL_SIGNED_Pos)
 453:Generated_Source\PSoC6/ADC_1.h **** 
 454:Generated_Source\PSoC6/ADC_1.h **** #define ADC_1_CFG0_AVG_SAMPLES_NUM_INIT \
 455:Generated_Source\PSoC6/ADC_1.h ****         (ADC_1_CFG0_SAMPLES_AVERAGED \
 456:Generated_Source\PSoC6/ADC_1.h ****         << SAR_SAMPLE_CTRL_AVG_CNT_Pos)
 457:Generated_Source\PSoC6/ADC_1.h **** 
 458:Generated_Source\PSoC6/ADC_1.h **** /* Combination of Average Mode and Average Shift */
 459:Generated_Source\PSoC6/ADC_1.h **** #define ADC_1_CFG0_AVG_MODE_INIT \
 460:Generated_Source\PSoC6/ADC_1.h ****         (ADC_1_CFG0_AVGERAGING_MODE \
 461:Generated_Source\PSoC6/ADC_1.h ****         << SAR_SAMPLE_CTRL_AVG_SHIFT_Pos)
 462:Generated_Source\PSoC6/ADC_1.h **** 
 463:Generated_Source\PSoC6/ADC_1.h **** #define ADC_1_CFG0_TRIGGER_OUT_INIT      (0u)
 464:Generated_Source\PSoC6/ADC_1.h **** #define ADC_1_CFG0_UAB_SCAN_MODE_INIT    (0u)
 465:Generated_Source\PSoC6/ADC_1.h **** 
 466:Generated_Source\PSoC6/ADC_1.h **** #define ADC_1_CFG0_VREF_POWER_INIT  \
 467:Generated_Source\PSoC6/ADC_1.h ****         (ADC_1_CFG0_VREF_PWR \
 468:Generated_Source\PSoC6/ADC_1.h ****         << SAR_CTRL_PWR_CTRL_VREF_Pos)
ARM GAS  C:\Users\Angel\AppData\Local\Temp\ccvqOPgy.s 			page 66


 469:Generated_Source\PSoC6/ADC_1.h **** 
 470:Generated_Source\PSoC6/ADC_1.h **** #define ADC_1_CFG0_COMP_PWR_INIT  \
 471:Generated_Source\PSoC6/ADC_1.h ****         (ADC_1_CFG0_COMP_PWR \
 472:Generated_Source\PSoC6/ADC_1.h ****         << SAR_CTRL_COMP_PWR_Pos)
 473:Generated_Source\PSoC6/ADC_1.h **** 
 474:Generated_Source\PSoC6/ADC_1.h **** #define ADC_1_CFG0_COMP_DLY_INIT  \
 475:Generated_Source\PSoC6/ADC_1.h ****         (ADC_1_CFG0_COMP_DLY \
 476:Generated_Source\PSoC6/ADC_1.h ****         << SAR_CTRL_COMP_DLY_Pos)
 477:Generated_Source\PSoC6/ADC_1.h **** 
 478:Generated_Source\PSoC6/ADC_1.h **** #define ADC_1_CFG0_CTRL_INIT  \
 479:Generated_Source\PSoC6/ADC_1.h ****         (ADC_1_CFG0_VREF_POWER_INIT \
 480:Generated_Source\PSoC6/ADC_1.h ****         | ADC_1_CFG0_VREF_SEL_MASK \
 481:Generated_Source\PSoC6/ADC_1.h ****         | ADC_1_CFG0_SE_NEG_INPUT_INIT \
 482:Generated_Source\PSoC6/ADC_1.h ****         | ADC_1_CFG0_HW_CTRL_NEGVREF_INIT \
 483:Generated_Source\PSoC6/ADC_1.h ****         | ADC_1_CFG0_COMP_DLY_INIT \
 484:Generated_Source\PSoC6/ADC_1.h ****         | SAR_CTRL_REFBUF_EN_Msk \
 485:Generated_Source\PSoC6/ADC_1.h ****         | ADC_1_CFG0_COMP_PWR_INIT \
 486:Generated_Source\PSoC6/ADC_1.h ****         | SAR_CTRL_DSI_SYNC_CONFIG_Msk  \
 487:Generated_Source\PSoC6/ADC_1.h ****         | ADC_1_CFG0_SWITCH_CONF_INIT )
 488:Generated_Source\PSoC6/ADC_1.h **** 
 489:Generated_Source\PSoC6/ADC_1.h **** #define ADC_1_CFG0_SAMPLE_CTRL_INIT \
 490:Generated_Source\PSoC6/ADC_1.h ****         (ADC_1_CFG0_SE_RESULT_FORMAT_INIT \
 491:Generated_Source\PSoC6/ADC_1.h ****         | ADC_1_CFG0_DIFF_RESULT_FORMAT_INIT \
 492:Generated_Source\PSoC6/ADC_1.h ****         | ADC_1_CFG0_AVG_SAMPLES_NUM_INIT \
 493:Generated_Source\PSoC6/ADC_1.h ****         | ADC_1_CFG0_AVG_MODE_INIT \
 494:Generated_Source\PSoC6/ADC_1.h ****         | ADC_1_CFG0_DSI_TRIGGER_LEVEL_INIT \
 495:Generated_Source\PSoC6/ADC_1.h ****         | ADC_1_CFG0_DSI_TRIGGER_EN_INIT \
 496:Generated_Source\PSoC6/ADC_1.h ****         | ADC_1_CFG0_UAB_SCAN_MODE_INIT \
 497:Generated_Source\PSoC6/ADC_1.h ****         | SAR_SAMPLE_CTRL_VALID_IGNORE_Msk \
 498:Generated_Source\PSoC6/ADC_1.h ****         | ADC_1_CFG0_TRIGGER_OUT_INIT \
 499:Generated_Source\PSoC6/ADC_1.h ****         | SAR_SAMPLE_CTRL_EOS_DSI_OUT_EN_Msk \
 500:Generated_Source\PSoC6/ADC_1.h **** )
 501:Generated_Source\PSoC6/ADC_1.h **** 
 502:Generated_Source\PSoC6/ADC_1.h **** #define ADC_1_CFG0_RANGE_THRES_INIT \
 503:Generated_Source\PSoC6/ADC_1.h ****         (ADC_1_CFG0_LOW_LIMIT \
 504:Generated_Source\PSoC6/ADC_1.h ****         | (uint32)((uint32)ADC_1_CFG0_HIGH_LIMIT \
 505:Generated_Source\PSoC6/ADC_1.h ****         << SAR_RANGE_THRES_RANGE_HIGH_Pos))
 506:Generated_Source\PSoC6/ADC_1.h **** 
 507:Generated_Source\PSoC6/ADC_1.h **** #define ADC_1_CFG0_RANGE_COND_INIT   (cy_en_sar_range_detect_condition_t)ADC_1_CFG0_RANGE_COND
 508:Generated_Source\PSoC6/ADC_1.h **** 
 509:Generated_Source\PSoC6/ADC_1.h **** /* Misc Config
 510:Generated_Source\PSoC6/ADC_1.h ****     [0] - Freerunning: Set if the sample mode is freerunning
 511:Generated_Source\PSoC6/ADC_1.h **** */
 512:Generated_Source\PSoC6/ADC_1.h **** #define ADC_1_CFG0_MISC_CONFIG_INIT \
 513:Generated_Source\PSoC6/ADC_1.h ****         (ADC_1_CFG0_FREERUNNING)
 514:Generated_Source\PSoC6/ADC_1.h **** 
 515:Generated_Source\PSoC6/ADC_1.h **** /* ************************************************************************** */
 516:Generated_Source\PSoC6/ADC_1.h **** /* End configuration 0 calculated defines                                     */
 517:Generated_Source\PSoC6/ADC_1.h **** /* ************************************************************************** */
 518:Generated_Source\PSoC6/ADC_1.h **** 
 519:Generated_Source\PSoC6/ADC_1.h **** /* ************************************************************************** */
 520:Generated_Source\PSoC6/ADC_1.h **** /* Begin configuration 1 calculated defines                                   */
 521:Generated_Source\PSoC6/ADC_1.h **** /* ************************************************************************** */
 522:Generated_Source\PSoC6/ADC_1.h **** #if(ADC_1_TOTAL_CONFIGS > 1)
 523:Generated_Source\PSoC6/ADC_1.h ****     #define ADC_1_CFG1_SAMPLE_TIME01_INIT \
 524:Generated_Source\PSoC6/ADC_1.h ****             ((ADC_1_CFG1_APERTURE_TIME0 \
 525:Generated_Source\PSoC6/ADC_1.h ****             << SAR_SAMPLE_TIME01_SAMPLE_TIME0_Pos) \
ARM GAS  C:\Users\Angel\AppData\Local\Temp\ccvqOPgy.s 			page 67


 526:Generated_Source\PSoC6/ADC_1.h ****             | (ADC_1_CFG1_APERTURE_TIME1 \
 527:Generated_Source\PSoC6/ADC_1.h ****             << SAR_SAMPLE_TIME01_SAMPLE_TIME1_Pos))
 528:Generated_Source\PSoC6/ADC_1.h **** 
 529:Generated_Source\PSoC6/ADC_1.h ****     #define ADC_1_CFG1_SAMPLE_TIME23_INIT \
 530:Generated_Source\PSoC6/ADC_1.h ****             ((ADC_1_CFG1_APERTURE_TIME2 \
 531:Generated_Source\PSoC6/ADC_1.h ****             << SAR_SAMPLE_TIME23_SAMPLE_TIME2_Pos) \
 532:Generated_Source\PSoC6/ADC_1.h ****             | (ADC_1_CFG1_APERTURE_TIME3 \
 533:Generated_Source\PSoC6/ADC_1.h ****             << SAR_SAMPLE_TIME23_SAMPLE_TIME3_Pos))
 534:Generated_Source\PSoC6/ADC_1.h **** 
 535:Generated_Source\PSoC6/ADC_1.h ****     /* Enable soc pin if used */
 536:Generated_Source\PSoC6/ADC_1.h ****     #define ADC_1_CFG1_DSI_TRIGGER_EN_INIT \
 537:Generated_Source\PSoC6/ADC_1.h ****             (ADC_1_CFG1_USE_SOC \
 538:Generated_Source\PSoC6/ADC_1.h ****             << SAR_SAMPLE_CTRL_DSI_TRIGGER_EN_Pos)
 539:Generated_Source\PSoC6/ADC_1.h **** 
 540:Generated_Source\PSoC6/ADC_1.h ****     /* Set soc operation to edge or level based on sample mode */
 541:Generated_Source\PSoC6/ADC_1.h ****     #if(ADC_1_CFG1_FREERUNNING == ADC_1_FREERUNNING)
 542:Generated_Source\PSoC6/ADC_1.h ****         #define ADC_1_CFG1_DSI_TRIGGER_LEVEL_INIT    (SAR_SAMPLE_CTRL_DSI_TRIGGER_LEVEL_Msk)
 543:Generated_Source\PSoC6/ADC_1.h ****     #else /* Edge trigger */
 544:Generated_Source\PSoC6/ADC_1.h ****         #define ADC_1_CFG1_DSI_TRIGGER_LEVEL_INIT    (0u)
 545:Generated_Source\PSoC6/ADC_1.h ****     #endif /* End ADC_1_CFG1_FREERUNNING == ADC_1_FREERUNNING */
 546:Generated_Source\PSoC6/ADC_1.h **** 
 547:Generated_Source\PSoC6/ADC_1.h ****     /* Set SE_NEG_INPUT */
 548:Generated_Source\PSoC6/ADC_1.h ****     #if(ADC_1_CFG1_VNEG_INPUT_SEL == ADC_1_NEG_SEL_VSSA_KELVIN)
 549:Generated_Source\PSoC6/ADC_1.h ****         #define ADC_1_CFG1_SE_NEG_INPUT_INIT \
 550:Generated_Source\PSoC6/ADC_1.h ****             ((uint32)(ADC_1_NEG_SEL_VSSA_KELVIN \
 551:Generated_Source\PSoC6/ADC_1.h ****             << SAR_CTRL_NEG_SEL_Pos ))
 552:Generated_Source\PSoC6/ADC_1.h ****     #elif(ADC_1_CFG1_VNEG_INPUT_SEL == ADC_1_NEG_SEL_VREF)
 553:Generated_Source\PSoC6/ADC_1.h ****         #define ADC_1_CFG1_SE_NEG_INPUT_INIT     (ADC_1_NEG_SEL_VREF \
 554:Generated_Source\PSoC6/ADC_1.h ****                                                             << SAR_CTRL_NEG_SEL_Pos )
 555:Generated_Source\PSoC6/ADC_1.h ****     #elif (ADC_1_CFG1_SINGLE_PRESENT != 0u)
 556:Generated_Source\PSoC6/ADC_1.h ****         #define ADC_1_CFG1_SE_NEG_INPUT_INIT         ADC_1_CFG1_NEG_OTHER
 557:Generated_Source\PSoC6/ADC_1.h ****     #else
 558:Generated_Source\PSoC6/ADC_1.h ****         #define ADC_1_CFG1_SE_NEG_INPUT_INIT         0u
 559:Generated_Source\PSoC6/ADC_1.h ****     #endif /* ADC_1_CFG1_VNEG_INPUT_SEL == ADC_1_NEG_SEL_VSSA_KELVIN */
 560:Generated_Source\PSoC6/ADC_1.h **** 
 561:Generated_Source\PSoC6/ADC_1.h ****     #define ADC_1_CFG1_NEG_OTHER                 (uint16)((uint16)ADC_1_SARMUX__VNEG1 << SAR_CTRL_N
 562:Generated_Source\PSoC6/ADC_1.h ****     #define ADC_1_CFG1_SWITCH_CONF_INIT          0u
 563:Generated_Source\PSoC6/ADC_1.h **** 
 564:Generated_Source\PSoC6/ADC_1.h ****     /* If the SAR is configured for multiple channels, always set SAR_HW_CTRL_NEGVREF to 1 */
 565:Generated_Source\PSoC6/ADC_1.h ****     #define ADC_1_CFG1_HW_CTRL_NEGVREF_INIT      SAR_CTRL_SAR_HW_CTRL_NEGVREF_Msk
 566:Generated_Source\PSoC6/ADC_1.h **** 
 567:Generated_Source\PSoC6/ADC_1.h ****     #define ADC_1_CFG1_POWER_INIT  (ADC_1_PWR_CTRL_VREF_NORMAL_PWR)
 568:Generated_Source\PSoC6/ADC_1.h **** 
 569:Generated_Source\PSoC6/ADC_1.h ****     /* SAMPLE_CTRL initial values */
 570:Generated_Source\PSoC6/ADC_1.h ****     #define ADC_1_CFG1_SE_RESULT_FORMAT_INIT \
 571:Generated_Source\PSoC6/ADC_1.h ****             (ADC_1_CFG1_SINGLE_ENDED_FORMAT \
 572:Generated_Source\PSoC6/ADC_1.h ****             << SAR_SAMPLE_CTRL_SINGLE_ENDED_SIGNED_Pos)
 573:Generated_Source\PSoC6/ADC_1.h **** 
 574:Generated_Source\PSoC6/ADC_1.h ****     #define ADC_1_CFG1_DIFF_RESULT_FORMAT_INIT \
 575:Generated_Source\PSoC6/ADC_1.h ****             (ADC_1_CFG1_DIFFERENTIAL_FORMAT \
 576:Generated_Source\PSoC6/ADC_1.h ****             << SAR_SAMPLE_CTRL_DIFFERENTIAL_SIGNED_Pos)
 577:Generated_Source\PSoC6/ADC_1.h **** 
 578:Generated_Source\PSoC6/ADC_1.h ****     #define ADC_1_CFG1_AVG_SAMPLES_NUM_INIT \
 579:Generated_Source\PSoC6/ADC_1.h ****             (ADC_1_CFG1_SAMPLES_AVERAGED \
 580:Generated_Source\PSoC6/ADC_1.h ****             << SAR_SAMPLE_CTRL_AVG_CNT_Pos)
 581:Generated_Source\PSoC6/ADC_1.h **** 
 582:Generated_Source\PSoC6/ADC_1.h ****     /* Combination of Average Mode and Average Shift */
ARM GAS  C:\Users\Angel\AppData\Local\Temp\ccvqOPgy.s 			page 68


 583:Generated_Source\PSoC6/ADC_1.h ****     #define ADC_1_CFG1_AVG_MODE_INIT \
 584:Generated_Source\PSoC6/ADC_1.h ****             (ADC_1_CFG1_AVGERAGING_MODE \
 585:Generated_Source\PSoC6/ADC_1.h ****             << SAR_SAMPLE_CTRL_AVG_SHIFT_Pos)
 586:Generated_Source\PSoC6/ADC_1.h **** 
 587:Generated_Source\PSoC6/ADC_1.h ****     #define ADC_1_CFG1_TRIGGER_OUT_INIT      (0u)
 588:Generated_Source\PSoC6/ADC_1.h ****     #define ADC_1_CFG1_UAB_SCAN_MODE_INIT    (0u)
 589:Generated_Source\PSoC6/ADC_1.h **** 
 590:Generated_Source\PSoC6/ADC_1.h ****     #define ADC_1_CFG1_VREF_POWER_INIT  \
 591:Generated_Source\PSoC6/ADC_1.h ****             (ADC_1_CFG1_VREF_PWR \
 592:Generated_Source\PSoC6/ADC_1.h ****             << SAR_CTRL_PWR_CTRL_VREF_Pos)
 593:Generated_Source\PSoC6/ADC_1.h **** 
 594:Generated_Source\PSoC6/ADC_1.h ****     #define ADC_1_CFG1_COMP_PWR_INIT  \
 595:Generated_Source\PSoC6/ADC_1.h ****             (ADC_1_CFG1_COMP_PWR \
 596:Generated_Source\PSoC6/ADC_1.h ****             << SAR_CTRL_COMP_PWR_Pos)
 597:Generated_Source\PSoC6/ADC_1.h **** 
 598:Generated_Source\PSoC6/ADC_1.h ****     #define ADC_1_CFG1_COMP_DLY_INIT  \
 599:Generated_Source\PSoC6/ADC_1.h ****             (ADC_1_CFG1_COMP_DLY \
 600:Generated_Source\PSoC6/ADC_1.h ****             << SAR_CTRL_COMP_DLY_Pos)
 601:Generated_Source\PSoC6/ADC_1.h **** 
 602:Generated_Source\PSoC6/ADC_1.h ****     #define ADC_1_CFG1_CTRL_INIT  \
 603:Generated_Source\PSoC6/ADC_1.h ****             (ADC_1_CFG1_VREF_POWER_INIT \
 604:Generated_Source\PSoC6/ADC_1.h ****             | ADC_1_CFG1_VREF_SEL_MASK \
 605:Generated_Source\PSoC6/ADC_1.h ****             | ADC_1_CFG1_SE_NEG_INPUT_INIT \
 606:Generated_Source\PSoC6/ADC_1.h ****             | ADC_1_CFG1_HW_CTRL_NEGVREF_INIT \
 607:Generated_Source\PSoC6/ADC_1.h ****             | ADC_1_CFG1_COMP_DLY_INIT \
 608:Generated_Source\PSoC6/ADC_1.h ****             | SAR_CTRL_REFBUF_EN_Msk \
 609:Generated_Source\PSoC6/ADC_1.h ****             | ADC_1_CFG1_COMP_PWR_INIT \
 610:Generated_Source\PSoC6/ADC_1.h ****             | SAR_CTRL_DSI_SYNC_CONFIG_Msk  \
 611:Generated_Source\PSoC6/ADC_1.h ****             | ADC_1_CFG1_SWITCH_CONF_INIT )
 612:Generated_Source\PSoC6/ADC_1.h **** 
 613:Generated_Source\PSoC6/ADC_1.h ****     #define ADC_1_CFG1_SAMPLE_CTRL_INIT \
 614:Generated_Source\PSoC6/ADC_1.h ****             (ADC_1_CFG1_SE_RESULT_FORMAT_INIT \
 615:Generated_Source\PSoC6/ADC_1.h ****             | ADC_1_CFG1_DIFF_RESULT_FORMAT_INIT \
 616:Generated_Source\PSoC6/ADC_1.h ****             | ADC_1_CFG1_AVG_SAMPLES_NUM_INIT \
 617:Generated_Source\PSoC6/ADC_1.h ****             | ADC_1_CFG1_AVG_MODE_INIT \
 618:Generated_Source\PSoC6/ADC_1.h ****             | ADC_1_CFG1_DSI_TRIGGER_LEVEL_INIT \
 619:Generated_Source\PSoC6/ADC_1.h ****             | ADC_1_CFG1_DSI_TRIGGER_EN_INIT \
 620:Generated_Source\PSoC6/ADC_1.h ****             | ADC_1_CFG1_UAB_SCAN_MODE_INIT \
 621:Generated_Source\PSoC6/ADC_1.h ****             | SAR_SAMPLE_CTRL_VALID_IGNORE_Msk \
 622:Generated_Source\PSoC6/ADC_1.h ****             | ADC_1_CFG1_TRIGGER_OUT_INIT \
