ARM GAS  C:\Users\Angel\AppData\Local\Temp\ccvqOPgy.s 			page 1


   1              		.syntax unified
   2              		.cpu cortex-m4
   3              		.eabi_attribute 27, 1
   4              		.fpu fpv4-sp-d16
   5              		.eabi_attribute 20, 1
   6              		.eabi_attribute 21, 1
   7              		.eabi_attribute 23, 3
   8              		.eabi_attribute 24, 1
   9              		.eabi_attribute 25, 1
  10              		.eabi_attribute 26, 1
  11              		.eabi_attribute 30, 1
  12              		.eabi_attribute 34, 1
  13              		.eabi_attribute 18, 4
  14              		.thumb
  15              		.syntax unified
  16              		.file	"main_cm4.c"
  17              		.text
  18              	.Ltext0:
  19              		.cfi_sections	.debug_frame
  20              		.section	.text.do_clear,"ax",%progbits
  21              		.align	2
  22              		.global	do_clear
  23              		.thumb
  24              		.thumb_func
  25              		.type	do_clear, %function
  26              	do_clear:
  27              	.LFB534:
  28              		.file 1 "main_cm4.c"
   1:main_cm4.c    **** /* ========================================
   2:main_cm4.c    ****  *
   3:main_cm4.c    ****  * Copyright YOUR COMPANY, THE YEAR
   4:main_cm4.c    ****  * All Rights Reserved
   5:main_cm4.c    ****  * UNPUBLISHED, LICENSED SOFTWARE.
   6:main_cm4.c    ****  *
   7:main_cm4.c    ****  * CONFIDENTIAL AND PROPRIETARY INFORMATION
   8:main_cm4.c    ****  * WHICH IS THE PROPERTY OF your company.
   9:main_cm4.c    ****  *
  10:main_cm4.c    ****  * ========================================
  11:main_cm4.c    **** */
  12:main_cm4.c    **** #include "project.h"
  13:main_cm4.c    **** #include "stdio.h"
  14:main_cm4.c    **** #include "tty_utils.h"
  15:main_cm4.c    **** #include "clcd.h"
  16:main_cm4.c    **** #include "func_list.h"
  17:main_cm4.c    **** 
  18:main_cm4.c    **** void do_help(void) ;
  19:main_cm4.c    **** void do_clear(void) ;
  20:main_cm4.c    **** void do_write(void) ;
  21:main_cm4.c    **** void do_SetDDRAddr(void) ;
  22:main_cm4.c    **** void do_SetCGRAMAddr(void) ;
  23:main_cm4.c    **** void do_Command(void) ;
  24:main_cm4.c    **** void do_print(void) ;
  25:main_cm4.c    **** void do_pos(void) ;
  26:main_cm4.c    **** 
  27:main_cm4.c    **** int row[4];
  28:main_cm4.c    **** int column[4];
  29:main_cm4.c    **** 
ARM GAS  C:\Users\Angel\AppData\Local\Temp\ccvqOPgy.s 			page 2


  30:main_cm4.c    **** void rowselect(int in){
  31:main_cm4.c    **** switch (in)
  32:main_cm4.c    **** {
  33:main_cm4.c    ****     case 0:
  34:main_cm4.c    ****    Cy_GPIO_Write(R0_PORT,R0_NUM,0);
  35:main_cm4.c    ****    Cy_GPIO_Write(R1_PORT,R1_NUM,0);
  36:main_cm4.c    ****    Cy_GPIO_Write(R2_PORT,R2_NUM,0);
  37:main_cm4.c    ****    Cy_GPIO_Write(R3_PORT,R3_NUM,0);
  38:main_cm4.c    **** 
  39:main_cm4.c    ****     break;
  40:main_cm4.c    ****     case 1:
  41:main_cm4.c    ****      Cy_GPIO_Write(R0_PORT,R0_NUM,1);
  42:main_cm4.c    ****      Cy_GPIO_Write(R1_PORT,R1_NUM,0);
  43:main_cm4.c    ****      Cy_GPIO_Write(R2_PORT,R2_NUM,0);
  44:main_cm4.c    ****      Cy_GPIO_Write(R3_PORT,R3_NUM,0);
  45:main_cm4.c    ****     
  46:main_cm4.c    ****     break;
  47:main_cm4.c    ****      case 2:
  48:main_cm4.c    ****      Cy_GPIO_Write(R0_PORT,R0_NUM,0);
  49:main_cm4.c    ****      Cy_GPIO_Write(R1_PORT,R1_NUM,1);
  50:main_cm4.c    ****      Cy_GPIO_Write(R2_PORT,R2_NUM,0);
  51:main_cm4.c    ****      Cy_GPIO_Write(R3_PORT,R3_NUM,0);
  52:main_cm4.c    ****     
  53:main_cm4.c    ****     break;
  54:main_cm4.c    ****      case 3:
  55:main_cm4.c    ****      Cy_GPIO_Write(R0_PORT,R0_NUM,1);
  56:main_cm4.c    ****      Cy_GPIO_Write(R1_PORT,R1_NUM,1);
  57:main_cm4.c    ****      Cy_GPIO_Write(R2_PORT,R2_NUM,0);
  58:main_cm4.c    ****      Cy_GPIO_Write(R3_PORT,R3_NUM,0);
  59:main_cm4.c    ****     
  60:main_cm4.c    ****     break;
  61:main_cm4.c    ****      case 4:
  62:main_cm4.c    ****      Cy_GPIO_Write(R0_PORT,R0_NUM,0);
  63:main_cm4.c    ****      Cy_GPIO_Write(R1_PORT,R1_NUM,0);
  64:main_cm4.c    ****      Cy_GPIO_Write(R2_PORT,R2_NUM,1);
  65:main_cm4.c    ****      Cy_GPIO_Write(R3_PORT,R3_NUM,0);
  66:main_cm4.c    ****     break;
  67:main_cm4.c    ****      case 5:
  68:main_cm4.c    ****      Cy_GPIO_Write(R0_PORT,R0_NUM,1);
  69:main_cm4.c    ****      Cy_GPIO_Write(R1_PORT,R1_NUM,0);
  70:main_cm4.c    ****      Cy_GPIO_Write(R2_PORT,R2_NUM,1);
  71:main_cm4.c    ****      Cy_GPIO_Write(R3_PORT,R3_NUM,0);
  72:main_cm4.c    ****     
  73:main_cm4.c    ****     break;
  74:main_cm4.c    ****      case 6:
  75:main_cm4.c    ****      Cy_GPIO_Write(R0_PORT,R0_NUM,0);
  76:main_cm4.c    ****      Cy_GPIO_Write(R1_PORT,R1_NUM,1);
  77:main_cm4.c    ****      Cy_GPIO_Write(R2_PORT,R2_NUM,1);
  78:main_cm4.c    ****      Cy_GPIO_Write(R3_PORT,R3_NUM,0);
  79:main_cm4.c    **** 
  80:main_cm4.c    ****     break;
  81:main_cm4.c    ****      case 7:
  82:main_cm4.c    ****      Cy_GPIO_Write(R0_PORT,R0_NUM,1);
  83:main_cm4.c    ****      Cy_GPIO_Write(R1_PORT,R1_NUM,1);
  84:main_cm4.c    ****      Cy_GPIO_Write(R2_PORT,R2_NUM,1);
  85:main_cm4.c    ****      Cy_GPIO_Write(R3_PORT,R3_NUM,0);
  86:main_cm4.c    ****     
ARM GAS  C:\Users\Angel\AppData\Local\Temp\ccvqOPgy.s 			page 3


  87:main_cm4.c    ****     break;
  88:main_cm4.c    ****      case 8:
  89:main_cm4.c    ****      Cy_GPIO_Write(R0_PORT,R0_NUM,0);
  90:main_cm4.c    ****      Cy_GPIO_Write(R1_PORT,R1_NUM,0);
  91:main_cm4.c    ****      Cy_GPIO_Write(R2_PORT,R2_NUM,0);
  92:main_cm4.c    ****      Cy_GPIO_Write(R3_PORT,R3_NUM,1);
  93:main_cm4.c    ****     
  94:main_cm4.c    ****     break;
  95:main_cm4.c    ****      case 9:
  96:main_cm4.c    ****      Cy_GPIO_Write(R0_PORT,R0_NUM,1);
  97:main_cm4.c    ****      Cy_GPIO_Write(R1_PORT,R1_NUM,0);
  98:main_cm4.c    ****      Cy_GPIO_Write(R2_PORT,R2_NUM,0);
  99:main_cm4.c    ****      Cy_GPIO_Write(R3_PORT,R3_NUM,1);
 100:main_cm4.c    ****     
 101:main_cm4.c    ****     break;
 102:main_cm4.c    ****      case 10:
 103:main_cm4.c    ****      Cy_GPIO_Write(R0_PORT,R0_NUM,0);
 104:main_cm4.c    ****      Cy_GPIO_Write(R1_PORT,R1_NUM,1);
 105:main_cm4.c    ****      Cy_GPIO_Write(R2_PORT,R2_NUM,0);
 106:main_cm4.c    ****      Cy_GPIO_Write(R3_PORT,R3_NUM,1);
 107:main_cm4.c    ****     
 108:main_cm4.c    ****     break;
 109:main_cm4.c    ****      case 11:
 110:main_cm4.c    ****      Cy_GPIO_Write(R0_PORT,R0_NUM,1);
 111:main_cm4.c    ****      Cy_GPIO_Write(R1_PORT,R1_NUM,1);
 112:main_cm4.c    ****      Cy_GPIO_Write(R2_PORT,R2_NUM,0);
 113:main_cm4.c    ****      Cy_GPIO_Write(R3_PORT,R3_NUM,1);
 114:main_cm4.c    ****     
 115:main_cm4.c    ****     break;
 116:main_cm4.c    ****      case 12:
 117:main_cm4.c    ****      Cy_GPIO_Write(R0_PORT,R0_NUM,0);
 118:main_cm4.c    ****      Cy_GPIO_Write(R1_PORT,R1_NUM,0);
 119:main_cm4.c    ****      Cy_GPIO_Write(R2_PORT,R2_NUM,1);
 120:main_cm4.c    ****      Cy_GPIO_Write(R3_PORT,R3_NUM,1);
 121:main_cm4.c    **** 
 122:main_cm4.c    ****     break;
 123:main_cm4.c    ****      case 13:
 124:main_cm4.c    ****      Cy_GPIO_Write(R0_PORT,R0_NUM,1);
 125:main_cm4.c    ****      Cy_GPIO_Write(R1_PORT,R1_NUM,0);
 126:main_cm4.c    ****      Cy_GPIO_Write(R2_PORT,R2_NUM,1);
 127:main_cm4.c    ****      Cy_GPIO_Write(R3_PORT,R3_NUM,1);
 128:main_cm4.c    ****     
 129:main_cm4.c    ****     break;
 130:main_cm4.c    ****      case 14:
 131:main_cm4.c    ****      Cy_GPIO_Write(R0_PORT,R0_NUM,0);
 132:main_cm4.c    ****      Cy_GPIO_Write(R1_PORT,R1_NUM,1);
 133:main_cm4.c    ****      Cy_GPIO_Write(R2_PORT,R2_NUM,1);
 134:main_cm4.c    ****      Cy_GPIO_Write(R3_PORT,R3_NUM,1);
 135:main_cm4.c    **** 
 136:main_cm4.c    ****     break;
 137:main_cm4.c    ****      case 15:
 138:main_cm4.c    ****      Cy_GPIO_Write(R0_PORT,R0_NUM,1);
 139:main_cm4.c    ****      Cy_GPIO_Write(R1_PORT,R1_NUM,1);
 140:main_cm4.c    ****      Cy_GPIO_Write(R2_PORT,R2_NUM,1);
 141:main_cm4.c    ****      Cy_GPIO_Write(R3_PORT,R3_NUM,1);
 142:main_cm4.c    ****     break;
 143:main_cm4.c    **** }
ARM GAS  C:\Users\Angel\AppData\Local\Temp\ccvqOPgy.s 			page 4


 144:main_cm4.c    **** }
 145:main_cm4.c    **** 
 146:main_cm4.c    **** 
 147:main_cm4.c    **** void columnselect(int in){
 148:main_cm4.c    **** switch (in)
 149:main_cm4.c    **** {
 150:main_cm4.c    ****     case 0:
 151:main_cm4.c    ****    Cy_GPIO_Write(C0_PORT,C0_NUM,0);
 152:main_cm4.c    ****    Cy_GPIO_Write(C1_PORT,C1_NUM,0);
 153:main_cm4.c    ****    Cy_GPIO_Write(C2_PORT,C2_NUM,0);
 154:main_cm4.c    ****    Cy_GPIO_Write(C3_PORT,C3_NUM,0);
 155:main_cm4.c    ****     break;
 156:main_cm4.c    ****     case 1:
 157:main_cm4.c    ****     
 158:main_cm4.c    ****      Cy_GPIO_Write(C0_PORT,C0_NUM,1);
 159:main_cm4.c    ****      Cy_GPIO_Write(C1_PORT,C1_NUM,0);
 160:main_cm4.c    ****      Cy_GPIO_Write(C2_PORT,C2_NUM,0);
 161:main_cm4.c    ****      Cy_GPIO_Write(C3_PORT,C3_NUM,0);
 162:main_cm4.c    ****     break;
 163:main_cm4.c    ****      case 2:
 164:main_cm4.c    ****    
 165:main_cm4.c    ****      Cy_GPIO_Write(C0_PORT,C0_NUM,0);
 166:main_cm4.c    ****      Cy_GPIO_Write(C1_PORT,C1_NUM,1);
 167:main_cm4.c    ****      Cy_GPIO_Write(C2_PORT,C2_NUM,0);
 168:main_cm4.c    ****      Cy_GPIO_Write(C3_PORT,C3_NUM,0);
 169:main_cm4.c    ****     break;
 170:main_cm4.c    ****      case 3:
 171:main_cm4.c    ****   
 172:main_cm4.c    ****      Cy_GPIO_Write(C0_PORT,C0_NUM,1);
 173:main_cm4.c    ****      Cy_GPIO_Write(C1_PORT,C1_NUM,1);
 174:main_cm4.c    ****      Cy_GPIO_Write(C2_PORT,C2_NUM,0);
 175:main_cm4.c    ****      Cy_GPIO_Write(C3_PORT,C3_NUM,0);
 176:main_cm4.c    ****     break;
 177:main_cm4.c    ****      case 4:
 178:main_cm4.c    ****   
 179:main_cm4.c    ****      Cy_GPIO_Write(C0_PORT,C0_NUM,0);
 180:main_cm4.c    ****      Cy_GPIO_Write(C1_PORT,C1_NUM,0);
 181:main_cm4.c    ****      Cy_GPIO_Write(C2_PORT,C2_NUM,1);
 182:main_cm4.c    ****      Cy_GPIO_Write(C3_PORT,C3_NUM,0);
 183:main_cm4.c    ****     break;
 184:main_cm4.c    ****      case 5:
 185:main_cm4.c    ****     
 186:main_cm4.c    ****      Cy_GPIO_Write(C0_PORT,C0_NUM,1);
 187:main_cm4.c    ****      Cy_GPIO_Write(C1_PORT,C1_NUM,0);
 188:main_cm4.c    ****      Cy_GPIO_Write(C2_PORT,C2_NUM,1);
 189:main_cm4.c    ****      Cy_GPIO_Write(C3_PORT,C3_NUM,0);
 190:main_cm4.c    ****     break;
 191:main_cm4.c    ****      case 6:
 192:main_cm4.c    ****    
 193:main_cm4.c    ****      Cy_GPIO_Write(C0_PORT,C0_NUM,0);
 194:main_cm4.c    ****      Cy_GPIO_Write(C1_PORT,C1_NUM,1);
 195:main_cm4.c    ****      Cy_GPIO_Write(C2_PORT,C2_NUM,1);
 196:main_cm4.c    ****      Cy_GPIO_Write(C3_PORT,C3_NUM,0);
 197:main_cm4.c    ****     break;
 198:main_cm4.c    ****      case 7:
 199:main_cm4.c    ****      
 200:main_cm4.c    ****      Cy_GPIO_Write(C0_PORT,C0_NUM,1);
ARM GAS  C:\Users\Angel\AppData\Local\Temp\ccvqOPgy.s 			page 5


 201:main_cm4.c    ****      Cy_GPIO_Write(C1_PORT,C1_NUM,1);
 202:main_cm4.c    ****      Cy_GPIO_Write(C2_PORT,C2_NUM,1);
 203:main_cm4.c    ****      Cy_GPIO_Write(C3_PORT,C3_NUM,0);
 204:main_cm4.c    ****     break;
 205:main_cm4.c    ****      case 8:
 206:main_cm4.c    ****       
 207:main_cm4.c    ****      Cy_GPIO_Write(C0_PORT,C0_NUM,0);
 208:main_cm4.c    ****      Cy_GPIO_Write(C1_PORT,C1_NUM,0);
 209:main_cm4.c    ****      Cy_GPIO_Write(C2_PORT,C2_NUM,0);
 210:main_cm4.c    ****      Cy_GPIO_Write(C3_PORT,C3_NUM,1);
 211:main_cm4.c    ****     break;
 212:main_cm4.c    ****      case 9:
 213:main_cm4.c    ****       
 214:main_cm4.c    ****      Cy_GPIO_Write(C0_PORT,C0_NUM,1);
 215:main_cm4.c    ****      Cy_GPIO_Write(C1_PORT,C1_NUM,0);
 216:main_cm4.c    ****      Cy_GPIO_Write(C2_PORT,C2_NUM,0);
 217:main_cm4.c    ****      Cy_GPIO_Write(C3_PORT,C3_NUM,1);
 218:main_cm4.c    ****     break;
 219:main_cm4.c    ****      case 10:
 220:main_cm4.c    ****     
 221:main_cm4.c    ****      Cy_GPIO_Write(C0_PORT,C0_NUM,0);
 222:main_cm4.c    ****      Cy_GPIO_Write(C1_PORT,C1_NUM,1);
 223:main_cm4.c    ****      Cy_GPIO_Write(C2_PORT,C2_NUM,0);
 224:main_cm4.c    ****      Cy_GPIO_Write(C3_PORT,C3_NUM,1);
 225:main_cm4.c    ****     break;
 226:main_cm4.c    ****      case 11:
 227:main_cm4.c    ****     
 228:main_cm4.c    ****      Cy_GPIO_Write(C0_PORT,C0_NUM,1);
 229:main_cm4.c    ****      Cy_GPIO_Write(C1_PORT,C1_NUM,1);
 230:main_cm4.c    ****      Cy_GPIO_Write(C2_PORT,C2_NUM,0);
 231:main_cm4.c    ****      Cy_GPIO_Write(C3_PORT,C3_NUM,1);
 232:main_cm4.c    ****     break;
 233:main_cm4.c    ****      case 12:
 234:main_cm4.c    ****      Cy_GPIO_Write(C0_PORT,C0_NUM,0);
 235:main_cm4.c    ****      Cy_GPIO_Write(C1_PORT,C1_NUM,0);
 236:main_cm4.c    ****      Cy_GPIO_Write(C2_PORT,C2_NUM,1);
 237:main_cm4.c    ****      Cy_GPIO_Write(C3_PORT,C3_NUM,1);
 238:main_cm4.c    ****     break;
 239:main_cm4.c    ****      case 13: 
 240:main_cm4.c    ****      Cy_GPIO_Write(C0_PORT,C0_NUM,1);
 241:main_cm4.c    ****      Cy_GPIO_Write(C1_PORT,C1_NUM,0);
 242:main_cm4.c    ****      Cy_GPIO_Write(C2_PORT,C2_NUM,1);
 243:main_cm4.c    ****      Cy_GPIO_Write(C3_PORT,C3_NUM,1);
 244:main_cm4.c    ****     
 245:main_cm4.c    ****     break;
 246:main_cm4.c    ****      case 14:
 247:main_cm4.c    ****      Cy_GPIO_Write(C0_PORT,C0_NUM,0);
 248:main_cm4.c    ****      Cy_GPIO_Write(C1_PORT,C1_NUM,1);
 249:main_cm4.c    ****      Cy_GPIO_Write(C2_PORT,C2_NUM,1);
 250:main_cm4.c    ****      Cy_GPIO_Write(C3_PORT,C3_NUM,1);
 251:main_cm4.c    **** 
 252:main_cm4.c    ****     break;
 253:main_cm4.c    ****      case 15:
 254:main_cm4.c    ****      Cy_GPIO_Write(C0_PORT,C0_NUM,1);
 255:main_cm4.c    ****      Cy_GPIO_Write(C1_PORT,C1_NUM,1);
 256:main_cm4.c    ****      Cy_GPIO_Write(C2_PORT,C2_NUM,1);
 257:main_cm4.c    ****      Cy_GPIO_Write(C3_PORT,C3_NUM,1);
ARM GAS  C:\Users\Angel\AppData\Local\Temp\ccvqOPgy.s 			page 6


 258:main_cm4.c    ****     break;
 259:main_cm4.c    **** }
 260:main_cm4.c    **** }
 261:main_cm4.c    **** 
 262:main_cm4.c    **** 
 263:main_cm4.c    **** void states(){
 264:main_cm4.c    ****   row[0]    = Cy_GPIO_ReadOut(R0_PORT,R0_NUM);
 265:main_cm4.c    ****   row[1]    = Cy_GPIO_ReadOut(R1_PORT,R1_NUM);
 266:main_cm4.c    ****   row[2]    = Cy_GPIO_ReadOut(R2_PORT,R2_NUM);
 267:main_cm4.c    ****   row[3]    = Cy_GPIO_ReadOut(R3_PORT,R3_NUM); 
 268:main_cm4.c    ****   column[0] = Cy_GPIO_ReadOut(C0_PORT,R0_NUM);
 269:main_cm4.c    ****   column[1] = Cy_GPIO_ReadOut(C1_PORT,R1_NUM);
 270:main_cm4.c    ****   column[2] = Cy_GPIO_ReadOut(C2_PORT,R2_NUM);
 271:main_cm4.c    ****   column[3] = Cy_GPIO_ReadOut(C3_PORT,R3_NUM); 
 272:main_cm4.c    ****    }
 273:main_cm4.c    **** 
 274:main_cm4.c    **** f_list_type main_func_list[] = {
 275:main_cm4.c    ****     { "help",    do_help,          "show help message"   },
 276:main_cm4.c    ****     { "clear",   do_clear,         "Clear LCD"           },
 277:main_cm4.c    ****     { "write",   do_write,         "Write data to LCD"   },
 278:main_cm4.c    ****     { "print",   do_print,         "Write string to LCD" },
 279:main_cm4.c    ****     { "ddr",     do_SetDDRAddr,    "Set DDR Address"     },
 280:main_cm4.c    ****     { "cg",      do_SetCGRAMAddr,  "Set CG RAM Address"  },
 281:main_cm4.c    ****     { "command", do_Command,       "send instruction"    },
 282:main_cm4.c    ****     { "pos",     do_pos,           "pos line col"        },
 283:main_cm4.c    ****     {     0,     0,                0} /* list terminator */
 284:main_cm4.c    **** } ;
 285:main_cm4.c    **** 
 286:main_cm4.c    **** 
 287:main_cm4.c    **** int main(void)
 288:main_cm4.c    **** 
 289:main_cm4.c    **** {
 290:main_cm4.c    ****     func_ptr func ;
 291:main_cm4.c    ****     uint8_t data ;
 292:main_cm4.c    ****     char cmd[32] ;
 293:main_cm4.c    ****    
 294:main_cm4.c    ****     int size; 
 295:main_cm4.c    ****     size = 8;
 296:main_cm4.c    ****     
 297:main_cm4.c    ****     __enable_irq(); /* Enable global interrupts. */
 298:main_cm4.c    **** 
 299:main_cm4.c    ****     tty_init(USE_CM4) ;
 300:main_cm4.c    ****     
 301:main_cm4.c    ****     CLCD_Init() ;
 302:main_cm4.c    ****     ADC_1_Init();
 303:main_cm4.c    ****     ADC_1_Start();
 304:main_cm4.c    ****     ADC_1_StartConvert();
 305:main_cm4.c    ****    // splash("PSoC 6 CLCD Test\n") ;
 306:main_cm4.c    ****     CySCB_Type *myUart = SCB5;
 307:main_cm4.c    ****     float voltagereading;
 308:main_cm4.c    ****     int actualValue;
 309:main_cm4.c    ****     
 310:main_cm4.c    **** 
 311:main_cm4.c    ****     //CLCD_PutString("Welcome To Group India") ;
 312:main_cm4.c    ****     
 313:main_cm4.c    ****    
 314:main_cm4.c    ****     
ARM GAS  C:\Users\Angel\AppData\Local\Temp\ccvqOPgy.s 			page 7


 315:main_cm4.c    ****    // prompt("> ") ;
 316:main_cm4.c    ****     for(;;)
 317:main_cm4.c    ****     {
 318:main_cm4.c    ****        
 319:main_cm4.c    ****          
 320:main_cm4.c    ****         
 321:main_cm4.c    ****      
 322:main_cm4.c    ****          //voltagereading = ADC_1_CountsTo_Volts(0,actualValue);
 323:main_cm4.c    ****          //voltagereading = (int)voltagereading;
 324:main_cm4.c    ****          
 325:main_cm4.c    ****           
 326:main_cm4.c    ****         
 327:main_cm4.c    ****         if(Cy_GPIO_Read(P0_4_PORT, P0_4_NUM))
 328:main_cm4.c    ****             {
 329:main_cm4.c    ****                 CLCD_PutString("Ready for Pic...") ;
 330:main_cm4.c    ****             }
 331:main_cm4.c    ****         else
 332:main_cm4.c    ****             {
 333:main_cm4.c    ****                CLCD_Clear();
 334:main_cm4.c    ****                CLCD_PutString("Acquiring Pic...");
 335:main_cm4.c    ****                int i, j;
 336:main_cm4.c    ****                 
 337:main_cm4.c    ****                for(i = 0; i < size; i++)
 338:main_cm4.c    ****             {
 339:main_cm4.c    ****                 rowselect(i);
 340:main_cm4.c    ****                 CyDelay(1);//Psoc is 6.7 ns; Mux needs 500 ns delay (THIS IS 1 ms)
 341:main_cm4.c    ****                 for(j=0; j<size; j++)
 342:main_cm4.c    ****                 { 
 343:main_cm4.c    ****                         columnselect(j);
 344:main_cm4.c    ****                         CyDelay(1); //Psoc is 6.7 ns; Mux is 500 ns delay (THIS IS 1 ms)
 345:main_cm4.c    ****                         
 346:main_cm4.c    ****                        // actualValue = ADC_1_GetResult16(0);
 347:main_cm4.c    ****                         char myString[16];
 348:main_cm4.c    ****                     
 349:main_cm4.c    ****                         //adc data printed to UART
 350:main_cm4.c    ****                         ADC_1_StartConvert();
 351:main_cm4.c    ****                         ADC_1_IsEndConversion(1);
 352:main_cm4.c    ****                         
 353:main_cm4.c    ****                         actualValue = ADC_1_GetResult16(0);
 354:main_cm4.c    ****                         sprintf(myString, "%d", actualValue);
 355:main_cm4.c    ****                         printf("%s ", myString);
 356:main_cm4.c    ****                         
 357:main_cm4.c    ****                         UART_PutString(myString);
 358:main_cm4.c    ****                         UART_PutString(" ");
 359:main_cm4.c    ****                 }
 360:main_cm4.c    ****                 
 361:main_cm4.c    ****             }
 362:main_cm4.c    ****                UART_PutString("e ");
 363:main_cm4.c    ****                CLCD_Clear();
 364:main_cm4.c    ****                CLCD_PutString("Done");
 365:main_cm4.c    ****                 
 366:main_cm4.c    ****                 CyDelay(100);
 367:main_cm4.c    ****             }
 368:main_cm4.c    ****         
 369:main_cm4.c    ****     }
 370:main_cm4.c    **** }
 371:main_cm4.c    **** 
ARM GAS  C:\Users\Angel\AppData\Local\Temp\ccvqOPgy.s 			page 8


 372:main_cm4.c    **** void do_help(void)
 373:main_cm4.c    **** {
 374:main_cm4.c    ****     show_help(main_func_list) ;
 375:main_cm4.c    **** }
 376:main_cm4.c    **** 
 377:main_cm4.c    **** void do_clear(void) 
 378:main_cm4.c    **** {
  29              		.loc 1 378 0
  30              		.cfi_startproc
  31              		@ args = 0, pretend = 0, frame = 0
  32              		@ frame_needed = 0, uses_anonymous_args = 0
  33 0000 08B5     		push	{r3, lr}
  34              		.cfi_def_cfa_offset 8
  35              		.cfi_offset 3, -8
  36              		.cfi_offset 14, -4
 379:main_cm4.c    ****     CLCD_Clear() ;
  37              		.loc 1 379 0
  38 0002 FFF7FEFF 		bl	CLCD_Clear
  39              	.LVL0:
  40 0006 08BD     		pop	{r3, pc}
  41              		.cfi_endproc
  42              	.LFE534:
  43              		.size	do_clear, .-do_clear
  44              		.section	.text.do_help,"ax",%progbits
  45              		.align	2
  46              		.global	do_help
  47              		.thumb
  48              		.thumb_func
  49              		.type	do_help, %function
  50              	do_help:
  51              	.LFB533:
 373:main_cm4.c    ****     show_help(main_func_list) ;
  52              		.loc 1 373 0
  53              		.cfi_startproc
  54              		@ args = 0, pretend = 0, frame = 0
  55              		@ frame_needed = 0, uses_anonymous_args = 0
  56 0000 08B5     		push	{r3, lr}
  57              		.cfi_def_cfa_offset 8
  58              		.cfi_offset 3, -8
  59              		.cfi_offset 14, -4
 374:main_cm4.c    **** }
  60              		.loc 1 374 0
  61 0002 0248     		ldr	r0, .L5
  62 0004 FFF7FEFF 		bl	show_help
  63              	.LVL1:
  64 0008 08BD     		pop	{r3, pc}
  65              	.L6:
  66 000a 00BF     		.align	2
  67              	.L5:
  68 000c 00000000 		.word	.LANCHOR0
  69              		.cfi_endproc
  70              	.LFE533:
  71              		.size	do_help, .-do_help
  72              		.section	.text.do_print,"ax",%progbits
  73              		.align	2
  74              		.global	do_print
  75              		.thumb
ARM GAS  C:\Users\Angel\AppData\Local\Temp\ccvqOPgy.s 			page 9


  76              		.thumb_func
  77              		.type	do_print, %function
  78              	do_print:
  79              	.LFB539:
 380:main_cm4.c    **** }
 381:main_cm4.c    **** 
 382:main_cm4.c    **** void do_write(void) 
 383:main_cm4.c    **** {
 384:main_cm4.c    ****     int c ;
 385:main_cm4.c    ****     sscanf(str, "%*s %x", &c) ;
 386:main_cm4.c    ****     CLCD_WriteData(c & 0xFF) ;
 387:main_cm4.c    **** }
 388:main_cm4.c    **** 
 389:main_cm4.c    **** void do_SetDDRAddr(void) 
 390:main_cm4.c    **** {
 391:main_cm4.c    ****     int addr ;
 392:main_cm4.c    ****     sscanf(str, "%*s %x", &addr) ;
 393:main_cm4.c    ****     CLCD_SetDDRAMAddr(addr) ;
 394:main_cm4.c    **** }
 395:main_cm4.c    **** 
 396:main_cm4.c    **** void do_SetCGRAMAddr(void) 
 397:main_cm4.c    **** {
 398:main_cm4.c    ****     int addr ;
 399:main_cm4.c    ****     sscanf(str, "%*s %x", &addr) ;
 400:main_cm4.c    ****     CLCD_SetCGRAMAddr(addr) ;    
 401:main_cm4.c    **** }
 402:main_cm4.c    **** 
 403:main_cm4.c    **** void do_Command(void) 
 404:main_cm4.c    **** {
 405:main_cm4.c    ****     int cmd ;
 406:main_cm4.c    ****     
 407:main_cm4.c    ****     sscanf(str, "%*s %x", &cmd) ;
 408:main_cm4.c    ****     CLCD_WriteCommand(cmd) ;
 409:main_cm4.c    **** }
 410:main_cm4.c    **** 
 411:main_cm4.c    **** void do_print(void)
 412:main_cm4.c    **** {
  80              		.loc 1 412 0
  81              		.cfi_startproc
  82              		@ args = 0, pretend = 0, frame = 88
  83              		@ frame_needed = 0, uses_anonymous_args = 0
  84 0000 00B5     		push	{lr}
  85              		.cfi_def_cfa_offset 4
  86              		.cfi_offset 14, -4
  87 0002 97B0     		sub	sp, sp, #92
  88              		.cfi_def_cfa_offset 96
 413:main_cm4.c    ****     char buf[81] ;
 414:main_cm4.c    ****     sscanf(str, "%*s %s", buf) ;
  89              		.loc 1 414 0
  90 0004 01AA     		add	r2, sp, #4
  91 0006 0549     		ldr	r1, .L9
  92 0008 0548     		ldr	r0, .L9+4
  93 000a FFF7FEFF 		bl	sscanf
  94              	.LVL2:
 415:main_cm4.c    ****     CLCD_PutString(buf) ;
  95              		.loc 1 415 0
  96 000e 01A8     		add	r0, sp, #4
ARM GAS  C:\Users\Angel\AppData\Local\Temp\ccvqOPgy.s 			page 10


  97 0010 FFF7FEFF 		bl	CLCD_PutString
  98              	.LVL3:
 416:main_cm4.c    **** }
  99              		.loc 1 416 0
 100 0014 17B0     		add	sp, sp, #92
 101              		.cfi_def_cfa_offset 4
 102              		@ sp needed
 103 0016 5DF804FB 		ldr	pc, [sp], #4
 104              	.L10:
 105 001a 00BF     		.align	2
 106              	.L9:
 107 001c 00000000 		.word	.LC0
 108 0020 00000000 		.word	str
 109              		.cfi_endproc
 110              	.LFE539:
 111              		.size	do_print, .-do_print
 112              		.section	.text.do_write,"ax",%progbits
 113              		.align	2
 114              		.global	do_write
 115              		.thumb
 116              		.thumb_func
 117              		.type	do_write, %function
 118              	do_write:
 119              	.LFB535:
 383:main_cm4.c    ****     int c ;
 120              		.loc 1 383 0
 121              		.cfi_startproc
 122              		@ args = 0, pretend = 0, frame = 8
 123              		@ frame_needed = 0, uses_anonymous_args = 0
 124 0000 00B5     		push	{lr}
 125              		.cfi_def_cfa_offset 4
 126              		.cfi_offset 14, -4
 127 0002 83B0     		sub	sp, sp, #12
 128              		.cfi_def_cfa_offset 16
 385:main_cm4.c    ****     CLCD_WriteData(c & 0xFF) ;
 129              		.loc 1 385 0
 130 0004 01AA     		add	r2, sp, #4
 131 0006 0549     		ldr	r1, .L13
 132 0008 0548     		ldr	r0, .L13+4
 133 000a FFF7FEFF 		bl	sscanf
 134              	.LVL4:
 386:main_cm4.c    **** }
 135              		.loc 1 386 0
 136 000e 9DF80400 		ldrb	r0, [sp, #4]	@ zero_extendqisi2
 137 0012 FFF7FEFF 		bl	CLCD_WriteData
 138              	.LVL5:
 387:main_cm4.c    **** 
 139              		.loc 1 387 0
 140 0016 03B0     		add	sp, sp, #12
 141              		.cfi_def_cfa_offset 4
 142              		@ sp needed
 143 0018 5DF804FB 		ldr	pc, [sp], #4
 144              	.L14:
 145              		.align	2
 146              	.L13:
 147 001c 08000000 		.word	.LC1
 148 0020 00000000 		.word	str
ARM GAS  C:\Users\Angel\AppData\Local\Temp\ccvqOPgy.s 			page 11


 149              		.cfi_endproc
 150              	.LFE535:
 151              		.size	do_write, .-do_write
 152              		.section	.text.do_SetDDRAddr,"ax",%progbits
 153              		.align	2
 154              		.global	do_SetDDRAddr
 155              		.thumb
 156              		.thumb_func
 157              		.type	do_SetDDRAddr, %function
 158              	do_SetDDRAddr:
 159              	.LFB536:
 390:main_cm4.c    ****     int addr ;
 160              		.loc 1 390 0
 161              		.cfi_startproc
 162              		@ args = 0, pretend = 0, frame = 8
 163              		@ frame_needed = 0, uses_anonymous_args = 0
 164 0000 00B5     		push	{lr}
 165              		.cfi_def_cfa_offset 4
 166              		.cfi_offset 14, -4
 167 0002 83B0     		sub	sp, sp, #12
 168              		.cfi_def_cfa_offset 16
 392:main_cm4.c    ****     CLCD_SetDDRAMAddr(addr) ;
 169              		.loc 1 392 0
 170 0004 01AA     		add	r2, sp, #4
 171 0006 0549     		ldr	r1, .L17
 172 0008 0548     		ldr	r0, .L17+4
 173 000a FFF7FEFF 		bl	sscanf
 174              	.LVL6:
 393:main_cm4.c    **** }
 175              		.loc 1 393 0
 176 000e 9DF80400 		ldrb	r0, [sp, #4]	@ zero_extendqisi2
 177 0012 FFF7FEFF 		bl	CLCD_SetDDRAMAddr
 178              	.LVL7:
 394:main_cm4.c    **** 
 179              		.loc 1 394 0
 180 0016 03B0     		add	sp, sp, #12
 181              		.cfi_def_cfa_offset 4
 182              		@ sp needed
 183 0018 5DF804FB 		ldr	pc, [sp], #4
 184              	.L18:
 185              		.align	2
 186              	.L17:
 187 001c 08000000 		.word	.LC1
 188 0020 00000000 		.word	str
 189              		.cfi_endproc
 190              	.LFE536:
 191              		.size	do_SetDDRAddr, .-do_SetDDRAddr
 192              		.section	.text.do_pos,"ax",%progbits
 193              		.align	2
 194              		.global	do_pos
 195              		.thumb
 196              		.thumb_func
 197              		.type	do_pos, %function
 198              	do_pos:
 199              	.LFB540:
 417:main_cm4.c    **** 
 418:main_cm4.c    **** void do_pos(void)
ARM GAS  C:\Users\Angel\AppData\Local\Temp\ccvqOPgy.s 			page 12


 419:main_cm4.c    **** {
 200              		.loc 1 419 0
 201              		.cfi_startproc
 202              		@ args = 0, pretend = 0, frame = 8
 203              		@ frame_needed = 0, uses_anonymous_args = 0
 204 0000 00B5     		push	{lr}
 205              		.cfi_def_cfa_offset 4
 206              		.cfi_offset 14, -4
 207 0002 83B0     		sub	sp, sp, #12
 208              		.cfi_def_cfa_offset 16
 420:main_cm4.c    ****     int line, col ;
 421:main_cm4.c    ****     int addr ;
 422:main_cm4.c    ****     sscanf(str, "%*s %d %d", &line, &col) ;
 209              		.loc 1 422 0
 210 0004 6B46     		mov	r3, sp
 211 0006 01AA     		add	r2, sp, #4
 212 0008 1149     		ldr	r1, .L25
 213 000a 1248     		ldr	r0, .L25+4
 214 000c FFF7FEFF 		bl	sscanf
 215              	.LVL8:
 423:main_cm4.c    ****     if (line < 1) { 
 216              		.loc 1 423 0
 217 0010 019B     		ldr	r3, [sp, #4]
 218 0012 002B     		cmp	r3, #0
 219 0014 01DC     		bgt	.L20
 424:main_cm4.c    ****         line = 1 ;
 220              		.loc 1 424 0
 221 0016 0123     		movs	r3, #1
 222 0018 0193     		str	r3, [sp, #4]
 223              	.L20:
 425:main_cm4.c    ****     }
 426:main_cm4.c    ****     if (line > CLCD_NUM_ROWS) {
 224              		.loc 1 426 0
 225 001a 019B     		ldr	r3, [sp, #4]
 226 001c 022B     		cmp	r3, #2
 227 001e 01DD     		ble	.L21
 427:main_cm4.c    ****         line = CLCD_NUM_ROWS ;
 228              		.loc 1 427 0
 229 0020 0223     		movs	r3, #2
 230 0022 0193     		str	r3, [sp, #4]
 231              	.L21:
 428:main_cm4.c    ****     }
 429:main_cm4.c    ****     if (col < 1) {
 232              		.loc 1 429 0
 233 0024 009B     		ldr	r3, [sp]
 234 0026 002B     		cmp	r3, #0
 235 0028 01DC     		bgt	.L22
 430:main_cm4.c    ****         col = 1 ;
 236              		.loc 1 430 0
 237 002a 0123     		movs	r3, #1
 238 002c 0093     		str	r3, [sp]
 239              	.L22:
 431:main_cm4.c    ****     } 
 432:main_cm4.c    ****     if (col > CLCD_NUM_COLS) {
 240              		.loc 1 432 0
 241 002e 009B     		ldr	r3, [sp]
 242 0030 102B     		cmp	r3, #16
ARM GAS  C:\Users\Angel\AppData\Local\Temp\ccvqOPgy.s 			page 13


 243 0032 01DD     		ble	.L23
 433:main_cm4.c    ****         col = CLCD_NUM_COLS ;
 244              		.loc 1 433 0
 245 0034 1023     		movs	r3, #16
 246 0036 0093     		str	r3, [sp]
 247              	.L23:
 434:main_cm4.c    ****     }
 435:main_cm4.c    ****     addr = 0x40 * (line-1) + (col-1) ;
 248              		.loc 1 435 0
 249 0038 0198     		ldr	r0, [sp, #4]
 250 003a 0138     		subs	r0, r0, #1
 251 003c 009B     		ldr	r3, [sp]
 252 003e 013B     		subs	r3, r3, #1
 253 0040 03EB8010 		add	r0, r3, r0, lsl #6
 254              	.LVL9:
 436:main_cm4.c    ****     CLCD_SetDDRAMAddr(addr) ;
 255              		.loc 1 436 0
 256 0044 C0B2     		uxtb	r0, r0
 257              	.LVL10:
 258 0046 FFF7FEFF 		bl	CLCD_SetDDRAMAddr
 259              	.LVL11:
 437:main_cm4.c    **** }
 260              		.loc 1 437 0
 261 004a 03B0     		add	sp, sp, #12
 262              		.cfi_def_cfa_offset 4
 263              		@ sp needed
 264 004c 5DF804FB 		ldr	pc, [sp], #4
 265              	.L26:
 266              		.align	2
 267              	.L25:
 268 0050 10000000 		.word	.LC2
 269 0054 00000000 		.word	str
 270              		.cfi_endproc
 271              	.LFE540:
 272              		.size	do_pos, .-do_pos
 273              		.section	.text.do_SetCGRAMAddr,"ax",%progbits
 274              		.align	2
 275              		.global	do_SetCGRAMAddr
 276              		.thumb
 277              		.thumb_func
 278              		.type	do_SetCGRAMAddr, %function
 279              	do_SetCGRAMAddr:
 280              	.LFB537:
 397:main_cm4.c    ****     int addr ;
 281              		.loc 1 397 0
 282              		.cfi_startproc
 283              		@ args = 0, pretend = 0, frame = 8
 284              		@ frame_needed = 0, uses_anonymous_args = 0
 285 0000 00B5     		push	{lr}
 286              		.cfi_def_cfa_offset 4
 287              		.cfi_offset 14, -4
 288 0002 83B0     		sub	sp, sp, #12
 289              		.cfi_def_cfa_offset 16
 399:main_cm4.c    ****     CLCD_SetCGRAMAddr(addr) ;    
 290              		.loc 1 399 0
 291 0004 01AA     		add	r2, sp, #4
 292 0006 0549     		ldr	r1, .L29
ARM GAS  C:\Users\Angel\AppData\Local\Temp\ccvqOPgy.s 			page 14


 293 0008 0548     		ldr	r0, .L29+4
 294 000a FFF7FEFF 		bl	sscanf
 295              	.LVL12:
 400:main_cm4.c    **** }
 296              		.loc 1 400 0
 297 000e 9DF80400 		ldrb	r0, [sp, #4]	@ zero_extendqisi2
 298 0012 FFF7FEFF 		bl	CLCD_SetCGRAMAddr
 299              	.LVL13:
 401:main_cm4.c    **** 
 300              		.loc 1 401 0
 301 0016 03B0     		add	sp, sp, #12
 302              		.cfi_def_cfa_offset 4
 303              		@ sp needed
 304 0018 5DF804FB 		ldr	pc, [sp], #4
 305              	.L30:
 306              		.align	2
 307              	.L29:
 308 001c 08000000 		.word	.LC1
 309 0020 00000000 		.word	str
 310              		.cfi_endproc
 311              	.LFE537:
 312              		.size	do_SetCGRAMAddr, .-do_SetCGRAMAddr
 313              		.section	.text.do_Command,"ax",%progbits
 314              		.align	2
 315              		.global	do_Command
 316              		.thumb
 317              		.thumb_func
 318              		.type	do_Command, %function
 319              	do_Command:
 320              	.LFB538:
 404:main_cm4.c    ****     int cmd ;
 321              		.loc 1 404 0
 322              		.cfi_startproc
 323              		@ args = 0, pretend = 0, frame = 8
 324              		@ frame_needed = 0, uses_anonymous_args = 0
 325 0000 00B5     		push	{lr}
 326              		.cfi_def_cfa_offset 4
 327              		.cfi_offset 14, -4
 328 0002 83B0     		sub	sp, sp, #12
 329              		.cfi_def_cfa_offset 16
 407:main_cm4.c    ****     CLCD_WriteCommand(cmd) ;
 330              		.loc 1 407 0
 331 0004 01AA     		add	r2, sp, #4
 332 0006 0549     		ldr	r1, .L33
 333 0008 0548     		ldr	r0, .L33+4
 334 000a FFF7FEFF 		bl	sscanf
 335              	.LVL14:
 408:main_cm4.c    **** }
 336              		.loc 1 408 0
 337 000e 9DF80400 		ldrb	r0, [sp, #4]	@ zero_extendqisi2
 338 0012 FFF7FEFF 		bl	CLCD_WriteCommand
 339              	.LVL15:
 409:main_cm4.c    **** 
 340              		.loc 1 409 0
 341 0016 03B0     		add	sp, sp, #12
 342              		.cfi_def_cfa_offset 4
 343              		@ sp needed
ARM GAS  C:\Users\Angel\AppData\Local\Temp\ccvqOPgy.s 			page 15


 344 0018 5DF804FB 		ldr	pc, [sp], #4
 345              	.L34:
 346              		.align	2
 347              	.L33:
 348 001c 08000000 		.word	.LC1
 349 0020 00000000 		.word	str
 350              		.cfi_endproc
 351              	.LFE538:
 352              		.size	do_Command, .-do_Command
 353              		.section	.text.rowselect,"ax",%progbits
 354              		.align	2
 355              		.global	rowselect
 356              		.thumb
 357              		.thumb_func
 358              		.type	rowselect, %function
 359              	rowselect:
 360              	.LFB529:
  30:main_cm4.c    **** switch (in)
 361              		.loc 1 30 0
 362              		.cfi_startproc
 363              		@ args = 0, pretend = 0, frame = 0
 364              		@ frame_needed = 0, uses_anonymous_args = 0
 365              		@ link register save eliminated.
 366              	.LVL16:
  31:main_cm4.c    **** {
 367              		.loc 1 31 0
 368 0000 0F28     		cmp	r0, #15
 369 0002 00F2A980 		bhi	.L35
 370 0006 DFE800F0 		tbb	[pc, r0]
 371              	.L38:
 372 000a 08       		.byte	(.L37-.L38)/2
 373 000b 12       		.byte	(.L39-.L38)/2
 374 000c 1C       		.byte	(.L40-.L38)/2
 375 000d 26       		.byte	(.L41-.L38)/2
 376 000e 30       		.byte	(.L42-.L38)/2
 377 000f 3A       		.byte	(.L43-.L38)/2
 378 0010 44       		.byte	(.L44-.L38)/2
 379 0011 4E       		.byte	(.L45-.L38)/2
 380 0012 58       		.byte	(.L46-.L38)/2
 381 0013 62       		.byte	(.L47-.L38)/2
 382 0014 6C       		.byte	(.L48-.L38)/2
 383 0015 76       		.byte	(.L49-.L38)/2
 384 0016 80       		.byte	(.L50-.L38)/2
 385 0017 8A       		.byte	(.L51-.L38)/2
 386 0018 94       		.byte	(.L52-.L38)/2
 387 0019 9E       		.byte	(.L53-.L38)/2
 388              		.p2align 1
 389              	.L37:
 390              	.LVL17:
 391              	.LBB290:
 392              	.LBB291:
 393              		.file 2 "Generated_Source\\PSoC6\\pdl\\drivers/peripheral/gpio/cy_gpio.h"
   1:Generated_Source\PSoC6\pdl\drivers/peripheral/gpio/cy_gpio.h **** /***************************************************************************//**
   2:Generated_Source\PSoC6\pdl\drivers/peripheral/gpio/cy_gpio.h **** * \file cy_gpio.h
   3:Generated_Source\PSoC6\pdl\drivers/peripheral/gpio/cy_gpio.h **** * \version 1.20
   4:Generated_Source\PSoC6\pdl\drivers/peripheral/gpio/cy_gpio.h **** *
   5:Generated_Source\PSoC6\pdl\drivers/peripheral/gpio/cy_gpio.h **** * Provides an API declaration of the GPIO driver
ARM GAS  C:\Users\Angel\AppData\Local\Temp\ccvqOPgy.s 			page 16


   6:Generated_Source\PSoC6\pdl\drivers/peripheral/gpio/cy_gpio.h **** *
   7:Generated_Source\PSoC6\pdl\drivers/peripheral/gpio/cy_gpio.h **** ********************************************************************************
   8:Generated_Source\PSoC6\pdl\drivers/peripheral/gpio/cy_gpio.h **** * \copyright
   9:Generated_Source\PSoC6\pdl\drivers/peripheral/gpio/cy_gpio.h **** * Copyright 2016-2018, Cypress Semiconductor Corporation. All rights reserved.
  10:Generated_Source\PSoC6\pdl\drivers/peripheral/gpio/cy_gpio.h **** * You may use this file only in accordance with the license, terms, conditions,
  11:Generated_Source\PSoC6\pdl\drivers/peripheral/gpio/cy_gpio.h **** * disclaimers, and limitations in the end user license agreement accompanying
  12:Generated_Source\PSoC6\pdl\drivers/peripheral/gpio/cy_gpio.h **** * the software package with which this file was provided.
  13:Generated_Source\PSoC6\pdl\drivers/peripheral/gpio/cy_gpio.h **** *******************************************************************************/
  14:Generated_Source\PSoC6\pdl\drivers/peripheral/gpio/cy_gpio.h **** 
  15:Generated_Source\PSoC6\pdl\drivers/peripheral/gpio/cy_gpio.h **** /**
  16:Generated_Source\PSoC6\pdl\drivers/peripheral/gpio/cy_gpio.h **** * \addtogroup group_gpio
  17:Generated_Source\PSoC6\pdl\drivers/peripheral/gpio/cy_gpio.h **** * \{
  18:Generated_Source\PSoC6\pdl\drivers/peripheral/gpio/cy_gpio.h **** * The GPIO driver provides an API to configure and access device Input/Output pins.
  19:Generated_Source\PSoC6\pdl\drivers/peripheral/gpio/cy_gpio.h **** *
  20:Generated_Source\PSoC6\pdl\drivers/peripheral/gpio/cy_gpio.h **** * The functions and other declarations used in this driver are in cy_gpio.h. 
  21:Generated_Source\PSoC6\pdl\drivers/peripheral/gpio/cy_gpio.h **** * You can include cy_pdl.h (ModusToolbox only) to get access to all functions 
  22:Generated_Source\PSoC6\pdl\drivers/peripheral/gpio/cy_gpio.h **** * and declarations in the PDL.
  23:Generated_Source\PSoC6\pdl\drivers/peripheral/gpio/cy_gpio.h **** *
  24:Generated_Source\PSoC6\pdl\drivers/peripheral/gpio/cy_gpio.h **** * IO pins include all general purpose types such as GPIO, SIO, HSIO, AUXIO, and
  25:Generated_Source\PSoC6\pdl\drivers/peripheral/gpio/cy_gpio.h **** * their variants.
  26:Generated_Source\PSoC6\pdl\drivers/peripheral/gpio/cy_gpio.h **** *
  27:Generated_Source\PSoC6\pdl\drivers/peripheral/gpio/cy_gpio.h **** * Initialization can be performed either at the port level or by configuring the
  28:Generated_Source\PSoC6\pdl\drivers/peripheral/gpio/cy_gpio.h **** * individual pins. For efficient use of code space, port
  29:Generated_Source\PSoC6\pdl\drivers/peripheral/gpio/cy_gpio.h **** * configuration should be used in the field. Refer to the product device header files 
  30:Generated_Source\PSoC6\pdl\drivers/peripheral/gpio/cy_gpio.h **** * for the list of supported ports and pins.
  31:Generated_Source\PSoC6\pdl\drivers/peripheral/gpio/cy_gpio.h **** * 
  32:Generated_Source\PSoC6\pdl\drivers/peripheral/gpio/cy_gpio.h **** * - Single pin configuration is performed by using \ref Cy_GPIO_Pin_FastInit 
  33:Generated_Source\PSoC6\pdl\drivers/peripheral/gpio/cy_gpio.h **** *   (provide specific values) or \ref Cy_GPIO_Pin_Init (provide a filled
  34:Generated_Source\PSoC6\pdl\drivers/peripheral/gpio/cy_gpio.h **** *   cy_stc_gpio_pin_config_t structure).
  35:Generated_Source\PSoC6\pdl\drivers/peripheral/gpio/cy_gpio.h **** * - An entire port can be configured using \ref Cy_GPIO_Port_Init. Provide a filled 
  36:Generated_Source\PSoC6\pdl\drivers/peripheral/gpio/cy_gpio.h **** *   cy_stc_gpio_prt_config_t structure. The values in the structure are 
  37:Generated_Source\PSoC6\pdl\drivers/peripheral/gpio/cy_gpio.h **** *   bitfields representing the desired value for each pin in the port.
  38:Generated_Source\PSoC6\pdl\drivers/peripheral/gpio/cy_gpio.h **** * - Pin configuration and management is based on the port address and pin number.
  39:Generated_Source\PSoC6\pdl\drivers/peripheral/gpio/cy_gpio.h **** *   \ref Cy_GPIO_PortToAddr function can optionally be used to calculate the port
  40:Generated_Source\PSoC6\pdl\drivers/peripheral/gpio/cy_gpio.h **** *   address from the port number at run-time.
  41:Generated_Source\PSoC6\pdl\drivers/peripheral/gpio/cy_gpio.h **** *
  42:Generated_Source\PSoC6\pdl\drivers/peripheral/gpio/cy_gpio.h **** * Once the pin/port initialization is complete, each pin can be accessed by 
  43:Generated_Source\PSoC6\pdl\drivers/peripheral/gpio/cy_gpio.h **** * specifying the port (GPIO_PRT_Type) and the pin (0-7) in the provided API 
  44:Generated_Source\PSoC6\pdl\drivers/peripheral/gpio/cy_gpio.h **** * functions.
  45:Generated_Source\PSoC6\pdl\drivers/peripheral/gpio/cy_gpio.h **** *
  46:Generated_Source\PSoC6\pdl\drivers/peripheral/gpio/cy_gpio.h **** * \section group_gpio_configuration Configuration Considerations
  47:Generated_Source\PSoC6\pdl\drivers/peripheral/gpio/cy_gpio.h **** *
  48:Generated_Source\PSoC6\pdl\drivers/peripheral/gpio/cy_gpio.h **** * 1. Pin multiplexing is controlled through the High-Speed IO Matrix (HSIOM) selection.
  49:Generated_Source\PSoC6\pdl\drivers/peripheral/gpio/cy_gpio.h **** *    This allows the pin to connect to signal sources/sinks throughout the device,
  50:Generated_Source\PSoC6\pdl\drivers/peripheral/gpio/cy_gpio.h **** *    as defined by the pin HSIOM selection options (en_hsiom_sel_t).
  51:Generated_Source\PSoC6\pdl\drivers/peripheral/gpio/cy_gpio.h **** * 2. All pins are initialized to High-Z drive mode with HSIOM connected to CPU (SW
  52:Generated_Source\PSoC6\pdl\drivers/peripheral/gpio/cy_gpio.h **** *    control digital pin only) at Power-On-Reset(POR).
  53:Generated_Source\PSoC6\pdl\drivers/peripheral/gpio/cy_gpio.h **** * 3. Some API functions perform read-modify-write operations on shared port
  54:Generated_Source\PSoC6\pdl\drivers/peripheral/gpio/cy_gpio.h **** *    registers. These functions are not thread safe and care must be taken when
  55:Generated_Source\PSoC6\pdl\drivers/peripheral/gpio/cy_gpio.h **** *    called by the application.
  56:Generated_Source\PSoC6\pdl\drivers/peripheral/gpio/cy_gpio.h **** * 4. Digital input buffer provides a high-impedance buffer for the external 
  57:Generated_Source\PSoC6\pdl\drivers/peripheral/gpio/cy_gpio.h **** *    digital input. The input buffer is connected to the HSIOM for routing to 
  58:Generated_Source\PSoC6\pdl\drivers/peripheral/gpio/cy_gpio.h **** *    the CPU port registers and selected peripheral. Enabling the input 
  59:Generated_Source\PSoC6\pdl\drivers/peripheral/gpio/cy_gpio.h **** *    buffer provides possibility to read the pin state via the CPU.
  60:Generated_Source\PSoC6\pdl\drivers/peripheral/gpio/cy_gpio.h **** *    If pin is connected to an analog signal, the input buffer should be 
  61:Generated_Source\PSoC6\pdl\drivers/peripheral/gpio/cy_gpio.h **** *    disabled to avoid crowbar currents. For more information refer to device 
  62:Generated_Source\PSoC6\pdl\drivers/peripheral/gpio/cy_gpio.h **** *    TRM and the device datasheet.
ARM GAS  C:\Users\Angel\AppData\Local\Temp\ccvqOPgy.s 			page 17


  63:Generated_Source\PSoC6\pdl\drivers/peripheral/gpio/cy_gpio.h **** *
  64:Generated_Source\PSoC6\pdl\drivers/peripheral/gpio/cy_gpio.h **** * Multiple pins on a port can be updated using direct port register writes with an
  65:Generated_Source\PSoC6\pdl\drivers/peripheral/gpio/cy_gpio.h **** * appropriate port mask. An example is shown below, highlighting the different ways of 
  66:Generated_Source\PSoC6\pdl\drivers/peripheral/gpio/cy_gpio.h **** * configuring Port 1 pins using:
  67:Generated_Source\PSoC6\pdl\drivers/peripheral/gpio/cy_gpio.h **** * 
  68:Generated_Source\PSoC6\pdl\drivers/peripheral/gpio/cy_gpio.h **** * - Port output data register
  69:Generated_Source\PSoC6\pdl\drivers/peripheral/gpio/cy_gpio.h **** * - Port output data set register
  70:Generated_Source\PSoC6\pdl\drivers/peripheral/gpio/cy_gpio.h **** * - Port output data clear register
  71:Generated_Source\PSoC6\pdl\drivers/peripheral/gpio/cy_gpio.h **** *
  72:Generated_Source\PSoC6\pdl\drivers/peripheral/gpio/cy_gpio.h **** * \snippet gpio/gpio_v1_10_sut_01.cydsn/main_cm4.c Cy_GPIO_Snippet
  73:Generated_Source\PSoC6\pdl\drivers/peripheral/gpio/cy_gpio.h **** *
  74:Generated_Source\PSoC6\pdl\drivers/peripheral/gpio/cy_gpio.h **** * \section group_gpio_more_information More Information
  75:Generated_Source\PSoC6\pdl\drivers/peripheral/gpio/cy_gpio.h **** *
  76:Generated_Source\PSoC6\pdl\drivers/peripheral/gpio/cy_gpio.h **** * Refer to the technical reference manual (TRM) and the device datasheet.
  77:Generated_Source\PSoC6\pdl\drivers/peripheral/gpio/cy_gpio.h **** *
  78:Generated_Source\PSoC6\pdl\drivers/peripheral/gpio/cy_gpio.h **** * \section group_gpio_MISRA MISRA-C Compliance
  79:Generated_Source\PSoC6\pdl\drivers/peripheral/gpio/cy_gpio.h **** * The GPIO driver has the following specific deviations:
  80:Generated_Source\PSoC6\pdl\drivers/peripheral/gpio/cy_gpio.h **** *
  81:Generated_Source\PSoC6\pdl\drivers/peripheral/gpio/cy_gpio.h **** * <table class="doxtable">
  82:Generated_Source\PSoC6\pdl\drivers/peripheral/gpio/cy_gpio.h **** *   <tr>
  83:Generated_Source\PSoC6\pdl\drivers/peripheral/gpio/cy_gpio.h **** *     <th>MISRA Rule</th>
  84:Generated_Source\PSoC6\pdl\drivers/peripheral/gpio/cy_gpio.h **** *     <th>Rule Class (Required/Advisory)</th>
  85:Generated_Source\PSoC6\pdl\drivers/peripheral/gpio/cy_gpio.h **** *     <th>Rule Description</th>
  86:Generated_Source\PSoC6\pdl\drivers/peripheral/gpio/cy_gpio.h **** *     <th>Description of Deviation(s)</th>
  87:Generated_Source\PSoC6\pdl\drivers/peripheral/gpio/cy_gpio.h **** *   </tr>
  88:Generated_Source\PSoC6\pdl\drivers/peripheral/gpio/cy_gpio.h **** *   <tr>
  89:Generated_Source\PSoC6\pdl\drivers/peripheral/gpio/cy_gpio.h **** *     <td>11.4</td>
  90:Generated_Source\PSoC6\pdl\drivers/peripheral/gpio/cy_gpio.h **** *     <td>A</td>
  91:Generated_Source\PSoC6\pdl\drivers/peripheral/gpio/cy_gpio.h **** *     <td>A cast should not be performed between a pointer to object type and
  92:Generated_Source\PSoC6\pdl\drivers/peripheral/gpio/cy_gpio.h **** *         a different pointer to object type.</td>
  93:Generated_Source\PSoC6\pdl\drivers/peripheral/gpio/cy_gpio.h **** *     <td> This code is safe because the elements of both GPIO_PRT_V1_Type and GPIO_PRT_V2_Type 
  94:Generated_Source\PSoC6\pdl\drivers/peripheral/gpio/cy_gpio.h **** *          types have identical alignment.</td>
  95:Generated_Source\PSoC6\pdl\drivers/peripheral/gpio/cy_gpio.h **** *   </tr>
  96:Generated_Source\PSoC6\pdl\drivers/peripheral/gpio/cy_gpio.h **** *   <tr>
  97:Generated_Source\PSoC6\pdl\drivers/peripheral/gpio/cy_gpio.h **** *     <td>16.7</td>
  98:Generated_Source\PSoC6\pdl\drivers/peripheral/gpio/cy_gpio.h **** *     <td>A</td>
  99:Generated_Source\PSoC6\pdl\drivers/peripheral/gpio/cy_gpio.h **** *     <td>A pointer parameter in a function prototype should be declared as pointer 
 100:Generated_Source\PSoC6\pdl\drivers/peripheral/gpio/cy_gpio.h **** *         to const if the pointer is not used to modify the addressed object.</td>
 101:Generated_Source\PSoC6\pdl\drivers/peripheral/gpio/cy_gpio.h **** *     <td>The objects pointed to by the base addresses of the GPIO port are not always modified.
 102:Generated_Source\PSoC6\pdl\drivers/peripheral/gpio/cy_gpio.h **** *         While a const qualifier can be used in select scenarios, it brings little benefit
 103:Generated_Source\PSoC6\pdl\drivers/peripheral/gpio/cy_gpio.h **** *         in adding this to the affected functions. </td>
 104:Generated_Source\PSoC6\pdl\drivers/peripheral/gpio/cy_gpio.h **** *   </tr>
 105:Generated_Source\PSoC6\pdl\drivers/peripheral/gpio/cy_gpio.h **** * </table>
 106:Generated_Source\PSoC6\pdl\drivers/peripheral/gpio/cy_gpio.h **** *
 107:Generated_Source\PSoC6\pdl\drivers/peripheral/gpio/cy_gpio.h **** * \section group_gpio_changelog Changelog
 108:Generated_Source\PSoC6\pdl\drivers/peripheral/gpio/cy_gpio.h **** * <table class="doxtable">
 109:Generated_Source\PSoC6\pdl\drivers/peripheral/gpio/cy_gpio.h **** *   <tr><th>Version</th><th>Changes</th><th>Reason for Change</th></tr>
 110:Generated_Source\PSoC6\pdl\drivers/peripheral/gpio/cy_gpio.h **** *   <tr>
 111:Generated_Source\PSoC6\pdl\drivers/peripheral/gpio/cy_gpio.h **** *     <td rowspan="3">1.20</td>
 112:Generated_Source\PSoC6\pdl\drivers/peripheral/gpio/cy_gpio.h **** *     <td>Flattened the organization of the driver source code into the single source directory and
 113:Generated_Source\PSoC6\pdl\drivers/peripheral/gpio/cy_gpio.h **** *     <td>Driver library directory-structure simplification.</td>
 114:Generated_Source\PSoC6\pdl\drivers/peripheral/gpio/cy_gpio.h **** *   </tr>
 115:Generated_Source\PSoC6\pdl\drivers/peripheral/gpio/cy_gpio.h **** *   <tr>
 116:Generated_Source\PSoC6\pdl\drivers/peripheral/gpio/cy_gpio.h **** *     <td>Added the functions for configuring the AMux bus splitter switch cells:
 117:Generated_Source\PSoC6\pdl\drivers/peripheral/gpio/cy_gpio.h **** *     - \ref Cy_GPIO_SetAmuxSplit
 118:Generated_Source\PSoC6\pdl\drivers/peripheral/gpio/cy_gpio.h **** *     - \ref Cy_GPIO_GetAmuxSplit
 119:Generated_Source\PSoC6\pdl\drivers/peripheral/gpio/cy_gpio.h **** *     </td>
ARM GAS  C:\Users\Angel\AppData\Local\Temp\ccvqOPgy.s 			page 18


 120:Generated_Source\PSoC6\pdl\drivers/peripheral/gpio/cy_gpio.h **** *     <td>Added a new functionality related to AMux bus.</td>
 121:Generated_Source\PSoC6\pdl\drivers/peripheral/gpio/cy_gpio.h **** *   </tr>
 122:Generated_Source\PSoC6\pdl\drivers/peripheral/gpio/cy_gpio.h **** *   <tr>
 123:Generated_Source\PSoC6\pdl\drivers/peripheral/gpio/cy_gpio.h **** *     <td>Added register access layer. Use register access macros instead
 124:Generated_Source\PSoC6\pdl\drivers/peripheral/gpio/cy_gpio.h **** *         of direct register access using dereferenced pointers.</td>
 125:Generated_Source\PSoC6\pdl\drivers/peripheral/gpio/cy_gpio.h **** *     <td>Makes register access device-independent, so that the PDL does 
 126:Generated_Source\PSoC6\pdl\drivers/peripheral/gpio/cy_gpio.h **** *         not need to be recompiled for each supported part number.</td>
 127:Generated_Source\PSoC6\pdl\drivers/peripheral/gpio/cy_gpio.h **** *   </tr>
 128:Generated_Source\PSoC6\pdl\drivers/peripheral/gpio/cy_gpio.h **** *   <tr>
 129:Generated_Source\PSoC6\pdl\drivers/peripheral/gpio/cy_gpio.h **** *     <td>1.10.1</td>
 130:Generated_Source\PSoC6\pdl\drivers/peripheral/gpio/cy_gpio.h **** *     <td>Updated description for the functions: \ref Cy_GPIO_GetInterruptStatus, 
 131:Generated_Source\PSoC6\pdl\drivers/peripheral/gpio/cy_gpio.h **** *         \ref Cy_GPIO_GetInterruptMask, \ref Cy_GPIO_GetInterruptStatusMasked.
 132:Generated_Source\PSoC6\pdl\drivers/peripheral/gpio/cy_gpio.h **** *
 133:Generated_Source\PSoC6\pdl\drivers/peripheral/gpio/cy_gpio.h **** *         Minor documentation edits.
 134:Generated_Source\PSoC6\pdl\drivers/peripheral/gpio/cy_gpio.h **** *     </td>
 135:Generated_Source\PSoC6\pdl\drivers/peripheral/gpio/cy_gpio.h **** *     <td>Documentation update and clarification</td>
 136:Generated_Source\PSoC6\pdl\drivers/peripheral/gpio/cy_gpio.h **** *   </tr>
 137:Generated_Source\PSoC6\pdl\drivers/peripheral/gpio/cy_gpio.h **** *   <tr>
 138:Generated_Source\PSoC6\pdl\drivers/peripheral/gpio/cy_gpio.h **** *     <td>1.10</td>
 139:Generated_Source\PSoC6\pdl\drivers/peripheral/gpio/cy_gpio.h **** *     <td>Added input parameter validation to the API functions</td>
 140:Generated_Source\PSoC6\pdl\drivers/peripheral/gpio/cy_gpio.h **** *     <td></td>
 141:Generated_Source\PSoC6\pdl\drivers/peripheral/gpio/cy_gpio.h **** *   </tr>
 142:Generated_Source\PSoC6\pdl\drivers/peripheral/gpio/cy_gpio.h **** *   <tr>
 143:Generated_Source\PSoC6\pdl\drivers/peripheral/gpio/cy_gpio.h **** *     <td>1.0</td>
 144:Generated_Source\PSoC6\pdl\drivers/peripheral/gpio/cy_gpio.h **** *     <td>Initial version</td>
 145:Generated_Source\PSoC6\pdl\drivers/peripheral/gpio/cy_gpio.h **** *     <td></td>
 146:Generated_Source\PSoC6\pdl\drivers/peripheral/gpio/cy_gpio.h **** *   </tr>
 147:Generated_Source\PSoC6\pdl\drivers/peripheral/gpio/cy_gpio.h **** * </table>
 148:Generated_Source\PSoC6\pdl\drivers/peripheral/gpio/cy_gpio.h **** *
 149:Generated_Source\PSoC6\pdl\drivers/peripheral/gpio/cy_gpio.h **** * \defgroup group_gpio_macros Macros
 150:Generated_Source\PSoC6\pdl\drivers/peripheral/gpio/cy_gpio.h **** * \defgroup group_gpio_functions Functions
 151:Generated_Source\PSoC6\pdl\drivers/peripheral/gpio/cy_gpio.h **** * \{
 152:Generated_Source\PSoC6\pdl\drivers/peripheral/gpio/cy_gpio.h **** *   \defgroup group_gpio_functions_init       Initialization Functions
 153:Generated_Source\PSoC6\pdl\drivers/peripheral/gpio/cy_gpio.h **** *   \defgroup group_gpio_functions_gpio       GPIO Functions
 154:Generated_Source\PSoC6\pdl\drivers/peripheral/gpio/cy_gpio.h **** *   \defgroup group_gpio_functions_sio        SIO Functions
 155:Generated_Source\PSoC6\pdl\drivers/peripheral/gpio/cy_gpio.h **** *   \defgroup group_gpio_functions_interrupt  Port Interrupt Functions
 156:Generated_Source\PSoC6\pdl\drivers/peripheral/gpio/cy_gpio.h **** * \}
 157:Generated_Source\PSoC6\pdl\drivers/peripheral/gpio/cy_gpio.h **** * \defgroup group_gpio_data_structures Data Structures
 158:Generated_Source\PSoC6\pdl\drivers/peripheral/gpio/cy_gpio.h **** * \defgroup group_gpio_enums Enumerated Types
 159:Generated_Source\PSoC6\pdl\drivers/peripheral/gpio/cy_gpio.h **** */
 160:Generated_Source\PSoC6\pdl\drivers/peripheral/gpio/cy_gpio.h **** 
 161:Generated_Source\PSoC6\pdl\drivers/peripheral/gpio/cy_gpio.h **** #if !defined(CY_GPIO_H)
 162:Generated_Source\PSoC6\pdl\drivers/peripheral/gpio/cy_gpio.h **** #define CY_GPIO_H
 163:Generated_Source\PSoC6\pdl\drivers/peripheral/gpio/cy_gpio.h **** 
 164:Generated_Source\PSoC6\pdl\drivers/peripheral/gpio/cy_gpio.h **** #include <stddef.h>
 165:Generated_Source\PSoC6\pdl\drivers/peripheral/gpio/cy_gpio.h **** #include "cy_device.h"
 166:Generated_Source\PSoC6\pdl\drivers/peripheral/gpio/cy_gpio.h **** #include "cy_device_headers.h"
 167:Generated_Source\PSoC6\pdl\drivers/peripheral/gpio/cy_gpio.h **** #include "cy_syslib.h"
 168:Generated_Source\PSoC6\pdl\drivers/peripheral/gpio/cy_gpio.h **** 
 169:Generated_Source\PSoC6\pdl\drivers/peripheral/gpio/cy_gpio.h **** #if defined(__cplusplus)
 170:Generated_Source\PSoC6\pdl\drivers/peripheral/gpio/cy_gpio.h **** extern "C" {
 171:Generated_Source\PSoC6\pdl\drivers/peripheral/gpio/cy_gpio.h **** #endif
 172:Generated_Source\PSoC6\pdl\drivers/peripheral/gpio/cy_gpio.h **** 
 173:Generated_Source\PSoC6\pdl\drivers/peripheral/gpio/cy_gpio.h **** /** \addtogroup group_gpio_macros
 174:Generated_Source\PSoC6\pdl\drivers/peripheral/gpio/cy_gpio.h **** * \{
 175:Generated_Source\PSoC6\pdl\drivers/peripheral/gpio/cy_gpio.h **** */
 176:Generated_Source\PSoC6\pdl\drivers/peripheral/gpio/cy_gpio.h **** 
ARM GAS  C:\Users\Angel\AppData\Local\Temp\ccvqOPgy.s 			page 19


 177:Generated_Source\PSoC6\pdl\drivers/peripheral/gpio/cy_gpio.h **** /** Driver major version */
 178:Generated_Source\PSoC6\pdl\drivers/peripheral/gpio/cy_gpio.h **** #define CY_GPIO_DRV_VERSION_MAJOR       1
 179:Generated_Source\PSoC6\pdl\drivers/peripheral/gpio/cy_gpio.h **** 
 180:Generated_Source\PSoC6\pdl\drivers/peripheral/gpio/cy_gpio.h **** /** Driver minor version */
 181:Generated_Source\PSoC6\pdl\drivers/peripheral/gpio/cy_gpio.h **** #define CY_GPIO_DRV_VERSION_MINOR       20
 182:Generated_Source\PSoC6\pdl\drivers/peripheral/gpio/cy_gpio.h **** 
 183:Generated_Source\PSoC6\pdl\drivers/peripheral/gpio/cy_gpio.h **** /** GPIO driver ID */
 184:Generated_Source\PSoC6\pdl\drivers/peripheral/gpio/cy_gpio.h **** #define CY_GPIO_ID CY_PDL_DRV_ID(0x16U)
 185:Generated_Source\PSoC6\pdl\drivers/peripheral/gpio/cy_gpio.h **** 
 186:Generated_Source\PSoC6\pdl\drivers/peripheral/gpio/cy_gpio.h **** /** \} group_gpio_macros */
 187:Generated_Source\PSoC6\pdl\drivers/peripheral/gpio/cy_gpio.h **** 
 188:Generated_Source\PSoC6\pdl\drivers/peripheral/gpio/cy_gpio.h **** 
 189:Generated_Source\PSoC6\pdl\drivers/peripheral/gpio/cy_gpio.h **** /***************************************
 190:Generated_Source\PSoC6\pdl\drivers/peripheral/gpio/cy_gpio.h **** *       Enumerations
 191:Generated_Source\PSoC6\pdl\drivers/peripheral/gpio/cy_gpio.h **** ***************************************/
 192:Generated_Source\PSoC6\pdl\drivers/peripheral/gpio/cy_gpio.h **** /**
 193:Generated_Source\PSoC6\pdl\drivers/peripheral/gpio/cy_gpio.h **** * \addtogroup group_gpio_enums
 194:Generated_Source\PSoC6\pdl\drivers/peripheral/gpio/cy_gpio.h **** * \{
 195:Generated_Source\PSoC6\pdl\drivers/peripheral/gpio/cy_gpio.h **** */
 196:Generated_Source\PSoC6\pdl\drivers/peripheral/gpio/cy_gpio.h **** 
 197:Generated_Source\PSoC6\pdl\drivers/peripheral/gpio/cy_gpio.h **** /** GPIO Driver error codes */
 198:Generated_Source\PSoC6\pdl\drivers/peripheral/gpio/cy_gpio.h **** typedef enum 
 199:Generated_Source\PSoC6\pdl\drivers/peripheral/gpio/cy_gpio.h **** {
 200:Generated_Source\PSoC6\pdl\drivers/peripheral/gpio/cy_gpio.h ****     CY_GPIO_SUCCESS   = 0x00U,                                    /**< Returned successful */
 201:Generated_Source\PSoC6\pdl\drivers/peripheral/gpio/cy_gpio.h ****     CY_GPIO_BAD_PARAM = CY_GPIO_ID | CY_PDL_STATUS_ERROR | 0x01U, /**< Bad parameter was passed */
 202:Generated_Source\PSoC6\pdl\drivers/peripheral/gpio/cy_gpio.h **** } cy_en_gpio_status_t;
 203:Generated_Source\PSoC6\pdl\drivers/peripheral/gpio/cy_gpio.h **** 
 204:Generated_Source\PSoC6\pdl\drivers/peripheral/gpio/cy_gpio.h **** /** AMux switch open/close config */
 205:Generated_Source\PSoC6\pdl\drivers/peripheral/gpio/cy_gpio.h **** typedef enum
 206:Generated_Source\PSoC6\pdl\drivers/peripheral/gpio/cy_gpio.h **** {
 207:Generated_Source\PSoC6\pdl\drivers/peripheral/gpio/cy_gpio.h ****     CY_GPIO_AMUX_OPENALL,   /**< Open ground switch. Open right switch. Open left switch */
 208:Generated_Source\PSoC6\pdl\drivers/peripheral/gpio/cy_gpio.h ****     CY_GPIO_AMUX_L,         /**< Open ground switch. Open right switch. Close left switch */
 209:Generated_Source\PSoC6\pdl\drivers/peripheral/gpio/cy_gpio.h ****     CY_GPIO_AMUX_R,         /**< Open ground switch. Close right switch. Open left switch */
 210:Generated_Source\PSoC6\pdl\drivers/peripheral/gpio/cy_gpio.h ****     CY_GPIO_AMUX_LR,        /**< Open ground switch. Close right switch. Close left switch */
 211:Generated_Source\PSoC6\pdl\drivers/peripheral/gpio/cy_gpio.h ****     CY_GPIO_AMUX_G,         /**< Close ground switch. Open right switch. Open left switch */
 212:Generated_Source\PSoC6\pdl\drivers/peripheral/gpio/cy_gpio.h ****     CY_GPIO_AMUX_GL,        /**< Close ground switch. Open right switch. Close left switch */
 213:Generated_Source\PSoC6\pdl\drivers/peripheral/gpio/cy_gpio.h ****     CY_GPIO_AMUX_GR,        /**< Close ground switch. Close right switch. Open left switch */
 214:Generated_Source\PSoC6\pdl\drivers/peripheral/gpio/cy_gpio.h ****     CY_GPIO_AMUX_GLR,       /**< Close ground switch. Close right switch. Close left switch */
 215:Generated_Source\PSoC6\pdl\drivers/peripheral/gpio/cy_gpio.h **** }cy_en_gpio_amuxconnect_t;
 216:Generated_Source\PSoC6\pdl\drivers/peripheral/gpio/cy_gpio.h **** 
 217:Generated_Source\PSoC6\pdl\drivers/peripheral/gpio/cy_gpio.h **** /**
 218:Generated_Source\PSoC6\pdl\drivers/peripheral/gpio/cy_gpio.h **** * AMux Bus selection
 219:Generated_Source\PSoC6\pdl\drivers/peripheral/gpio/cy_gpio.h **** */
 220:Generated_Source\PSoC6\pdl\drivers/peripheral/gpio/cy_gpio.h **** typedef enum
 221:Generated_Source\PSoC6\pdl\drivers/peripheral/gpio/cy_gpio.h **** {
 222:Generated_Source\PSoC6\pdl\drivers/peripheral/gpio/cy_gpio.h ****     CY_GPIO_AMUXBUSA,       /**< AMuxBus A */
 223:Generated_Source\PSoC6\pdl\drivers/peripheral/gpio/cy_gpio.h ****     CY_GPIO_AMUXBUSB        /**< AMuxBus B */
 224:Generated_Source\PSoC6\pdl\drivers/peripheral/gpio/cy_gpio.h **** }cy_en_gpio_amuxselect_t;
 225:Generated_Source\PSoC6\pdl\drivers/peripheral/gpio/cy_gpio.h **** 
 226:Generated_Source\PSoC6\pdl\drivers/peripheral/gpio/cy_gpio.h **** /** \} group_gpio_enums */
 227:Generated_Source\PSoC6\pdl\drivers/peripheral/gpio/cy_gpio.h **** 
 228:Generated_Source\PSoC6\pdl\drivers/peripheral/gpio/cy_gpio.h **** 
 229:Generated_Source\PSoC6\pdl\drivers/peripheral/gpio/cy_gpio.h **** /***************************************
 230:Generated_Source\PSoC6\pdl\drivers/peripheral/gpio/cy_gpio.h **** *       Configuration Structures
 231:Generated_Source\PSoC6\pdl\drivers/peripheral/gpio/cy_gpio.h **** ***************************************/
 232:Generated_Source\PSoC6\pdl\drivers/peripheral/gpio/cy_gpio.h **** 
 233:Generated_Source\PSoC6\pdl\drivers/peripheral/gpio/cy_gpio.h **** /**
ARM GAS  C:\Users\Angel\AppData\Local\Temp\ccvqOPgy.s 			page 20


 234:Generated_Source\PSoC6\pdl\drivers/peripheral/gpio/cy_gpio.h **** * \addtogroup group_gpio_data_structures
 235:Generated_Source\PSoC6\pdl\drivers/peripheral/gpio/cy_gpio.h **** * \{
 236:Generated_Source\PSoC6\pdl\drivers/peripheral/gpio/cy_gpio.h **** */
 237:Generated_Source\PSoC6\pdl\drivers/peripheral/gpio/cy_gpio.h **** 
 238:Generated_Source\PSoC6\pdl\drivers/peripheral/gpio/cy_gpio.h **** /** This structure is used to initialize a port of GPIO pins */
 239:Generated_Source\PSoC6\pdl\drivers/peripheral/gpio/cy_gpio.h **** typedef struct 
 240:Generated_Source\PSoC6\pdl\drivers/peripheral/gpio/cy_gpio.h **** {
 241:Generated_Source\PSoC6\pdl\drivers/peripheral/gpio/cy_gpio.h ****     uint32_t out;           /**< Initial output data for the IO pins in the port */
 242:Generated_Source\PSoC6\pdl\drivers/peripheral/gpio/cy_gpio.h ****     uint32_t intrMask;      /**< Interrupt enable mask for the port interrupt */
 243:Generated_Source\PSoC6\pdl\drivers/peripheral/gpio/cy_gpio.h ****     uint32_t intrCfg;       /**< Port pin interrupt edge detection configuration */
 244:Generated_Source\PSoC6\pdl\drivers/peripheral/gpio/cy_gpio.h ****     uint32_t cfg;           /**< Port pin drive modes and input buffer enable configuration */
 245:Generated_Source\PSoC6\pdl\drivers/peripheral/gpio/cy_gpio.h ****     uint32_t cfgIn;         /**< Port pin input buffer configuration */
 246:Generated_Source\PSoC6\pdl\drivers/peripheral/gpio/cy_gpio.h ****     uint32_t cfgOut;        /**< Port pin output buffer configuration */
 247:Generated_Source\PSoC6\pdl\drivers/peripheral/gpio/cy_gpio.h ****     uint32_t cfgSIO;        /**< Port SIO pins configuration */
 248:Generated_Source\PSoC6\pdl\drivers/peripheral/gpio/cy_gpio.h ****     uint32_t sel0Active;    /**< HSIOM selection for port pins 0,1,2,3 */
 249:Generated_Source\PSoC6\pdl\drivers/peripheral/gpio/cy_gpio.h ****     uint32_t sel1Active;    /**< HSIOM selection for port pins 4,5,6,7 */
 250:Generated_Source\PSoC6\pdl\drivers/peripheral/gpio/cy_gpio.h **** } cy_stc_gpio_prt_config_t;
 251:Generated_Source\PSoC6\pdl\drivers/peripheral/gpio/cy_gpio.h **** 
 252:Generated_Source\PSoC6\pdl\drivers/peripheral/gpio/cy_gpio.h **** /** This structure is used to initialize a single GPIO pin */
 253:Generated_Source\PSoC6\pdl\drivers/peripheral/gpio/cy_gpio.h **** typedef struct
 254:Generated_Source\PSoC6\pdl\drivers/peripheral/gpio/cy_gpio.h **** {
 255:Generated_Source\PSoC6\pdl\drivers/peripheral/gpio/cy_gpio.h ****     uint32_t outVal;         /**< Pin output state */
 256:Generated_Source\PSoC6\pdl\drivers/peripheral/gpio/cy_gpio.h ****     uint32_t driveMode;      /**< Drive mode */
 257:Generated_Source\PSoC6\pdl\drivers/peripheral/gpio/cy_gpio.h ****     en_hsiom_sel_t hsiom;    /**< HSIOM selection */
 258:Generated_Source\PSoC6\pdl\drivers/peripheral/gpio/cy_gpio.h ****     uint32_t intEdge;        /**< Interrupt Edge type */
 259:Generated_Source\PSoC6\pdl\drivers/peripheral/gpio/cy_gpio.h ****     uint32_t intMask;        /**< Interrupt enable mask */
 260:Generated_Source\PSoC6\pdl\drivers/peripheral/gpio/cy_gpio.h ****     uint32_t vtrip;          /**< Input buffer voltage trip type */
 261:Generated_Source\PSoC6\pdl\drivers/peripheral/gpio/cy_gpio.h ****     uint32_t slewRate;       /**< Output buffer slew rate */
 262:Generated_Source\PSoC6\pdl\drivers/peripheral/gpio/cy_gpio.h ****     uint32_t driveSel;       /**< Drive strength */
 263:Generated_Source\PSoC6\pdl\drivers/peripheral/gpio/cy_gpio.h ****     uint32_t vregEn;         /**< SIO pair output buffer mode */
 264:Generated_Source\PSoC6\pdl\drivers/peripheral/gpio/cy_gpio.h ****     uint32_t ibufMode;       /**< SIO pair input buffer mode */
 265:Generated_Source\PSoC6\pdl\drivers/peripheral/gpio/cy_gpio.h ****     uint32_t vtripSel;       /**< SIO pair input buffer trip point */
 266:Generated_Source\PSoC6\pdl\drivers/peripheral/gpio/cy_gpio.h ****     uint32_t vrefSel;        /**< SIO pair reference voltage for input buffer trip point */
 267:Generated_Source\PSoC6\pdl\drivers/peripheral/gpio/cy_gpio.h ****     uint32_t vohSel;         /**< SIO pair regulated voltage output level */
 268:Generated_Source\PSoC6\pdl\drivers/peripheral/gpio/cy_gpio.h **** } cy_stc_gpio_pin_config_t;
 269:Generated_Source\PSoC6\pdl\drivers/peripheral/gpio/cy_gpio.h **** 
 270:Generated_Source\PSoC6\pdl\drivers/peripheral/gpio/cy_gpio.h **** /** \} group_gpio_data_structures */
 271:Generated_Source\PSoC6\pdl\drivers/peripheral/gpio/cy_gpio.h **** 
 272:Generated_Source\PSoC6\pdl\drivers/peripheral/gpio/cy_gpio.h **** /***************************************
 273:Generated_Source\PSoC6\pdl\drivers/peripheral/gpio/cy_gpio.h **** *        Constants
 274:Generated_Source\PSoC6\pdl\drivers/peripheral/gpio/cy_gpio.h **** ***************************************/
 275:Generated_Source\PSoC6\pdl\drivers/peripheral/gpio/cy_gpio.h **** 
 276:Generated_Source\PSoC6\pdl\drivers/peripheral/gpio/cy_gpio.h **** /** \cond INTERNAL */
 277:Generated_Source\PSoC6\pdl\drivers/peripheral/gpio/cy_gpio.h **** 
 278:Generated_Source\PSoC6\pdl\drivers/peripheral/gpio/cy_gpio.h **** /* General Constants */
 279:Generated_Source\PSoC6\pdl\drivers/peripheral/gpio/cy_gpio.h **** #define CY_GPIO_PRT_HALF                       (4UL)      /**< Half-way point of a GPIO port */
 280:Generated_Source\PSoC6\pdl\drivers/peripheral/gpio/cy_gpio.h **** #define CY_GPIO_PRT_DEINIT                     (0UL)      /**< De-init value for port registers */
 281:Generated_Source\PSoC6\pdl\drivers/peripheral/gpio/cy_gpio.h **** 
 282:Generated_Source\PSoC6\pdl\drivers/peripheral/gpio/cy_gpio.h **** /* GPIO Masks */
 283:Generated_Source\PSoC6\pdl\drivers/peripheral/gpio/cy_gpio.h **** #define CY_GPIO_HSIOM_MASK                     (0x1FUL)   /**< HSIOM selection mask */
 284:Generated_Source\PSoC6\pdl\drivers/peripheral/gpio/cy_gpio.h **** #define CY_GPIO_OUT_MASK                       (0x01UL)   /**< Single pin mask for OUT register */
 285:Generated_Source\PSoC6\pdl\drivers/peripheral/gpio/cy_gpio.h **** #define CY_GPIO_IN_MASK                        (0x01UL)   /**< Single pin mask for IN register */
 286:Generated_Source\PSoC6\pdl\drivers/peripheral/gpio/cy_gpio.h **** #define CY_GPIO_CFG_DM_MASK                    (0x0FUL)   /**< Single pin mask for drive mode in CF
 287:Generated_Source\PSoC6\pdl\drivers/peripheral/gpio/cy_gpio.h **** #define CY_GPIO_CFG_IN_VTRIP_SEL_MASK          (0x01UL)   /**< Single pin mask for VTRIP selection 
 288:Generated_Source\PSoC6\pdl\drivers/peripheral/gpio/cy_gpio.h **** #define CY_GPIO_CFG_OUT_SLOW_MASK              (0x01UL)   /**< Single pin mask for slew rate in CFG
 289:Generated_Source\PSoC6\pdl\drivers/peripheral/gpio/cy_gpio.h **** #define CY_GPIO_CFG_OUT_DRIVE_SEL_MASK         (0x03UL)   /**< Single pin mask for drive strength i
 290:Generated_Source\PSoC6\pdl\drivers/peripheral/gpio/cy_gpio.h **** #define CY_GPIO_INTR_STATUS_MASK               (0x01UL)   /**< Single pin mask for interrupt status
ARM GAS  C:\Users\Angel\AppData\Local\Temp\ccvqOPgy.s 			page 21


 291:Generated_Source\PSoC6\pdl\drivers/peripheral/gpio/cy_gpio.h **** #define CY_GPIO_INTR_EN_MASK                   (0x01UL)   /**< Single pin mask for interrupt status
 292:Generated_Source\PSoC6\pdl\drivers/peripheral/gpio/cy_gpio.h **** #define CY_GPIO_INTR_MASKED_MASK               (0x01UL)   /**< Single pin mask for masked interrupt
 293:Generated_Source\PSoC6\pdl\drivers/peripheral/gpio/cy_gpio.h **** #define CY_GPIO_INTR_SET_MASK                  (0x01UL)   /**< Single pin mask for setting the inte
 294:Generated_Source\PSoC6\pdl\drivers/peripheral/gpio/cy_gpio.h **** #define CY_GPIO_INTR_EDGE_MASK                 (0x03UL)   /**< Single pin mask for interrupt edge t
 295:Generated_Source\PSoC6\pdl\drivers/peripheral/gpio/cy_gpio.h **** #define CY_GPIO_INTR_FLT_EDGE_MASK             (0x07UL)   /**< Single pin mask for setting filtered
 296:Generated_Source\PSoC6\pdl\drivers/peripheral/gpio/cy_gpio.h **** 
 297:Generated_Source\PSoC6\pdl\drivers/peripheral/gpio/cy_gpio.h **** /* SIO Masks */
 298:Generated_Source\PSoC6\pdl\drivers/peripheral/gpio/cy_gpio.h **** #define CY_GPIO_VREG_EN_MASK                   (0x01UL)   /**< Single SIO pin mask for voltage regu
 299:Generated_Source\PSoC6\pdl\drivers/peripheral/gpio/cy_gpio.h **** #define CY_GPIO_IBUF_MASK                      (0x01UL)   /**< Single SIO pin mask for input buffer
 300:Generated_Source\PSoC6\pdl\drivers/peripheral/gpio/cy_gpio.h **** #define CY_GPIO_IBUF_SHIFT                     (0x01UL)   /**< Single SIO pin shift for input buffe
 301:Generated_Source\PSoC6\pdl\drivers/peripheral/gpio/cy_gpio.h **** #define CY_GPIO_VTRIP_SEL_MASK                 (0x01UL)   /**< Single SIO pin mask for the input bu
 302:Generated_Source\PSoC6\pdl\drivers/peripheral/gpio/cy_gpio.h **** #define CY_GPIO_VTRIP_SEL_SHIFT                (0x02UL)   /**< Single SIO pin shift for the input b
 303:Generated_Source\PSoC6\pdl\drivers/peripheral/gpio/cy_gpio.h **** #define CY_GPIO_VREF_SEL_MASK                  (0x03UL)   /**< Single SIO pin mask for voltage refe
 304:Generated_Source\PSoC6\pdl\drivers/peripheral/gpio/cy_gpio.h **** #define CY_GPIO_VREF_SEL_SHIFT                 (0x03UL)   /**< Single SIO pin shift for voltage ref
 305:Generated_Source\PSoC6\pdl\drivers/peripheral/gpio/cy_gpio.h **** #define CY_GPIO_VOH_SEL_MASK                   (0x07UL)   /**< Single SIO pin mask for VOH */
 306:Generated_Source\PSoC6\pdl\drivers/peripheral/gpio/cy_gpio.h **** #define CY_GPIO_VOH_SEL_SHIFT                  (0x05UL)   /**< Single SIO pin shift for VOH */
 307:Generated_Source\PSoC6\pdl\drivers/peripheral/gpio/cy_gpio.h **** 
 308:Generated_Source\PSoC6\pdl\drivers/peripheral/gpio/cy_gpio.h **** /* Special mask for SIO pin pair setting */
 309:Generated_Source\PSoC6\pdl\drivers/peripheral/gpio/cy_gpio.h **** #define CY_GPIO_SIO_ODD_PIN_MASK               (0x00FEUL) /**< SIO pin pair selection mask */
 310:Generated_Source\PSoC6\pdl\drivers/peripheral/gpio/cy_gpio.h **** #define CY_GPIO_SIO_PIN_MASK                   (0x00FFUL) /**< SIO pin pair mask */
 311:Generated_Source\PSoC6\pdl\drivers/peripheral/gpio/cy_gpio.h **** 
 312:Generated_Source\PSoC6\pdl\drivers/peripheral/gpio/cy_gpio.h **** /* Offsets */
 313:Generated_Source\PSoC6\pdl\drivers/peripheral/gpio/cy_gpio.h **** #define CY_GPIO_HSIOM_OFFSET                   (3UL)      /**< Offset for HSIOM */
 314:Generated_Source\PSoC6\pdl\drivers/peripheral/gpio/cy_gpio.h **** #define CY_GPIO_DRIVE_MODE_OFFSET              (2UL)      /**< Offset for Drive mode */
 315:Generated_Source\PSoC6\pdl\drivers/peripheral/gpio/cy_gpio.h **** #define CY_GPIO_INBUF_OFFSET                   (3UL)      /**< Offset for input buffer */
 316:Generated_Source\PSoC6\pdl\drivers/peripheral/gpio/cy_gpio.h **** #define CY_GPIO_CFG_OUT_DRIVE_OFFSET           (16UL)     /**< Offset for drive strength */
 317:Generated_Source\PSoC6\pdl\drivers/peripheral/gpio/cy_gpio.h **** #define CY_GPIO_INTR_CFG_OFFSET                (1UL)      /**< Offset for interrupt config */
 318:Generated_Source\PSoC6\pdl\drivers/peripheral/gpio/cy_gpio.h **** #define CY_GPIO_INTR_FILT_OFFSET               (18UL)     /**< Offset for filtered interrupt config
 319:Generated_Source\PSoC6\pdl\drivers/peripheral/gpio/cy_gpio.h **** #define CY_GPIO_CFG_SIO_OFFSET                 (2UL)      /**< Offset for SIO config */
 320:Generated_Source\PSoC6\pdl\drivers/peripheral/gpio/cy_gpio.h **** 
 321:Generated_Source\PSoC6\pdl\drivers/peripheral/gpio/cy_gpio.h **** /* Parameter validation constants */
 322:Generated_Source\PSoC6\pdl\drivers/peripheral/gpio/cy_gpio.h **** #define CY_GPIO_PINS_MAX                       (8UL)      /**< Number of pins in the port */
 323:Generated_Source\PSoC6\pdl\drivers/peripheral/gpio/cy_gpio.h **** #define CY_GPIO_PRT_PINS_MASK                  (0x0000000FFUL)
 324:Generated_Source\PSoC6\pdl\drivers/peripheral/gpio/cy_gpio.h **** #define CY_GPIO_PRT_INTR_CFG_EDGE_SEL_MASK     (GPIO_PRT_INTR_CFG_EDGE0_SEL_Msk | \
 325:Generated_Source\PSoC6\pdl\drivers/peripheral/gpio/cy_gpio.h ****                                                 GPIO_PRT_INTR_CFG_EDGE1_SEL_Msk | \
 326:Generated_Source\PSoC6\pdl\drivers/peripheral/gpio/cy_gpio.h ****                                                 GPIO_PRT_INTR_CFG_EDGE2_SEL_Msk | \
 327:Generated_Source\PSoC6\pdl\drivers/peripheral/gpio/cy_gpio.h ****                                                 GPIO_PRT_INTR_CFG_EDGE3_SEL_Msk | \
 328:Generated_Source\PSoC6\pdl\drivers/peripheral/gpio/cy_gpio.h ****                                                 GPIO_PRT_INTR_CFG_EDGE4_SEL_Msk | \
 329:Generated_Source\PSoC6\pdl\drivers/peripheral/gpio/cy_gpio.h ****                                                 GPIO_PRT_INTR_CFG_EDGE5_SEL_Msk | \
 330:Generated_Source\PSoC6\pdl\drivers/peripheral/gpio/cy_gpio.h ****                                                 GPIO_PRT_INTR_CFG_EDGE6_SEL_Msk | \
 331:Generated_Source\PSoC6\pdl\drivers/peripheral/gpio/cy_gpio.h ****                                                 GPIO_PRT_INTR_CFG_EDGE7_SEL_Msk)
 332:Generated_Source\PSoC6\pdl\drivers/peripheral/gpio/cy_gpio.h **** #define CY_GPIO_PRT_INTR_CFG_RANGE_MASK        (CY_GPIO_PRT_INTR_CFG_EDGE_SEL_MASK | \
 333:Generated_Source\PSoC6\pdl\drivers/peripheral/gpio/cy_gpio.h ****                                                 GPIO_PRT_INTR_CFG_FLT_EDGE_SEL_Msk | \
 334:Generated_Source\PSoC6\pdl\drivers/peripheral/gpio/cy_gpio.h ****                                                 GPIO_PRT_INTR_CFG_FLT_SEL_Msk)
 335:Generated_Source\PSoC6\pdl\drivers/peripheral/gpio/cy_gpio.h **** #define CY_GPIO_PRT_INT_MASK_MASK              (0x0000001FFUL)
 336:Generated_Source\PSoC6\pdl\drivers/peripheral/gpio/cy_gpio.h **** #define CY_GPIO_PRT_SEL_ACTIVE_MASK            (0x1FFFFFFFUL)
 337:Generated_Source\PSoC6\pdl\drivers/peripheral/gpio/cy_gpio.h **** 
 338:Generated_Source\PSoC6\pdl\drivers/peripheral/gpio/cy_gpio.h **** #define GPIO_MAX_SPLIT_CELL_SEGMENTS           (9U)
 339:Generated_Source\PSoC6\pdl\drivers/peripheral/gpio/cy_gpio.h **** 
 340:Generated_Source\PSoC6\pdl\drivers/peripheral/gpio/cy_gpio.h **** /* Parameter validation macros */
 341:Generated_Source\PSoC6\pdl\drivers/peripheral/gpio/cy_gpio.h **** #define CY_GPIO_IS_PIN_VALID(pinNum)           (CY_GPIO_PINS_MAX > (pinNum))
 342:Generated_Source\PSoC6\pdl\drivers/peripheral/gpio/cy_gpio.h **** #define CY_GPIO_IS_FILTER_PIN_VALID(pinNum)    (CY_GPIO_PINS_MAX >= (pinNum))
 343:Generated_Source\PSoC6\pdl\drivers/peripheral/gpio/cy_gpio.h **** #define CY_GPIO_IS_VALUE_VALID(outVal)         (1UL >= (outVal))
 344:Generated_Source\PSoC6\pdl\drivers/peripheral/gpio/cy_gpio.h **** #define CY_GPIO_IS_DM_VALID(driveMode)         (0U == ((driveMode) & (uint32_t)~CY_GPIO_CFG_DM_MASK
 345:Generated_Source\PSoC6\pdl\drivers/peripheral/gpio/cy_gpio.h **** 
 346:Generated_Source\PSoC6\pdl\drivers/peripheral/gpio/cy_gpio.h **** #define CY_GPIO_IS_HSIOM_VALID(hsiom)          (0U == ((hsiom) & (uint32_t)~CY_GPIO_HSIOM_MASK))
 347:Generated_Source\PSoC6\pdl\drivers/peripheral/gpio/cy_gpio.h **** 
ARM GAS  C:\Users\Angel\AppData\Local\Temp\ccvqOPgy.s 			page 22


 348:Generated_Source\PSoC6\pdl\drivers/peripheral/gpio/cy_gpio.h **** #define CY_GPIO_IS_INT_EDGE_VALID(intEdge)     ((CY_GPIO_INTR_DISABLE  == (intEdge)) || \
 349:Generated_Source\PSoC6\pdl\drivers/peripheral/gpio/cy_gpio.h ****                                                 (CY_GPIO_INTR_RISING   == (intEdge)) || \
 350:Generated_Source\PSoC6\pdl\drivers/peripheral/gpio/cy_gpio.h ****                                                 (CY_GPIO_INTR_FALLING  == (intEdge)) || \
 351:Generated_Source\PSoC6\pdl\drivers/peripheral/gpio/cy_gpio.h ****                                                 (CY_GPIO_INTR_BOTH     == (intEdge)))
 352:Generated_Source\PSoC6\pdl\drivers/peripheral/gpio/cy_gpio.h **** 
 353:Generated_Source\PSoC6\pdl\drivers/peripheral/gpio/cy_gpio.h **** #define CY_GPIO_IS_DRIVE_SEL_VALID(driveSel)   ((CY_GPIO_DRIVE_FULL    == (driveSel)) || \
 354:Generated_Source\PSoC6\pdl\drivers/peripheral/gpio/cy_gpio.h ****                                                 (CY_GPIO_DRIVE_1_2     == (driveSel)) || \
 355:Generated_Source\PSoC6\pdl\drivers/peripheral/gpio/cy_gpio.h ****                                                 (CY_GPIO_DRIVE_1_4     == (driveSel)) || \
 356:Generated_Source\PSoC6\pdl\drivers/peripheral/gpio/cy_gpio.h ****                                                 (CY_GPIO_DRIVE_1_8     == (driveSel)))
 357:Generated_Source\PSoC6\pdl\drivers/peripheral/gpio/cy_gpio.h **** 
 358:Generated_Source\PSoC6\pdl\drivers/peripheral/gpio/cy_gpio.h **** #define CY_GPIO_IS_VREF_SEL_VALID(vrefSel)     ((CY_SIO_VREF_PINREF    == (vrefSel)) || \
 359:Generated_Source\PSoC6\pdl\drivers/peripheral/gpio/cy_gpio.h ****                                                 (CY_SIO_VREF_1_2V      == (vrefSel)) || \
 360:Generated_Source\PSoC6\pdl\drivers/peripheral/gpio/cy_gpio.h ****                                                 (CY_SIO_VREF_AMUX_A    == (vrefSel)) || \
 361:Generated_Source\PSoC6\pdl\drivers/peripheral/gpio/cy_gpio.h ****                                                 (CY_SIO_VREF_AMUX_B    == (vrefSel)))
 362:Generated_Source\PSoC6\pdl\drivers/peripheral/gpio/cy_gpio.h **** 
 363:Generated_Source\PSoC6\pdl\drivers/peripheral/gpio/cy_gpio.h **** #define CY_GPIO_IS_VOH_SEL_VALID(vrefSel)      ((CY_SIO_VOH_1_00       == (vrefSel)) || \
 364:Generated_Source\PSoC6\pdl\drivers/peripheral/gpio/cy_gpio.h ****                                                 (CY_SIO_VOH_1_25       == (vrefSel)) || \
 365:Generated_Source\PSoC6\pdl\drivers/peripheral/gpio/cy_gpio.h ****                                                 (CY_SIO_VOH_1_49       == (vrefSel)) || \
 366:Generated_Source\PSoC6\pdl\drivers/peripheral/gpio/cy_gpio.h ****                                                 (CY_SIO_VOH_1_67       == (vrefSel)) || \
 367:Generated_Source\PSoC6\pdl\drivers/peripheral/gpio/cy_gpio.h ****                                                 (CY_SIO_VOH_2_08       == (vrefSel)) || \
 368:Generated_Source\PSoC6\pdl\drivers/peripheral/gpio/cy_gpio.h ****                                                 (CY_SIO_VOH_2_50       == (vrefSel)) || \
 369:Generated_Source\PSoC6\pdl\drivers/peripheral/gpio/cy_gpio.h ****                                                 (CY_SIO_VOH_2_78       == (vrefSel)) || \
 370:Generated_Source\PSoC6\pdl\drivers/peripheral/gpio/cy_gpio.h ****                                                 (CY_SIO_VOH_4_16       == (vrefSel)))
 371:Generated_Source\PSoC6\pdl\drivers/peripheral/gpio/cy_gpio.h ****                    
 372:Generated_Source\PSoC6\pdl\drivers/peripheral/gpio/cy_gpio.h **** #define CY_GPIO_IS_PIN_BIT_VALID(pinBit)       (0U == ((pinBit) & (uint32_t)~CY_GPIO_PRT_PINS_MASK)
 373:Generated_Source\PSoC6\pdl\drivers/peripheral/gpio/cy_gpio.h **** #define CY_GPIO_IS_INTR_CFG_VALID(intrCfg)     (0U == ((intrCfg) & (uint32_t)~CY_GPIO_PRT_INTR_CFG_
 374:Generated_Source\PSoC6\pdl\drivers/peripheral/gpio/cy_gpio.h **** #define CY_GPIO_IS_INTR_MASK_VALID(intrMask)   (0U == ((intrMask) & (uint32_t)~CY_GPIO_PRT_INT_MASK
 375:Generated_Source\PSoC6\pdl\drivers/peripheral/gpio/cy_gpio.h **** #define CY_GPIO_IS_SEL_ACT_VALID(selActive)    (0U == ((selActive) & (uint32_t)~CY_GPIO_PRT_SEL_ACT
 376:Generated_Source\PSoC6\pdl\drivers/peripheral/gpio/cy_gpio.h **** 
 377:Generated_Source\PSoC6\pdl\drivers/peripheral/gpio/cy_gpio.h **** #define CY_GPIO_IS_AMUX_SPLIT_VALID(switchCtrl)       (((uint32_t) (switchCtrl)) < GPIO_MAX_SPLIT_C
 378:Generated_Source\PSoC6\pdl\drivers/peripheral/gpio/cy_gpio.h **** 
 379:Generated_Source\PSoC6\pdl\drivers/peripheral/gpio/cy_gpio.h **** #define CY_GPIO_IS_AMUX_CONNECT_VALID(amuxConnect)    ((CY_GPIO_AMUX_OPENALL == (amuxConnect)) || \
 380:Generated_Source\PSoC6\pdl\drivers/peripheral/gpio/cy_gpio.h ****                                                        (CY_GPIO_AMUX_L       == (amuxConnect)) || \
 381:Generated_Source\PSoC6\pdl\drivers/peripheral/gpio/cy_gpio.h ****                                                        (CY_GPIO_AMUX_R       == (amuxConnect)) || \
 382:Generated_Source\PSoC6\pdl\drivers/peripheral/gpio/cy_gpio.h ****                                                        (CY_GPIO_AMUX_LR      == (amuxConnect)) || \
 383:Generated_Source\PSoC6\pdl\drivers/peripheral/gpio/cy_gpio.h ****                                                        (CY_GPIO_AMUX_G       == (amuxConnect)) || \
 384:Generated_Source\PSoC6\pdl\drivers/peripheral/gpio/cy_gpio.h ****                                                        (CY_GPIO_AMUX_GL      == (amuxConnect)) || \
 385:Generated_Source\PSoC6\pdl\drivers/peripheral/gpio/cy_gpio.h ****                                                        (CY_GPIO_AMUX_GR      == (amuxConnect)) || \
 386:Generated_Source\PSoC6\pdl\drivers/peripheral/gpio/cy_gpio.h ****                                                        (CY_GPIO_AMUX_GLR     == (amuxConnect)))
 387:Generated_Source\PSoC6\pdl\drivers/peripheral/gpio/cy_gpio.h **** 
 388:Generated_Source\PSoC6\pdl\drivers/peripheral/gpio/cy_gpio.h **** #define CY_GPIO_IS_AMUX_SELECT_VALID(amuxBus)       ((CY_GPIO_AMUXBUSA       == (amuxBus)) || \
 389:Generated_Source\PSoC6\pdl\drivers/peripheral/gpio/cy_gpio.h ****                                                      (CY_GPIO_AMUXBUSB       == (amuxBus)))
 390:Generated_Source\PSoC6\pdl\drivers/peripheral/gpio/cy_gpio.h **** /** \endcond */
 391:Generated_Source\PSoC6\pdl\drivers/peripheral/gpio/cy_gpio.h **** 
 392:Generated_Source\PSoC6\pdl\drivers/peripheral/gpio/cy_gpio.h **** 
 393:Generated_Source\PSoC6\pdl\drivers/peripheral/gpio/cy_gpio.h **** /***************************************
 394:Generated_Source\PSoC6\pdl\drivers/peripheral/gpio/cy_gpio.h **** *        Function Constants
 395:Generated_Source\PSoC6\pdl\drivers/peripheral/gpio/cy_gpio.h **** ***************************************/
 396:Generated_Source\PSoC6\pdl\drivers/peripheral/gpio/cy_gpio.h **** 
 397:Generated_Source\PSoC6\pdl\drivers/peripheral/gpio/cy_gpio.h **** /**
 398:Generated_Source\PSoC6\pdl\drivers/peripheral/gpio/cy_gpio.h **** * \addtogroup group_gpio_macros
 399:Generated_Source\PSoC6\pdl\drivers/peripheral/gpio/cy_gpio.h **** * \{
 400:Generated_Source\PSoC6\pdl\drivers/peripheral/gpio/cy_gpio.h **** */
 401:Generated_Source\PSoC6\pdl\drivers/peripheral/gpio/cy_gpio.h **** 
 402:Generated_Source\PSoC6\pdl\drivers/peripheral/gpio/cy_gpio.h **** /**
 403:Generated_Source\PSoC6\pdl\drivers/peripheral/gpio/cy_gpio.h **** * \defgroup group_gpio_driveModes Pin drive mode
 404:Generated_Source\PSoC6\pdl\drivers/peripheral/gpio/cy_gpio.h **** * \{
ARM GAS  C:\Users\Angel\AppData\Local\Temp\ccvqOPgy.s 			page 23


 405:Generated_Source\PSoC6\pdl\drivers/peripheral/gpio/cy_gpio.h **** * Constants to be used for setting the drive mode of the pin.
 406:Generated_Source\PSoC6\pdl\drivers/peripheral/gpio/cy_gpio.h **** */
 407:Generated_Source\PSoC6\pdl\drivers/peripheral/gpio/cy_gpio.h **** #define CY_GPIO_DM_ANALOG                      (0x00UL) /**< Analog High-Z. Input buffer off */
 408:Generated_Source\PSoC6\pdl\drivers/peripheral/gpio/cy_gpio.h **** #define CY_GPIO_DM_PULLUP_IN_OFF               (0x02UL) /**< Resistive Pull-Up. Input buffer off */
 409:Generated_Source\PSoC6\pdl\drivers/peripheral/gpio/cy_gpio.h **** #define CY_GPIO_DM_PULLDOWN_IN_OFF             (0x03UL) /**< Resistive Pull-Down. Input buffer off 
 410:Generated_Source\PSoC6\pdl\drivers/peripheral/gpio/cy_gpio.h **** #define CY_GPIO_DM_OD_DRIVESLOW_IN_OFF         (0x04UL) /**< Open Drain, Drives Low. Input buffer o
 411:Generated_Source\PSoC6\pdl\drivers/peripheral/gpio/cy_gpio.h **** #define CY_GPIO_DM_OD_DRIVESHIGH_IN_OFF        (0x05UL) /**< Open Drain, Drives High. Input buffer 
 412:Generated_Source\PSoC6\pdl\drivers/peripheral/gpio/cy_gpio.h **** #define CY_GPIO_DM_STRONG_IN_OFF               (0x06UL) /**< Strong Drive. Input buffer off */
 413:Generated_Source\PSoC6\pdl\drivers/peripheral/gpio/cy_gpio.h **** #define CY_GPIO_DM_PULLUP_DOWN_IN_OFF          (0x07UL) /**< Resistive Pull-Up/Down. Input buffer o
 414:Generated_Source\PSoC6\pdl\drivers/peripheral/gpio/cy_gpio.h **** #define CY_GPIO_DM_HIGHZ                       (0x08UL) /**< Digital High-Z. Input buffer on */
 415:Generated_Source\PSoC6\pdl\drivers/peripheral/gpio/cy_gpio.h **** #define CY_GPIO_DM_PULLUP                      (0x0AUL) /**< Resistive Pull-Up. Input buffer on */
 416:Generated_Source\PSoC6\pdl\drivers/peripheral/gpio/cy_gpio.h **** #define CY_GPIO_DM_PULLDOWN                    (0x0BUL) /**< Resistive Pull-Down. Input buffer on *
 417:Generated_Source\PSoC6\pdl\drivers/peripheral/gpio/cy_gpio.h **** #define CY_GPIO_DM_OD_DRIVESLOW                (0x0CUL) /**< Open Drain, Drives Low. Input buffer o
 418:Generated_Source\PSoC6\pdl\drivers/peripheral/gpio/cy_gpio.h **** #define CY_GPIO_DM_OD_DRIVESHIGH               (0x0DUL) /**< Open Drain, Drives High. Input buffer 
 419:Generated_Source\PSoC6\pdl\drivers/peripheral/gpio/cy_gpio.h **** #define CY_GPIO_DM_STRONG                      (0x0EUL) /**< Strong Drive. Input buffer on */
 420:Generated_Source\PSoC6\pdl\drivers/peripheral/gpio/cy_gpio.h **** #define CY_GPIO_DM_PULLUP_DOWN                 (0x0FUL) /**< Resistive Pull-Up/Down. Input buffer o
 421:Generated_Source\PSoC6\pdl\drivers/peripheral/gpio/cy_gpio.h **** /** \} */
 422:Generated_Source\PSoC6\pdl\drivers/peripheral/gpio/cy_gpio.h **** 
 423:Generated_Source\PSoC6\pdl\drivers/peripheral/gpio/cy_gpio.h **** /**
 424:Generated_Source\PSoC6\pdl\drivers/peripheral/gpio/cy_gpio.h **** * \defgroup group_gpio_vtrip Voltage trip mode
 425:Generated_Source\PSoC6\pdl\drivers/peripheral/gpio/cy_gpio.h **** * \{
 426:Generated_Source\PSoC6\pdl\drivers/peripheral/gpio/cy_gpio.h **** * Constants to be used for setting the voltage trip type on the pin.
 427:Generated_Source\PSoC6\pdl\drivers/peripheral/gpio/cy_gpio.h **** */
 428:Generated_Source\PSoC6\pdl\drivers/peripheral/gpio/cy_gpio.h **** #define CY_GPIO_VTRIP_CMOS                     (0x00UL) /**< Input buffer compatible with CMOS and 
 429:Generated_Source\PSoC6\pdl\drivers/peripheral/gpio/cy_gpio.h **** #define CY_GPIO_VTRIP_TTL                      (0x01UL) /**< Input buffer compatible with TTL and M
 430:Generated_Source\PSoC6\pdl\drivers/peripheral/gpio/cy_gpio.h **** /** \} */
 431:Generated_Source\PSoC6\pdl\drivers/peripheral/gpio/cy_gpio.h **** 
 432:Generated_Source\PSoC6\pdl\drivers/peripheral/gpio/cy_gpio.h **** /**
 433:Generated_Source\PSoC6\pdl\drivers/peripheral/gpio/cy_gpio.h **** * \defgroup group_gpio_slewRate Slew Rate Mode
 434:Generated_Source\PSoC6\pdl\drivers/peripheral/gpio/cy_gpio.h **** * \{
 435:Generated_Source\PSoC6\pdl\drivers/peripheral/gpio/cy_gpio.h **** * Constants to be used for setting the slew rate of the pin.
 436:Generated_Source\PSoC6\pdl\drivers/peripheral/gpio/cy_gpio.h **** */
 437:Generated_Source\PSoC6\pdl\drivers/peripheral/gpio/cy_gpio.h **** #define CY_GPIO_SLEW_FAST                      (0x00UL) /**< Fast slew rate */
 438:Generated_Source\PSoC6\pdl\drivers/peripheral/gpio/cy_gpio.h **** #define CY_GPIO_SLEW_SLOW                      (0x01UL) /**< Slow slew rate */
 439:Generated_Source\PSoC6\pdl\drivers/peripheral/gpio/cy_gpio.h **** /** \} */
 440:Generated_Source\PSoC6\pdl\drivers/peripheral/gpio/cy_gpio.h **** 
 441:Generated_Source\PSoC6\pdl\drivers/peripheral/gpio/cy_gpio.h **** /**
 442:Generated_Source\PSoC6\pdl\drivers/peripheral/gpio/cy_gpio.h **** * \defgroup group_gpio_driveStrength Pin drive strength
 443:Generated_Source\PSoC6\pdl\drivers/peripheral/gpio/cy_gpio.h **** * \{
 444:Generated_Source\PSoC6\pdl\drivers/peripheral/gpio/cy_gpio.h **** * Constants to be used for setting the drive strength of the pin.
 445:Generated_Source\PSoC6\pdl\drivers/peripheral/gpio/cy_gpio.h **** */
 446:Generated_Source\PSoC6\pdl\drivers/peripheral/gpio/cy_gpio.h **** #define CY_GPIO_DRIVE_FULL                     (0x00UL) /**< Full drive strength: Max drive current
 447:Generated_Source\PSoC6\pdl\drivers/peripheral/gpio/cy_gpio.h **** #define CY_GPIO_DRIVE_1_2                      (0x01UL) /**< 1/2 drive strength: 1/2 drive current 
 448:Generated_Source\PSoC6\pdl\drivers/peripheral/gpio/cy_gpio.h **** #define CY_GPIO_DRIVE_1_4                      (0x02UL) /**< 1/4 drive strength: 1/4 drive current 
 449:Generated_Source\PSoC6\pdl\drivers/peripheral/gpio/cy_gpio.h **** #define CY_GPIO_DRIVE_1_8                      (0x03UL) /**< 1/8 drive strength: 1/8 drive current 
 450:Generated_Source\PSoC6\pdl\drivers/peripheral/gpio/cy_gpio.h **** /** \} */
 451:Generated_Source\PSoC6\pdl\drivers/peripheral/gpio/cy_gpio.h **** 
 452:Generated_Source\PSoC6\pdl\drivers/peripheral/gpio/cy_gpio.h **** /**
 453:Generated_Source\PSoC6\pdl\drivers/peripheral/gpio/cy_gpio.h **** * \defgroup group_gpio_interruptTrigger Interrupt trigger type
 454:Generated_Source\PSoC6\pdl\drivers/peripheral/gpio/cy_gpio.h **** * \{
 455:Generated_Source\PSoC6\pdl\drivers/peripheral/gpio/cy_gpio.h **** * Constants to be used for setting the interrupt trigger type on the pin.
 456:Generated_Source\PSoC6\pdl\drivers/peripheral/gpio/cy_gpio.h **** */
 457:Generated_Source\PSoC6\pdl\drivers/peripheral/gpio/cy_gpio.h **** #define CY_GPIO_INTR_DISABLE                   (0x00UL) /**< Disable the pin interrupt generation *
 458:Generated_Source\PSoC6\pdl\drivers/peripheral/gpio/cy_gpio.h **** #define CY_GPIO_INTR_RISING                    (0x01UL) /**< Rising-Edge interrupt */
 459:Generated_Source\PSoC6\pdl\drivers/peripheral/gpio/cy_gpio.h **** #define CY_GPIO_INTR_FALLING                   (0x02UL) /**< Falling-Edge interrupt */
 460:Generated_Source\PSoC6\pdl\drivers/peripheral/gpio/cy_gpio.h **** #define CY_GPIO_INTR_BOTH                      (0x03UL) /**< Both-Edge interrupt */
 461:Generated_Source\PSoC6\pdl\drivers/peripheral/gpio/cy_gpio.h **** /** \} */
ARM GAS  C:\Users\Angel\AppData\Local\Temp\ccvqOPgy.s 			page 24


 462:Generated_Source\PSoC6\pdl\drivers/peripheral/gpio/cy_gpio.h **** 
 463:Generated_Source\PSoC6\pdl\drivers/peripheral/gpio/cy_gpio.h **** /**
 464:Generated_Source\PSoC6\pdl\drivers/peripheral/gpio/cy_gpio.h **** * \defgroup group_gpio_sioVreg SIO output buffer mode
 465:Generated_Source\PSoC6\pdl\drivers/peripheral/gpio/cy_gpio.h **** * \{
 466:Generated_Source\PSoC6\pdl\drivers/peripheral/gpio/cy_gpio.h **** * Constants to be used for setting the SIO output buffer mode on the pin.
 467:Generated_Source\PSoC6\pdl\drivers/peripheral/gpio/cy_gpio.h **** */
 468:Generated_Source\PSoC6\pdl\drivers/peripheral/gpio/cy_gpio.h **** #define CY_SIO_VREG_UNREGULATED                (0x00UL) /**< Unregulated output buffer */
 469:Generated_Source\PSoC6\pdl\drivers/peripheral/gpio/cy_gpio.h **** #define CY_SIO_VREG_REGULATED                  (0x01UL) /**< Regulated output buffer */
 470:Generated_Source\PSoC6\pdl\drivers/peripheral/gpio/cy_gpio.h **** /** \} */
 471:Generated_Source\PSoC6\pdl\drivers/peripheral/gpio/cy_gpio.h **** 
 472:Generated_Source\PSoC6\pdl\drivers/peripheral/gpio/cy_gpio.h **** /**
 473:Generated_Source\PSoC6\pdl\drivers/peripheral/gpio/cy_gpio.h **** * \defgroup group_gpio_sioIbuf SIO input buffer mode
 474:Generated_Source\PSoC6\pdl\drivers/peripheral/gpio/cy_gpio.h **** * \{
 475:Generated_Source\PSoC6\pdl\drivers/peripheral/gpio/cy_gpio.h **** * Constants to be used for setting the SIO input buffer mode on the pin.
 476:Generated_Source\PSoC6\pdl\drivers/peripheral/gpio/cy_gpio.h **** */
 477:Generated_Source\PSoC6\pdl\drivers/peripheral/gpio/cy_gpio.h **** #define CY_SIO_IBUF_SINGLEENDED                (0x00UL) /**< Single ended input buffer */
 478:Generated_Source\PSoC6\pdl\drivers/peripheral/gpio/cy_gpio.h **** #define CY_SIO_IBUF_DIFFERENTIAL               (0x01UL) /**< Differential input buffer */
 479:Generated_Source\PSoC6\pdl\drivers/peripheral/gpio/cy_gpio.h **** /** \} */
 480:Generated_Source\PSoC6\pdl\drivers/peripheral/gpio/cy_gpio.h **** 
 481:Generated_Source\PSoC6\pdl\drivers/peripheral/gpio/cy_gpio.h **** /**
 482:Generated_Source\PSoC6\pdl\drivers/peripheral/gpio/cy_gpio.h **** * \defgroup group_gpio_sioVtrip SIO input buffer trip-point
 483:Generated_Source\PSoC6\pdl\drivers/peripheral/gpio/cy_gpio.h **** * \{
 484:Generated_Source\PSoC6\pdl\drivers/peripheral/gpio/cy_gpio.h **** * Constants to be used for setting the SIO input buffer trip-point of the pin.
 485:Generated_Source\PSoC6\pdl\drivers/peripheral/gpio/cy_gpio.h **** */
 486:Generated_Source\PSoC6\pdl\drivers/peripheral/gpio/cy_gpio.h **** #define CY_SIO_VTRIP_CMOS                      (0x00UL) /**< CMOS input buffer (single-ended) */
 487:Generated_Source\PSoC6\pdl\drivers/peripheral/gpio/cy_gpio.h **** #define CY_SIO_VTRIP_TTL                       (0x01UL) /**< TTL input buffer (single-ended) */
 488:Generated_Source\PSoC6\pdl\drivers/peripheral/gpio/cy_gpio.h **** #define CY_SIO_VTRIP_0_5VDDIO_0_5VOH           (0x00UL) /**< 0.5xVddio or 0.5xVoh (differential) */
 489:Generated_Source\PSoC6\pdl\drivers/peripheral/gpio/cy_gpio.h **** #define CY_SIO_VTRIP_0_4VDDIO_1_0VREF          (0x01UL) /**< 0.4xVddio or 0.4xVoh (differential) */
 490:Generated_Source\PSoC6\pdl\drivers/peripheral/gpio/cy_gpio.h **** /** \} */
 491:Generated_Source\PSoC6\pdl\drivers/peripheral/gpio/cy_gpio.h **** 
 492:Generated_Source\PSoC6\pdl\drivers/peripheral/gpio/cy_gpio.h **** /**
 493:Generated_Source\PSoC6\pdl\drivers/peripheral/gpio/cy_gpio.h **** * \defgroup group_gpio_sioVref SIO reference voltage for input buffer trip-point
 494:Generated_Source\PSoC6\pdl\drivers/peripheral/gpio/cy_gpio.h **** * \{
 495:Generated_Source\PSoC6\pdl\drivers/peripheral/gpio/cy_gpio.h **** * Constants to be used for setting the reference voltage of SIO input buffer trip-point.
 496:Generated_Source\PSoC6\pdl\drivers/peripheral/gpio/cy_gpio.h **** */
 497:Generated_Source\PSoC6\pdl\drivers/peripheral/gpio/cy_gpio.h **** #define CY_SIO_VREF_PINREF                     (0x00UL) /**< Vref from analog pin */
 498:Generated_Source\PSoC6\pdl\drivers/peripheral/gpio/cy_gpio.h **** #define CY_SIO_VREF_1_2V                       (0x01UL) /**< Vref from internal 1.2V reference */
 499:Generated_Source\PSoC6\pdl\drivers/peripheral/gpio/cy_gpio.h **** #define CY_SIO_VREF_AMUX_A                     (0x02UL) /**< Vref from AMUXBUS_A */
 500:Generated_Source\PSoC6\pdl\drivers/peripheral/gpio/cy_gpio.h **** #define CY_SIO_VREF_AMUX_B                     (0x03UL) /**< Vref from AMUXBUS_B */
 501:Generated_Source\PSoC6\pdl\drivers/peripheral/gpio/cy_gpio.h **** /** \} */
 502:Generated_Source\PSoC6\pdl\drivers/peripheral/gpio/cy_gpio.h **** 
 503:Generated_Source\PSoC6\pdl\drivers/peripheral/gpio/cy_gpio.h **** /**
 504:Generated_Source\PSoC6\pdl\drivers/peripheral/gpio/cy_gpio.h **** * \defgroup group_gpio_sioVoh Regulated output voltage level (Voh) and input buffer trip-point of a
 505:Generated_Source\PSoC6\pdl\drivers/peripheral/gpio/cy_gpio.h **** * \{
 506:Generated_Source\PSoC6\pdl\drivers/peripheral/gpio/cy_gpio.h **** * Constants to be used for setting the Voh and input buffer trip-point of an SIO pair
 507:Generated_Source\PSoC6\pdl\drivers/peripheral/gpio/cy_gpio.h **** */
 508:Generated_Source\PSoC6\pdl\drivers/peripheral/gpio/cy_gpio.h **** #define CY_SIO_VOH_1_00                        (0x00UL) /**< Voh = 1 x Reference */
 509:Generated_Source\PSoC6\pdl\drivers/peripheral/gpio/cy_gpio.h **** #define CY_SIO_VOH_1_25                        (0x01UL) /**< Voh = 1.25 x Reference */
 510:Generated_Source\PSoC6\pdl\drivers/peripheral/gpio/cy_gpio.h **** #define CY_SIO_VOH_1_49                        (0x02UL) /**< Voh = 1.49 x Reference */
 511:Generated_Source\PSoC6\pdl\drivers/peripheral/gpio/cy_gpio.h **** #define CY_SIO_VOH_1_67                        (0x03UL) /**< Voh = 1.67 x Reference */
 512:Generated_Source\PSoC6\pdl\drivers/peripheral/gpio/cy_gpio.h **** #define CY_SIO_VOH_2_08                        (0x04UL) /**< Voh = 2.08 x Reference */
 513:Generated_Source\PSoC6\pdl\drivers/peripheral/gpio/cy_gpio.h **** #define CY_SIO_VOH_2_50                        (0x05UL) /**< Voh = 2.50 x Reference */
 514:Generated_Source\PSoC6\pdl\drivers/peripheral/gpio/cy_gpio.h **** #define CY_SIO_VOH_2_78                        (0x06UL) /**< Voh = 2.78 x Reference */
 515:Generated_Source\PSoC6\pdl\drivers/peripheral/gpio/cy_gpio.h **** #define CY_SIO_VOH_4_16                        (0x07UL) /**< Voh = 4.16 x Reference */
 516:Generated_Source\PSoC6\pdl\drivers/peripheral/gpio/cy_gpio.h **** /** \} */
 517:Generated_Source\PSoC6\pdl\drivers/peripheral/gpio/cy_gpio.h **** 
 518:Generated_Source\PSoC6\pdl\drivers/peripheral/gpio/cy_gpio.h **** /** \} group_gpio_macros */
ARM GAS  C:\Users\Angel\AppData\Local\Temp\ccvqOPgy.s 			page 25


 519:Generated_Source\PSoC6\pdl\drivers/peripheral/gpio/cy_gpio.h **** 
 520:Generated_Source\PSoC6\pdl\drivers/peripheral/gpio/cy_gpio.h **** /***************************************
 521:Generated_Source\PSoC6\pdl\drivers/peripheral/gpio/cy_gpio.h **** *        Function Prototypes
 522:Generated_Source\PSoC6\pdl\drivers/peripheral/gpio/cy_gpio.h **** ***************************************/
 523:Generated_Source\PSoC6\pdl\drivers/peripheral/gpio/cy_gpio.h **** 
 524:Generated_Source\PSoC6\pdl\drivers/peripheral/gpio/cy_gpio.h **** /**
 525:Generated_Source\PSoC6\pdl\drivers/peripheral/gpio/cy_gpio.h **** * \addtogroup group_gpio_functions
 526:Generated_Source\PSoC6\pdl\drivers/peripheral/gpio/cy_gpio.h **** * \{
 527:Generated_Source\PSoC6\pdl\drivers/peripheral/gpio/cy_gpio.h **** */
 528:Generated_Source\PSoC6\pdl\drivers/peripheral/gpio/cy_gpio.h **** 
 529:Generated_Source\PSoC6\pdl\drivers/peripheral/gpio/cy_gpio.h **** /**
 530:Generated_Source\PSoC6\pdl\drivers/peripheral/gpio/cy_gpio.h **** * \addtogroup group_gpio_functions_init
 531:Generated_Source\PSoC6\pdl\drivers/peripheral/gpio/cy_gpio.h **** * \{
 532:Generated_Source\PSoC6\pdl\drivers/peripheral/gpio/cy_gpio.h **** */
 533:Generated_Source\PSoC6\pdl\drivers/peripheral/gpio/cy_gpio.h **** 
 534:Generated_Source\PSoC6\pdl\drivers/peripheral/gpio/cy_gpio.h **** cy_en_gpio_status_t Cy_GPIO_Pin_Init(GPIO_PRT_Type* base, uint32_t pinNum, const cy_stc_gpio_pin_co
 535:Generated_Source\PSoC6\pdl\drivers/peripheral/gpio/cy_gpio.h **** cy_en_gpio_status_t Cy_GPIO_Port_Init(GPIO_PRT_Type* base, const cy_stc_gpio_prt_config_t *config);
 536:Generated_Source\PSoC6\pdl\drivers/peripheral/gpio/cy_gpio.h **** void Cy_GPIO_Pin_FastInit(GPIO_PRT_Type* base, uint32_t pinNum, uint32_t driveMode, uint32_t outVal
 537:Generated_Source\PSoC6\pdl\drivers/peripheral/gpio/cy_gpio.h **** void Cy_GPIO_Port_Deinit(GPIO_PRT_Type* base);
 538:Generated_Source\PSoC6\pdl\drivers/peripheral/gpio/cy_gpio.h **** __STATIC_INLINE void Cy_GPIO_SetHSIOM(GPIO_PRT_Type* base, uint32_t pinNum, en_hsiom_sel_t value);
 539:Generated_Source\PSoC6\pdl\drivers/peripheral/gpio/cy_gpio.h **** __STATIC_INLINE en_hsiom_sel_t Cy_GPIO_GetHSIOM(GPIO_PRT_Type* base, uint32_t pinNum);
 540:Generated_Source\PSoC6\pdl\drivers/peripheral/gpio/cy_gpio.h **** __STATIC_INLINE GPIO_PRT_Type* Cy_GPIO_PortToAddr(uint32_t portNum);
 541:Generated_Source\PSoC6\pdl\drivers/peripheral/gpio/cy_gpio.h **** 
 542:Generated_Source\PSoC6\pdl\drivers/peripheral/gpio/cy_gpio.h **** /** \} group_gpio_functions_init */
 543:Generated_Source\PSoC6\pdl\drivers/peripheral/gpio/cy_gpio.h **** 
 544:Generated_Source\PSoC6\pdl\drivers/peripheral/gpio/cy_gpio.h **** /**
 545:Generated_Source\PSoC6\pdl\drivers/peripheral/gpio/cy_gpio.h **** * \addtogroup group_gpio_functions_gpio
 546:Generated_Source\PSoC6\pdl\drivers/peripheral/gpio/cy_gpio.h **** * \{
 547:Generated_Source\PSoC6\pdl\drivers/peripheral/gpio/cy_gpio.h **** */
 548:Generated_Source\PSoC6\pdl\drivers/peripheral/gpio/cy_gpio.h **** 
 549:Generated_Source\PSoC6\pdl\drivers/peripheral/gpio/cy_gpio.h **** void Cy_GPIO_SetAmuxSplit(cy_en_amux_split_t switchCtrl, cy_en_gpio_amuxconnect_t amuxConnect, cy_e
 550:Generated_Source\PSoC6\pdl\drivers/peripheral/gpio/cy_gpio.h **** cy_en_gpio_amuxconnect_t Cy_GPIO_GetAmuxSplit(cy_en_amux_split_t switchCtrl, cy_en_gpio_amuxselect_
 551:Generated_Source\PSoC6\pdl\drivers/peripheral/gpio/cy_gpio.h **** 
 552:Generated_Source\PSoC6\pdl\drivers/peripheral/gpio/cy_gpio.h **** __STATIC_INLINE uint32_t Cy_GPIO_Read(GPIO_PRT_Type* base, uint32_t pinNum);
 553:Generated_Source\PSoC6\pdl\drivers/peripheral/gpio/cy_gpio.h **** __STATIC_INLINE void Cy_GPIO_Write(GPIO_PRT_Type* base, uint32_t pinNum, uint32_t value);
 554:Generated_Source\PSoC6\pdl\drivers/peripheral/gpio/cy_gpio.h **** __STATIC_INLINE uint32_t Cy_GPIO_ReadOut(GPIO_PRT_Type* base, uint32_t pinNum);
 555:Generated_Source\PSoC6\pdl\drivers/peripheral/gpio/cy_gpio.h **** __STATIC_INLINE void Cy_GPIO_Set(GPIO_PRT_Type* base, uint32_t pinNum);
 556:Generated_Source\PSoC6\pdl\drivers/peripheral/gpio/cy_gpio.h **** __STATIC_INLINE void Cy_GPIO_Clr(GPIO_PRT_Type* base, uint32_t pinNum);
 557:Generated_Source\PSoC6\pdl\drivers/peripheral/gpio/cy_gpio.h **** __STATIC_INLINE void Cy_GPIO_Inv(GPIO_PRT_Type* base, uint32_t pinNum);
 558:Generated_Source\PSoC6\pdl\drivers/peripheral/gpio/cy_gpio.h **** __STATIC_INLINE void Cy_GPIO_SetDrivemode(GPIO_PRT_Type* base, uint32_t pinNum, uint32_t value);
 559:Generated_Source\PSoC6\pdl\drivers/peripheral/gpio/cy_gpio.h **** __STATIC_INLINE uint32_t Cy_GPIO_GetDrivemode(GPIO_PRT_Type* base, uint32_t pinNum);
 560:Generated_Source\PSoC6\pdl\drivers/peripheral/gpio/cy_gpio.h **** __STATIC_INLINE void Cy_GPIO_SetVtrip(GPIO_PRT_Type* base, uint32_t pinNum, uint32_t value);
 561:Generated_Source\PSoC6\pdl\drivers/peripheral/gpio/cy_gpio.h **** __STATIC_INLINE uint32_t Cy_GPIO_GetVtrip(GPIO_PRT_Type* base, uint32_t pinNum);
 562:Generated_Source\PSoC6\pdl\drivers/peripheral/gpio/cy_gpio.h **** __STATIC_INLINE void Cy_GPIO_SetSlewRate(GPIO_PRT_Type* base, uint32_t pinNum, uint32_t value);
 563:Generated_Source\PSoC6\pdl\drivers/peripheral/gpio/cy_gpio.h **** __STATIC_INLINE uint32_t Cy_GPIO_GetSlewRate(GPIO_PRT_Type* base, uint32_t pinNum);
 564:Generated_Source\PSoC6\pdl\drivers/peripheral/gpio/cy_gpio.h **** __STATIC_INLINE void Cy_GPIO_SetDriveSel(GPIO_PRT_Type* base, uint32_t pinNum, uint32_t value);
 565:Generated_Source\PSoC6\pdl\drivers/peripheral/gpio/cy_gpio.h **** __STATIC_INLINE uint32_t Cy_GPIO_GetDriveSel(GPIO_PRT_Type* base, uint32_t pinNum);
 566:Generated_Source\PSoC6\pdl\drivers/peripheral/gpio/cy_gpio.h **** 
 567:Generated_Source\PSoC6\pdl\drivers/peripheral/gpio/cy_gpio.h **** /** \} group_gpio_functions_gpio */
 568:Generated_Source\PSoC6\pdl\drivers/peripheral/gpio/cy_gpio.h **** 
 569:Generated_Source\PSoC6\pdl\drivers/peripheral/gpio/cy_gpio.h **** /**
 570:Generated_Source\PSoC6\pdl\drivers/peripheral/gpio/cy_gpio.h **** * \addtogroup group_gpio_functions_sio
 571:Generated_Source\PSoC6\pdl\drivers/peripheral/gpio/cy_gpio.h **** * \{
 572:Generated_Source\PSoC6\pdl\drivers/peripheral/gpio/cy_gpio.h **** */
 573:Generated_Source\PSoC6\pdl\drivers/peripheral/gpio/cy_gpio.h **** 
 574:Generated_Source\PSoC6\pdl\drivers/peripheral/gpio/cy_gpio.h **** __STATIC_INLINE void Cy_GPIO_SetVregEn(GPIO_PRT_Type* base, uint32_t pinNum, uint32_t value);
 575:Generated_Source\PSoC6\pdl\drivers/peripheral/gpio/cy_gpio.h **** __STATIC_INLINE uint32_t Cy_GPIO_GetVregEn(GPIO_PRT_Type* base, uint32_t pinNum);
ARM GAS  C:\Users\Angel\AppData\Local\Temp\ccvqOPgy.s 			page 26


 576:Generated_Source\PSoC6\pdl\drivers/peripheral/gpio/cy_gpio.h **** __STATIC_INLINE void Cy_GPIO_SetIbufMode(GPIO_PRT_Type* base, uint32_t pinNum, uint32_t value);
 577:Generated_Source\PSoC6\pdl\drivers/peripheral/gpio/cy_gpio.h **** __STATIC_INLINE uint32_t Cy_GPIO_GetIbufMode(GPIO_PRT_Type* base, uint32_t pinNum);
 578:Generated_Source\PSoC6\pdl\drivers/peripheral/gpio/cy_gpio.h **** __STATIC_INLINE void Cy_GPIO_SetVtripSel(GPIO_PRT_Type* base, uint32_t pinNum, uint32_t value);
 579:Generated_Source\PSoC6\pdl\drivers/peripheral/gpio/cy_gpio.h **** __STATIC_INLINE uint32_t Cy_GPIO_GetVtripSel(GPIO_PRT_Type* base, uint32_t pinNum);
 580:Generated_Source\PSoC6\pdl\drivers/peripheral/gpio/cy_gpio.h **** __STATIC_INLINE void Cy_GPIO_SetVrefSel(GPIO_PRT_Type* base, uint32_t pinNum, uint32_t value);
 581:Generated_Source\PSoC6\pdl\drivers/peripheral/gpio/cy_gpio.h **** __STATIC_INLINE uint32_t Cy_GPIO_GetVrefSel(GPIO_PRT_Type* base, uint32_t pinNum);
 582:Generated_Source\PSoC6\pdl\drivers/peripheral/gpio/cy_gpio.h **** __STATIC_INLINE void Cy_GPIO_SetVohSel(GPIO_PRT_Type* base, uint32_t pinNum, uint32_t value);
 583:Generated_Source\PSoC6\pdl\drivers/peripheral/gpio/cy_gpio.h **** __STATIC_INLINE uint32_t Cy_GPIO_GetVohSel(GPIO_PRT_Type* base, uint32_t pinNum);
 584:Generated_Source\PSoC6\pdl\drivers/peripheral/gpio/cy_gpio.h **** 
 585:Generated_Source\PSoC6\pdl\drivers/peripheral/gpio/cy_gpio.h **** /** \} group_gpio_functions_sio */
 586:Generated_Source\PSoC6\pdl\drivers/peripheral/gpio/cy_gpio.h **** 
 587:Generated_Source\PSoC6\pdl\drivers/peripheral/gpio/cy_gpio.h **** /**
 588:Generated_Source\PSoC6\pdl\drivers/peripheral/gpio/cy_gpio.h **** * \addtogroup group_gpio_functions_interrupt
 589:Generated_Source\PSoC6\pdl\drivers/peripheral/gpio/cy_gpio.h **** * \{
 590:Generated_Source\PSoC6\pdl\drivers/peripheral/gpio/cy_gpio.h **** */
 591:Generated_Source\PSoC6\pdl\drivers/peripheral/gpio/cy_gpio.h **** 
 592:Generated_Source\PSoC6\pdl\drivers/peripheral/gpio/cy_gpio.h **** __STATIC_INLINE uint32_t Cy_GPIO_GetInterruptStatus(GPIO_PRT_Type* base, uint32_t pinNum);
 593:Generated_Source\PSoC6\pdl\drivers/peripheral/gpio/cy_gpio.h **** __STATIC_INLINE void Cy_GPIO_ClearInterrupt(GPIO_PRT_Type* base, uint32_t pinNum);
 594:Generated_Source\PSoC6\pdl\drivers/peripheral/gpio/cy_gpio.h **** __STATIC_INLINE void Cy_GPIO_SetInterruptMask(GPIO_PRT_Type* base, uint32_t pinNum, uint32_t value)
 595:Generated_Source\PSoC6\pdl\drivers/peripheral/gpio/cy_gpio.h **** __STATIC_INLINE uint32_t Cy_GPIO_GetInterruptMask(GPIO_PRT_Type* base, uint32_t pinNum);
 596:Generated_Source\PSoC6\pdl\drivers/peripheral/gpio/cy_gpio.h **** __STATIC_INLINE uint32_t Cy_GPIO_GetInterruptStatusMasked(GPIO_PRT_Type* base, uint32_t pinNum);
 597:Generated_Source\PSoC6\pdl\drivers/peripheral/gpio/cy_gpio.h **** __STATIC_INLINE void Cy_GPIO_SetSwInterrupt(GPIO_PRT_Type* base, uint32_t pinNum);
 598:Generated_Source\PSoC6\pdl\drivers/peripheral/gpio/cy_gpio.h **** __STATIC_INLINE void Cy_GPIO_SetInterruptEdge(GPIO_PRT_Type* base, uint32_t pinNum, uint32_t value)
 599:Generated_Source\PSoC6\pdl\drivers/peripheral/gpio/cy_gpio.h **** __STATIC_INLINE uint32_t Cy_GPIO_GetInterruptEdge(GPIO_PRT_Type* base, uint32_t pinNum);
 600:Generated_Source\PSoC6\pdl\drivers/peripheral/gpio/cy_gpio.h **** __STATIC_INLINE void Cy_GPIO_SetFilter(GPIO_PRT_Type* base, uint32_t value);
 601:Generated_Source\PSoC6\pdl\drivers/peripheral/gpio/cy_gpio.h **** __STATIC_INLINE uint32_t Cy_GPIO_GetFilter(GPIO_PRT_Type* base);
 602:Generated_Source\PSoC6\pdl\drivers/peripheral/gpio/cy_gpio.h **** 
 603:Generated_Source\PSoC6\pdl\drivers/peripheral/gpio/cy_gpio.h **** __STATIC_INLINE uint32_t Cy_GPIO_GetInterruptCause0(void);
 604:Generated_Source\PSoC6\pdl\drivers/peripheral/gpio/cy_gpio.h **** __STATIC_INLINE uint32_t Cy_GPIO_GetInterruptCause1(void);
 605:Generated_Source\PSoC6\pdl\drivers/peripheral/gpio/cy_gpio.h **** __STATIC_INLINE uint32_t Cy_GPIO_GetInterruptCause2(void);
 606:Generated_Source\PSoC6\pdl\drivers/peripheral/gpio/cy_gpio.h **** __STATIC_INLINE uint32_t Cy_GPIO_GetInterruptCause3(void);
 607:Generated_Source\PSoC6\pdl\drivers/peripheral/gpio/cy_gpio.h **** 
 608:Generated_Source\PSoC6\pdl\drivers/peripheral/gpio/cy_gpio.h **** /** \} group_gpio_functions_interrupt */
 609:Generated_Source\PSoC6\pdl\drivers/peripheral/gpio/cy_gpio.h **** 
 610:Generated_Source\PSoC6\pdl\drivers/peripheral/gpio/cy_gpio.h **** 
 611:Generated_Source\PSoC6\pdl\drivers/peripheral/gpio/cy_gpio.h **** /**
 612:Generated_Source\PSoC6\pdl\drivers/peripheral/gpio/cy_gpio.h **** * \addtogroup group_gpio_functions_init
 613:Generated_Source\PSoC6\pdl\drivers/peripheral/gpio/cy_gpio.h **** * \{
 614:Generated_Source\PSoC6\pdl\drivers/peripheral/gpio/cy_gpio.h **** */
 615:Generated_Source\PSoC6\pdl\drivers/peripheral/gpio/cy_gpio.h **** 
 616:Generated_Source\PSoC6\pdl\drivers/peripheral/gpio/cy_gpio.h **** /*******************************************************************************
 617:Generated_Source\PSoC6\pdl\drivers/peripheral/gpio/cy_gpio.h **** * Function Name: Cy_GPIO_SetHSIOM
 618:Generated_Source\PSoC6\pdl\drivers/peripheral/gpio/cy_gpio.h **** ****************************************************************************//**
 619:Generated_Source\PSoC6\pdl\drivers/peripheral/gpio/cy_gpio.h **** *
 620:Generated_Source\PSoC6\pdl\drivers/peripheral/gpio/cy_gpio.h **** * Configures the HSIOM connection to the pin.
 621:Generated_Source\PSoC6\pdl\drivers/peripheral/gpio/cy_gpio.h **** *
 622:Generated_Source\PSoC6\pdl\drivers/peripheral/gpio/cy_gpio.h **** * Connects the specified High-Speed Input Output Multiplexer (HSIOM) selection
 623:Generated_Source\PSoC6\pdl\drivers/peripheral/gpio/cy_gpio.h **** * to the pin.
 624:Generated_Source\PSoC6\pdl\drivers/peripheral/gpio/cy_gpio.h **** *
 625:Generated_Source\PSoC6\pdl\drivers/peripheral/gpio/cy_gpio.h **** * \param base
 626:Generated_Source\PSoC6\pdl\drivers/peripheral/gpio/cy_gpio.h **** * Pointer to the pin's port register base address
 627:Generated_Source\PSoC6\pdl\drivers/peripheral/gpio/cy_gpio.h **** *
 628:Generated_Source\PSoC6\pdl\drivers/peripheral/gpio/cy_gpio.h **** * \param pinNum
 629:Generated_Source\PSoC6\pdl\drivers/peripheral/gpio/cy_gpio.h **** * Position of the pin bit-field within the port register
 630:Generated_Source\PSoC6\pdl\drivers/peripheral/gpio/cy_gpio.h **** *
 631:Generated_Source\PSoC6\pdl\drivers/peripheral/gpio/cy_gpio.h **** * \param value
 632:Generated_Source\PSoC6\pdl\drivers/peripheral/gpio/cy_gpio.h **** * HSIOM input selection
ARM GAS  C:\Users\Angel\AppData\Local\Temp\ccvqOPgy.s 			page 27


 633:Generated_Source\PSoC6\pdl\drivers/peripheral/gpio/cy_gpio.h **** *
 634:Generated_Source\PSoC6\pdl\drivers/peripheral/gpio/cy_gpio.h **** * \note 
 635:Generated_Source\PSoC6\pdl\drivers/peripheral/gpio/cy_gpio.h **** * This function modifies a port register in a read-modify-write operation. It is
 636:Generated_Source\PSoC6\pdl\drivers/peripheral/gpio/cy_gpio.h **** * not thread safe as the resource is shared among multiple pins on a port.
 637:Generated_Source\PSoC6\pdl\drivers/peripheral/gpio/cy_gpio.h **** *
 638:Generated_Source\PSoC6\pdl\drivers/peripheral/gpio/cy_gpio.h **** * \funcusage
 639:Generated_Source\PSoC6\pdl\drivers/peripheral/gpio/cy_gpio.h **** * \snippet gpio/gpio_v1_10_sut_01.cydsn/main_cm4.c snippet_Cy_GPIO_SetHSIOM
 640:Generated_Source\PSoC6\pdl\drivers/peripheral/gpio/cy_gpio.h **** *
 641:Generated_Source\PSoC6\pdl\drivers/peripheral/gpio/cy_gpio.h **** *******************************************************************************/
 642:Generated_Source\PSoC6\pdl\drivers/peripheral/gpio/cy_gpio.h **** __STATIC_INLINE void Cy_GPIO_SetHSIOM(GPIO_PRT_Type* base, uint32_t pinNum, en_hsiom_sel_t value)
 643:Generated_Source\PSoC6\pdl\drivers/peripheral/gpio/cy_gpio.h **** {
 644:Generated_Source\PSoC6\pdl\drivers/peripheral/gpio/cy_gpio.h ****     uint32_t portNum;
 645:Generated_Source\PSoC6\pdl\drivers/peripheral/gpio/cy_gpio.h ****     uint32_t tempReg;
 646:Generated_Source\PSoC6\pdl\drivers/peripheral/gpio/cy_gpio.h ****     HSIOM_PRT_V1_Type* portAddrHSIOM;
 647:Generated_Source\PSoC6\pdl\drivers/peripheral/gpio/cy_gpio.h **** 
 648:Generated_Source\PSoC6\pdl\drivers/peripheral/gpio/cy_gpio.h ****     CY_ASSERT_L2(CY_GPIO_IS_PIN_VALID(pinNum));
 649:Generated_Source\PSoC6\pdl\drivers/peripheral/gpio/cy_gpio.h ****     CY_ASSERT_L2(CY_GPIO_IS_HSIOM_VALID(value));
 650:Generated_Source\PSoC6\pdl\drivers/peripheral/gpio/cy_gpio.h **** 
 651:Generated_Source\PSoC6\pdl\drivers/peripheral/gpio/cy_gpio.h ****     portNum = ((uint32_t)(base) - CY_GPIO_BASE) / GPIO_PRT_SECTION_SIZE;
 652:Generated_Source\PSoC6\pdl\drivers/peripheral/gpio/cy_gpio.h ****     portAddrHSIOM = (HSIOM_PRT_V1_Type*)(CY_HSIOM_BASE + (HSIOM_PRT_SECTION_SIZE * portNum));
 653:Generated_Source\PSoC6\pdl\drivers/peripheral/gpio/cy_gpio.h **** 
 654:Generated_Source\PSoC6\pdl\drivers/peripheral/gpio/cy_gpio.h ****     if(pinNum < CY_GPIO_PRT_HALF)
 655:Generated_Source\PSoC6\pdl\drivers/peripheral/gpio/cy_gpio.h ****     {
 656:Generated_Source\PSoC6\pdl\drivers/peripheral/gpio/cy_gpio.h ****         tempReg = HSIOM_PRT_PORT_SEL0(portAddrHSIOM) & ~(CY_GPIO_HSIOM_MASK << (pinNum << CY_GPIO_H
 657:Generated_Source\PSoC6\pdl\drivers/peripheral/gpio/cy_gpio.h ****         HSIOM_PRT_PORT_SEL0(portAddrHSIOM) = tempReg | ((value & CY_GPIO_HSIOM_MASK) << (pinNum << 
 658:Generated_Source\PSoC6\pdl\drivers/peripheral/gpio/cy_gpio.h ****     }
 659:Generated_Source\PSoC6\pdl\drivers/peripheral/gpio/cy_gpio.h ****     else
 660:Generated_Source\PSoC6\pdl\drivers/peripheral/gpio/cy_gpio.h ****     {
 661:Generated_Source\PSoC6\pdl\drivers/peripheral/gpio/cy_gpio.h ****         pinNum -= CY_GPIO_PRT_HALF;
 662:Generated_Source\PSoC6\pdl\drivers/peripheral/gpio/cy_gpio.h ****         tempReg = HSIOM_PRT_PORT_SEL1(portAddrHSIOM) & ~(CY_GPIO_HSIOM_MASK << (pinNum << CY_GPIO_H
 663:Generated_Source\PSoC6\pdl\drivers/peripheral/gpio/cy_gpio.h ****         HSIOM_PRT_PORT_SEL1(portAddrHSIOM) = tempReg | ((value & CY_GPIO_HSIOM_MASK) << (pinNum << 
 664:Generated_Source\PSoC6\pdl\drivers/peripheral/gpio/cy_gpio.h ****     }
 665:Generated_Source\PSoC6\pdl\drivers/peripheral/gpio/cy_gpio.h **** }
 666:Generated_Source\PSoC6\pdl\drivers/peripheral/gpio/cy_gpio.h **** 
 667:Generated_Source\PSoC6\pdl\drivers/peripheral/gpio/cy_gpio.h **** 
 668:Generated_Source\PSoC6\pdl\drivers/peripheral/gpio/cy_gpio.h **** /*******************************************************************************
 669:Generated_Source\PSoC6\pdl\drivers/peripheral/gpio/cy_gpio.h **** * Function Name: Cy_GPIO_GetHSIOM
 670:Generated_Source\PSoC6\pdl\drivers/peripheral/gpio/cy_gpio.h **** ****************************************************************************//**
 671:Generated_Source\PSoC6\pdl\drivers/peripheral/gpio/cy_gpio.h **** *
 672:Generated_Source\PSoC6\pdl\drivers/peripheral/gpio/cy_gpio.h **** * Returns the current HSIOM multiplexer connection to the pin.
 673:Generated_Source\PSoC6\pdl\drivers/peripheral/gpio/cy_gpio.h **** *
 674:Generated_Source\PSoC6\pdl\drivers/peripheral/gpio/cy_gpio.h **** * \param base
 675:Generated_Source\PSoC6\pdl\drivers/peripheral/gpio/cy_gpio.h **** * Pointer to the pin's port register base address
 676:Generated_Source\PSoC6\pdl\drivers/peripheral/gpio/cy_gpio.h **** *
 677:Generated_Source\PSoC6\pdl\drivers/peripheral/gpio/cy_gpio.h **** * \param pinNum
 678:Generated_Source\PSoC6\pdl\drivers/peripheral/gpio/cy_gpio.h **** * Position of the pin bit-field within the port register
 679:Generated_Source\PSoC6\pdl\drivers/peripheral/gpio/cy_gpio.h **** *
 680:Generated_Source\PSoC6\pdl\drivers/peripheral/gpio/cy_gpio.h **** * \return
 681:Generated_Source\PSoC6\pdl\drivers/peripheral/gpio/cy_gpio.h **** * HSIOM input selection
 682:Generated_Source\PSoC6\pdl\drivers/peripheral/gpio/cy_gpio.h **** *
 683:Generated_Source\PSoC6\pdl\drivers/peripheral/gpio/cy_gpio.h **** * \funcusage
 684:Generated_Source\PSoC6\pdl\drivers/peripheral/gpio/cy_gpio.h **** * \snippet gpio/gpio_v1_10_sut_01.cydsn/main_cm4.c snippet_Cy_GPIO_SetHSIOM
 685:Generated_Source\PSoC6\pdl\drivers/peripheral/gpio/cy_gpio.h **** *
 686:Generated_Source\PSoC6\pdl\drivers/peripheral/gpio/cy_gpio.h **** *******************************************************************************/
 687:Generated_Source\PSoC6\pdl\drivers/peripheral/gpio/cy_gpio.h **** __STATIC_INLINE en_hsiom_sel_t Cy_GPIO_GetHSIOM(GPIO_PRT_Type* base, uint32_t pinNum)
 688:Generated_Source\PSoC6\pdl\drivers/peripheral/gpio/cy_gpio.h **** {
 689:Generated_Source\PSoC6\pdl\drivers/peripheral/gpio/cy_gpio.h ****     uint32_t returnValue;
ARM GAS  C:\Users\Angel\AppData\Local\Temp\ccvqOPgy.s 			page 28


 690:Generated_Source\PSoC6\pdl\drivers/peripheral/gpio/cy_gpio.h ****     uint32_t portNum;
 691:Generated_Source\PSoC6\pdl\drivers/peripheral/gpio/cy_gpio.h ****     HSIOM_PRT_V1_Type* portAddrHSIOM;
 692:Generated_Source\PSoC6\pdl\drivers/peripheral/gpio/cy_gpio.h ****     
 693:Generated_Source\PSoC6\pdl\drivers/peripheral/gpio/cy_gpio.h ****     CY_ASSERT_L2(CY_GPIO_IS_PIN_VALID(pinNum));
 694:Generated_Source\PSoC6\pdl\drivers/peripheral/gpio/cy_gpio.h **** 
 695:Generated_Source\PSoC6\pdl\drivers/peripheral/gpio/cy_gpio.h ****     portNum = ((uint32_t)(base) - CY_GPIO_BASE) / GPIO_PRT_SECTION_SIZE;
 696:Generated_Source\PSoC6\pdl\drivers/peripheral/gpio/cy_gpio.h ****     portAddrHSIOM = (HSIOM_PRT_V1_Type*)(CY_HSIOM_BASE + (HSIOM_PRT_SECTION_SIZE * portNum));
 697:Generated_Source\PSoC6\pdl\drivers/peripheral/gpio/cy_gpio.h **** 
 698:Generated_Source\PSoC6\pdl\drivers/peripheral/gpio/cy_gpio.h ****     if(pinNum < CY_GPIO_PRT_HALF)
 699:Generated_Source\PSoC6\pdl\drivers/peripheral/gpio/cy_gpio.h ****     {
 700:Generated_Source\PSoC6\pdl\drivers/peripheral/gpio/cy_gpio.h ****         returnValue = (HSIOM_PRT_PORT_SEL0(portAddrHSIOM) >> (pinNum << CY_GPIO_HSIOM_OFFSET)) & CY
 701:Generated_Source\PSoC6\pdl\drivers/peripheral/gpio/cy_gpio.h ****     }
 702:Generated_Source\PSoC6\pdl\drivers/peripheral/gpio/cy_gpio.h ****     else
 703:Generated_Source\PSoC6\pdl\drivers/peripheral/gpio/cy_gpio.h ****     {
 704:Generated_Source\PSoC6\pdl\drivers/peripheral/gpio/cy_gpio.h ****         pinNum -= CY_GPIO_PRT_HALF;
 705:Generated_Source\PSoC6\pdl\drivers/peripheral/gpio/cy_gpio.h ****         returnValue = (HSIOM_PRT_PORT_SEL1(portAddrHSIOM) >> (pinNum << CY_GPIO_HSIOM_OFFSET)) & CY
 706:Generated_Source\PSoC6\pdl\drivers/peripheral/gpio/cy_gpio.h ****     }
 707:Generated_Source\PSoC6\pdl\drivers/peripheral/gpio/cy_gpio.h **** 
 708:Generated_Source\PSoC6\pdl\drivers/peripheral/gpio/cy_gpio.h ****     return (en_hsiom_sel_t)returnValue;
 709:Generated_Source\PSoC6\pdl\drivers/peripheral/gpio/cy_gpio.h **** }
 710:Generated_Source\PSoC6\pdl\drivers/peripheral/gpio/cy_gpio.h **** 
 711:Generated_Source\PSoC6\pdl\drivers/peripheral/gpio/cy_gpio.h **** 
 712:Generated_Source\PSoC6\pdl\drivers/peripheral/gpio/cy_gpio.h **** /*******************************************************************************
 713:Generated_Source\PSoC6\pdl\drivers/peripheral/gpio/cy_gpio.h **** * Function Name: Cy_GPIO_PortToAddr
 714:Generated_Source\PSoC6\pdl\drivers/peripheral/gpio/cy_gpio.h **** ****************************************************************************//**
 715:Generated_Source\PSoC6\pdl\drivers/peripheral/gpio/cy_gpio.h **** *
 716:Generated_Source\PSoC6\pdl\drivers/peripheral/gpio/cy_gpio.h **** * Retrieves the port address based on the given port number.
 717:Generated_Source\PSoC6\pdl\drivers/peripheral/gpio/cy_gpio.h **** *
 718:Generated_Source\PSoC6\pdl\drivers/peripheral/gpio/cy_gpio.h **** * This is a helper function to calculate the port base address when given a port
 719:Generated_Source\PSoC6\pdl\drivers/peripheral/gpio/cy_gpio.h **** * number. It is to be used when pin access needs to be calculated at runtime.
 720:Generated_Source\PSoC6\pdl\drivers/peripheral/gpio/cy_gpio.h **** *
 721:Generated_Source\PSoC6\pdl\drivers/peripheral/gpio/cy_gpio.h **** * \param portNum
 722:Generated_Source\PSoC6\pdl\drivers/peripheral/gpio/cy_gpio.h **** * Port number
 723:Generated_Source\PSoC6\pdl\drivers/peripheral/gpio/cy_gpio.h **** *
 724:Generated_Source\PSoC6\pdl\drivers/peripheral/gpio/cy_gpio.h **** * \return
 725:Generated_Source\PSoC6\pdl\drivers/peripheral/gpio/cy_gpio.h **** * Base address of the port register structure
 726:Generated_Source\PSoC6\pdl\drivers/peripheral/gpio/cy_gpio.h **** *
 727:Generated_Source\PSoC6\pdl\drivers/peripheral/gpio/cy_gpio.h **** * \funcusage
 728:Generated_Source\PSoC6\pdl\drivers/peripheral/gpio/cy_gpio.h **** * \snippet gpio/gpio_v1_10_sut_01.cydsn/main_cm4.c snippet_Cy_GPIO_PortToAddr
 729:Generated_Source\PSoC6\pdl\drivers/peripheral/gpio/cy_gpio.h **** *
 730:Generated_Source\PSoC6\pdl\drivers/peripheral/gpio/cy_gpio.h **** *******************************************************************************/
 731:Generated_Source\PSoC6\pdl\drivers/peripheral/gpio/cy_gpio.h **** __STATIC_INLINE GPIO_PRT_Type* Cy_GPIO_PortToAddr(uint32_t portNum)
 732:Generated_Source\PSoC6\pdl\drivers/peripheral/gpio/cy_gpio.h **** {
 733:Generated_Source\PSoC6\pdl\drivers/peripheral/gpio/cy_gpio.h ****     GPIO_PRT_Type* portBase;
 734:Generated_Source\PSoC6\pdl\drivers/peripheral/gpio/cy_gpio.h ****     
 735:Generated_Source\PSoC6\pdl\drivers/peripheral/gpio/cy_gpio.h ****     if(portNum < (uint32_t)IOSS_GPIO_GPIO_PORT_NR)
 736:Generated_Source\PSoC6\pdl\drivers/peripheral/gpio/cy_gpio.h ****     {
 737:Generated_Source\PSoC6\pdl\drivers/peripheral/gpio/cy_gpio.h ****         portBase = (GPIO_PRT_Type *)(CY_GPIO_BASE + (GPIO_PRT_SECTION_SIZE * portNum));
 738:Generated_Source\PSoC6\pdl\drivers/peripheral/gpio/cy_gpio.h ****     }
 739:Generated_Source\PSoC6\pdl\drivers/peripheral/gpio/cy_gpio.h ****     else
 740:Generated_Source\PSoC6\pdl\drivers/peripheral/gpio/cy_gpio.h ****     {
 741:Generated_Source\PSoC6\pdl\drivers/peripheral/gpio/cy_gpio.h ****         /* Error: Return default base address */
 742:Generated_Source\PSoC6\pdl\drivers/peripheral/gpio/cy_gpio.h ****         portBase = (GPIO_PRT_Type *)(CY_GPIO_BASE);
 743:Generated_Source\PSoC6\pdl\drivers/peripheral/gpio/cy_gpio.h ****     }
 744:Generated_Source\PSoC6\pdl\drivers/peripheral/gpio/cy_gpio.h **** 
 745:Generated_Source\PSoC6\pdl\drivers/peripheral/gpio/cy_gpio.h ****     return (portBase);
 746:Generated_Source\PSoC6\pdl\drivers/peripheral/gpio/cy_gpio.h **** }
ARM GAS  C:\Users\Angel\AppData\Local\Temp\ccvqOPgy.s 			page 29


 747:Generated_Source\PSoC6\pdl\drivers/peripheral/gpio/cy_gpio.h **** 
 748:Generated_Source\PSoC6\pdl\drivers/peripheral/gpio/cy_gpio.h **** /** \} group_gpio_functions_init */
 749:Generated_Source\PSoC6\pdl\drivers/peripheral/gpio/cy_gpio.h **** 
 750:Generated_Source\PSoC6\pdl\drivers/peripheral/gpio/cy_gpio.h **** /**
 751:Generated_Source\PSoC6\pdl\drivers/peripheral/gpio/cy_gpio.h **** * \addtogroup group_gpio_functions_gpio
 752:Generated_Source\PSoC6\pdl\drivers/peripheral/gpio/cy_gpio.h **** * \{
 753:Generated_Source\PSoC6\pdl\drivers/peripheral/gpio/cy_gpio.h **** */
 754:Generated_Source\PSoC6\pdl\drivers/peripheral/gpio/cy_gpio.h **** 
 755:Generated_Source\PSoC6\pdl\drivers/peripheral/gpio/cy_gpio.h **** /*******************************************************************************
 756:Generated_Source\PSoC6\pdl\drivers/peripheral/gpio/cy_gpio.h **** * Function Name: Cy_GPIO_Read
 757:Generated_Source\PSoC6\pdl\drivers/peripheral/gpio/cy_gpio.h **** ****************************************************************************//**
 758:Generated_Source\PSoC6\pdl\drivers/peripheral/gpio/cy_gpio.h **** *
 759:Generated_Source\PSoC6\pdl\drivers/peripheral/gpio/cy_gpio.h **** * Reads the current logic level on the input buffer of the pin.
 760:Generated_Source\PSoC6\pdl\drivers/peripheral/gpio/cy_gpio.h **** *
 761:Generated_Source\PSoC6\pdl\drivers/peripheral/gpio/cy_gpio.h **** * \param base
 762:Generated_Source\PSoC6\pdl\drivers/peripheral/gpio/cy_gpio.h **** * Pointer to the pin's port register base address
 763:Generated_Source\PSoC6\pdl\drivers/peripheral/gpio/cy_gpio.h **** *
 764:Generated_Source\PSoC6\pdl\drivers/peripheral/gpio/cy_gpio.h **** * \param pinNum
 765:Generated_Source\PSoC6\pdl\drivers/peripheral/gpio/cy_gpio.h **** * Position of the pin bit-field within the port register.
 766:Generated_Source\PSoC6\pdl\drivers/peripheral/gpio/cy_gpio.h **** * Bit position 8 is the routed pin through the port glitch filter.
 767:Generated_Source\PSoC6\pdl\drivers/peripheral/gpio/cy_gpio.h **** *
 768:Generated_Source\PSoC6\pdl\drivers/peripheral/gpio/cy_gpio.h **** * \return
 769:Generated_Source\PSoC6\pdl\drivers/peripheral/gpio/cy_gpio.h **** * Logic level present on the pin
 770:Generated_Source\PSoC6\pdl\drivers/peripheral/gpio/cy_gpio.h **** *
 771:Generated_Source\PSoC6\pdl\drivers/peripheral/gpio/cy_gpio.h **** * \funcusage
 772:Generated_Source\PSoC6\pdl\drivers/peripheral/gpio/cy_gpio.h **** * \snippet gpio/gpio_v1_10_sut_01.cydsn/main_cm4.c snippet_Cy_GPIO_Read
 773:Generated_Source\PSoC6\pdl\drivers/peripheral/gpio/cy_gpio.h **** *
 774:Generated_Source\PSoC6\pdl\drivers/peripheral/gpio/cy_gpio.h **** *******************************************************************************/
 775:Generated_Source\PSoC6\pdl\drivers/peripheral/gpio/cy_gpio.h **** __STATIC_INLINE uint32_t Cy_GPIO_Read(GPIO_PRT_Type* base, uint32_t pinNum)
 776:Generated_Source\PSoC6\pdl\drivers/peripheral/gpio/cy_gpio.h **** {
 777:Generated_Source\PSoC6\pdl\drivers/peripheral/gpio/cy_gpio.h ****     CY_ASSERT_L2(CY_GPIO_IS_FILTER_PIN_VALID(pinNum));
 778:Generated_Source\PSoC6\pdl\drivers/peripheral/gpio/cy_gpio.h ****     
 779:Generated_Source\PSoC6\pdl\drivers/peripheral/gpio/cy_gpio.h ****     return (GPIO_PRT_IN(base) >> (pinNum)) & CY_GPIO_IN_MASK;
 780:Generated_Source\PSoC6\pdl\drivers/peripheral/gpio/cy_gpio.h **** }
 781:Generated_Source\PSoC6\pdl\drivers/peripheral/gpio/cy_gpio.h **** 
 782:Generated_Source\PSoC6\pdl\drivers/peripheral/gpio/cy_gpio.h **** 
 783:Generated_Source\PSoC6\pdl\drivers/peripheral/gpio/cy_gpio.h **** /*******************************************************************************
 784:Generated_Source\PSoC6\pdl\drivers/peripheral/gpio/cy_gpio.h **** * Function Name: Cy_GPIO_Write
 785:Generated_Source\PSoC6\pdl\drivers/peripheral/gpio/cy_gpio.h **** ****************************************************************************//**
 786:Generated_Source\PSoC6\pdl\drivers/peripheral/gpio/cy_gpio.h **** *
 787:Generated_Source\PSoC6\pdl\drivers/peripheral/gpio/cy_gpio.h **** * Write a logic 0 or logic 1 state to the output driver.
 788:Generated_Source\PSoC6\pdl\drivers/peripheral/gpio/cy_gpio.h **** *
 789:Generated_Source\PSoC6\pdl\drivers/peripheral/gpio/cy_gpio.h **** * This function should be used only for software driven pins. It does not have
 790:Generated_Source\PSoC6\pdl\drivers/peripheral/gpio/cy_gpio.h **** * any effect on peripheral driven pins.
 791:Generated_Source\PSoC6\pdl\drivers/peripheral/gpio/cy_gpio.h **** *
 792:Generated_Source\PSoC6\pdl\drivers/peripheral/gpio/cy_gpio.h **** * \param base
 793:Generated_Source\PSoC6\pdl\drivers/peripheral/gpio/cy_gpio.h **** * Pointer to the pin's port register base address
 794:Generated_Source\PSoC6\pdl\drivers/peripheral/gpio/cy_gpio.h **** *
 795:Generated_Source\PSoC6\pdl\drivers/peripheral/gpio/cy_gpio.h **** * \param pinNum
 796:Generated_Source\PSoC6\pdl\drivers/peripheral/gpio/cy_gpio.h **** * Position of the pin bit-field within the port register
 797:Generated_Source\PSoC6\pdl\drivers/peripheral/gpio/cy_gpio.h **** *
 798:Generated_Source\PSoC6\pdl\drivers/peripheral/gpio/cy_gpio.h **** * \param value
 799:Generated_Source\PSoC6\pdl\drivers/peripheral/gpio/cy_gpio.h **** * Logic level to drive out on the pin
 800:Generated_Source\PSoC6\pdl\drivers/peripheral/gpio/cy_gpio.h **** *
 801:Generated_Source\PSoC6\pdl\drivers/peripheral/gpio/cy_gpio.h **** * \funcusage
 802:Generated_Source\PSoC6\pdl\drivers/peripheral/gpio/cy_gpio.h **** * \snippet gpio/gpio_v1_10_sut_01.cydsn/main_cm4.c snippet_Cy_GPIO_Write
 803:Generated_Source\PSoC6\pdl\drivers/peripheral/gpio/cy_gpio.h **** *
ARM GAS  C:\Users\Angel\AppData\Local\Temp\ccvqOPgy.s 			page 30


 804:Generated_Source\PSoC6\pdl\drivers/peripheral/gpio/cy_gpio.h **** *******************************************************************************/
 805:Generated_Source\PSoC6\pdl\drivers/peripheral/gpio/cy_gpio.h **** __STATIC_INLINE void Cy_GPIO_Write(GPIO_PRT_Type* base, uint32_t pinNum, uint32_t value)
 806:Generated_Source\PSoC6\pdl\drivers/peripheral/gpio/cy_gpio.h **** {
 807:Generated_Source\PSoC6\pdl\drivers/peripheral/gpio/cy_gpio.h ****     CY_ASSERT_L2(CY_GPIO_IS_PIN_VALID(pinNum));
 808:Generated_Source\PSoC6\pdl\drivers/peripheral/gpio/cy_gpio.h ****     CY_ASSERT_L2(CY_GPIO_IS_VALUE_VALID(value));
 809:Generated_Source\PSoC6\pdl\drivers/peripheral/gpio/cy_gpio.h **** 
 810:Generated_Source\PSoC6\pdl\drivers/peripheral/gpio/cy_gpio.h ****     /* Thread-safe: Directly access the pin registers instead of base->OUT */
 811:Generated_Source\PSoC6\pdl\drivers/peripheral/gpio/cy_gpio.h ****     if(0UL == value)
 812:Generated_Source\PSoC6\pdl\drivers/peripheral/gpio/cy_gpio.h ****     {
 813:Generated_Source\PSoC6\pdl\drivers/peripheral/gpio/cy_gpio.h ****         GPIO_PRT_OUT_CLR(base) = CY_GPIO_OUT_MASK << pinNum;
 394              		.loc 2 813 0
 395 001a 504B     		ldr	r3, .L54
 396 001c 0122     		movs	r2, #1
 397 001e 5A60     		str	r2, [r3, #4]
 398              	.LVL18:
 399              	.LBE291:
 400              	.LBE290:
 401              	.LBB292:
 402              	.LBB293:
 403 0020 0222     		movs	r2, #2
 404 0022 5A60     		str	r2, [r3, #4]
 405              	.LVL19:
 406              	.LBE293:
 407              	.LBE292:
 408              	.LBB294:
 409              	.LBB295:
 410 0024 0422     		movs	r2, #4
 411 0026 5A60     		str	r2, [r3, #4]
 412              	.LVL20:
 413              	.LBE295:
 414              	.LBE294:
 415              	.LBB296:
 416              	.LBB297:
 417 0028 0822     		movs	r2, #8
 418 002a 5A60     		str	r2, [r3, #4]
 419 002c 7047     		bx	lr
 420              	.LVL21:
 421              	.L39:
 422              	.LBE297:
 423              	.LBE296:
 424              	.LBB298:
 425              	.LBB299:
 814:Generated_Source\PSoC6\pdl\drivers/peripheral/gpio/cy_gpio.h ****     }
 815:Generated_Source\PSoC6\pdl\drivers/peripheral/gpio/cy_gpio.h ****     else
 816:Generated_Source\PSoC6\pdl\drivers/peripheral/gpio/cy_gpio.h ****     {
 817:Generated_Source\PSoC6\pdl\drivers/peripheral/gpio/cy_gpio.h ****         GPIO_PRT_OUT_SET(base) = CY_GPIO_OUT_MASK << pinNum;
 426              		.loc 2 817 0
 427 002e 4B4B     		ldr	r3, .L54
 428 0030 0122     		movs	r2, #1
 429 0032 9A60     		str	r2, [r3, #8]
 430              	.LVL22:
 431              	.LBE299:
 432              	.LBE298:
 433              	.LBB300:
 434              	.LBB301:
 813:Generated_Source\PSoC6\pdl\drivers/peripheral/gpio/cy_gpio.h ****     }
 435              		.loc 2 813 0
ARM GAS  C:\Users\Angel\AppData\Local\Temp\ccvqOPgy.s 			page 31


 436 0034 0222     		movs	r2, #2
 437 0036 5A60     		str	r2, [r3, #4]
 438              	.LVL23:
 439              	.LBE301:
 440              	.LBE300:
 441              	.LBB302:
 442              	.LBB303:
 443 0038 0422     		movs	r2, #4
 444 003a 5A60     		str	r2, [r3, #4]
 445              	.LVL24:
 446              	.LBE303:
 447              	.LBE302:
 448              	.LBB304:
 449              	.LBB305:
 450 003c 0822     		movs	r2, #8
 451 003e 5A60     		str	r2, [r3, #4]
 452 0040 7047     		bx	lr
 453              	.LVL25:
 454              	.L40:
 455              	.LBE305:
 456              	.LBE304:
 457              	.LBB306:
 458              	.LBB307:
 459 0042 464B     		ldr	r3, .L54
 460 0044 0122     		movs	r2, #1
 461 0046 5A60     		str	r2, [r3, #4]
 462              	.LVL26:
 463              	.LBE307:
 464              	.LBE306:
 465              	.LBB308:
 466              	.LBB309:
 467              		.loc 2 817 0
 468 0048 0222     		movs	r2, #2
 469 004a 9A60     		str	r2, [r3, #8]
 470              	.LVL27:
 471              	.LBE309:
 472              	.LBE308:
 473              	.LBB310:
 474              	.LBB311:
 813:Generated_Source\PSoC6\pdl\drivers/peripheral/gpio/cy_gpio.h ****     }
 475              		.loc 2 813 0
 476 004c 0422     		movs	r2, #4
 477 004e 5A60     		str	r2, [r3, #4]
 478              	.LVL28:
 479              	.LBE311:
 480              	.LBE310:
 481              	.LBB312:
 482              	.LBB313:
 483 0050 0822     		movs	r2, #8
 484 0052 5A60     		str	r2, [r3, #4]
 485 0054 7047     		bx	lr
 486              	.LVL29:
 487              	.L41:
 488              	.LBE313:
 489              	.LBE312:
 490              	.LBB314:
 491              	.LBB315:
ARM GAS  C:\Users\Angel\AppData\Local\Temp\ccvqOPgy.s 			page 32


 492              		.loc 2 817 0
 493 0056 414B     		ldr	r3, .L54
 494 0058 0122     		movs	r2, #1
 495 005a 9A60     		str	r2, [r3, #8]
 496              	.LVL30:
 497              	.LBE315:
 498              	.LBE314:
 499              	.LBB316:
 500              	.LBB317:
 501 005c 0222     		movs	r2, #2
 502 005e 9A60     		str	r2, [r3, #8]
 503              	.LVL31:
 504              	.LBE317:
 505              	.LBE316:
 506              	.LBB318:
 507              	.LBB319:
 813:Generated_Source\PSoC6\pdl\drivers/peripheral/gpio/cy_gpio.h ****     }
 508              		.loc 2 813 0
 509 0060 0422     		movs	r2, #4
 510 0062 5A60     		str	r2, [r3, #4]
 511              	.LVL32:
 512              	.LBE319:
 513              	.LBE318:
 514              	.LBB320:
 515              	.LBB321:
 516 0064 0822     		movs	r2, #8
 517 0066 5A60     		str	r2, [r3, #4]
 518 0068 7047     		bx	lr
 519              	.LVL33:
 520              	.L42:
 521              	.LBE321:
 522              	.LBE320:
 523              	.LBB322:
 524              	.LBB323:
 525 006a 3C4B     		ldr	r3, .L54
 526 006c 0122     		movs	r2, #1
 527 006e 5A60     		str	r2, [r3, #4]
 528              	.LVL34:
 529              	.LBE323:
 530              	.LBE322:
 531              	.LBB324:
 532              	.LBB325:
 533 0070 0222     		movs	r2, #2
 534 0072 5A60     		str	r2, [r3, #4]
 535              	.LVL35:
 536              	.LBE325:
 537              	.LBE324:
 538              	.LBB326:
 539              	.LBB327:
 540              		.loc 2 817 0
 541 0074 0422     		movs	r2, #4
 542 0076 9A60     		str	r2, [r3, #8]
 543              	.LVL36:
 544              	.LBE327:
 545              	.LBE326:
 546              	.LBB328:
 547              	.LBB329:
ARM GAS  C:\Users\Angel\AppData\Local\Temp\ccvqOPgy.s 			page 33


 813:Generated_Source\PSoC6\pdl\drivers/peripheral/gpio/cy_gpio.h ****     }
 548              		.loc 2 813 0
 549 0078 0822     		movs	r2, #8
 550 007a 5A60     		str	r2, [r3, #4]
 551 007c 7047     		bx	lr
 552              	.LVL37:
 553              	.L43:
 554              	.LBE329:
 555              	.LBE328:
 556              	.LBB330:
 557              	.LBB331:
 558              		.loc 2 817 0
 559 007e 374B     		ldr	r3, .L54
 560 0080 0122     		movs	r2, #1
 561 0082 9A60     		str	r2, [r3, #8]
 562              	.LVL38:
 563              	.LBE331:
 564              	.LBE330:
 565              	.LBB332:
 566              	.LBB333:
 813:Generated_Source\PSoC6\pdl\drivers/peripheral/gpio/cy_gpio.h ****     }
 567              		.loc 2 813 0
 568 0084 0222     		movs	r2, #2
 569 0086 5A60     		str	r2, [r3, #4]
 570              	.LVL39:
 571              	.LBE333:
 572              	.LBE332:
 573              	.LBB334:
 574              	.LBB335:
 575              		.loc 2 817 0
 576 0088 0422     		movs	r2, #4
 577 008a 9A60     		str	r2, [r3, #8]
 578              	.LVL40:
 579              	.LBE335:
 580              	.LBE334:
 581              	.LBB336:
 582              	.LBB337:
 813:Generated_Source\PSoC6\pdl\drivers/peripheral/gpio/cy_gpio.h ****     }
 583              		.loc 2 813 0
 584 008c 0822     		movs	r2, #8
 585 008e 5A60     		str	r2, [r3, #4]
 586 0090 7047     		bx	lr
 587              	.LVL41:
 588              	.L44:
 589              	.LBE337:
 590              	.LBE336:
 591              	.LBB338:
 592              	.LBB339:
 593 0092 324B     		ldr	r3, .L54
 594 0094 0122     		movs	r2, #1
 595 0096 5A60     		str	r2, [r3, #4]
 596              	.LVL42:
 597              	.LBE339:
 598              	.LBE338:
 599              	.LBB340:
 600              	.LBB341:
 601              		.loc 2 817 0
ARM GAS  C:\Users\Angel\AppData\Local\Temp\ccvqOPgy.s 			page 34


 602 0098 0222     		movs	r2, #2
 603 009a 9A60     		str	r2, [r3, #8]
 604              	.LVL43:
 605              	.LBE341:
 606              	.LBE340:
 607              	.LBB342:
 608              	.LBB343:
 609 009c 0422     		movs	r2, #4
 610 009e 9A60     		str	r2, [r3, #8]
 611              	.LVL44:
 612              	.LBE343:
 613              	.LBE342:
 614              	.LBB344:
 615              	.LBB345:
 813:Generated_Source\PSoC6\pdl\drivers/peripheral/gpio/cy_gpio.h ****     }
 616              		.loc 2 813 0
 617 00a0 0822     		movs	r2, #8
 618 00a2 5A60     		str	r2, [r3, #4]
 619 00a4 7047     		bx	lr
 620              	.LVL45:
 621              	.L45:
 622              	.LBE345:
 623              	.LBE344:
 624              	.LBB346:
 625              	.LBB347:
 626              		.loc 2 817 0
 627 00a6 2D4B     		ldr	r3, .L54
 628 00a8 0122     		movs	r2, #1
 629 00aa 9A60     		str	r2, [r3, #8]
 630              	.LVL46:
 631              	.LBE347:
 632              	.LBE346:
 633              	.LBB348:
 634              	.LBB349:
 635 00ac 0222     		movs	r2, #2
 636 00ae 9A60     		str	r2, [r3, #8]
 637              	.LVL47:
 638              	.LBE349:
 639              	.LBE348:
 640              	.LBB350:
 641              	.LBB351:
 642 00b0 0422     		movs	r2, #4
 643 00b2 9A60     		str	r2, [r3, #8]
 644              	.LVL48:
 645              	.LBE351:
 646              	.LBE350:
 647              	.LBB352:
 648              	.LBB353:
 813:Generated_Source\PSoC6\pdl\drivers/peripheral/gpio/cy_gpio.h ****     }
 649              		.loc 2 813 0
 650 00b4 0822     		movs	r2, #8
 651 00b6 5A60     		str	r2, [r3, #4]
 652 00b8 7047     		bx	lr
 653              	.LVL49:
 654              	.L46:
 655              	.LBE353:
 656              	.LBE352:
ARM GAS  C:\Users\Angel\AppData\Local\Temp\ccvqOPgy.s 			page 35


 657              	.LBB354:
 658              	.LBB355:
 659 00ba 284B     		ldr	r3, .L54
 660 00bc 0122     		movs	r2, #1
 661 00be 5A60     		str	r2, [r3, #4]
 662              	.LVL50:
 663              	.LBE355:
 664              	.LBE354:
 665              	.LBB356:
 666              	.LBB357:
 667 00c0 0222     		movs	r2, #2
 668 00c2 5A60     		str	r2, [r3, #4]
 669              	.LVL51:
 670              	.LBE357:
 671              	.LBE356:
 672              	.LBB358:
 673              	.LBB359:
 674 00c4 0422     		movs	r2, #4
 675 00c6 5A60     		str	r2, [r3, #4]
 676              	.LVL52:
 677              	.LBE359:
 678              	.LBE358:
 679              	.LBB360:
 680              	.LBB361:
 681              		.loc 2 817 0
 682 00c8 0822     		movs	r2, #8
 683 00ca 9A60     		str	r2, [r3, #8]
 684 00cc 7047     		bx	lr
 685              	.LVL53:
 686              	.L47:
 687              	.LBE361:
 688              	.LBE360:
 689              	.LBB362:
 690              	.LBB363:
 691 00ce 234B     		ldr	r3, .L54
 692 00d0 0122     		movs	r2, #1
 693 00d2 9A60     		str	r2, [r3, #8]
 694              	.LVL54:
 695              	.LBE363:
 696              	.LBE362:
 697              	.LBB364:
 698              	.LBB365:
 813:Generated_Source\PSoC6\pdl\drivers/peripheral/gpio/cy_gpio.h ****     }
 699              		.loc 2 813 0
 700 00d4 0222     		movs	r2, #2
 701 00d6 5A60     		str	r2, [r3, #4]
 702              	.LVL55:
 703              	.LBE365:
 704              	.LBE364:
 705              	.LBB366:
 706              	.LBB367:
 707 00d8 0422     		movs	r2, #4
 708 00da 5A60     		str	r2, [r3, #4]
 709              	.LVL56:
 710              	.LBE367:
 711              	.LBE366:
 712              	.LBB368:
ARM GAS  C:\Users\Angel\AppData\Local\Temp\ccvqOPgy.s 			page 36


 713              	.LBB369:
 714              		.loc 2 817 0
 715 00dc 0822     		movs	r2, #8
 716 00de 9A60     		str	r2, [r3, #8]
 717 00e0 7047     		bx	lr
 718              	.LVL57:
 719              	.L48:
 720              	.LBE369:
 721              	.LBE368:
 722              	.LBB370:
 723              	.LBB371:
 813:Generated_Source\PSoC6\pdl\drivers/peripheral/gpio/cy_gpio.h ****     }
 724              		.loc 2 813 0
 725 00e2 1E4B     		ldr	r3, .L54
 726 00e4 0122     		movs	r2, #1
 727 00e6 5A60     		str	r2, [r3, #4]
 728              	.LVL58:
 729              	.LBE371:
 730              	.LBE370:
 731              	.LBB372:
 732              	.LBB373:
 733              		.loc 2 817 0
 734 00e8 0222     		movs	r2, #2
 735 00ea 9A60     		str	r2, [r3, #8]
 736              	.LVL59:
 737              	.LBE373:
 738              	.LBE372:
 739              	.LBB374:
 740              	.LBB375:
 813:Generated_Source\PSoC6\pdl\drivers/peripheral/gpio/cy_gpio.h ****     }
 741              		.loc 2 813 0
 742 00ec 0422     		movs	r2, #4
 743 00ee 5A60     		str	r2, [r3, #4]
 744              	.LVL60:
 745              	.LBE375:
 746              	.LBE374:
 747              	.LBB376:
 748              	.LBB377:
 749              		.loc 2 817 0
 750 00f0 0822     		movs	r2, #8
 751 00f2 9A60     		str	r2, [r3, #8]
 752 00f4 7047     		bx	lr
 753              	.LVL61:
 754              	.L49:
 755              	.LBE377:
 756              	.LBE376:
 757              	.LBB378:
 758              	.LBB379:
 759 00f6 194B     		ldr	r3, .L54
 760 00f8 0122     		movs	r2, #1
 761 00fa 9A60     		str	r2, [r3, #8]
 762              	.LVL62:
 763              	.LBE379:
 764              	.LBE378:
 765              	.LBB380:
 766              	.LBB381:
 767 00fc 0222     		movs	r2, #2
ARM GAS  C:\Users\Angel\AppData\Local\Temp\ccvqOPgy.s 			page 37


 768 00fe 9A60     		str	r2, [r3, #8]
 769              	.LVL63:
 770              	.LBE381:
 771              	.LBE380:
 772              	.LBB382:
 773              	.LBB383:
 813:Generated_Source\PSoC6\pdl\drivers/peripheral/gpio/cy_gpio.h ****     }
 774              		.loc 2 813 0
 775 0100 0422     		movs	r2, #4
 776 0102 5A60     		str	r2, [r3, #4]
 777              	.LVL64:
 778              	.LBE383:
 779              	.LBE382:
 780              	.LBB384:
 781              	.LBB385:
 782              		.loc 2 817 0
 783 0104 0822     		movs	r2, #8
 784 0106 9A60     		str	r2, [r3, #8]
 785 0108 7047     		bx	lr
 786              	.LVL65:
 787              	.L50:
 788              	.LBE385:
 789              	.LBE384:
 790              	.LBB386:
 791              	.LBB387:
 813:Generated_Source\PSoC6\pdl\drivers/peripheral/gpio/cy_gpio.h ****     }
 792              		.loc 2 813 0
 793 010a 144B     		ldr	r3, .L54
 794 010c 0122     		movs	r2, #1
 795 010e 5A60     		str	r2, [r3, #4]
 796              	.LVL66:
 797              	.LBE387:
 798              	.LBE386:
 799              	.LBB388:
 800              	.LBB389:
 801 0110 0222     		movs	r2, #2
 802 0112 5A60     		str	r2, [r3, #4]
 803              	.LVL67:
 804              	.LBE389:
 805              	.LBE388:
 806              	.LBB390:
 807              	.LBB391:
 808              		.loc 2 817 0
 809 0114 0422     		movs	r2, #4
 810 0116 9A60     		str	r2, [r3, #8]
 811              	.LVL68:
 812              	.LBE391:
 813              	.LBE390:
 814              	.LBB392:
 815              	.LBB393:
 816 0118 0822     		movs	r2, #8
 817 011a 9A60     		str	r2, [r3, #8]
 818 011c 7047     		bx	lr
 819              	.LVL69:
 820              	.L51:
 821              	.LBE393:
 822              	.LBE392:
ARM GAS  C:\Users\Angel\AppData\Local\Temp\ccvqOPgy.s 			page 38


 823              	.LBB394:
 824              	.LBB395:
 825 011e 0F4B     		ldr	r3, .L54
 826 0120 0122     		movs	r2, #1
 827 0122 9A60     		str	r2, [r3, #8]
 828              	.LVL70:
 829              	.LBE395:
 830              	.LBE394:
 831              	.LBB396:
 832              	.LBB397:
 813:Generated_Source\PSoC6\pdl\drivers/peripheral/gpio/cy_gpio.h ****     }
 833              		.loc 2 813 0
 834 0124 0222     		movs	r2, #2
 835 0126 5A60     		str	r2, [r3, #4]
 836              	.LVL71:
 837              	.LBE397:
 838              	.LBE396:
 839              	.LBB398:
 840              	.LBB399:
 841              		.loc 2 817 0
 842 0128 0422     		movs	r2, #4
 843 012a 9A60     		str	r2, [r3, #8]
 844              	.LVL72:
 845              	.LBE399:
 846              	.LBE398:
 847              	.LBB400:
 848              	.LBB401:
 849 012c 0822     		movs	r2, #8
 850 012e 9A60     		str	r2, [r3, #8]
 851 0130 7047     		bx	lr
 852              	.LVL73:
 853              	.L52:
 854              	.LBE401:
 855              	.LBE400:
 856              	.LBB402:
 857              	.LBB403:
 813:Generated_Source\PSoC6\pdl\drivers/peripheral/gpio/cy_gpio.h ****     }
 858              		.loc 2 813 0
 859 0132 0A4B     		ldr	r3, .L54
 860 0134 0122     		movs	r2, #1
 861 0136 5A60     		str	r2, [r3, #4]
 862              	.LVL74:
 863              	.LBE403:
 864              	.LBE402:
 865              	.LBB404:
 866              	.LBB405:
 867              		.loc 2 817 0
 868 0138 0222     		movs	r2, #2
 869 013a 9A60     		str	r2, [r3, #8]
 870              	.LVL75:
 871              	.LBE405:
 872              	.LBE404:
 873              	.LBB406:
 874              	.LBB407:
 875 013c 0422     		movs	r2, #4
 876 013e 9A60     		str	r2, [r3, #8]
 877              	.LVL76:
ARM GAS  C:\Users\Angel\AppData\Local\Temp\ccvqOPgy.s 			page 39


 878              	.LBE407:
 879              	.LBE406:
 880              	.LBB408:
 881              	.LBB409:
 882 0140 0822     		movs	r2, #8
 883 0142 9A60     		str	r2, [r3, #8]
 884 0144 7047     		bx	lr
 885              	.LVL77:
 886              	.L53:
 887              	.LBE409:
 888              	.LBE408:
 889              	.LBB410:
 890              	.LBB411:
 891 0146 054B     		ldr	r3, .L54
 892 0148 0122     		movs	r2, #1
 893 014a 9A60     		str	r2, [r3, #8]
 894              	.LVL78:
 895              	.LBE411:
 896              	.LBE410:
 897              	.LBB412:
 898              	.LBB413:
 899 014c 0222     		movs	r2, #2
 900 014e 9A60     		str	r2, [r3, #8]
 901              	.LVL79:
 902              	.LBE413:
 903              	.LBE412:
 904              	.LBB414:
 905              	.LBB415:
 906 0150 0422     		movs	r2, #4
 907 0152 9A60     		str	r2, [r3, #8]
 908              	.LVL80:
 909              	.LBE415:
 910              	.LBE414:
 911              	.LBB416:
 912              	.LBB417:
 913 0154 0822     		movs	r2, #8
 914 0156 9A60     		str	r2, [r3, #8]
 915              	.LVL81:
 916              	.L35:
 917 0158 7047     		bx	lr
 918              	.L55:
 919 015a 00BF     		.align	2
 920              	.L54:
 921 015c 80043240 		.word	1077019776
 922              	.LBE417:
 923              	.LBE416:
 924              		.cfi_endproc
 925              	.LFE529:
 926              		.size	rowselect, .-rowselect
 927              		.section	.text.columnselect,"ax",%progbits
 928              		.align	2
 929              		.global	columnselect
 930              		.thumb
 931              		.thumb_func
 932              		.type	columnselect, %function
 933              	columnselect:
 934              	.LFB530:
ARM GAS  C:\Users\Angel\AppData\Local\Temp\ccvqOPgy.s 			page 40


 147:main_cm4.c    **** switch (in)
 935              		.loc 1 147 0
 936              		.cfi_startproc
 937              		@ args = 0, pretend = 0, frame = 0
 938              		@ frame_needed = 0, uses_anonymous_args = 0
 939              		@ link register save eliminated.
 940              	.LVL82:
 148:main_cm4.c    **** {
 941              		.loc 1 148 0
 942 0000 0F28     		cmp	r0, #15
 943 0002 00F2D180 		bhi	.L56
 944 0006 DFE810F0 		tbh	[pc, r0, lsl #1]
 945              	.L59:
 946 000a 1000     		.2byte	(.L58-.L59)/2
 947 000c 1C00     		.2byte	(.L60-.L59)/2
 948 000e 2800     		.2byte	(.L61-.L59)/2
 949 0010 3400     		.2byte	(.L62-.L59)/2
 950 0012 4000     		.2byte	(.L63-.L59)/2
 951 0014 4C00     		.2byte	(.L64-.L59)/2
 952 0016 5800     		.2byte	(.L65-.L59)/2
 953 0018 6400     		.2byte	(.L66-.L59)/2
 954 001a 7000     		.2byte	(.L67-.L59)/2
 955 001c 7C00     		.2byte	(.L68-.L59)/2
 956 001e 8800     		.2byte	(.L69-.L59)/2
 957 0020 9400     		.2byte	(.L70-.L59)/2
 958 0022 A000     		.2byte	(.L71-.L59)/2
 959 0024 AC00     		.2byte	(.L72-.L59)/2
 960 0026 B800     		.2byte	(.L73-.L59)/2
 961 0028 C400     		.2byte	(.L74-.L59)/2
 962              		.p2align 1
 963              	.L58:
 964              	.LVL83:
 965              	.LBB418:
 966              	.LBB419:
 813:Generated_Source\PSoC6\pdl\drivers/peripheral/gpio/cy_gpio.h ****     }
 967              		.loc 2 813 0
 968 002a 604B     		ldr	r3, .L75
 969 002c 2022     		movs	r2, #32
 970 002e 5A60     		str	r2, [r3, #4]
 971              	.LVL84:
 972              	.LBE419:
 973              	.LBE418:
 974              	.LBB420:
 975              	.LBB421:
 976 0030 4022     		movs	r2, #64
 977 0032 5A60     		str	r2, [r3, #4]
 978              	.LVL85:
 979              	.LBE421:
 980              	.LBE420:
 981              	.LBB422:
 982              	.LBB423:
 983 0034 A3F5C073 		sub	r3, r3, #384
 984 0038 0422     		movs	r2, #4
 985 003a 5A60     		str	r2, [r3, #4]
 986              	.LVL86:
 987              	.LBE423:
 988              	.LBE422:
ARM GAS  C:\Users\Angel\AppData\Local\Temp\ccvqOPgy.s 			page 41


 989              	.LBB424:
 990              	.LBB425:
 991 003c 0822     		movs	r2, #8
 992 003e 5A60     		str	r2, [r3, #4]
 993 0040 7047     		bx	lr
 994              	.LVL87:
 995              	.L60:
 996              	.LBE425:
 997              	.LBE424:
 998              	.LBB426:
 999              	.LBB427:
 1000              		.loc 2 817 0
 1001 0042 5A4B     		ldr	r3, .L75
 1002 0044 2022     		movs	r2, #32
 1003 0046 9A60     		str	r2, [r3, #8]
 1004              	.LVL88:
 1005              	.LBE427:
 1006              	.LBE426:
 1007              	.LBB428:
 1008              	.LBB429:
 813:Generated_Source\PSoC6\pdl\drivers/peripheral/gpio/cy_gpio.h ****     }
 1009              		.loc 2 813 0
 1010 0048 4022     		movs	r2, #64
 1011 004a 5A60     		str	r2, [r3, #4]
 1012              	.LVL89:
 1013              	.LBE429:
 1014              	.LBE428:
 1015              	.LBB430:
 1016              	.LBB431:
 1017 004c A3F5C073 		sub	r3, r3, #384
 1018 0050 0422     		movs	r2, #4
 1019 0052 5A60     		str	r2, [r3, #4]
 1020              	.LVL90:
 1021              	.LBE431:
 1022              	.LBE430:
 1023              	.LBB432:
 1024              	.LBB433:
 1025 0054 0822     		movs	r2, #8
 1026 0056 5A60     		str	r2, [r3, #4]
 1027 0058 7047     		bx	lr
 1028              	.LVL91:
 1029              	.L61:
 1030              	.LBE433:
 1031              	.LBE432:
 1032              	.LBB434:
 1033              	.LBB435:
 1034 005a 544B     		ldr	r3, .L75
 1035 005c 2022     		movs	r2, #32
 1036 005e 5A60     		str	r2, [r3, #4]
 1037              	.LVL92:
 1038              	.LBE435:
 1039              	.LBE434:
 1040              	.LBB436:
 1041              	.LBB437:
 1042              		.loc 2 817 0
 1043 0060 4022     		movs	r2, #64
 1044 0062 9A60     		str	r2, [r3, #8]
ARM GAS  C:\Users\Angel\AppData\Local\Temp\ccvqOPgy.s 			page 42


 1045              	.LVL93:
 1046              	.LBE437:
 1047              	.LBE436:
 1048              	.LBB438:
 1049              	.LBB439:
 813:Generated_Source\PSoC6\pdl\drivers/peripheral/gpio/cy_gpio.h ****     }
 1050              		.loc 2 813 0
 1051 0064 A3F5C073 		sub	r3, r3, #384
 1052 0068 0422     		movs	r2, #4
 1053 006a 5A60     		str	r2, [r3, #4]
 1054              	.LVL94:
 1055              	.LBE439:
 1056              	.LBE438:
 1057              	.LBB440:
 1058              	.LBB441:
 1059 006c 0822     		movs	r2, #8
 1060 006e 5A60     		str	r2, [r3, #4]
 1061 0070 7047     		bx	lr
 1062              	.LVL95:
 1063              	.L62:
 1064              	.LBE441:
 1065              	.LBE440:
 1066              	.LBB442:
 1067              	.LBB443:
 1068              		.loc 2 817 0
 1069 0072 4E4B     		ldr	r3, .L75
 1070 0074 2022     		movs	r2, #32
 1071 0076 9A60     		str	r2, [r3, #8]
 1072              	.LVL96:
 1073              	.LBE443:
 1074              	.LBE442:
 1075              	.LBB444:
 1076              	.LBB445:
 1077 0078 4022     		movs	r2, #64
 1078 007a 9A60     		str	r2, [r3, #8]
 1079              	.LVL97:
 1080              	.LBE445:
 1081              	.LBE444:
 1082              	.LBB446:
 1083              	.LBB447:
 813:Generated_Source\PSoC6\pdl\drivers/peripheral/gpio/cy_gpio.h ****     }
 1084              		.loc 2 813 0
 1085 007c A3F5C073 		sub	r3, r3, #384
 1086 0080 0422     		movs	r2, #4
 1087 0082 5A60     		str	r2, [r3, #4]
 1088              	.LVL98:
 1089              	.LBE447:
 1090              	.LBE446:
 1091              	.LBB448:
 1092              	.LBB449:
 1093 0084 0822     		movs	r2, #8
 1094 0086 5A60     		str	r2, [r3, #4]
 1095 0088 7047     		bx	lr
 1096              	.LVL99:
 1097              	.L63:
 1098              	.LBE449:
 1099              	.LBE448:
ARM GAS  C:\Users\Angel\AppData\Local\Temp\ccvqOPgy.s 			page 43


 1100              	.LBB450:
 1101              	.LBB451:
 1102 008a 484B     		ldr	r3, .L75
 1103 008c 2022     		movs	r2, #32
 1104 008e 5A60     		str	r2, [r3, #4]
 1105              	.LVL100:
 1106              	.LBE451:
 1107              	.LBE450:
 1108              	.LBB452:
 1109              	.LBB453:
 1110 0090 4022     		movs	r2, #64
 1111 0092 5A60     		str	r2, [r3, #4]
 1112              	.LVL101:
 1113              	.LBE453:
 1114              	.LBE452:
 1115              	.LBB454:
 1116              	.LBB455:
 1117              		.loc 2 817 0
 1118 0094 A3F5C073 		sub	r3, r3, #384
 1119 0098 0422     		movs	r2, #4
 1120 009a 9A60     		str	r2, [r3, #8]
 1121              	.LVL102:
 1122              	.LBE455:
 1123              	.LBE454:
 1124              	.LBB456:
 1125              	.LBB457:
 813:Generated_Source\PSoC6\pdl\drivers/peripheral/gpio/cy_gpio.h ****     }
 1126              		.loc 2 813 0
 1127 009c 0822     		movs	r2, #8
 1128 009e 5A60     		str	r2, [r3, #4]
 1129 00a0 7047     		bx	lr
 1130              	.LVL103:
 1131              	.L64:
 1132              	.LBE457:
 1133              	.LBE456:
 1134              	.LBB458:
 1135              	.LBB459:
 1136              		.loc 2 817 0
 1137 00a2 424B     		ldr	r3, .L75
 1138 00a4 2022     		movs	r2, #32
 1139 00a6 9A60     		str	r2, [r3, #8]
 1140              	.LVL104:
 1141              	.LBE459:
 1142              	.LBE458:
 1143              	.LBB460:
 1144              	.LBB461:
 813:Generated_Source\PSoC6\pdl\drivers/peripheral/gpio/cy_gpio.h ****     }
 1145              		.loc 2 813 0
 1146 00a8 4022     		movs	r2, #64
 1147 00aa 5A60     		str	r2, [r3, #4]
 1148              	.LVL105:
 1149              	.LBE461:
 1150              	.LBE460:
 1151              	.LBB462:
 1152              	.LBB463:
 1153              		.loc 2 817 0
 1154 00ac A3F5C073 		sub	r3, r3, #384
ARM GAS  C:\Users\Angel\AppData\Local\Temp\ccvqOPgy.s 			page 44


 1155 00b0 0422     		movs	r2, #4
 1156 00b2 9A60     		str	r2, [r3, #8]
 1157              	.LVL106:
 1158              	.LBE463:
 1159              	.LBE462:
 1160              	.LBB464:
 1161              	.LBB465:
 813:Generated_Source\PSoC6\pdl\drivers/peripheral/gpio/cy_gpio.h ****     }
 1162              		.loc 2 813 0
 1163 00b4 0822     		movs	r2, #8
 1164 00b6 5A60     		str	r2, [r3, #4]
 1165 00b8 7047     		bx	lr
 1166              	.LVL107:
 1167              	.L65:
 1168              	.LBE465:
 1169              	.LBE464:
 1170              	.LBB466:
 1171              	.LBB467:
 1172 00ba 3C4B     		ldr	r3, .L75
 1173 00bc 2022     		movs	r2, #32
 1174 00be 5A60     		str	r2, [r3, #4]
 1175              	.LVL108:
 1176              	.LBE467:
 1177              	.LBE466:
 1178              	.LBB468:
 1179              	.LBB469:
 1180              		.loc 2 817 0
 1181 00c0 4022     		movs	r2, #64
 1182 00c2 9A60     		str	r2, [r3, #8]
 1183              	.LVL109:
 1184              	.LBE469:
 1185              	.LBE468:
 1186              	.LBB470:
 1187              	.LBB471:
 1188 00c4 A3F5C073 		sub	r3, r3, #384
 1189 00c8 0422     		movs	r2, #4
 1190 00ca 9A60     		str	r2, [r3, #8]
 1191              	.LVL110:
 1192              	.LBE471:
 1193              	.LBE470:
 1194              	.LBB472:
 1195              	.LBB473:
 813:Generated_Source\PSoC6\pdl\drivers/peripheral/gpio/cy_gpio.h ****     }
 1196              		.loc 2 813 0
 1197 00cc 0822     		movs	r2, #8
 1198 00ce 5A60     		str	r2, [r3, #4]
 1199 00d0 7047     		bx	lr
 1200              	.LVL111:
 1201              	.L66:
 1202              	.LBE473:
 1203              	.LBE472:
 1204              	.LBB474:
 1205              	.LBB475:
 1206              		.loc 2 817 0
 1207 00d2 364B     		ldr	r3, .L75
 1208 00d4 2022     		movs	r2, #32
 1209 00d6 9A60     		str	r2, [r3, #8]
ARM GAS  C:\Users\Angel\AppData\Local\Temp\ccvqOPgy.s 			page 45


 1210              	.LVL112:
 1211              	.LBE475:
 1212              	.LBE474:
 1213              	.LBB476:
 1214              	.LBB477:
 1215 00d8 4022     		movs	r2, #64
 1216 00da 9A60     		str	r2, [r3, #8]
 1217              	.LVL113:
 1218              	.LBE477:
 1219              	.LBE476:
 1220              	.LBB478:
 1221              	.LBB479:
 1222 00dc A3F5C073 		sub	r3, r3, #384
 1223 00e0 0422     		movs	r2, #4
 1224 00e2 9A60     		str	r2, [r3, #8]
 1225              	.LVL114:
 1226              	.LBE479:
 1227              	.LBE478:
 1228              	.LBB480:
 1229              	.LBB481:
 813:Generated_Source\PSoC6\pdl\drivers/peripheral/gpio/cy_gpio.h ****     }
 1230              		.loc 2 813 0
 1231 00e4 0822     		movs	r2, #8
 1232 00e6 5A60     		str	r2, [r3, #4]
 1233 00e8 7047     		bx	lr
 1234              	.LVL115:
 1235              	.L67:
 1236              	.LBE481:
 1237              	.LBE480:
 1238              	.LBB482:
 1239              	.LBB483:
 1240 00ea 304B     		ldr	r3, .L75
 1241 00ec 2022     		movs	r2, #32
 1242 00ee 5A60     		str	r2, [r3, #4]
 1243              	.LVL116:
 1244              	.LBE483:
 1245              	.LBE482:
 1246              	.LBB484:
 1247              	.LBB485:
 1248 00f0 4022     		movs	r2, #64
 1249 00f2 5A60     		str	r2, [r3, #4]
 1250              	.LVL117:
 1251              	.LBE485:
 1252              	.LBE484:
 1253              	.LBB486:
 1254              	.LBB487:
 1255 00f4 A3F5C073 		sub	r3, r3, #384
 1256 00f8 0422     		movs	r2, #4
 1257 00fa 5A60     		str	r2, [r3, #4]
 1258              	.LVL118:
 1259              	.LBE487:
 1260              	.LBE486:
 1261              	.LBB488:
 1262              	.LBB489:
 1263              		.loc 2 817 0
 1264 00fc 0822     		movs	r2, #8
 1265 00fe 9A60     		str	r2, [r3, #8]
ARM GAS  C:\Users\Angel\AppData\Local\Temp\ccvqOPgy.s 			page 46


 1266 0100 7047     		bx	lr
 1267              	.LVL119:
 1268              	.L68:
 1269              	.LBE489:
 1270              	.LBE488:
 1271              	.LBB490:
 1272              	.LBB491:
 1273 0102 2A4B     		ldr	r3, .L75
 1274 0104 2022     		movs	r2, #32
 1275 0106 9A60     		str	r2, [r3, #8]
 1276              	.LVL120:
 1277              	.LBE491:
 1278              	.LBE490:
 1279              	.LBB492:
 1280              	.LBB493:
 813:Generated_Source\PSoC6\pdl\drivers/peripheral/gpio/cy_gpio.h ****     }
 1281              		.loc 2 813 0
 1282 0108 4022     		movs	r2, #64
 1283 010a 5A60     		str	r2, [r3, #4]
 1284              	.LVL121:
 1285              	.LBE493:
 1286              	.LBE492:
 1287              	.LBB494:
 1288              	.LBB495:
 1289 010c A3F5C073 		sub	r3, r3, #384
 1290 0110 0422     		movs	r2, #4
 1291 0112 5A60     		str	r2, [r3, #4]
 1292              	.LVL122:
 1293              	.LBE495:
 1294              	.LBE494:
 1295              	.LBB496:
 1296              	.LBB497:
 1297              		.loc 2 817 0
 1298 0114 0822     		movs	r2, #8
 1299 0116 9A60     		str	r2, [r3, #8]
 1300 0118 7047     		bx	lr
 1301              	.LVL123:
 1302              	.L69:
 1303              	.LBE497:
 1304              	.LBE496:
 1305              	.LBB498:
 1306              	.LBB499:
 813:Generated_Source\PSoC6\pdl\drivers/peripheral/gpio/cy_gpio.h ****     }
 1307              		.loc 2 813 0
 1308 011a 244B     		ldr	r3, .L75
 1309 011c 2022     		movs	r2, #32
 1310 011e 5A60     		str	r2, [r3, #4]
 1311              	.LVL124:
 1312              	.LBE499:
 1313              	.LBE498:
 1314              	.LBB500:
 1315              	.LBB501:
 1316              		.loc 2 817 0
 1317 0120 4022     		movs	r2, #64
 1318 0122 9A60     		str	r2, [r3, #8]
 1319              	.LVL125:
 1320              	.LBE501:
ARM GAS  C:\Users\Angel\AppData\Local\Temp\ccvqOPgy.s 			page 47


 1321              	.LBE500:
 1322              	.LBB502:
 1323              	.LBB503:
 813:Generated_Source\PSoC6\pdl\drivers/peripheral/gpio/cy_gpio.h ****     }
 1324              		.loc 2 813 0
 1325 0124 A3F5C073 		sub	r3, r3, #384
 1326 0128 0422     		movs	r2, #4
 1327 012a 5A60     		str	r2, [r3, #4]
 1328              	.LVL126:
 1329              	.LBE503:
 1330              	.LBE502:
 1331              	.LBB504:
 1332              	.LBB505:
 1333              		.loc 2 817 0
 1334 012c 0822     		movs	r2, #8
 1335 012e 9A60     		str	r2, [r3, #8]
 1336 0130 7047     		bx	lr
 1337              	.LVL127:
 1338              	.L70:
 1339              	.LBE505:
 1340              	.LBE504:
 1341              	.LBB506:
 1342              	.LBB507:
 1343 0132 1E4B     		ldr	r3, .L75
 1344 0134 2022     		movs	r2, #32
 1345 0136 9A60     		str	r2, [r3, #8]
 1346              	.LVL128:
 1347              	.LBE507:
 1348              	.LBE506:
 1349              	.LBB508:
 1350              	.LBB509:
 1351 0138 4022     		movs	r2, #64
 1352 013a 9A60     		str	r2, [r3, #8]
 1353              	.LVL129:
 1354              	.LBE509:
 1355              	.LBE508:
 1356              	.LBB510:
 1357              	.LBB511:
 813:Generated_Source\PSoC6\pdl\drivers/peripheral/gpio/cy_gpio.h ****     }
 1358              		.loc 2 813 0
 1359 013c A3F5C073 		sub	r3, r3, #384
 1360 0140 0422     		movs	r2, #4
 1361 0142 5A60     		str	r2, [r3, #4]
 1362              	.LVL130:
 1363              	.LBE511:
 1364              	.LBE510:
 1365              	.LBB512:
 1366              	.LBB513:
 1367              		.loc 2 817 0
 1368 0144 0822     		movs	r2, #8
 1369 0146 9A60     		str	r2, [r3, #8]
 1370 0148 7047     		bx	lr
 1371              	.LVL131:
 1372              	.L71:
 1373              	.LBE513:
 1374              	.LBE512:
 1375              	.LBB514:
ARM GAS  C:\Users\Angel\AppData\Local\Temp\ccvqOPgy.s 			page 48


 1376              	.LBB515:
 813:Generated_Source\PSoC6\pdl\drivers/peripheral/gpio/cy_gpio.h ****     }
 1377              		.loc 2 813 0
 1378 014a 184B     		ldr	r3, .L75
 1379 014c 2022     		movs	r2, #32
 1380 014e 5A60     		str	r2, [r3, #4]
 1381              	.LVL132:
 1382              	.LBE515:
 1383              	.LBE514:
 1384              	.LBB516:
 1385              	.LBB517:
 1386 0150 4022     		movs	r2, #64
 1387 0152 5A60     		str	r2, [r3, #4]
 1388              	.LVL133:
 1389              	.LBE517:
 1390              	.LBE516:
 1391              	.LBB518:
 1392              	.LBB519:
 1393              		.loc 2 817 0
 1394 0154 A3F5C073 		sub	r3, r3, #384
 1395 0158 0422     		movs	r2, #4
 1396 015a 9A60     		str	r2, [r3, #8]
 1397              	.LVL134:
 1398              	.LBE519:
 1399              	.LBE518:
 1400              	.LBB520:
 1401              	.LBB521:
 1402 015c 0822     		movs	r2, #8
 1403 015e 9A60     		str	r2, [r3, #8]
 1404 0160 7047     		bx	lr
 1405              	.LVL135:
 1406              	.L72:
 1407              	.LBE521:
 1408              	.LBE520:
 1409              	.LBB522:
 1410              	.LBB523:
 1411 0162 124B     		ldr	r3, .L75
 1412 0164 2022     		movs	r2, #32
 1413 0166 9A60     		str	r2, [r3, #8]
 1414              	.LVL136:
 1415              	.LBE523:
 1416              	.LBE522:
 1417              	.LBB524:
 1418              	.LBB525:
 813:Generated_Source\PSoC6\pdl\drivers/peripheral/gpio/cy_gpio.h ****     }
 1419              		.loc 2 813 0
 1420 0168 4022     		movs	r2, #64
 1421 016a 5A60     		str	r2, [r3, #4]
 1422              	.LVL137:
 1423              	.LBE525:
 1424              	.LBE524:
 1425              	.LBB526:
 1426              	.LBB527:
 1427              		.loc 2 817 0
 1428 016c A3F5C073 		sub	r3, r3, #384
 1429 0170 0422     		movs	r2, #4
 1430 0172 9A60     		str	r2, [r3, #8]
ARM GAS  C:\Users\Angel\AppData\Local\Temp\ccvqOPgy.s 			page 49


 1431              	.LVL138:
 1432              	.LBE527:
 1433              	.LBE526:
 1434              	.LBB528:
 1435              	.LBB529:
 1436 0174 0822     		movs	r2, #8
 1437 0176 9A60     		str	r2, [r3, #8]
 1438 0178 7047     		bx	lr
 1439              	.LVL139:
 1440              	.L73:
 1441              	.LBE529:
 1442              	.LBE528:
 1443              	.LBB530:
 1444              	.LBB531:
 813:Generated_Source\PSoC6\pdl\drivers/peripheral/gpio/cy_gpio.h ****     }
 1445              		.loc 2 813 0
 1446 017a 0C4B     		ldr	r3, .L75
 1447 017c 2022     		movs	r2, #32
 1448 017e 5A60     		str	r2, [r3, #4]
 1449              	.LVL140:
 1450              	.LBE531:
 1451              	.LBE530:
 1452              	.LBB532:
 1453              	.LBB533:
 1454              		.loc 2 817 0
 1455 0180 4022     		movs	r2, #64
 1456 0182 9A60     		str	r2, [r3, #8]
 1457              	.LVL141:
 1458              	.LBE533:
 1459              	.LBE532:
 1460              	.LBB534:
 1461              	.LBB535:
 1462 0184 A3F5C073 		sub	r3, r3, #384
 1463 0188 0422     		movs	r2, #4
 1464 018a 9A60     		str	r2, [r3, #8]
 1465              	.LVL142:
 1466              	.LBE535:
 1467              	.LBE534:
 1468              	.LBB536:
 1469              	.LBB537:
 1470 018c 0822     		movs	r2, #8
 1471 018e 9A60     		str	r2, [r3, #8]
 1472 0190 7047     		bx	lr
 1473              	.LVL143:
 1474              	.L74:
 1475              	.LBE537:
 1476              	.LBE536:
 1477              	.LBB538:
 1478              	.LBB539:
 1479 0192 064B     		ldr	r3, .L75
 1480 0194 2022     		movs	r2, #32
 1481 0196 9A60     		str	r2, [r3, #8]
 1482              	.LVL144:
 1483              	.LBE539:
 1484              	.LBE538:
 1485              	.LBB540:
 1486              	.LBB541:
ARM GAS  C:\Users\Angel\AppData\Local\Temp\ccvqOPgy.s 			page 50


 1487 0198 4022     		movs	r2, #64
 1488 019a 9A60     		str	r2, [r3, #8]
 1489              	.LVL145:
 1490              	.LBE541:
 1491              	.LBE540:
 1492              	.LBB542:
 1493              	.LBB543:
 1494 019c A3F5C073 		sub	r3, r3, #384
 1495 01a0 0422     		movs	r2, #4
 1496 01a2 9A60     		str	r2, [r3, #8]
 1497              	.LVL146:
 1498              	.LBE543:
 1499              	.LBE542:
 1500              	.LBB544:
 1501              	.LBB545:
 1502 01a4 0822     		movs	r2, #8
 1503 01a6 9A60     		str	r2, [r3, #8]
 1504              	.LVL147:
 1505              	.L56:
 1506 01a8 7047     		bx	lr
 1507              	.L76:
 1508 01aa 00BF     		.align	2
 1509              	.L75:
 1510 01ac 80043240 		.word	1077019776
 1511              	.LBE545:
 1512              	.LBE544:
 1513              		.cfi_endproc
 1514              	.LFE530:
 1515              		.size	columnselect, .-columnselect
 1516              		.section	.text.states,"ax",%progbits
 1517              		.align	2
 1518              		.global	states
 1519              		.thumb
 1520              		.thumb_func
 1521              		.type	states, %function
 1522              	states:
 1523              	.LFB531:
 263:main_cm4.c    ****   row[0]    = Cy_GPIO_ReadOut(R0_PORT,R0_NUM);
 1524              		.loc 1 263 0
 1525              		.cfi_startproc
 1526              		@ args = 0, pretend = 0, frame = 0
 1527              		@ frame_needed = 0, uses_anonymous_args = 0
 1528              		@ link register save eliminated.
 1529              	.LVL148:
 1530              	.LBB546:
 1531              	.LBB547:
 818:Generated_Source\PSoC6\pdl\drivers/peripheral/gpio/cy_gpio.h ****     }
 819:Generated_Source\PSoC6\pdl\drivers/peripheral/gpio/cy_gpio.h **** }
 820:Generated_Source\PSoC6\pdl\drivers/peripheral/gpio/cy_gpio.h **** 
 821:Generated_Source\PSoC6\pdl\drivers/peripheral/gpio/cy_gpio.h **** 
 822:Generated_Source\PSoC6\pdl\drivers/peripheral/gpio/cy_gpio.h **** /*******************************************************************************
 823:Generated_Source\PSoC6\pdl\drivers/peripheral/gpio/cy_gpio.h **** * Function Name: Cy_GPIO_ReadOut
 824:Generated_Source\PSoC6\pdl\drivers/peripheral/gpio/cy_gpio.h **** ****************************************************************************//**
 825:Generated_Source\PSoC6\pdl\drivers/peripheral/gpio/cy_gpio.h **** *
 826:Generated_Source\PSoC6\pdl\drivers/peripheral/gpio/cy_gpio.h **** * Reads the current logic level on the pin output driver.
 827:Generated_Source\PSoC6\pdl\drivers/peripheral/gpio/cy_gpio.h **** *
 828:Generated_Source\PSoC6\pdl\drivers/peripheral/gpio/cy_gpio.h **** * \param base
ARM GAS  C:\Users\Angel\AppData\Local\Temp\ccvqOPgy.s 			page 51


 829:Generated_Source\PSoC6\pdl\drivers/peripheral/gpio/cy_gpio.h **** * Pointer to the pin's port register base address
 830:Generated_Source\PSoC6\pdl\drivers/peripheral/gpio/cy_gpio.h **** *
 831:Generated_Source\PSoC6\pdl\drivers/peripheral/gpio/cy_gpio.h **** * \param pinNum
 832:Generated_Source\PSoC6\pdl\drivers/peripheral/gpio/cy_gpio.h **** * Position of the pin bit-field within the port register
 833:Generated_Source\PSoC6\pdl\drivers/peripheral/gpio/cy_gpio.h **** *
 834:Generated_Source\PSoC6\pdl\drivers/peripheral/gpio/cy_gpio.h **** * \return
 835:Generated_Source\PSoC6\pdl\drivers/peripheral/gpio/cy_gpio.h **** * Logic level on the pin output driver
 836:Generated_Source\PSoC6\pdl\drivers/peripheral/gpio/cy_gpio.h **** *
 837:Generated_Source\PSoC6\pdl\drivers/peripheral/gpio/cy_gpio.h **** * \funcusage
 838:Generated_Source\PSoC6\pdl\drivers/peripheral/gpio/cy_gpio.h **** * \snippet gpio/gpio_v1_10_sut_01.cydsn/main_cm4.c snippet_Cy_GPIO_ReadOut
 839:Generated_Source\PSoC6\pdl\drivers/peripheral/gpio/cy_gpio.h **** *
 840:Generated_Source\PSoC6\pdl\drivers/peripheral/gpio/cy_gpio.h **** *******************************************************************************/
 841:Generated_Source\PSoC6\pdl\drivers/peripheral/gpio/cy_gpio.h **** __STATIC_INLINE uint32_t Cy_GPIO_ReadOut(GPIO_PRT_Type* base, uint32_t pinNum)
 842:Generated_Source\PSoC6\pdl\drivers/peripheral/gpio/cy_gpio.h **** {
 843:Generated_Source\PSoC6\pdl\drivers/peripheral/gpio/cy_gpio.h ****     CY_ASSERT_L2(CY_GPIO_IS_PIN_VALID(pinNum));
 844:Generated_Source\PSoC6\pdl\drivers/peripheral/gpio/cy_gpio.h **** 
 845:Generated_Source\PSoC6\pdl\drivers/peripheral/gpio/cy_gpio.h ****     return (GPIO_PRT_OUT(base) >> pinNum) & CY_GPIO_OUT_MASK;
 1532              		.loc 2 845 0
 1533 0000 124B     		ldr	r3, .L78
 1534 0002 1968     		ldr	r1, [r3]
 1535 0004 01F00101 		and	r1, r1, #1
 1536              	.LVL149:
 1537              	.LBE547:
 1538              	.LBE546:
 264:main_cm4.c    ****   row[1]    = Cy_GPIO_ReadOut(R1_PORT,R1_NUM);
 1539              		.loc 1 264 0
 1540 0008 114A     		ldr	r2, .L78+4
 1541 000a 1160     		str	r1, [r2]
 1542              	.LVL150:
 1543              	.LBB548:
 1544              	.LBB549:
 1545              		.loc 2 845 0
 1546 000c 1968     		ldr	r1, [r3]
 1547 000e C1F34001 		ubfx	r1, r1, #1, #1
 1548              	.LVL151:
 1549              	.LBE549:
 1550              	.LBE548:
 265:main_cm4.c    ****   row[2]    = Cy_GPIO_ReadOut(R2_PORT,R2_NUM);
 1551              		.loc 1 265 0
 1552 0012 5160     		str	r1, [r2, #4]
 1553              	.LVL152:
 1554              	.LBB550:
 1555              	.LBB551:
 1556              		.loc 2 845 0
 1557 0014 1968     		ldr	r1, [r3]
 1558 0016 C1F38001 		ubfx	r1, r1, #2, #1
 1559              	.LVL153:
 1560              	.LBE551:
 1561              	.LBE550:
 266:main_cm4.c    ****   row[3]    = Cy_GPIO_ReadOut(R3_PORT,R3_NUM); 
 1562              		.loc 1 266 0
 1563 001a 9160     		str	r1, [r2, #8]
 1564              	.LVL154:
 1565              	.LBB552:
 1566              	.LBB553:
 1567              		.loc 2 845 0
 1568 001c 1968     		ldr	r1, [r3]
ARM GAS  C:\Users\Angel\AppData\Local\Temp\ccvqOPgy.s 			page 52


 1569 001e C1F3C001 		ubfx	r1, r1, #3, #1
 1570              	.LVL155:
 1571              	.LBE553:
 1572              	.LBE552:
 267:main_cm4.c    ****   column[0] = Cy_GPIO_ReadOut(C0_PORT,R0_NUM);
 1573              		.loc 1 267 0
 1574 0022 D160     		str	r1, [r2, #12]
 1575              	.LVL156:
 1576              	.LBB554:
 1577              	.LBB555:
 1578              		.loc 2 845 0
 1579 0024 1968     		ldr	r1, [r3]
 1580 0026 01F00101 		and	r1, r1, #1
 1581              	.LVL157:
 1582              	.LBE555:
 1583              	.LBE554:
 268:main_cm4.c    ****   column[1] = Cy_GPIO_ReadOut(C1_PORT,R1_NUM);
 1584              		.loc 1 268 0
 1585 002a 0A4A     		ldr	r2, .L78+8
 1586 002c 1160     		str	r1, [r2]
 1587              	.LVL158:
 1588              	.LBB556:
 1589              	.LBB557:
 1590              		.loc 2 845 0
 1591 002e 1B68     		ldr	r3, [r3]
 1592 0030 C3F34003 		ubfx	r3, r3, #1, #1
 1593              	.LVL159:
 1594              	.LBE557:
 1595              	.LBE556:
 269:main_cm4.c    ****   column[2] = Cy_GPIO_ReadOut(C2_PORT,R2_NUM);
 1596              		.loc 1 269 0
 1597 0034 5360     		str	r3, [r2, #4]
 1598              	.LVL160:
 1599              	.LBB558:
 1600              	.LBB559:
 1601              		.loc 2 845 0
 1602 0036 0849     		ldr	r1, .L78+12
 1603 0038 0B68     		ldr	r3, [r1]
 1604 003a C3F38003 		ubfx	r3, r3, #2, #1
 1605              	.LVL161:
 1606              	.LBE559:
 1607              	.LBE558:
 270:main_cm4.c    ****   column[3] = Cy_GPIO_ReadOut(C3_PORT,R3_NUM); 
 1608              		.loc 1 270 0
 1609 003e 9360     		str	r3, [r2, #8]
 1610              	.LVL162:
 1611              	.LBB560:
 1612              	.LBB561:
 1613              		.loc 2 845 0
 1614 0040 0B68     		ldr	r3, [r1]
 1615 0042 C3F3C003 		ubfx	r3, r3, #3, #1
 1616              	.LVL163:
 1617              	.LBE561:
 1618              	.LBE560:
 271:main_cm4.c    ****    }
 1619              		.loc 1 271 0
 1620 0046 D360     		str	r3, [r2, #12]
ARM GAS  C:\Users\Angel\AppData\Local\Temp\ccvqOPgy.s 			page 53


 1621 0048 7047     		bx	lr
 1622              	.L79:
 1623 004a 00BF     		.align	2
 1624              	.L78:
 1625 004c 80043240 		.word	1077019776
 1626 0050 00000000 		.word	row
 1627 0054 00000000 		.word	column
 1628 0058 00033240 		.word	1077019392
 1629              		.cfi_endproc
 1630              	.LFE531:
 1631              		.size	states, .-states
 1632              		.section	.text.main,"ax",%progbits
 1633              		.align	2
 1634              		.global	main
 1635              		.thumb
 1636              		.thumb_func
 1637              		.type	main, %function
 1638              	main:
 1639              	.LFB532:
 289:main_cm4.c    ****     func_ptr func ;
 1640              		.loc 1 289 0
 1641              		.cfi_startproc
 1642              		@ args = 0, pretend = 0, frame = 16
 1643              		@ frame_needed = 0, uses_anonymous_args = 0
 1644 0000 70B5     		push	{r4, r5, r6, lr}
 1645              		.cfi_def_cfa_offset 16
 1646              		.cfi_offset 4, -16
 1647              		.cfi_offset 5, -12
 1648              		.cfi_offset 6, -8
 1649              		.cfi_offset 14, -4
 1650 0002 84B0     		sub	sp, sp, #16
 1651              		.cfi_def_cfa_offset 32
 1652              	.LVL164:
 1653              	.LBB582:
 1654              	.LBB583:
 1655              		.file 3 "Generated_Source\\PSoC6\\pdl\\cmsis/include/cmsis_gcc.h"
   1:Generated_Source\PSoC6\pdl\cmsis/include/cmsis_gcc.h **** /**************************************************************************//**
   2:Generated_Source\PSoC6\pdl\cmsis/include/cmsis_gcc.h ****  * @file     cmsis_gcc.h
   3:Generated_Source\PSoC6\pdl\cmsis/include/cmsis_gcc.h ****  * @brief    CMSIS compiler GCC header file
   4:Generated_Source\PSoC6\pdl\cmsis/include/cmsis_gcc.h ****  * @version  V5.0.3
   5:Generated_Source\PSoC6\pdl\cmsis/include/cmsis_gcc.h ****  * @date     16. January 2018
   6:Generated_Source\PSoC6\pdl\cmsis/include/cmsis_gcc.h ****  ******************************************************************************/
   7:Generated_Source\PSoC6\pdl\cmsis/include/cmsis_gcc.h **** /*
   8:Generated_Source\PSoC6\pdl\cmsis/include/cmsis_gcc.h ****  * Copyright (c) 2009-2017 ARM Limited. All rights reserved.
   9:Generated_Source\PSoC6\pdl\cmsis/include/cmsis_gcc.h ****  *
  10:Generated_Source\PSoC6\pdl\cmsis/include/cmsis_gcc.h ****  * SPDX-License-Identifier: Apache-2.0
  11:Generated_Source\PSoC6\pdl\cmsis/include/cmsis_gcc.h ****  *
  12:Generated_Source\PSoC6\pdl\cmsis/include/cmsis_gcc.h ****  * Licensed under the Apache License, Version 2.0 (the License); you may
  13:Generated_Source\PSoC6\pdl\cmsis/include/cmsis_gcc.h ****  * not use this file except in compliance with the License.
  14:Generated_Source\PSoC6\pdl\cmsis/include/cmsis_gcc.h ****  * You may obtain a copy of the License at
  15:Generated_Source\PSoC6\pdl\cmsis/include/cmsis_gcc.h ****  *
  16:Generated_Source\PSoC6\pdl\cmsis/include/cmsis_gcc.h ****  * www.apache.org/licenses/LICENSE-2.0
  17:Generated_Source\PSoC6\pdl\cmsis/include/cmsis_gcc.h ****  *
  18:Generated_Source\PSoC6\pdl\cmsis/include/cmsis_gcc.h ****  * Unless required by applicable law or agreed to in writing, software
  19:Generated_Source\PSoC6\pdl\cmsis/include/cmsis_gcc.h ****  * distributed under the License is distributed on an AS IS BASIS, WITHOUT
  20:Generated_Source\PSoC6\pdl\cmsis/include/cmsis_gcc.h ****  * WARRANTIES OR CONDITIONS OF ANY KIND, either express or implied.
  21:Generated_Source\PSoC6\pdl\cmsis/include/cmsis_gcc.h ****  * See the License for the specific language governing permissions and
ARM GAS  C:\Users\Angel\AppData\Local\Temp\ccvqOPgy.s 			page 54


  22:Generated_Source\PSoC6\pdl\cmsis/include/cmsis_gcc.h ****  * limitations under the License.
  23:Generated_Source\PSoC6\pdl\cmsis/include/cmsis_gcc.h ****  */
  24:Generated_Source\PSoC6\pdl\cmsis/include/cmsis_gcc.h **** 
  25:Generated_Source\PSoC6\pdl\cmsis/include/cmsis_gcc.h **** #ifndef __CMSIS_GCC_H
  26:Generated_Source\PSoC6\pdl\cmsis/include/cmsis_gcc.h **** #define __CMSIS_GCC_H
  27:Generated_Source\PSoC6\pdl\cmsis/include/cmsis_gcc.h **** 
  28:Generated_Source\PSoC6\pdl\cmsis/include/cmsis_gcc.h **** /* ignore some GCC warnings */
  29:Generated_Source\PSoC6\pdl\cmsis/include/cmsis_gcc.h **** #pragma GCC diagnostic push
  30:Generated_Source\PSoC6\pdl\cmsis/include/cmsis_gcc.h **** #pragma GCC diagnostic ignored "-Wsign-conversion"
  31:Generated_Source\PSoC6\pdl\cmsis/include/cmsis_gcc.h **** #pragma GCC diagnostic ignored "-Wconversion"
  32:Generated_Source\PSoC6\pdl\cmsis/include/cmsis_gcc.h **** #pragma GCC diagnostic ignored "-Wunused-parameter"
  33:Generated_Source\PSoC6\pdl\cmsis/include/cmsis_gcc.h **** 
  34:Generated_Source\PSoC6\pdl\cmsis/include/cmsis_gcc.h **** /* Fallback for __has_builtin */
  35:Generated_Source\PSoC6\pdl\cmsis/include/cmsis_gcc.h **** #ifndef __has_builtin
  36:Generated_Source\PSoC6\pdl\cmsis/include/cmsis_gcc.h ****   #define __has_builtin(x) (0)
  37:Generated_Source\PSoC6\pdl\cmsis/include/cmsis_gcc.h **** #endif
  38:Generated_Source\PSoC6\pdl\cmsis/include/cmsis_gcc.h **** 
  39:Generated_Source\PSoC6\pdl\cmsis/include/cmsis_gcc.h **** /* CMSIS compiler specific defines */
  40:Generated_Source\PSoC6\pdl\cmsis/include/cmsis_gcc.h **** #ifndef   __ASM
  41:Generated_Source\PSoC6\pdl\cmsis/include/cmsis_gcc.h ****   #define __ASM                                  __asm
  42:Generated_Source\PSoC6\pdl\cmsis/include/cmsis_gcc.h **** #endif
  43:Generated_Source\PSoC6\pdl\cmsis/include/cmsis_gcc.h **** #ifndef   __INLINE
  44:Generated_Source\PSoC6\pdl\cmsis/include/cmsis_gcc.h ****   #define __INLINE                               inline
  45:Generated_Source\PSoC6\pdl\cmsis/include/cmsis_gcc.h **** #endif
  46:Generated_Source\PSoC6\pdl\cmsis/include/cmsis_gcc.h **** #ifndef   __STATIC_INLINE
  47:Generated_Source\PSoC6\pdl\cmsis/include/cmsis_gcc.h ****   #define __STATIC_INLINE                        static inline
  48:Generated_Source\PSoC6\pdl\cmsis/include/cmsis_gcc.h **** #endif
  49:Generated_Source\PSoC6\pdl\cmsis/include/cmsis_gcc.h **** #ifndef   __STATIC_FORCEINLINE                 
  50:Generated_Source\PSoC6\pdl\cmsis/include/cmsis_gcc.h ****   #define __STATIC_FORCEINLINE                   __attribute__((always_inline)) static inline
  51:Generated_Source\PSoC6\pdl\cmsis/include/cmsis_gcc.h **** #endif                                           
  52:Generated_Source\PSoC6\pdl\cmsis/include/cmsis_gcc.h **** #ifndef   __NO_RETURN
  53:Generated_Source\PSoC6\pdl\cmsis/include/cmsis_gcc.h ****   #define __NO_RETURN                            __attribute__((__noreturn__))
  54:Generated_Source\PSoC6\pdl\cmsis/include/cmsis_gcc.h **** #endif
  55:Generated_Source\PSoC6\pdl\cmsis/include/cmsis_gcc.h **** #ifndef   __USED
  56:Generated_Source\PSoC6\pdl\cmsis/include/cmsis_gcc.h ****   #define __USED                                 __attribute__((used))
  57:Generated_Source\PSoC6\pdl\cmsis/include/cmsis_gcc.h **** #endif
  58:Generated_Source\PSoC6\pdl\cmsis/include/cmsis_gcc.h **** #ifndef   __WEAK
  59:Generated_Source\PSoC6\pdl\cmsis/include/cmsis_gcc.h ****   #define __WEAK                                 __attribute__((weak))
  60:Generated_Source\PSoC6\pdl\cmsis/include/cmsis_gcc.h **** #endif
  61:Generated_Source\PSoC6\pdl\cmsis/include/cmsis_gcc.h **** #ifndef   __PACKED
  62:Generated_Source\PSoC6\pdl\cmsis/include/cmsis_gcc.h ****   #define __PACKED                               __attribute__((packed, aligned(1)))
  63:Generated_Source\PSoC6\pdl\cmsis/include/cmsis_gcc.h **** #endif
  64:Generated_Source\PSoC6\pdl\cmsis/include/cmsis_gcc.h **** #ifndef   __PACKED_STRUCT
  65:Generated_Source\PSoC6\pdl\cmsis/include/cmsis_gcc.h ****   #define __PACKED_STRUCT                        struct __attribute__((packed, aligned(1)))
  66:Generated_Source\PSoC6\pdl\cmsis/include/cmsis_gcc.h **** #endif
  67:Generated_Source\PSoC6\pdl\cmsis/include/cmsis_gcc.h **** #ifndef   __PACKED_UNION
  68:Generated_Source\PSoC6\pdl\cmsis/include/cmsis_gcc.h ****   #define __PACKED_UNION                         union __attribute__((packed, aligned(1)))
  69:Generated_Source\PSoC6\pdl\cmsis/include/cmsis_gcc.h **** #endif
  70:Generated_Source\PSoC6\pdl\cmsis/include/cmsis_gcc.h **** #ifndef   __UNALIGNED_UINT32        /* deprecated */
  71:Generated_Source\PSoC6\pdl\cmsis/include/cmsis_gcc.h ****   #pragma GCC diagnostic push
  72:Generated_Source\PSoC6\pdl\cmsis/include/cmsis_gcc.h ****   #pragma GCC diagnostic ignored "-Wpacked"
  73:Generated_Source\PSoC6\pdl\cmsis/include/cmsis_gcc.h ****   #pragma GCC diagnostic ignored "-Wattributes"
  74:Generated_Source\PSoC6\pdl\cmsis/include/cmsis_gcc.h ****   struct __attribute__((packed)) T_UINT32 { uint32_t v; };
  75:Generated_Source\PSoC6\pdl\cmsis/include/cmsis_gcc.h ****   #pragma GCC diagnostic pop
  76:Generated_Source\PSoC6\pdl\cmsis/include/cmsis_gcc.h ****   #define __UNALIGNED_UINT32(x)                  (((struct T_UINT32 *)(x))->v)
  77:Generated_Source\PSoC6\pdl\cmsis/include/cmsis_gcc.h **** #endif
  78:Generated_Source\PSoC6\pdl\cmsis/include/cmsis_gcc.h **** #ifndef   __UNALIGNED_UINT16_WRITE
ARM GAS  C:\Users\Angel\AppData\Local\Temp\ccvqOPgy.s 			page 55


  79:Generated_Source\PSoC6\pdl\cmsis/include/cmsis_gcc.h ****   #pragma GCC diagnostic push
  80:Generated_Source\PSoC6\pdl\cmsis/include/cmsis_gcc.h ****   #pragma GCC diagnostic ignored "-Wpacked"
  81:Generated_Source\PSoC6\pdl\cmsis/include/cmsis_gcc.h ****   #pragma GCC diagnostic ignored "-Wattributes"
  82:Generated_Source\PSoC6\pdl\cmsis/include/cmsis_gcc.h ****   __PACKED_STRUCT T_UINT16_WRITE { uint16_t v; };
  83:Generated_Source\PSoC6\pdl\cmsis/include/cmsis_gcc.h ****   #pragma GCC diagnostic pop
  84:Generated_Source\PSoC6\pdl\cmsis/include/cmsis_gcc.h ****   #define __UNALIGNED_UINT16_WRITE(addr, val)    (void)((((struct T_UINT16_WRITE *)(void *)(addr))-
  85:Generated_Source\PSoC6\pdl\cmsis/include/cmsis_gcc.h **** #endif
  86:Generated_Source\PSoC6\pdl\cmsis/include/cmsis_gcc.h **** #ifndef   __UNALIGNED_UINT16_READ
  87:Generated_Source\PSoC6\pdl\cmsis/include/cmsis_gcc.h ****   #pragma GCC diagnostic push
  88:Generated_Source\PSoC6\pdl\cmsis/include/cmsis_gcc.h ****   #pragma GCC diagnostic ignored "-Wpacked"
  89:Generated_Source\PSoC6\pdl\cmsis/include/cmsis_gcc.h ****   #pragma GCC diagnostic ignored "-Wattributes"
  90:Generated_Source\PSoC6\pdl\cmsis/include/cmsis_gcc.h ****   __PACKED_STRUCT T_UINT16_READ { uint16_t v; };
  91:Generated_Source\PSoC6\pdl\cmsis/include/cmsis_gcc.h ****   #pragma GCC diagnostic pop
  92:Generated_Source\PSoC6\pdl\cmsis/include/cmsis_gcc.h ****   #define __UNALIGNED_UINT16_READ(addr)          (((const struct T_UINT16_READ *)(const void *)(add
  93:Generated_Source\PSoC6\pdl\cmsis/include/cmsis_gcc.h **** #endif
  94:Generated_Source\PSoC6\pdl\cmsis/include/cmsis_gcc.h **** #ifndef   __UNALIGNED_UINT32_WRITE
  95:Generated_Source\PSoC6\pdl\cmsis/include/cmsis_gcc.h ****   #pragma GCC diagnostic push
  96:Generated_Source\PSoC6\pdl\cmsis/include/cmsis_gcc.h ****   #pragma GCC diagnostic ignored "-Wpacked"
  97:Generated_Source\PSoC6\pdl\cmsis/include/cmsis_gcc.h ****   #pragma GCC diagnostic ignored "-Wattributes"
  98:Generated_Source\PSoC6\pdl\cmsis/include/cmsis_gcc.h ****   __PACKED_STRUCT T_UINT32_WRITE { uint32_t v; };
  99:Generated_Source\PSoC6\pdl\cmsis/include/cmsis_gcc.h ****   #pragma GCC diagnostic pop
 100:Generated_Source\PSoC6\pdl\cmsis/include/cmsis_gcc.h ****   #define __UNALIGNED_UINT32_WRITE(addr, val)    (void)((((struct T_UINT32_WRITE *)(void *)(addr))-
 101:Generated_Source\PSoC6\pdl\cmsis/include/cmsis_gcc.h **** #endif
 102:Generated_Source\PSoC6\pdl\cmsis/include/cmsis_gcc.h **** #ifndef   __UNALIGNED_UINT32_READ
 103:Generated_Source\PSoC6\pdl\cmsis/include/cmsis_gcc.h ****   #pragma GCC diagnostic push
 104:Generated_Source\PSoC6\pdl\cmsis/include/cmsis_gcc.h ****   #pragma GCC diagnostic ignored "-Wpacked"
 105:Generated_Source\PSoC6\pdl\cmsis/include/cmsis_gcc.h ****   #pragma GCC diagnostic ignored "-Wattributes"
 106:Generated_Source\PSoC6\pdl\cmsis/include/cmsis_gcc.h ****   __PACKED_STRUCT T_UINT32_READ { uint32_t v; };
 107:Generated_Source\PSoC6\pdl\cmsis/include/cmsis_gcc.h ****   #pragma GCC diagnostic pop
 108:Generated_Source\PSoC6\pdl\cmsis/include/cmsis_gcc.h ****   #define __UNALIGNED_UINT32_READ(addr)          (((const struct T_UINT32_READ *)(const void *)(add
 109:Generated_Source\PSoC6\pdl\cmsis/include/cmsis_gcc.h **** #endif
 110:Generated_Source\PSoC6\pdl\cmsis/include/cmsis_gcc.h **** #ifndef   __ALIGNED
 111:Generated_Source\PSoC6\pdl\cmsis/include/cmsis_gcc.h ****   #define __ALIGNED(x)                           __attribute__((aligned(x)))
 112:Generated_Source\PSoC6\pdl\cmsis/include/cmsis_gcc.h **** #endif
 113:Generated_Source\PSoC6\pdl\cmsis/include/cmsis_gcc.h **** #ifndef   __RESTRICT
 114:Generated_Source\PSoC6\pdl\cmsis/include/cmsis_gcc.h ****   #define __RESTRICT                             __restrict
 115:Generated_Source\PSoC6\pdl\cmsis/include/cmsis_gcc.h **** #endif
 116:Generated_Source\PSoC6\pdl\cmsis/include/cmsis_gcc.h **** 
 117:Generated_Source\PSoC6\pdl\cmsis/include/cmsis_gcc.h **** 
 118:Generated_Source\PSoC6\pdl\cmsis/include/cmsis_gcc.h **** /* ###########################  Core Function Access  ########################### */
 119:Generated_Source\PSoC6\pdl\cmsis/include/cmsis_gcc.h **** /** \ingroup  CMSIS_Core_FunctionInterface
 120:Generated_Source\PSoC6\pdl\cmsis/include/cmsis_gcc.h ****     \defgroup CMSIS_Core_RegAccFunctions CMSIS Core Register Access Functions
 121:Generated_Source\PSoC6\pdl\cmsis/include/cmsis_gcc.h ****   @{
 122:Generated_Source\PSoC6\pdl\cmsis/include/cmsis_gcc.h ****  */
 123:Generated_Source\PSoC6\pdl\cmsis/include/cmsis_gcc.h **** 
 124:Generated_Source\PSoC6\pdl\cmsis/include/cmsis_gcc.h **** /**
 125:Generated_Source\PSoC6\pdl\cmsis/include/cmsis_gcc.h ****   \brief   Enable IRQ Interrupts
 126:Generated_Source\PSoC6\pdl\cmsis/include/cmsis_gcc.h ****   \details Enables IRQ interrupts by clearing the I-bit in the CPSR.
 127:Generated_Source\PSoC6\pdl\cmsis/include/cmsis_gcc.h ****            Can only be executed in Privileged modes.
 128:Generated_Source\PSoC6\pdl\cmsis/include/cmsis_gcc.h ****  */
 129:Generated_Source\PSoC6\pdl\cmsis/include/cmsis_gcc.h **** __STATIC_FORCEINLINE void __enable_irq(void)
 130:Generated_Source\PSoC6\pdl\cmsis/include/cmsis_gcc.h **** {
 131:Generated_Source\PSoC6\pdl\cmsis/include/cmsis_gcc.h ****   __ASM volatile ("cpsie i" : : : "memory");
 1656              		.loc 3 131 0
 1657              		.syntax unified
 1658              	@ 131 "Generated_Source\PSoC6\pdl\cmsis/include/cmsis_gcc.h" 1
 1659 0004 62B6     		cpsie i
ARM GAS  C:\Users\Angel\AppData\Local\Temp\ccvqOPgy.s 			page 56


 1660              	@ 0 "" 2
 1661              		.thumb
 1662              		.syntax unified
 1663              	.LBE583:
 1664              	.LBE582:
 299:main_cm4.c    ****     
 1665              		.loc 1 299 0
 1666 0006 0220     		movs	r0, #2
 1667 0008 FFF7FEFF 		bl	tty_init
 1668              	.LVL165:
 301:main_cm4.c    ****     ADC_1_Init();
 1669              		.loc 1 301 0
 1670 000c FFF7FEFF 		bl	CLCD_Init
 1671              	.LVL166:
 302:main_cm4.c    ****     ADC_1_Start();
 1672              		.loc 1 302 0
 1673 0010 FFF7FEFF 		bl	ADC_1_Init
 1674              	.LVL167:
 303:main_cm4.c    ****     ADC_1_StartConvert();
 1675              		.loc 1 303 0
 1676 0014 FFF7FEFF 		bl	ADC_1_Start
 1677              	.LVL168:
 304:main_cm4.c    ****    // splash("PSoC 6 CLCD Test\n") ;
 1678              		.loc 1 304 0
 1679 0018 FFF7FEFF 		bl	ADC_1_StartConvert
 1680              	.LVL169:
 1681              	.L81:
 1682              	.LBB584:
 1683              	.LBB585:
 779:Generated_Source\PSoC6\pdl\drivers/peripheral/gpio/cy_gpio.h **** }
 1684              		.loc 2 779 0
 1685 001c 2C4B     		ldr	r3, .L90
 1686 001e 1B69     		ldr	r3, [r3, #16]
 1687              	.LVL170:
 1688              	.LBE585:
 1689              	.LBE584:
 327:main_cm4.c    ****             {
 1690              		.loc 1 327 0
 1691 0020 13F0100F 		tst	r3, #16
 1692 0024 03D0     		beq	.L82
 329:main_cm4.c    ****             }
 1693              		.loc 1 329 0
 1694 0026 2B48     		ldr	r0, .L90+4
 1695 0028 FFF7FEFF 		bl	CLCD_PutString
 1696              	.LVL171:
 1697 002c F6E7     		b	.L81
 1698              	.L82:
 1699              	.LBB586:
 333:main_cm4.c    ****                CLCD_PutString("Acquiring Pic...");
 1700              		.loc 1 333 0
 1701 002e FFF7FEFF 		bl	CLCD_Clear
 1702              	.LVL172:
 334:main_cm4.c    ****                int i, j;
 1703              		.loc 1 334 0
 1704 0032 2948     		ldr	r0, .L90+8
 1705 0034 FFF7FEFF 		bl	CLCD_PutString
 1706              	.LVL173:
ARM GAS  C:\Users\Angel\AppData\Local\Temp\ccvqOPgy.s 			page 57


 337:main_cm4.c    ****             {
 1707              		.loc 1 337 0
 1708 0038 0026     		movs	r6, #0
 1709 003a 3AE0     		b	.L84
 1710              	.LVL174:
 1711              	.L88:
 339:main_cm4.c    ****                 CyDelay(1);//Psoc is 6.7 ns; Mux needs 500 ns delay (THIS IS 1 ms)
 1712              		.loc 1 339 0
 1713 003c 3046     		mov	r0, r6
 1714 003e FFF7FEFF 		bl	rowselect
 1715              	.LVL175:
 340:main_cm4.c    ****                 for(j=0; j<size; j++)
 1716              		.loc 1 340 0
 1717 0042 0120     		movs	r0, #1
 1718 0044 FFF7FEFF 		bl	Cy_SysLib_Delay
 1719              	.LVL176:
 341:main_cm4.c    ****                 { 
 1720              		.loc 1 341 0
 1721 0048 0024     		movs	r4, #0
 1722 004a 2FE0     		b	.L85
 1723              	.LVL177:
 1724              	.L87:
 1725              	.LBB587:
 343:main_cm4.c    ****                         CyDelay(1); //Psoc is 6.7 ns; Mux is 500 ns delay (THIS IS 1 ms)
 1726              		.loc 1 343 0 discriminator 3
 1727 004c 2046     		mov	r0, r4
 1728 004e FFF7FEFF 		bl	columnselect
 1729              	.LVL178:
 344:main_cm4.c    ****                         
 1730              		.loc 1 344 0 discriminator 3
 1731 0052 0120     		movs	r0, #1
 1732 0054 FFF7FEFF 		bl	Cy_SysLib_Delay
 1733              	.LVL179:
 350:main_cm4.c    ****                         ADC_1_IsEndConversion(1);
 1734              		.loc 1 350 0 discriminator 3
 1735 0058 FFF7FEFF 		bl	ADC_1_StartConvert
 1736              	.LVL180:
 351:main_cm4.c    ****                         
 1737              		.loc 1 351 0 discriminator 3
 1738 005c 0120     		movs	r0, #1
 1739 005e FFF7FEFF 		bl	ADC_1_IsEndConversion
 1740              	.LVL181:
 1741              	.LBB588:
 1742              	.LBB589:
 1743              		.file 4 "Generated_Source\\PSoC6/ADC_1.h"
   1:Generated_Source\PSoC6/ADC_1.h **** /***************************************************************************//**
   2:Generated_Source\PSoC6/ADC_1.h **** * \file     ADC_1.h
   3:Generated_Source\PSoC6/ADC_1.h **** * \version  3.10
   4:Generated_Source\PSoC6/ADC_1.h **** *
   5:Generated_Source\PSoC6/ADC_1.h **** * \brief
   6:Generated_Source\PSoC6/ADC_1.h **** * Provides the source code to the API for the ADC_1 Component.
   7:Generated_Source\PSoC6/ADC_1.h **** *
   8:Generated_Source\PSoC6/ADC_1.h **** ********************************************************************************
   9:Generated_Source\PSoC6/ADC_1.h **** * \copyright
  10:Generated_Source\PSoC6/ADC_1.h **** * (c) 2017-2018, Cypress Semiconductor Corporation. All rights reserved.
  11:Generated_Source\PSoC6/ADC_1.h **** * This software, including source code, documentation and related
  12:Generated_Source\PSoC6/ADC_1.h **** * materials ("Software"), is owned by Cypress Semiconductor
ARM GAS  C:\Users\Angel\AppData\Local\Temp\ccvqOPgy.s 			page 58


  13:Generated_Source\PSoC6/ADC_1.h **** * Corporation ("Cypress") and is protected by and subject to worldwide
  14:Generated_Source\PSoC6/ADC_1.h **** * patent protection (United States and foreign), United States copyright
  15:Generated_Source\PSoC6/ADC_1.h **** * laws and international treaty provisions. Therefore, you may use this
  16:Generated_Source\PSoC6/ADC_1.h **** * Software only as provided in the license agreement accompanying the
  17:Generated_Source\PSoC6/ADC_1.h **** * software package from which you obtained this Software ("EULA").
  18:Generated_Source\PSoC6/ADC_1.h **** * If no EULA applies, Cypress hereby grants you a personal, nonexclusive,
  19:Generated_Source\PSoC6/ADC_1.h **** * non-transferable license to copy, modify, and compile the
  20:Generated_Source\PSoC6/ADC_1.h **** * Software source code solely for use in connection with Cypress's
  21:Generated_Source\PSoC6/ADC_1.h **** * integrated circuit products. Any reproduction, modification, translation,
  22:Generated_Source\PSoC6/ADC_1.h **** * compilation, or representation of this Software except as specified
  23:Generated_Source\PSoC6/ADC_1.h **** * above is prohibited without the express written permission of Cypress.
  24:Generated_Source\PSoC6/ADC_1.h **** * Disclaimer: THIS SOFTWARE IS PROVIDED AS-IS, WITH NO
  25:Generated_Source\PSoC6/ADC_1.h **** * WARRANTY OF ANY KIND, EXPRESS OR IMPLIED, INCLUDING,
  26:Generated_Source\PSoC6/ADC_1.h **** * BUT NOT LIMITED TO, NONINFRINGEMENT, IMPLIED
  27:Generated_Source\PSoC6/ADC_1.h **** * WARRANTIES OF MERCHANTABILITY AND FITNESS FOR A
  28:Generated_Source\PSoC6/ADC_1.h **** * PARTICULAR PURPOSE. Cypress reserves the right to make
  29:Generated_Source\PSoC6/ADC_1.h **** * changes to the Software without notice. Cypress does not assume any
  30:Generated_Source\PSoC6/ADC_1.h **** * liability arising out of the application or use of the Software or any
  31:Generated_Source\PSoC6/ADC_1.h **** * product or circuit described in the Software. Cypress does not
  32:Generated_Source\PSoC6/ADC_1.h **** * authorize its products for use in any products where a malfunction or
  33:Generated_Source\PSoC6/ADC_1.h **** * failure of the Cypress product may reasonably be expected to result in
  34:Generated_Source\PSoC6/ADC_1.h **** * significant property damage, injury or death ("High Risk Product"). By
  35:Generated_Source\PSoC6/ADC_1.h **** * including Cypress's product in a High Risk Product, the manufacturer
  36:Generated_Source\PSoC6/ADC_1.h **** * of such system or application assumes all risk of such use and in doing
  37:Generated_Source\PSoC6/ADC_1.h **** * so agrees to indemnify Cypress against all liability.
  38:Generated_Source\PSoC6/ADC_1.h **** *******************************************************************************/
  39:Generated_Source\PSoC6/ADC_1.h **** #if !defined(CY_ADC_1_H)
  40:Generated_Source\PSoC6/ADC_1.h **** #define CY_ADC_1_H
  41:Generated_Source\PSoC6/ADC_1.h **** 
  42:Generated_Source\PSoC6/ADC_1.h **** #include <cy_device_headers.h>
  43:Generated_Source\PSoC6/ADC_1.h **** #include <sar/cy_sar.h>
  44:Generated_Source\PSoC6/ADC_1.h **** 
  45:Generated_Source\PSoC6/ADC_1.h **** #define ADC_1_VREF_ROUTED                  ((0) == 1u)
  46:Generated_Source\PSoC6/ADC_1.h **** #if (ADC_1_VREF_ROUTED)
  47:Generated_Source\PSoC6/ADC_1.h **** #include "ADC_1_vrefAMux.h"
  48:Generated_Source\PSoC6/ADC_1.h **** #endif
  49:Generated_Source\PSoC6/ADC_1.h **** 
  50:Generated_Source\PSoC6/ADC_1.h **** #define ADC_1_CLOCK_INTERNAL               ((1) == 1u)
  51:Generated_Source\PSoC6/ADC_1.h **** #if (ADC_1_CLOCK_INTERNAL)
  52:Generated_Source\PSoC6/ADC_1.h **** #include "ADC_1_intSarClock.h"
  53:Generated_Source\PSoC6/ADC_1.h **** #endif /* ADC_1_CLOCK_INTERNAL */
  54:Generated_Source\PSoC6/ADC_1.h **** 
  55:Generated_Source\PSoC6/ADC_1.h **** /**
  56:Generated_Source\PSoC6/ADC_1.h **** * \addtogroup group_structures
  57:Generated_Source\PSoC6/ADC_1.h **** *
  58:Generated_Source\PSoC6/ADC_1.h **** */
  59:Generated_Source\PSoC6/ADC_1.h **** typedef struct
  60:Generated_Source\PSoC6/ADC_1.h **** {
  61:Generated_Source\PSoC6/ADC_1.h ****     uint32_t channelBase;                   /* Start of channels for the configuration */
  62:Generated_Source\PSoC6/ADC_1.h ****     uint32_t numChannels;                   /* Number of channels in the configuration */
  63:Generated_Source\PSoC6/ADC_1.h ****     const cy_stc_sar_config_t *hwConfigStc; /* PDL structure */
  64:Generated_Source\PSoC6/ADC_1.h ****     uint32_t miscConfig;                    /* Miscellaneous configuration bits broken down as foll
  65:Generated_Source\PSoC6/ADC_1.h ****                                             [0] - Freerunning: Set if the sample mode is freerunnin
  66:Generated_Source\PSoC6/ADC_1.h ****                                             [2] - Mux Switch 0: Set when VSSA is used for the neg i
  67:Generated_Source\PSoC6/ADC_1.h ****                                             */
  68:Generated_Source\PSoC6/ADC_1.h **** #if (ADC_1_CLOCK_INTERNAL)
  69:Generated_Source\PSoC6/ADC_1.h ****     uint32_t clkDivider;                    /* Clock divider */
ARM GAS  C:\Users\Angel\AppData\Local\Temp\ccvqOPgy.s 			page 59


  70:Generated_Source\PSoC6/ADC_1.h **** #endif /* ADC_1_CLOCK_INTERNAL */
  71:Generated_Source\PSoC6/ADC_1.h **** 
  72:Generated_Source\PSoC6/ADC_1.h **** } ADC_1_CONFIG_STRUCT;
  73:Generated_Source\PSoC6/ADC_1.h **** /** @} structures */
  74:Generated_Source\PSoC6/ADC_1.h **** 
  75:Generated_Source\PSoC6/ADC_1.h **** /*******************************************************************************
  76:Generated_Source\PSoC6/ADC_1.h **** * Function Prototypes
  77:Generated_Source\PSoC6/ADC_1.h **** *******************************************************************************/
  78:Generated_Source\PSoC6/ADC_1.h **** void ADC_1_SelectConfig(uint32_t config, uint32_t restart);
  79:Generated_Source\PSoC6/ADC_1.h **** void ADC_1_InitConfig(const ADC_1_CONFIG_STRUCT *config);
  80:Generated_Source\PSoC6/ADC_1.h **** void ADC_1_Init(void);
  81:Generated_Source\PSoC6/ADC_1.h **** __STATIC_INLINE void ADC_1_Enable(void);
  82:Generated_Source\PSoC6/ADC_1.h **** 
  83:Generated_Source\PSoC6/ADC_1.h **** /**
  84:Generated_Source\PSoC6/ADC_1.h **** * \addtogroup group_general
  85:Generated_Source\PSoC6/ADC_1.h **** * @{
  86:Generated_Source\PSoC6/ADC_1.h **** */
  87:Generated_Source\PSoC6/ADC_1.h **** void ADC_1_Start(void);
  88:Generated_Source\PSoC6/ADC_1.h **** void ADC_1_StartEx(cy_israddress userIsr);
  89:Generated_Source\PSoC6/ADC_1.h **** __STATIC_INLINE void ADC_1_Stop(void);
  90:Generated_Source\PSoC6/ADC_1.h **** void ADC_1_StartConvert(void);
  91:Generated_Source\PSoC6/ADC_1.h **** __STATIC_INLINE void ADC_1_StopConvert(void);
  92:Generated_Source\PSoC6/ADC_1.h **** void ADC_1_SetConvertMode(cy_en_sar_start_convert_sel_t mode);
  93:Generated_Source\PSoC6/ADC_1.h **** void ADC_1_SetEosMask(uint32_t mask);
  94:Generated_Source\PSoC6/ADC_1.h **** uint32_t ADC_1_IsEndConversion(cy_en_sar_return_mode_t retMode);
  95:Generated_Source\PSoC6/ADC_1.h **** __STATIC_INLINE int16_t ADC_1_GetResult16(uint32_t chan);
  96:Generated_Source\PSoC6/ADC_1.h **** __STATIC_INLINE int32_t ADC_1_GetResult32(uint32_t chan);
  97:Generated_Source\PSoC6/ADC_1.h **** __STATIC_INLINE void ADC_1_SetLowLimit(uint32_t lowLimit);
  98:Generated_Source\PSoC6/ADC_1.h **** __STATIC_INLINE void ADC_1_SetHighLimit(uint32_t highLimit);
  99:Generated_Source\PSoC6/ADC_1.h **** __STATIC_INLINE void ADC_1_SetLimitMask(uint32_t limitMask);
 100:Generated_Source\PSoC6/ADC_1.h **** __STATIC_INLINE void ADC_1_SetSatMask(uint32_t satMask);
 101:Generated_Source\PSoC6/ADC_1.h **** __STATIC_INLINE cy_en_sar_status_t ADC_1_SetOffset(uint32_t chan, int16_t offset);
 102:Generated_Source\PSoC6/ADC_1.h **** __STATIC_INLINE cy_en_sar_status_t ADC_1_SetGain(uint32_t chan, int32_t adcGain);
 103:Generated_Source\PSoC6/ADC_1.h **** __STATIC_INLINE float32_t ADC_1_CountsTo_Volts(uint32_t chan, int16_t adcCounts);
 104:Generated_Source\PSoC6/ADC_1.h **** __STATIC_INLINE int16_t ADC_1_CountsTo_mVolts(uint32_t chan, int16_t adcCounts);
 105:Generated_Source\PSoC6/ADC_1.h **** __STATIC_INLINE int32_t ADC_1_CountsTo_uVolts(uint32_t chan, int16_t adcCounts);
 106:Generated_Source\PSoC6/ADC_1.h **** 
 107:Generated_Source\PSoC6/ADC_1.h **** /** @} general */
 108:Generated_Source\PSoC6/ADC_1.h **** 
 109:Generated_Source\PSoC6/ADC_1.h **** void ADC_1_SetChanMask(uint32_t enableMask);
 110:Generated_Source\PSoC6/ADC_1.h **** 
 111:Generated_Source\PSoC6/ADC_1.h **** /**
 112:Generated_Source\PSoC6/ADC_1.h **** * \addtogroup group_power
 113:Generated_Source\PSoC6/ADC_1.h **** * @{
 114:Generated_Source\PSoC6/ADC_1.h **** */
 115:Generated_Source\PSoC6/ADC_1.h **** __STATIC_INLINE void ADC_1_Sleep(void);
 116:Generated_Source\PSoC6/ADC_1.h **** __STATIC_INLINE void ADC_1_Wakeup(void);
 117:Generated_Source\PSoC6/ADC_1.h **** 
 118:Generated_Source\PSoC6/ADC_1.h **** /** @} power */
 119:Generated_Source\PSoC6/ADC_1.h **** 
 120:Generated_Source\PSoC6/ADC_1.h **** /**
 121:Generated_Source\PSoC6/ADC_1.h **** * \addtogroup group_interrupt
 122:Generated_Source\PSoC6/ADC_1.h **** * @{
 123:Generated_Source\PSoC6/ADC_1.h **** */
 124:Generated_Source\PSoC6/ADC_1.h **** void ADC_1_ISR(void);
 125:Generated_Source\PSoC6/ADC_1.h **** void ADC_1_IRQ_Enable(void);
 126:Generated_Source\PSoC6/ADC_1.h **** void ADC_1_IRQ_Disable(void);
ARM GAS  C:\Users\Angel\AppData\Local\Temp\ccvqOPgy.s 			page 60


 127:Generated_Source\PSoC6/ADC_1.h **** 
 128:Generated_Source\PSoC6/ADC_1.h **** /** @} interrupt */
 129:Generated_Source\PSoC6/ADC_1.h **** 
 130:Generated_Source\PSoC6/ADC_1.h **** /*******************************************************************************
 131:Generated_Source\PSoC6/ADC_1.h ****                                   Parameters
 132:Generated_Source\PSoC6/ADC_1.h **** The parameters that are set in the customizer are redefined as constants here.
 133:Generated_Source\PSoC6/ADC_1.h **** *******************************************************************************/
 134:Generated_Source\PSoC6/ADC_1.h **** 
 135:Generated_Source\PSoC6/ADC_1.h **** /*  Sample Mode setting constants */
 136:Generated_Source\PSoC6/ADC_1.h **** #define ADC_1_TOTAL_CONFIGS                (1ul)
 137:Generated_Source\PSoC6/ADC_1.h **** 
 138:Generated_Source\PSoC6/ADC_1.h **** /* ************************************************************************** */
 139:Generated_Source\PSoC6/ADC_1.h **** /* Begin configuration 0 customizer defines                                   */
 140:Generated_Source\PSoC6/ADC_1.h **** /* ************************************************************************** */
 141:Generated_Source\PSoC6/ADC_1.h **** 
 142:Generated_Source\PSoC6/ADC_1.h **** #define ADC_1_CFG0_SAMPLE_RATE             (100000)
 143:Generated_Source\PSoC6/ADC_1.h **** #define ADC_1_CFG0_CHANNEL_BASE            (0u)
 144:Generated_Source\PSoC6/ADC_1.h **** #define ADC_1_CFG0_CHANNEL_COUNT           (1u)
 145:Generated_Source\PSoC6/ADC_1.h **** #define ADC_1_CFG0_VREF_SEL_MASK           (0x70u)
 146:Generated_Source\PSoC6/ADC_1.h **** #define ADC_1_CFG0_NOMINAL_CLOCK_FREQ      (16666666u)
 147:Generated_Source\PSoC6/ADC_1.h **** #define ADC_1_CFG0_CHANNEL_EN              (0x1u)
 148:Generated_Source\PSoC6/ADC_1.h **** 
 149:Generated_Source\PSoC6/ADC_1.h **** /* Sample Control Register */
 150:Generated_Source\PSoC6/ADC_1.h **** #define ADC_1_CFG0_SINGLE_ENDED_FORMAT     (1uL)
 151:Generated_Source\PSoC6/ADC_1.h **** #define ADC_1_CFG0_DIFFERENTIAL_FORMAT     (1uL)
 152:Generated_Source\PSoC6/ADC_1.h **** #define ADC_1_CFG0_SAMPLES_AVERAGED        (7uL)
 153:Generated_Source\PSoC6/ADC_1.h **** #define ADC_1_CFG0_RANGE_INTR_MASK         (0x0u)
 154:Generated_Source\PSoC6/ADC_1.h **** #define ADC_1_CFG0_SATURATE_INTR_MASK      (0x0u)
 155:Generated_Source\PSoC6/ADC_1.h **** #define ADC_1_CFG0_VNEG_INPUT_SEL          (7)
 156:Generated_Source\PSoC6/ADC_1.h **** #define ADC_1_CFG0_SINGLE_PRESENT          (1)
 157:Generated_Source\PSoC6/ADC_1.h **** #define ADC_1_CFG0_VREF_MV_VALUE           (3300)
 158:Generated_Source\PSoC6/ADC_1.h **** #define ADC_1_CFG0_APERTURE_TIME0          (4uL)
 159:Generated_Source\PSoC6/ADC_1.h **** #define ADC_1_CFG0_APERTURE_TIME1          (2uL)
 160:Generated_Source\PSoC6/ADC_1.h **** #define ADC_1_CFG0_APERTURE_TIME2          (2uL)
 161:Generated_Source\PSoC6/ADC_1.h **** #define ADC_1_CFG0_APERTURE_TIME3          (2uL)
 162:Generated_Source\PSoC6/ADC_1.h **** #define ADC_1_CFG0_FREERUNNING             (0u)
 163:Generated_Source\PSoC6/ADC_1.h **** #define ADC_1_CFG0_AVGERAGING_MODE         (1uL)
 164:Generated_Source\PSoC6/ADC_1.h **** #define ADC_1_CFG0_LOW_LIMIT               (512u)
 165:Generated_Source\PSoC6/ADC_1.h **** #define ADC_1_CFG0_HIGH_LIMIT              (3584u)
 166:Generated_Source\PSoC6/ADC_1.h **** #define ADC_1_CFG0_RANGE_COND              (3uL)
 167:Generated_Source\PSoC6/ADC_1.h **** #define ADC_1_CFG0_USE_SOC                 (0uL)
 168:Generated_Source\PSoC6/ADC_1.h **** #define ADC_1_CFG0_VREF_PWR                (2uL)
 169:Generated_Source\PSoC6/ADC_1.h **** #define ADC_1_CFG0_COMP_PWR                (3uL)
 170:Generated_Source\PSoC6/ADC_1.h **** #define ADC_1_CFG0_COMP_DLY                (3uL)
 171:Generated_Source\PSoC6/ADC_1.h **** 
 172:Generated_Source\PSoC6/ADC_1.h **** /* Clock parameters*/
 173:Generated_Source\PSoC6/ADC_1.h **** #if (ADC_1_CLOCK_INTERNAL)
 174:Generated_Source\PSoC6/ADC_1.h ****     #define ADC_1_CFG0_CLOCKDIVIDER        (((CYDEV_CLK_PERICLK__HZ) / (ADC_1_CFG0_NOMINAL_CLOCK_FR
 175:Generated_Source\PSoC6/ADC_1.h **** #endif /* (ADC_1_CLOCK_INTERNAL) */
 176:Generated_Source\PSoC6/ADC_1.h **** 
 177:Generated_Source\PSoC6/ADC_1.h **** /* ************************************************************************** */
 178:Generated_Source\PSoC6/ADC_1.h **** /* End configuration 0 customizer defines                                     */
 179:Generated_Source\PSoC6/ADC_1.h **** /* ************************************************************************** */
 180:Generated_Source\PSoC6/ADC_1.h **** 
 181:Generated_Source\PSoC6/ADC_1.h **** /* ************************************************************************** */
 182:Generated_Source\PSoC6/ADC_1.h **** /* Begin configuration 1 customizer defines                                   */
 183:Generated_Source\PSoC6/ADC_1.h **** /* ************************************************************************** */
ARM GAS  C:\Users\Angel\AppData\Local\Temp\ccvqOPgy.s 			page 61


 184:Generated_Source\PSoC6/ADC_1.h **** 
 185:Generated_Source\PSoC6/ADC_1.h **** #if(ADC_1_TOTAL_CONFIGS > 1)
 186:Generated_Source\PSoC6/ADC_1.h ****     #define ADC_1_CFG1_SAMPLE_RATE             ()
 187:Generated_Source\PSoC6/ADC_1.h ****     #define ADC_1_CFG1_CHANNEL_BASE            (u)
 188:Generated_Source\PSoC6/ADC_1.h ****     #define ADC_1_CFG1_CHANNEL_COUNT           (u)
 189:Generated_Source\PSoC6/ADC_1.h ****     #define ADC_1_CFG1_VREF_SEL_MASK           (u)
 190:Generated_Source\PSoC6/ADC_1.h ****     #define ADC_1_CFG1_NOMINAL_CLOCK_FREQ      (u)
 191:Generated_Source\PSoC6/ADC_1.h ****     #define ADC_1_CFG1_CHANNEL_EN              (u)
 192:Generated_Source\PSoC6/ADC_1.h **** 
 193:Generated_Source\PSoC6/ADC_1.h ****     /* Sample Control Register */
 194:Generated_Source\PSoC6/ADC_1.h ****     #define ADC_1_CFG1_SINGLE_ENDED_FORMAT     (uL)
 195:Generated_Source\PSoC6/ADC_1.h ****     #define ADC_1_CFG1_DIFFERENTIAL_FORMAT     (uL)
 196:Generated_Source\PSoC6/ADC_1.h ****     #define ADC_1_CFG1_SAMPLES_AVERAGED        (uL)
 197:Generated_Source\PSoC6/ADC_1.h ****     #define ADC_1_CFG1_RANGE_INTR_MASK         (u)
 198:Generated_Source\PSoC6/ADC_1.h ****     #define ADC_1_CFG1_SATURATE_INTR_MASK      (u)
 199:Generated_Source\PSoC6/ADC_1.h ****     #define ADC_1_CFG1_VNEG_INPUT_SEL          ()
 200:Generated_Source\PSoC6/ADC_1.h ****     #define ADC_1_CFG1_SINGLE_PRESENT          ()
 201:Generated_Source\PSoC6/ADC_1.h ****     #define ADC_1_CFG1_VREF_MV_VALUE           ()
 202:Generated_Source\PSoC6/ADC_1.h ****     #define ADC_1_CFG1_APERTURE_TIME0          (uL)
 203:Generated_Source\PSoC6/ADC_1.h ****     #define ADC_1_CFG1_APERTURE_TIME1          (uL)
 204:Generated_Source\PSoC6/ADC_1.h ****     #define ADC_1_CFG1_APERTURE_TIME2          (uL)
 205:Generated_Source\PSoC6/ADC_1.h ****     #define ADC_1_CFG1_APERTURE_TIME3          (uL)
 206:Generated_Source\PSoC6/ADC_1.h ****     #define ADC_1_CFG1_FREERUNNING             (u)
 207:Generated_Source\PSoC6/ADC_1.h ****     #define ADC_1_CFG1_AVGERAGING_MODE         (uL)
 208:Generated_Source\PSoC6/ADC_1.h ****     #define ADC_1_CFG1_LOW_LIMIT               (u)
 209:Generated_Source\PSoC6/ADC_1.h ****     #define ADC_1_CFG1_HIGH_LIMIT              (u)
 210:Generated_Source\PSoC6/ADC_1.h ****     #define ADC_1_CFG1_RANGE_COND              (uL)
 211:Generated_Source\PSoC6/ADC_1.h ****     #define ADC_1_CFG1_USE_SOC                 (0uL)
 212:Generated_Source\PSoC6/ADC_1.h ****     #define ADC_1_CFG1_VREF_PWR                (uL)
 213:Generated_Source\PSoC6/ADC_1.h ****     #define ADC_1_CFG1_COMP_PWR                (uL)
 214:Generated_Source\PSoC6/ADC_1.h ****     #define ADC_1_CFG1_COMP_DLY                (uL)
 215:Generated_Source\PSoC6/ADC_1.h **** 
 216:Generated_Source\PSoC6/ADC_1.h ****     /* Clock parameters*/
 217:Generated_Source\PSoC6/ADC_1.h ****     #if (ADC_1_CLOCK_INTERNAL)
 218:Generated_Source\PSoC6/ADC_1.h ****         #define ADC_1_CFG1_CLOCKDIVIDER        (((CYDEV_CLK_PERICLK__HZ) / (ADC_1_CFG1_NOMINAL_CLOC
 219:Generated_Source\PSoC6/ADC_1.h ****     #endif /* (ADC_1_CLOCK_INTERNAL) */
 220:Generated_Source\PSoC6/ADC_1.h **** #endif /* #if(ADC_1_TOTAL_CONFIGS > 1) */
 221:Generated_Source\PSoC6/ADC_1.h **** 
 222:Generated_Source\PSoC6/ADC_1.h **** /* ************************************************************************** */
 223:Generated_Source\PSoC6/ADC_1.h **** /* End configuration 1 customizer defines                                     */
 224:Generated_Source\PSoC6/ADC_1.h **** /* ************************************************************************** */
 225:Generated_Source\PSoC6/ADC_1.h **** 
 226:Generated_Source\PSoC6/ADC_1.h **** /* ************************************************************************** */
 227:Generated_Source\PSoC6/ADC_1.h **** /* Begin configuration 2 customizer defines                                         */
 228:Generated_Source\PSoC6/ADC_1.h **** /* ************************************************************************** */
 229:Generated_Source\PSoC6/ADC_1.h **** 
 230:Generated_Source\PSoC6/ADC_1.h **** #if(ADC_1_TOTAL_CONFIGS > 2)
 231:Generated_Source\PSoC6/ADC_1.h ****     #define ADC_1_CFG2_SAMPLE_RATE             ()
 232:Generated_Source\PSoC6/ADC_1.h ****     #define ADC_1_CFG2_CHANNEL_BASE            (u)
 233:Generated_Source\PSoC6/ADC_1.h ****     #define ADC_1_CFG2_CHANNEL_COUNT           (u)
 234:Generated_Source\PSoC6/ADC_1.h ****     #define ADC_1_CFG2_VREF_SEL_MASK           (u)
 235:Generated_Source\PSoC6/ADC_1.h ****     #define ADC_1_CFG2_NOMINAL_CLOCK_FREQ      (u)
 236:Generated_Source\PSoC6/ADC_1.h ****     #define ADC_1_CFG2_CHANNEL_EN              (u)
 237:Generated_Source\PSoC6/ADC_1.h **** 
 238:Generated_Source\PSoC6/ADC_1.h ****     /* Sample Control Register */
 239:Generated_Source\PSoC6/ADC_1.h ****     #define ADC_1_CFG2_SINGLE_ENDED_FORMAT     (uL)
 240:Generated_Source\PSoC6/ADC_1.h ****     #define ADC_1_CFG2_DIFFERENTIAL_FORMAT     (uL)
ARM GAS  C:\Users\Angel\AppData\Local\Temp\ccvqOPgy.s 			page 62


 241:Generated_Source\PSoC6/ADC_1.h ****     #define ADC_1_CFG2_SAMPLES_AVERAGED        (uL)
 242:Generated_Source\PSoC6/ADC_1.h ****     #define ADC_1_CFG2_RANGE_INTR_MASK         (u)
 243:Generated_Source\PSoC6/ADC_1.h ****     #define ADC_1_CFG2_SATURATE_INTR_MASK      (u)
 244:Generated_Source\PSoC6/ADC_1.h ****     #define ADC_1_CFG2_VNEG_INPUT_SEL          ()
 245:Generated_Source\PSoC6/ADC_1.h ****     #define ADC_1_CFG2_SINGLE_PRESENT          ()
 246:Generated_Source\PSoC6/ADC_1.h ****     #define ADC_1_CFG2_VREF_MV_VALUE           ()
 247:Generated_Source\PSoC6/ADC_1.h ****     #define ADC_1_CFG2_APERTURE_TIME0          (uL)
 248:Generated_Source\PSoC6/ADC_1.h ****     #define ADC_1_CFG2_APERTURE_TIME1          (uL)
 249:Generated_Source\PSoC6/ADC_1.h ****     #define ADC_1_CFG2_APERTURE_TIME2          (uL)
 250:Generated_Source\PSoC6/ADC_1.h ****     #define ADC_1_CFG2_APERTURE_TIME3          (uL)
 251:Generated_Source\PSoC6/ADC_1.h ****     #define ADC_1_CFG2_FREERUNNING             (u)
 252:Generated_Source\PSoC6/ADC_1.h ****     #define ADC_1_CFG2_AVGERAGING_MODE         (uL)
 253:Generated_Source\PSoC6/ADC_1.h ****     #define ADC_1_CFG2_LOW_LIMIT               (u)
 254:Generated_Source\PSoC6/ADC_1.h ****     #define ADC_1_CFG2_HIGH_LIMIT              (u)
 255:Generated_Source\PSoC6/ADC_1.h ****     #define ADC_1_CFG2_RANGE_COND              (uL)
 256:Generated_Source\PSoC6/ADC_1.h ****     #define ADC_1_CFG2_USE_SOC                 (0uL)
 257:Generated_Source\PSoC6/ADC_1.h ****     #define ADC_1_CFG2_VREF_PWR                (uL)
 258:Generated_Source\PSoC6/ADC_1.h ****     #define ADC_1_CFG2_COMP_PWR                (uL)
 259:Generated_Source\PSoC6/ADC_1.h ****     #define ADC_1_CFG2_COMP_DLY                (uL)
 260:Generated_Source\PSoC6/ADC_1.h **** 
 261:Generated_Source\PSoC6/ADC_1.h ****     /* Clock parameters*/
 262:Generated_Source\PSoC6/ADC_1.h ****     #if (ADC_1_CLOCK_INTERNAL)
 263:Generated_Source\PSoC6/ADC_1.h ****         #define ADC_1_CFG2_CLOCKDIVIDER        (((CYDEV_CLK_PERICLK__HZ) / (ADC_1_CFG2_NOMINAL_CLOC
 264:Generated_Source\PSoC6/ADC_1.h ****     #endif /* (ADC_1_CLOCK_INTERNAL) */
 265:Generated_Source\PSoC6/ADC_1.h **** #endif /* (ADC_1_TOTAL_CONFIGS > 2) */
 266:Generated_Source\PSoC6/ADC_1.h **** 
 267:Generated_Source\PSoC6/ADC_1.h **** 
 268:Generated_Source\PSoC6/ADC_1.h **** /* ************************************************************************** */
 269:Generated_Source\PSoC6/ADC_1.h **** /* End configuration 2 customizer defines                                     */
 270:Generated_Source\PSoC6/ADC_1.h **** /* ************************************************************************** */
 271:Generated_Source\PSoC6/ADC_1.h **** 
 272:Generated_Source\PSoC6/ADC_1.h **** /* ************************************************************************** */
 273:Generated_Source\PSoC6/ADC_1.h **** /* Begin configuration 3 customizer defines                                   */
 274:Generated_Source\PSoC6/ADC_1.h **** /* ************************************************************************** */
 275:Generated_Source\PSoC6/ADC_1.h **** #if(ADC_1_TOTAL_CONFIGS > 3)
 276:Generated_Source\PSoC6/ADC_1.h ****     #define ADC_1_CFG3_SAMPLE_RATE             ()
 277:Generated_Source\PSoC6/ADC_1.h ****     #define ADC_1_CFG3_CHANNEL_BASE            (u)
 278:Generated_Source\PSoC6/ADC_1.h ****     #define ADC_1_CFG3_CHANNEL_COUNT           (u)
 279:Generated_Source\PSoC6/ADC_1.h ****     #define ADC_1_CFG3_VREF_SEL_MASK           (u)
 280:Generated_Source\PSoC6/ADC_1.h ****     #define ADC_1_CFG3_NOMINAL_CLOCK_FREQ      (u)
 281:Generated_Source\PSoC6/ADC_1.h ****     #define ADC_1_CFG3_CHANNEL_EN              (u)
 282:Generated_Source\PSoC6/ADC_1.h **** 
 283:Generated_Source\PSoC6/ADC_1.h ****     /* Sample Control Register */
 284:Generated_Source\PSoC6/ADC_1.h ****     #define ADC_1_CFG3_SINGLE_ENDED_FORMAT     (uL)
 285:Generated_Source\PSoC6/ADC_1.h ****     #define ADC_1_CFG3_DIFFERENTIAL_FORMAT     (uL)
 286:Generated_Source\PSoC6/ADC_1.h ****     #define ADC_1_CFG3_SAMPLES_AVERAGED        (uL)
 287:Generated_Source\PSoC6/ADC_1.h ****     #define ADC_1_CFG3_RANGE_INTR_MASK         (u)
 288:Generated_Source\PSoC6/ADC_1.h ****     #define ADC_1_CFG3_SATURATE_INTR_MASK      (u)
 289:Generated_Source\PSoC6/ADC_1.h ****     #define ADC_1_CFG3_VNEG_INPUT_SEL          ()
 290:Generated_Source\PSoC6/ADC_1.h ****     #define ADC_1_CFG3_SINGLE_PRESENT          ()
 291:Generated_Source\PSoC6/ADC_1.h ****     #define ADC_1_CFG3_VREF_MV_VALUE           ()
 292:Generated_Source\PSoC6/ADC_1.h ****     #define ADC_1_CFG3_APERTURE_TIME0          (uL)
 293:Generated_Source\PSoC6/ADC_1.h ****     #define ADC_1_CFG3_APERTURE_TIME1          (uL)
 294:Generated_Source\PSoC6/ADC_1.h ****     #define ADC_1_CFG3_APERTURE_TIME2          (uL)
 295:Generated_Source\PSoC6/ADC_1.h ****     #define ADC_1_CFG3_APERTURE_TIME3          (uL)
 296:Generated_Source\PSoC6/ADC_1.h ****     #define ADC_1_CFG3_FREERUNNING             (u)
 297:Generated_Source\PSoC6/ADC_1.h ****     #define ADC_1_CFG3_AVGERAGING_MODE         (uL)
ARM GAS  C:\Users\Angel\AppData\Local\Temp\ccvqOPgy.s 			page 63


 298:Generated_Source\PSoC6/ADC_1.h ****     #define ADC_1_CFG3_LOW_LIMIT               (u)
 299:Generated_Source\PSoC6/ADC_1.h ****     #define ADC_1_CFG3_HIGH_LIMIT              (u)
 300:Generated_Source\PSoC6/ADC_1.h ****     #define ADC_1_CFG3_RANGE_COND              (uL)
 301:Generated_Source\PSoC6/ADC_1.h ****     #define ADC_1_CFG3_USE_SOC                 (0uL)
 302:Generated_Source\PSoC6/ADC_1.h ****     #define ADC_1_CFG3_VREF_PWR                (uL)
 303:Generated_Source\PSoC6/ADC_1.h ****     #define ADC_1_CFG3_COMP_PWR                (uL)
 304:Generated_Source\PSoC6/ADC_1.h ****     #define ADC_1_CFG3_COMP_DLY                (uL)
 305:Generated_Source\PSoC6/ADC_1.h **** 
 306:Generated_Source\PSoC6/ADC_1.h ****     /* Clock parameters*/
 307:Generated_Source\PSoC6/ADC_1.h ****     #if (ADC_1_CLOCK_INTERNAL)
 308:Generated_Source\PSoC6/ADC_1.h ****         #define ADC_1_CFG3_CLOCKDIVIDER        (((CYDEV_CLK_PERICLK__HZ) / (ADC_1_CFG3_NOMINAL_CLOC
 309:Generated_Source\PSoC6/ADC_1.h ****     #endif /* (ADC_1_CLOCK_INTERNAL) */
 310:Generated_Source\PSoC6/ADC_1.h **** #endif /* (ADC_1_TOTAL_CONFIGS > 3) */
 311:Generated_Source\PSoC6/ADC_1.h **** 
 312:Generated_Source\PSoC6/ADC_1.h **** /* ************************************************************************** */
 313:Generated_Source\PSoC6/ADC_1.h **** /* End configuration 3 customizer defines                                     */
 314:Generated_Source\PSoC6/ADC_1.h **** /* ************************************************************************** */
 315:Generated_Source\PSoC6/ADC_1.h **** 
 316:Generated_Source\PSoC6/ADC_1.h **** #define ADC_1_DEFAULT_SAMPLE_MODE_SEL      (0u)
 317:Generated_Source\PSoC6/ADC_1.h **** #define ADC_1_FREERUNNING                  (1u)
 318:Generated_Source\PSoC6/ADC_1.h **** #define ADC_1_HARDWARESOC                  (1u)
 319:Generated_Source\PSoC6/ADC_1.h **** #define ADC_1_NEG_SEL_VSSA_KELVIN          (0x0uL)
 320:Generated_Source\PSoC6/ADC_1.h **** #define ADC_1_NEG_SEL_VREF                 (0x7uL)
 321:Generated_Source\PSoC6/ADC_1.h **** #define ADC_1_PWR_CTRL_VREF_NORMAL_PWR     (0x0uL)
 322:Generated_Source\PSoC6/ADC_1.h **** 
 323:Generated_Source\PSoC6/ADC_1.h **** /** ADC_1_TOTAL_CHANNELS_NUM
 324:Generated_Source\PSoC6/ADC_1.h **** * This constant represents the number of input channels available for scanning.
 325:Generated_Source\PSoC6/ADC_1.h **** */
 326:Generated_Source\PSoC6/ADC_1.h **** #define ADC_1_TOTAL_CHANNELS_NUM           (1u)
 327:Generated_Source\PSoC6/ADC_1.h **** 
 328:Generated_Source\PSoC6/ADC_1.h **** /*******************************************************************************
 329:Generated_Source\PSoC6/ADC_1.h **** *    Variables with External Linkage
 330:Generated_Source\PSoC6/ADC_1.h **** *******************************************************************************/
 331:Generated_Source\PSoC6/ADC_1.h **** /**
 332:Generated_Source\PSoC6/ADC_1.h **** * \addtogroup group_globals
 333:Generated_Source\PSoC6/ADC_1.h **** * Globals are noted in the descriptions of the functions that use globals.
 334:Generated_Source\PSoC6/ADC_1.h **** * They are marked with (R), (W), or (RW) noting whether the variable is read,
 335:Generated_Source\PSoC6/ADC_1.h **** * write, or read/write.
 336:Generated_Source\PSoC6/ADC_1.h **** * @{
 337:Generated_Source\PSoC6/ADC_1.h **** */
 338:Generated_Source\PSoC6/ADC_1.h **** 
 339:Generated_Source\PSoC6/ADC_1.h **** /** ADC_1_initVar
 340:Generated_Source\PSoC6/ADC_1.h **** * The ADC_1_initVar variable is used to indicate
 341:Generated_Source\PSoC6/ADC_1.h **** * initial configuration of this component. The variable is initialized to zero and
 342:Generated_Source\PSoC6/ADC_1.h **** * set to 1 the first time ADC_1_Start() is called. This allows for
 343:Generated_Source\PSoC6/ADC_1.h **** * component initialization without reinitialization in all subsequent calls to the
 344:Generated_Source\PSoC6/ADC_1.h **** * ADC_1_Start() routine.
 345:Generated_Source\PSoC6/ADC_1.h **** *
 346:Generated_Source\PSoC6/ADC_1.h **** * If reinitialization of the component is required, then the ADC_1_Init() function
 347:Generated_Source\PSoC6/ADC_1.h **** * can be called before the ADC_1_Start() or ADC_1_Enable()
 348:Generated_Source\PSoC6/ADC_1.h **** * functions.
 349:Generated_Source\PSoC6/ADC_1.h **** */
 350:Generated_Source\PSoC6/ADC_1.h **** extern uint8_t ADC_1_initVar;
 351:Generated_Source\PSoC6/ADC_1.h **** extern uint8_t ADC_1_selected;
 352:Generated_Source\PSoC6/ADC_1.h **** extern uint32_t ADC_1_currentConfig;
 353:Generated_Source\PSoC6/ADC_1.h **** 
 354:Generated_Source\PSoC6/ADC_1.h **** #define ADC_1_INIT_VAR_INIT_FLAG     (0x01u)
ARM GAS  C:\Users\Angel\AppData\Local\Temp\ccvqOPgy.s 			page 64


 355:Generated_Source\PSoC6/ADC_1.h **** 
 356:Generated_Source\PSoC6/ADC_1.h **** extern const ADC_1_CONFIG_STRUCT ADC_1_allConfigs[ADC_1_TOTAL_CONFIGS];
 357:Generated_Source\PSoC6/ADC_1.h **** 
 358:Generated_Source\PSoC6/ADC_1.h **** /* SysPm callback structure for deep sleep entry and exit.
 359:Generated_Source\PSoC6/ADC_1.h ****  * Call the Cy_SysPm_RegisterCallback function with this
 360:Generated_Source\PSoC6/ADC_1.h ****  * structure before calling Cy_SysPm_DeepSleep.
 361:Generated_Source\PSoC6/ADC_1.h **** */
 362:Generated_Source\PSoC6/ADC_1.h **** extern cy_stc_syspm_callback_t ADC_1_DeepSleepCallbackStruct;
 363:Generated_Source\PSoC6/ADC_1.h **** 
 364:Generated_Source\PSoC6/ADC_1.h **** /** @} globals */
 365:Generated_Source\PSoC6/ADC_1.h **** 
 366:Generated_Source\PSoC6/ADC_1.h **** /* ************************************************************************** */
 367:Generated_Source\PSoC6/ADC_1.h **** /* *******************Global MUX_SWITCH0 Definitions ************************ */
 368:Generated_Source\PSoC6/ADC_1.h **** /* ************************************************************************** */
 369:Generated_Source\PSoC6/ADC_1.h **** #if(ADC_1_CFG0_VNEG_INPUT_SEL == ADC_1_NEG_SEL_VSSA_KELVIN)
 370:Generated_Source\PSoC6/ADC_1.h ****     /* Do not connect VSSA to VMINUS when one channel in differential mode used */
 371:Generated_Source\PSoC6/ADC_1.h ****     #if((ADC_1_TOTAL_CHANNELS_NUM == 1u) && (ADC_1_CFG0_SINGLE_PRESENT == 0u))
 372:Generated_Source\PSoC6/ADC_1.h ****         #define ADC_1_MUX_SWITCH0_INIT      0u
 373:Generated_Source\PSoC6/ADC_1.h ****     #else    /* multiple channels or one single ended channel */
 374:Generated_Source\PSoC6/ADC_1.h ****         #define ADC_1_MUX_SWITCH0_INIT      1u
 375:Generated_Source\PSoC6/ADC_1.h ****     #endif /* ((ADC_1_TOTAL_CHANNELS_NUM == 1u) && (ADC_1_CFG0_SINGLE_PRESENT == 0u)) */
 376:Generated_Source\PSoC6/ADC_1.h **** #else
 377:Generated_Source\PSoC6/ADC_1.h ****     #define ADC_1_MUX_SWITCH0_INIT          0u
 378:Generated_Source\PSoC6/ADC_1.h **** #endif /* ADC_1_CFG0_VNEG_INPUT_SEL == ADC_1_NEG_SEL_VSSA_KELVIN */
 379:Generated_Source\PSoC6/ADC_1.h **** 
 380:Generated_Source\PSoC6/ADC_1.h **** /* ************************************************************************** */
 381:Generated_Source\PSoC6/ADC_1.h **** /* Begin configuration 0 calculated defines                                   */
 382:Generated_Source\PSoC6/ADC_1.h **** /* ************************************************************************** */
 383:Generated_Source\PSoC6/ADC_1.h **** #define ADC_1_CFG0_SAMPLE_TIME01_INIT \
 384:Generated_Source\PSoC6/ADC_1.h ****         ((ADC_1_CFG0_APERTURE_TIME0 \
 385:Generated_Source\PSoC6/ADC_1.h ****         << SAR_SAMPLE_TIME01_SAMPLE_TIME0_Pos) \
 386:Generated_Source\PSoC6/ADC_1.h ****         | (ADC_1_CFG0_APERTURE_TIME1 \
 387:Generated_Source\PSoC6/ADC_1.h ****         << SAR_SAMPLE_TIME01_SAMPLE_TIME1_Pos))
 388:Generated_Source\PSoC6/ADC_1.h **** 
 389:Generated_Source\PSoC6/ADC_1.h **** #define ADC_1_CFG0_SAMPLE_TIME23_INIT \
 390:Generated_Source\PSoC6/ADC_1.h ****         ((ADC_1_CFG0_APERTURE_TIME2 \
 391:Generated_Source\PSoC6/ADC_1.h ****         << SAR_SAMPLE_TIME23_SAMPLE_TIME2_Pos) \
 392:Generated_Source\PSoC6/ADC_1.h ****         | (ADC_1_CFG0_APERTURE_TIME3 \
 393:Generated_Source\PSoC6/ADC_1.h ****         << SAR_SAMPLE_TIME23_SAMPLE_TIME3_Pos))
 394:Generated_Source\PSoC6/ADC_1.h **** 
 395:Generated_Source\PSoC6/ADC_1.h **** /* Enable soc pin if used */
 396:Generated_Source\PSoC6/ADC_1.h **** #define ADC_1_CFG0_DSI_TRIGGER_EN_INIT \
 397:Generated_Source\PSoC6/ADC_1.h ****         (ADC_1_CFG0_USE_SOC \
 398:Generated_Source\PSoC6/ADC_1.h ****         << SAR_SAMPLE_CTRL_DSI_TRIGGER_EN_Pos)
 399:Generated_Source\PSoC6/ADC_1.h **** 
 400:Generated_Source\PSoC6/ADC_1.h **** /* Set soc operation to edge or level based on sample mode */
 401:Generated_Source\PSoC6/ADC_1.h **** #if(ADC_1_CFG0_FREERUNNING == ADC_1_FREERUNNING)
 402:Generated_Source\PSoC6/ADC_1.h ****     #define ADC_1_CFG0_DSI_TRIGGER_LEVEL_INIT    (SAR_SAMPLE_CTRL_DSI_TRIGGER_LEVEL_Msk)
 403:Generated_Source\PSoC6/ADC_1.h **** #else /* Edge trigger */
 404:Generated_Source\PSoC6/ADC_1.h ****     #define ADC_1_CFG0_DSI_TRIGGER_LEVEL_INIT    (0u)
 405:Generated_Source\PSoC6/ADC_1.h **** #endif /* End ADC_1_CFG0_FREERUNNING == ADC_1_FREERUNNING */
 406:Generated_Source\PSoC6/ADC_1.h **** 
 407:Generated_Source\PSoC6/ADC_1.h **** /* Set SE_NEG_INPUT */
 408:Generated_Source\PSoC6/ADC_1.h **** #if(ADC_1_CFG0_VNEG_INPUT_SEL == ADC_1_NEG_SEL_VSSA_KELVIN)
 409:Generated_Source\PSoC6/ADC_1.h ****     #define ADC_1_CFG0_SE_NEG_INPUT_INIT \
 410:Generated_Source\PSoC6/ADC_1.h ****             ((uint32)(ADC_1_NEG_SEL_VSSA_KELVIN \
 411:Generated_Source\PSoC6/ADC_1.h ****             << SAR_CTRL_NEG_SEL_Pos ))
ARM GAS  C:\Users\Angel\AppData\Local\Temp\ccvqOPgy.s 			page 65


 412:Generated_Source\PSoC6/ADC_1.h **** #elif(ADC_1_CFG0_VNEG_INPUT_SEL == ADC_1_NEG_SEL_VREF)
 413:Generated_Source\PSoC6/ADC_1.h **** 
 414:Generated_Source\PSoC6/ADC_1.h ****     /* Do not connect VNEG to VREF when one channel in differential mode used */
 415:Generated_Source\PSoC6/ADC_1.h ****     /* Only needed for config 0 since 2+ configs == 2+ channels */
 416:Generated_Source\PSoC6/ADC_1.h ****     #if((ADC_1_CFG0_CHANNEL_COUNT == 1u) && (ADC_1_CFG0_SINGLE_PRESENT == 0u))
 417:Generated_Source\PSoC6/ADC_1.h ****         #define ADC_1_CFG0_SE_NEG_INPUT_INIT     0u
 418:Generated_Source\PSoC6/ADC_1.h ****     #else    /* multiple channels or one single channel */
 419:Generated_Source\PSoC6/ADC_1.h ****         #define ADC_1_CFG0_SE_NEG_INPUT_INIT     (ADC_1_NEG_SEL_VREF \
 420:Generated_Source\PSoC6/ADC_1.h ****                                                             << SAR_CTRL_NEG_SEL_Pos )
 421:Generated_Source\PSoC6/ADC_1.h ****     #endif /* (ADC_1_CFG0_CHANNEL_COUNT == 1u) && (ADC_1_CFG0_CHANNELS_MODE != 0u) */
 422:Generated_Source\PSoC6/ADC_1.h **** #elif (ADC_1_CFG0_SINGLE_PRESENT != 0u)
 423:Generated_Source\PSoC6/ADC_1.h ****     #define ADC_1_CFG0_SE_NEG_INPUT_INIT         ADC_1_CFG0_NEG_OTHER
 424:Generated_Source\PSoC6/ADC_1.h **** #else
 425:Generated_Source\PSoC6/ADC_1.h ****     #define ADC_1_CFG0_SE_NEG_INPUT_INIT         0u
 426:Generated_Source\PSoC6/ADC_1.h **** #endif /* ADC_1_CFG0_VNEG_INPUT_SEL == ADC_1_NEG_SEL_VSSA_KELVIN */
 427:Generated_Source\PSoC6/ADC_1.h **** 
 428:Generated_Source\PSoC6/ADC_1.h **** #if(ADC_1_TOTAL_CHANNELS_NUM > 1u)
 429:Generated_Source\PSoC6/ADC_1.h ****     #define ADC_1_CFG0_NEG_OTHER                 (uint16)((uint16)ADC_1_SARMUX__VNEG0 << SAR_CTRL_N
 430:Generated_Source\PSoC6/ADC_1.h ****     #define ADC_1_CFG0_SWITCH_CONF_INIT          0u
 431:Generated_Source\PSoC6/ADC_1.h **** #else /* Disable SAR sequencer from enabling routing switches in single channel mode */
 432:Generated_Source\PSoC6/ADC_1.h ****     #define ADC_1_CFG0_SWITCH_CONF_INIT          SAR_CTRL_SWITCH_DISABLE_Msk
 433:Generated_Source\PSoC6/ADC_1.h ****     #define ADC_1_CFG0_NEG_OTHER                 0u
 434:Generated_Source\PSoC6/ADC_1.h **** #endif /* ADC_1_CFG0_CHANNEL_COUNT > 1u */
 435:Generated_Source\PSoC6/ADC_1.h **** 
 436:Generated_Source\PSoC6/ADC_1.h **** /* If the SAR is configured for multiple channels, always set SAR_HW_CTRL_NEGVREF to 1 */
 437:Generated_Source\PSoC6/ADC_1.h **** #if(ADC_1_TOTAL_CHANNELS_NUM == 1u)
 438:Generated_Source\PSoC6/ADC_1.h ****     #define ADC_1_CFG0_HW_CTRL_NEGVREF_INIT      0u
 439:Generated_Source\PSoC6/ADC_1.h **** #else
 440:Generated_Source\PSoC6/ADC_1.h ****     #define ADC_1_CFG0_HW_CTRL_NEGVREF_INIT      SAR_CTRL_SAR_HW_CTRL_NEGVREF_Msk
 441:Generated_Source\PSoC6/ADC_1.h **** #endif /* ADC_1_CFG0_CHANNEL_COUNT == 1u */
 442:Generated_Source\PSoC6/ADC_1.h **** 
 443:Generated_Source\PSoC6/ADC_1.h **** #define ADC_1_CFG0_POWER_INIT  (ADC_1_PWR_CTRL_VREF_NORMAL_PWR)
 444:Generated_Source\PSoC6/ADC_1.h **** 
 445:Generated_Source\PSoC6/ADC_1.h **** /* SAMPLE_CTRL initial values */
 446:Generated_Source\PSoC6/ADC_1.h **** #define ADC_1_CFG0_SE_RESULT_FORMAT_INIT \
 447:Generated_Source\PSoC6/ADC_1.h ****         (ADC_1_CFG0_SINGLE_ENDED_FORMAT \
 448:Generated_Source\PSoC6/ADC_1.h ****         << SAR_SAMPLE_CTRL_SINGLE_ENDED_SIGNED_Pos)
 449:Generated_Source\PSoC6/ADC_1.h **** 
 450:Generated_Source\PSoC6/ADC_1.h **** #define ADC_1_CFG0_DIFF_RESULT_FORMAT_INIT \
 451:Generated_Source\PSoC6/ADC_1.h ****         (ADC_1_CFG0_DIFFERENTIAL_FORMAT \
 452:Generated_Source\PSoC6/ADC_1.h ****         << SAR_SAMPLE_CTRL_DIFFERENTIAL_SIGNED_Pos)
 453:Generated_Source\PSoC6/ADC_1.h **** 
 454:Generated_Source\PSoC6/ADC_1.h **** #define ADC_1_CFG0_AVG_SAMPLES_NUM_INIT \
 455:Generated_Source\PSoC6/ADC_1.h ****         (ADC_1_CFG0_SAMPLES_AVERAGED \
 456:Generated_Source\PSoC6/ADC_1.h ****         << SAR_SAMPLE_CTRL_AVG_CNT_Pos)
 457:Generated_Source\PSoC6/ADC_1.h **** 
 458:Generated_Source\PSoC6/ADC_1.h **** /* Combination of Average Mode and Average Shift */
 459:Generated_Source\PSoC6/ADC_1.h **** #define ADC_1_CFG0_AVG_MODE_INIT \
 460:Generated_Source\PSoC6/ADC_1.h ****         (ADC_1_CFG0_AVGERAGING_MODE \
 461:Generated_Source\PSoC6/ADC_1.h ****         << SAR_SAMPLE_CTRL_AVG_SHIFT_Pos)
 462:Generated_Source\PSoC6/ADC_1.h **** 
 463:Generated_Source\PSoC6/ADC_1.h **** #define ADC_1_CFG0_TRIGGER_OUT_INIT      (0u)
 464:Generated_Source\PSoC6/ADC_1.h **** #define ADC_1_CFG0_UAB_SCAN_MODE_INIT    (0u)
 465:Generated_Source\PSoC6/ADC_1.h **** 
 466:Generated_Source\PSoC6/ADC_1.h **** #define ADC_1_CFG0_VREF_POWER_INIT  \
 467:Generated_Source\PSoC6/ADC_1.h ****         (ADC_1_CFG0_VREF_PWR \
 468:Generated_Source\PSoC6/ADC_1.h ****         << SAR_CTRL_PWR_CTRL_VREF_Pos)
ARM GAS  C:\Users\Angel\AppData\Local\Temp\ccvqOPgy.s 			page 66


 469:Generated_Source\PSoC6/ADC_1.h **** 
 470:Generated_Source\PSoC6/ADC_1.h **** #define ADC_1_CFG0_COMP_PWR_INIT  \
 471:Generated_Source\PSoC6/ADC_1.h ****         (ADC_1_CFG0_COMP_PWR \
 472:Generated_Source\PSoC6/ADC_1.h ****         << SAR_CTRL_COMP_PWR_Pos)
 473:Generated_Source\PSoC6/ADC_1.h **** 
 474:Generated_Source\PSoC6/ADC_1.h **** #define ADC_1_CFG0_COMP_DLY_INIT  \
 475:Generated_Source\PSoC6/ADC_1.h ****         (ADC_1_CFG0_COMP_DLY \
 476:Generated_Source\PSoC6/ADC_1.h ****         << SAR_CTRL_COMP_DLY_Pos)
 477:Generated_Source\PSoC6/ADC_1.h **** 
 478:Generated_Source\PSoC6/ADC_1.h **** #define ADC_1_CFG0_CTRL_INIT  \
 479:Generated_Source\PSoC6/ADC_1.h ****         (ADC_1_CFG0_VREF_POWER_INIT \
 480:Generated_Source\PSoC6/ADC_1.h ****         | ADC_1_CFG0_VREF_SEL_MASK \
 481:Generated_Source\PSoC6/ADC_1.h ****         | ADC_1_CFG0_SE_NEG_INPUT_INIT \
 482:Generated_Source\PSoC6/ADC_1.h ****         | ADC_1_CFG0_HW_CTRL_NEGVREF_INIT \
 483:Generated_Source\PSoC6/ADC_1.h ****         | ADC_1_CFG0_COMP_DLY_INIT \
 484:Generated_Source\PSoC6/ADC_1.h ****         | SAR_CTRL_REFBUF_EN_Msk \
 485:Generated_Source\PSoC6/ADC_1.h ****         | ADC_1_CFG0_COMP_PWR_INIT \
 486:Generated_Source\PSoC6/ADC_1.h ****         | SAR_CTRL_DSI_SYNC_CONFIG_Msk  \
 487:Generated_Source\PSoC6/ADC_1.h ****         | ADC_1_CFG0_SWITCH_CONF_INIT )
 488:Generated_Source\PSoC6/ADC_1.h **** 
 489:Generated_Source\PSoC6/ADC_1.h **** #define ADC_1_CFG0_SAMPLE_CTRL_INIT \
 490:Generated_Source\PSoC6/ADC_1.h ****         (ADC_1_CFG0_SE_RESULT_FORMAT_INIT \
 491:Generated_Source\PSoC6/ADC_1.h ****         | ADC_1_CFG0_DIFF_RESULT_FORMAT_INIT \
 492:Generated_Source\PSoC6/ADC_1.h ****         | ADC_1_CFG0_AVG_SAMPLES_NUM_INIT \
 493:Generated_Source\PSoC6/ADC_1.h ****         | ADC_1_CFG0_AVG_MODE_INIT \
 494:Generated_Source\PSoC6/ADC_1.h ****         | ADC_1_CFG0_DSI_TRIGGER_LEVEL_INIT \
 495:Generated_Source\PSoC6/ADC_1.h ****         | ADC_1_CFG0_DSI_TRIGGER_EN_INIT \
 496:Generated_Source\PSoC6/ADC_1.h ****         | ADC_1_CFG0_UAB_SCAN_MODE_INIT \
 497:Generated_Source\PSoC6/ADC_1.h ****         | SAR_SAMPLE_CTRL_VALID_IGNORE_Msk \
 498:Generated_Source\PSoC6/ADC_1.h ****         | ADC_1_CFG0_TRIGGER_OUT_INIT \
 499:Generated_Source\PSoC6/ADC_1.h ****         | SAR_SAMPLE_CTRL_EOS_DSI_OUT_EN_Msk \
 500:Generated_Source\PSoC6/ADC_1.h **** )
 501:Generated_Source\PSoC6/ADC_1.h **** 
 502:Generated_Source\PSoC6/ADC_1.h **** #define ADC_1_CFG0_RANGE_THRES_INIT \
 503:Generated_Source\PSoC6/ADC_1.h ****         (ADC_1_CFG0_LOW_LIMIT \
 504:Generated_Source\PSoC6/ADC_1.h ****         | (uint32)((uint32)ADC_1_CFG0_HIGH_LIMIT \
 505:Generated_Source\PSoC6/ADC_1.h ****         << SAR_RANGE_THRES_RANGE_HIGH_Pos))
 506:Generated_Source\PSoC6/ADC_1.h **** 
 507:Generated_Source\PSoC6/ADC_1.h **** #define ADC_1_CFG0_RANGE_COND_INIT   (cy_en_sar_range_detect_condition_t)ADC_1_CFG0_RANGE_COND
 508:Generated_Source\PSoC6/ADC_1.h **** 
 509:Generated_Source\PSoC6/ADC_1.h **** /* Misc Config
 510:Generated_Source\PSoC6/ADC_1.h ****     [0] - Freerunning: Set if the sample mode is freerunning
 511:Generated_Source\PSoC6/ADC_1.h **** */
 512:Generated_Source\PSoC6/ADC_1.h **** #define ADC_1_CFG0_MISC_CONFIG_INIT \
 513:Generated_Source\PSoC6/ADC_1.h ****         (ADC_1_CFG0_FREERUNNING)
 514:Generated_Source\PSoC6/ADC_1.h **** 
 515:Generated_Source\PSoC6/ADC_1.h **** /* ************************************************************************** */
 516:Generated_Source\PSoC6/ADC_1.h **** /* End configuration 0 calculated defines                                     */
 517:Generated_Source\PSoC6/ADC_1.h **** /* ************************************************************************** */
 518:Generated_Source\PSoC6/ADC_1.h **** 
 519:Generated_Source\PSoC6/ADC_1.h **** /* ************************************************************************** */
 520:Generated_Source\PSoC6/ADC_1.h **** /* Begin configuration 1 calculated defines                                   */
 521:Generated_Source\PSoC6/ADC_1.h **** /* ************************************************************************** */
 522:Generated_Source\PSoC6/ADC_1.h **** #if(ADC_1_TOTAL_CONFIGS > 1)
 523:Generated_Source\PSoC6/ADC_1.h ****     #define ADC_1_CFG1_SAMPLE_TIME01_INIT \
 524:Generated_Source\PSoC6/ADC_1.h ****             ((ADC_1_CFG1_APERTURE_TIME0 \
 525:Generated_Source\PSoC6/ADC_1.h ****             << SAR_SAMPLE_TIME01_SAMPLE_TIME0_Pos) \
ARM GAS  C:\Users\Angel\AppData\Local\Temp\ccvqOPgy.s 			page 67


 526:Generated_Source\PSoC6/ADC_1.h ****             | (ADC_1_CFG1_APERTURE_TIME1 \
 527:Generated_Source\PSoC6/ADC_1.h ****             << SAR_SAMPLE_TIME01_SAMPLE_TIME1_Pos))
 528:Generated_Source\PSoC6/ADC_1.h **** 
 529:Generated_Source\PSoC6/ADC_1.h ****     #define ADC_1_CFG1_SAMPLE_TIME23_INIT \
 530:Generated_Source\PSoC6/ADC_1.h ****             ((ADC_1_CFG1_APERTURE_TIME2 \
 531:Generated_Source\PSoC6/ADC_1.h ****             << SAR_SAMPLE_TIME23_SAMPLE_TIME2_Pos) \
 532:Generated_Source\PSoC6/ADC_1.h ****             | (ADC_1_CFG1_APERTURE_TIME3 \
 533:Generated_Source\PSoC6/ADC_1.h ****             << SAR_SAMPLE_TIME23_SAMPLE_TIME3_Pos))
 534:Generated_Source\PSoC6/ADC_1.h **** 
 535:Generated_Source\PSoC6/ADC_1.h ****     /* Enable soc pin if used */
 536:Generated_Source\PSoC6/ADC_1.h ****     #define ADC_1_CFG1_DSI_TRIGGER_EN_INIT \
 537:Generated_Source\PSoC6/ADC_1.h ****             (ADC_1_CFG1_USE_SOC \
 538:Generated_Source\PSoC6/ADC_1.h ****             << SAR_SAMPLE_CTRL_DSI_TRIGGER_EN_Pos)
 539:Generated_Source\PSoC6/ADC_1.h **** 
 540:Generated_Source\PSoC6/ADC_1.h ****     /* Set soc operation to edge or level based on sample mode */
 541:Generated_Source\PSoC6/ADC_1.h ****     #if(ADC_1_CFG1_FREERUNNING == ADC_1_FREERUNNING)
 542:Generated_Source\PSoC6/ADC_1.h ****         #define ADC_1_CFG1_DSI_TRIGGER_LEVEL_INIT    (SAR_SAMPLE_CTRL_DSI_TRIGGER_LEVEL_Msk)
 543:Generated_Source\PSoC6/ADC_1.h ****     #else /* Edge trigger */
 544:Generated_Source\PSoC6/ADC_1.h ****         #define ADC_1_CFG1_DSI_TRIGGER_LEVEL_INIT    (0u)
 545:Generated_Source\PSoC6/ADC_1.h ****     #endif /* End ADC_1_CFG1_FREERUNNING == ADC_1_FREERUNNING */
 546:Generated_Source\PSoC6/ADC_1.h **** 
 547:Generated_Source\PSoC6/ADC_1.h ****     /* Set SE_NEG_INPUT */
 548:Generated_Source\PSoC6/ADC_1.h ****     #if(ADC_1_CFG1_VNEG_INPUT_SEL == ADC_1_NEG_SEL_VSSA_KELVIN)
 549:Generated_Source\PSoC6/ADC_1.h ****         #define ADC_1_CFG1_SE_NEG_INPUT_INIT \
 550:Generated_Source\PSoC6/ADC_1.h ****             ((uint32)(ADC_1_NEG_SEL_VSSA_KELVIN \
 551:Generated_Source\PSoC6/ADC_1.h ****             << SAR_CTRL_NEG_SEL_Pos ))
 552:Generated_Source\PSoC6/ADC_1.h ****     #elif(ADC_1_CFG1_VNEG_INPUT_SEL == ADC_1_NEG_SEL_VREF)
 553:Generated_Source\PSoC6/ADC_1.h ****         #define ADC_1_CFG1_SE_NEG_INPUT_INIT     (ADC_1_NEG_SEL_VREF \
 554:Generated_Source\PSoC6/ADC_1.h ****                                                             << SAR_CTRL_NEG_SEL_Pos )
 555:Generated_Source\PSoC6/ADC_1.h ****     #elif (ADC_1_CFG1_SINGLE_PRESENT != 0u)
 556:Generated_Source\PSoC6/ADC_1.h ****         #define ADC_1_CFG1_SE_NEG_INPUT_INIT         ADC_1_CFG1_NEG_OTHER
 557:Generated_Source\PSoC6/ADC_1.h ****     #else
 558:Generated_Source\PSoC6/ADC_1.h ****         #define ADC_1_CFG1_SE_NEG_INPUT_INIT         0u
 559:Generated_Source\PSoC6/ADC_1.h ****     #endif /* ADC_1_CFG1_VNEG_INPUT_SEL == ADC_1_NEG_SEL_VSSA_KELVIN */
 560:Generated_Source\PSoC6/ADC_1.h **** 
 561:Generated_Source\PSoC6/ADC_1.h ****     #define ADC_1_CFG1_NEG_OTHER                 (uint16)((uint16)ADC_1_SARMUX__VNEG1 << SAR_CTRL_N
 562:Generated_Source\PSoC6/ADC_1.h ****     #define ADC_1_CFG1_SWITCH_CONF_INIT          0u
 563:Generated_Source\PSoC6/ADC_1.h **** 
 564:Generated_Source\PSoC6/ADC_1.h ****     /* If the SAR is configured for multiple channels, always set SAR_HW_CTRL_NEGVREF to 1 */
 565:Generated_Source\PSoC6/ADC_1.h ****     #define ADC_1_CFG1_HW_CTRL_NEGVREF_INIT      SAR_CTRL_SAR_HW_CTRL_NEGVREF_Msk
 566:Generated_Source\PSoC6/ADC_1.h **** 
 567:Generated_Source\PSoC6/ADC_1.h ****     #define ADC_1_CFG1_POWER_INIT  (ADC_1_PWR_CTRL_VREF_NORMAL_PWR)
 568:Generated_Source\PSoC6/ADC_1.h **** 
 569:Generated_Source\PSoC6/ADC_1.h ****     /* SAMPLE_CTRL initial values */
 570:Generated_Source\PSoC6/ADC_1.h ****     #define ADC_1_CFG1_SE_RESULT_FORMAT_INIT \
 571:Generated_Source\PSoC6/ADC_1.h ****             (ADC_1_CFG1_SINGLE_ENDED_FORMAT \
 572:Generated_Source\PSoC6/ADC_1.h ****             << SAR_SAMPLE_CTRL_SINGLE_ENDED_SIGNED_Pos)
 573:Generated_Source\PSoC6/ADC_1.h **** 
 574:Generated_Source\PSoC6/ADC_1.h ****     #define ADC_1_CFG1_DIFF_RESULT_FORMAT_INIT \
 575:Generated_Source\PSoC6/ADC_1.h ****             (ADC_1_CFG1_DIFFERENTIAL_FORMAT \
 576:Generated_Source\PSoC6/ADC_1.h ****             << SAR_SAMPLE_CTRL_DIFFERENTIAL_SIGNED_Pos)
 577:Generated_Source\PSoC6/ADC_1.h **** 
 578:Generated_Source\PSoC6/ADC_1.h ****     #define ADC_1_CFG1_AVG_SAMPLES_NUM_INIT \
 579:Generated_Source\PSoC6/ADC_1.h ****             (ADC_1_CFG1_SAMPLES_AVERAGED \
 580:Generated_Source\PSoC6/ADC_1.h ****             << SAR_SAMPLE_CTRL_AVG_CNT_Pos)
 581:Generated_Source\PSoC6/ADC_1.h **** 
 582:Generated_Source\PSoC6/ADC_1.h ****     /* Combination of Average Mode and Average Shift */
ARM GAS  C:\Users\Angel\AppData\Local\Temp\ccvqOPgy.s 			page 68


 583:Generated_Source\PSoC6/ADC_1.h ****     #define ADC_1_CFG1_AVG_MODE_INIT \
 584:Generated_Source\PSoC6/ADC_1.h ****             (ADC_1_CFG1_AVGERAGING_MODE \
 585:Generated_Source\PSoC6/ADC_1.h ****             << SAR_SAMPLE_CTRL_AVG_SHIFT_Pos)
 586:Generated_Source\PSoC6/ADC_1.h **** 
 587:Generated_Source\PSoC6/ADC_1.h ****     #define ADC_1_CFG1_TRIGGER_OUT_INIT      (0u)
 588:Generated_Source\PSoC6/ADC_1.h ****     #define ADC_1_CFG1_UAB_SCAN_MODE_INIT    (0u)
 589:Generated_Source\PSoC6/ADC_1.h **** 
 590:Generated_Source\PSoC6/ADC_1.h ****     #define ADC_1_CFG1_VREF_POWER_INIT  \
 591:Generated_Source\PSoC6/ADC_1.h ****             (ADC_1_CFG1_VREF_PWR \
 592:Generated_Source\PSoC6/ADC_1.h ****             << SAR_CTRL_PWR_CTRL_VREF_Pos)
 593:Generated_Source\PSoC6/ADC_1.h **** 
 594:Generated_Source\PSoC6/ADC_1.h ****     #define ADC_1_CFG1_COMP_PWR_INIT  \
 595:Generated_Source\PSoC6/ADC_1.h ****             (ADC_1_CFG1_COMP_PWR \
 596:Generated_Source\PSoC6/ADC_1.h ****             << SAR_CTRL_COMP_PWR_Pos)
 597:Generated_Source\PSoC6/ADC_1.h **** 
 598:Generated_Source\PSoC6/ADC_1.h ****     #define ADC_1_CFG1_COMP_DLY_INIT  \
 599:Generated_Source\PSoC6/ADC_1.h ****             (ADC_1_CFG1_COMP_DLY \
 600:Generated_Source\PSoC6/ADC_1.h ****             << SAR_CTRL_COMP_DLY_Pos)
 601:Generated_Source\PSoC6/ADC_1.h **** 
 602:Generated_Source\PSoC6/ADC_1.h ****     #define ADC_1_CFG1_CTRL_INIT  \
 603:Generated_Source\PSoC6/ADC_1.h ****             (ADC_1_CFG1_VREF_POWER_INIT \
 604:Generated_Source\PSoC6/ADC_1.h ****             | ADC_1_CFG1_VREF_SEL_MASK \
 605:Generated_Source\PSoC6/ADC_1.h ****             | ADC_1_CFG1_SE_NEG_INPUT_INIT \
 606:Generated_Source\PSoC6/ADC_1.h ****             | ADC_1_CFG1_HW_CTRL_NEGVREF_INIT \
 607:Generated_Source\PSoC6/ADC_1.h ****             | ADC_1_CFG1_COMP_DLY_INIT \
 608:Generated_Source\PSoC6/ADC_1.h ****             | SAR_CTRL_REFBUF_EN_Msk \
 609:Generated_Source\PSoC6/ADC_1.h ****             | ADC_1_CFG1_COMP_PWR_INIT \
 610:Generated_Source\PSoC6/ADC_1.h ****             | SAR_CTRL_DSI_SYNC_CONFIG_Msk  \
 611:Generated_Source\PSoC6/ADC_1.h ****             | ADC_1_CFG1_SWITCH_CONF_INIT )
 612:Generated_Source\PSoC6/ADC_1.h **** 
 613:Generated_Source\PSoC6/ADC_1.h ****     #define ADC_1_CFG1_SAMPLE_CTRL_INIT \
 614:Generated_Source\PSoC6/ADC_1.h ****             (ADC_1_CFG1_SE_RESULT_FORMAT_INIT \
 615:Generated_Source\PSoC6/ADC_1.h ****             | ADC_1_CFG1_DIFF_RESULT_FORMAT_INIT \
 616:Generated_Source\PSoC6/ADC_1.h ****             | ADC_1_CFG1_AVG_SAMPLES_NUM_INIT \
 617:Generated_Source\PSoC6/ADC_1.h ****             | ADC_1_CFG1_AVG_MODE_INIT \
 618:Generated_Source\PSoC6/ADC_1.h ****             | ADC_1_CFG1_DSI_TRIGGER_LEVEL_INIT \
 619:Generated_Source\PSoC6/ADC_1.h ****             | ADC_1_CFG1_DSI_TRIGGER_EN_INIT \
 620:Generated_Source\PSoC6/ADC_1.h ****             | ADC_1_CFG1_UAB_SCAN_MODE_INIT \
 621:Generated_Source\PSoC6/ADC_1.h ****             | SAR_SAMPLE_CTRL_VALID_IGNORE_Msk \
 622:Generated_Source\PSoC6/ADC_1.h ****             | ADC_1_CFG1_TRIGGER_OUT_INIT \
 623:Generated_Source\PSoC6/ADC_1.h ****             | SAR_SAMPLE_CTRL_EOS_DSI_OUT_EN_Msk \
 624:Generated_Source\PSoC6/ADC_1.h ****     )
 625:Generated_Source\PSoC6/ADC_1.h **** 
 626:Generated_Source\PSoC6/ADC_1.h ****     #define ADC_1_CFG1_RANGE_THRES_INIT \
 627:Generated_Source\PSoC6/ADC_1.h ****             (ADC_1_CFG1_LOW_LIMIT \
 628:Generated_Source\PSoC6/ADC_1.h ****             | (uint32)((uint32)ADC_1_CFG1_HIGH_LIMIT \
 629:Generated_Source\PSoC6/ADC_1.h ****             << SAR_RANGE_THRES_RANGE_HIGH_Pos))
 630:Generated_Source\PSoC6/ADC_1.h **** 
 631:Generated_Source\PSoC6/ADC_1.h ****     #define ADC_1_CFG1_RANGE_COND_INIT   (cy_en_sar_range_detect_condition_t)ADC_1_CFG1_RANGE_COND
 632:Generated_Source\PSoC6/ADC_1.h **** 
 633:Generated_Source\PSoC6/ADC_1.h ****     /* Misc Config
 634:Generated_Source\PSoC6/ADC_1.h ****         [0] - Freerunning: Set if the sample mode is freerunning
 635:Generated_Source\PSoC6/ADC_1.h ****     */
 636:Generated_Source\PSoC6/ADC_1.h ****     #define ADC_1_CFG1_MISC_CONFIG_INIT \
 637:Generated_Source\PSoC6/ADC_1.h ****             (ADC_1_CFG1_FREERUNNING)
 638:Generated_Source\PSoC6/ADC_1.h **** #endif /* ADC_1_TOTAL_CONFIGS > 1 */
 639:Generated_Source\PSoC6/ADC_1.h **** 
ARM GAS  C:\Users\Angel\AppData\Local\Temp\ccvqOPgy.s 			page 69


 640:Generated_Source\PSoC6/ADC_1.h **** /* ************************************************************************** */
 641:Generated_Source\PSoC6/ADC_1.h **** /* End configuration 1 calculated defines                                     */
 642:Generated_Source\PSoC6/ADC_1.h **** /* ************************************************************************** */
 643:Generated_Source\PSoC6/ADC_1.h **** 
 644:Generated_Source\PSoC6/ADC_1.h **** /* ************************************************************************** */
 645:Generated_Source\PSoC6/ADC_1.h **** /* Begin configuration 2 calculated defines                                   */
 646:Generated_Source\PSoC6/ADC_1.h **** /* ************************************************************************** */
 647:Generated_Source\PSoC6/ADC_1.h **** #if(ADC_1_TOTAL_CONFIGS > 2)
 648:Generated_Source\PSoC6/ADC_1.h ****     #define ADC_1_CFG2_SAMPLE_TIME01_INIT \
 649:Generated_Source\PSoC6/ADC_1.h ****             ((ADC_1_CFG2_APERTURE_TIME0 \
 650:Generated_Source\PSoC6/ADC_1.h ****             << SAR_SAMPLE_TIME01_SAMPLE_TIME0_Pos) \
 651:Generated_Source\PSoC6/ADC_1.h ****             | (ADC_1_CFG2_APERTURE_TIME1 \
 652:Generated_Source\PSoC6/ADC_1.h ****             << SAR_SAMPLE_TIME01_SAMPLE_TIME1_Pos))
 653:Generated_Source\PSoC6/ADC_1.h **** 
 654:Generated_Source\PSoC6/ADC_1.h ****     #define ADC_1_CFG2_SAMPLE_TIME23_INIT \
 655:Generated_Source\PSoC6/ADC_1.h ****             ((ADC_1_CFG2_APERTURE_TIME2 \
 656:Generated_Source\PSoC6/ADC_1.h ****             << SAR_SAMPLE_TIME23_SAMPLE_TIME2_Pos) \
 657:Generated_Source\PSoC6/ADC_1.h ****             | (ADC_1_CFG2_APERTURE_TIME3 \
 658:Generated_Source\PSoC6/ADC_1.h ****             << SAR_SAMPLE_TIME23_SAMPLE_TIME3_Pos))
 659:Generated_Source\PSoC6/ADC_1.h **** 
 660:Generated_Source\PSoC6/ADC_1.h ****     /* Enable soc pin if used */
 661:Generated_Source\PSoC6/ADC_1.h ****     #define ADC_1_CFG2_DSI_TRIGGER_EN_INIT \
 662:Generated_Source\PSoC6/ADC_1.h ****             (ADC_1_CFG2_USE_SOC \
 663:Generated_Source\PSoC6/ADC_1.h ****             << SAR_SAMPLE_CTRL_DSI_TRIGGER_EN_Pos)
 664:Generated_Source\PSoC6/ADC_1.h **** 
 665:Generated_Source\PSoC6/ADC_1.h ****     /* Set soc operation to edge or level based on sample mode */
 666:Generated_Source\PSoC6/ADC_1.h ****     #if(ADC_1_CFG2_FREERUNNING == ADC_1_FREERUNNING)
 667:Generated_Source\PSoC6/ADC_1.h ****         #define ADC_1_CFG2_DSI_TRIGGER_LEVEL_INIT    (SAR_SAMPLE_CTRL_DSI_TRIGGER_LEVEL_Msk)
 668:Generated_Source\PSoC6/ADC_1.h ****     #else /* Edge trigger */
 669:Generated_Source\PSoC6/ADC_1.h ****         #define ADC_1_CFG2_DSI_TRIGGER_LEVEL_INIT    (0u)
 670:Generated_Source\PSoC6/ADC_1.h ****     #endif /* End ADC_1_CFG2_FREERUNNING == ADC_1_FREERUNNING */
 671:Generated_Source\PSoC6/ADC_1.h **** 
 672:Generated_Source\PSoC6/ADC_1.h ****     /* Set SE_NEG_INPUT */
 673:Generated_Source\PSoC6/ADC_1.h ****     #if(ADC_1_CFG2_VNEG_INPUT_SEL == ADC_1_NEG_SEL_VSSA_KELVIN)
 674:Generated_Source\PSoC6/ADC_1.h ****         #define ADC_1_CFG2_SE_NEG_INPUT_INIT \
 675:Generated_Source\PSoC6/ADC_1.h ****             ((uint32)(ADC_1_NEG_SEL_VSSA_KELVIN \
 676:Generated_Source\PSoC6/ADC_1.h ****             << SAR_CTRL_NEG_SEL_Pos ))
 677:Generated_Source\PSoC6/ADC_1.h ****     #elif(ADC_1_CFG2_VNEG_INPUT_SEL == ADC_1_NEG_SEL_VREF)
 678:Generated_Source\PSoC6/ADC_1.h ****         #define ADC_1_CFG2_SE_NEG_INPUT_INIT     (ADC_1_NEG_SEL_VREF \
 679:Generated_Source\PSoC6/ADC_1.h ****                                                                 << SAR_CTRL_NEG_SEL_Pos )
 680:Generated_Source\PSoC6/ADC_1.h ****     #elif (ADC_1_CFG2_SINGLE_PRESENT != 0u)
 681:Generated_Source\PSoC6/ADC_1.h ****         #define ADC_1_CFG2_SE_NEG_INPUT_INIT         ADC_1_CFG2_NEG_OTHER
 682:Generated_Source\PSoC6/ADC_1.h ****     #else
 683:Generated_Source\PSoC6/ADC_1.h ****         #define ADC_1_CFG2_SE_NEG_INPUT_INIT         0u
 684:Generated_Source\PSoC6/ADC_1.h ****     #endif /* ADC_1_CFG2_VNEG_INPUT_SEL == ADC_1_NEG_SEL_VSSA_KELVIN */
 685:Generated_Source\PSoC6/ADC_1.h **** 
 686:Generated_Source\PSoC6/ADC_1.h ****    #define ADC_1_CFG2_NEG_OTHER                 (uint16)((uint16)ADC_1_SARMUX__VNEG2 << SAR_CTRL_NE
 687:Generated_Source\PSoC6/ADC_1.h **** 
 688:Generated_Source\PSoC6/ADC_1.h ****     #define ADC_1_CFG2_SWITCH_CONF_INIT          0u
 689:Generated_Source\PSoC6/ADC_1.h **** 
 690:Generated_Source\PSoC6/ADC_1.h ****     /* If the SAR is configured for multiple channels, always set SAR_HW_CTRL_NEGVREF to 1 */
 691:Generated_Source\PSoC6/ADC_1.h ****     #define ADC_1_CFG2_HW_CTRL_NEGVREF_INIT      SAR_CTRL_SAR_HW_CTRL_NEGVREF_Msk
 692:Generated_Source\PSoC6/ADC_1.h **** 
 693:Generated_Source\PSoC6/ADC_1.h ****     #define ADC_1_CFG2_POWER_INIT  (ADC_1_PWR_CTRL_VREF_NORMAL_PWR)
 694:Generated_Source\PSoC6/ADC_1.h **** 
 695:Generated_Source\PSoC6/ADC_1.h ****     /* SAMPLE_CTRL initial values */
 696:Generated_Source\PSoC6/ADC_1.h ****     #define ADC_1_CFG2_SE_RESULT_FORMAT_INIT \
ARM GAS  C:\Users\Angel\AppData\Local\Temp\ccvqOPgy.s 			page 70


 697:Generated_Source\PSoC6/ADC_1.h ****             (ADC_1_CFG2_SINGLE_ENDED_FORMAT \
 698:Generated_Source\PSoC6/ADC_1.h ****             << SAR_SAMPLE_CTRL_SINGLE_ENDED_SIGNED_Pos)
 699:Generated_Source\PSoC6/ADC_1.h **** 
 700:Generated_Source\PSoC6/ADC_1.h ****     #define ADC_1_CFG2_DIFF_RESULT_FORMAT_INIT \
 701:Generated_Source\PSoC6/ADC_1.h ****             (ADC_1_CFG2_DIFFERENTIAL_FORMAT \
 702:Generated_Source\PSoC6/ADC_1.h ****             << SAR_SAMPLE_CTRL_DIFFERENTIAL_SIGNED_Pos)
 703:Generated_Source\PSoC6/ADC_1.h **** 
 704:Generated_Source\PSoC6/ADC_1.h ****     #define ADC_1_CFG2_AVG_SAMPLES_NUM_INIT \
 705:Generated_Source\PSoC6/ADC_1.h ****             (ADC_1_CFG2_SAMPLES_AVERAGED \
 706:Generated_Source\PSoC6/ADC_1.h ****             << SAR_SAMPLE_CTRL_AVG_CNT_Pos)
 707:Generated_Source\PSoC6/ADC_1.h **** 
 708:Generated_Source\PSoC6/ADC_1.h ****     /* Combination of Average Mode and Average Shift */
 709:Generated_Source\PSoC6/ADC_1.h ****     #define ADC_1_CFG2_AVG_MODE_INIT \
 710:Generated_Source\PSoC6/ADC_1.h ****             (ADC_1_CFG2_AVGERAGING_MODE \
 711:Generated_Source\PSoC6/ADC_1.h ****             << SAR_SAMPLE_CTRL_AVG_SHIFT_Pos)
 712:Generated_Source\PSoC6/ADC_1.h **** 
 713:Generated_Source\PSoC6/ADC_1.h ****     #define ADC_1_CFG2_TRIGGER_OUT_INIT      (0u)
 714:Generated_Source\PSoC6/ADC_1.h ****     #define ADC_1_CFG2_UAB_SCAN_MODE_INIT    (0u)
 715:Generated_Source\PSoC6/ADC_1.h **** 
 716:Generated_Source\PSoC6/ADC_1.h **** 
 717:Generated_Source\PSoC6/ADC_1.h ****     #define ADC_1_CFG2_VREF_POWER_INIT  \
 718:Generated_Source\PSoC6/ADC_1.h ****             (ADC_1_CFG2_VREF_PWR \
 719:Generated_Source\PSoC6/ADC_1.h ****             << SAR_CTRL_PWR_CTRL_VREF_Pos)
 720:Generated_Source\PSoC6/ADC_1.h **** 
 721:Generated_Source\PSoC6/ADC_1.h ****     #define ADC_1_CFG2_COMP_PWR_INIT  \
 722:Generated_Source\PSoC6/ADC_1.h ****             (ADC_1_CFG2_COMP_PWR \
 723:Generated_Source\PSoC6/ADC_1.h ****             << SAR_CTRL_COMP_PWR_Pos)
 724:Generated_Source\PSoC6/ADC_1.h **** 
 725:Generated_Source\PSoC6/ADC_1.h ****     #define ADC_1_CFG2_COMP_DLY_INIT  \
 726:Generated_Source\PSoC6/ADC_1.h ****             (ADC_1_CFG2_COMP_DLY \
 727:Generated_Source\PSoC6/ADC_1.h ****             << SAR_CTRL_COMP_DLY_Pos)
 728:Generated_Source\PSoC6/ADC_1.h **** 
 729:Generated_Source\PSoC6/ADC_1.h ****     #define ADC_1_CFG2_CTRL_INIT  \
 730:Generated_Source\PSoC6/ADC_1.h ****             (ADC_1_CFG2_VREF_POWER_INIT \
 731:Generated_Source\PSoC6/ADC_1.h ****             | ADC_1_CFG2_VREF_SEL_MASK \
 732:Generated_Source\PSoC6/ADC_1.h ****             | ADC_1_CFG2_SE_NEG_INPUT_INIT \
 733:Generated_Source\PSoC6/ADC_1.h ****             | ADC_1_CFG2_HW_CTRL_NEGVREF_INIT \
 734:Generated_Source\PSoC6/ADC_1.h ****             | ADC_1_CFG2_COMP_DLY_INIT \
 735:Generated_Source\PSoC6/ADC_1.h ****             | SAR_CTRL_REFBUF_EN_Msk \
 736:Generated_Source\PSoC6/ADC_1.h ****             | ADC_1_CFG2_COMP_PWR_INIT \
 737:Generated_Source\PSoC6/ADC_1.h ****             | SAR_CTRL_DSI_SYNC_CONFIG_Msk  \
 738:Generated_Source\PSoC6/ADC_1.h ****             | ADC_1_CFG2_SWITCH_CONF_INIT )
 739:Generated_Source\PSoC6/ADC_1.h **** 
 740:Generated_Source\PSoC6/ADC_1.h **** 
 741:Generated_Source\PSoC6/ADC_1.h ****     #define ADC_1_CFG2_SAMPLE_CTRL_INIT \
 742:Generated_Source\PSoC6/ADC_1.h ****             (ADC_1_CFG2_SE_RESULT_FORMAT_INIT \
 743:Generated_Source\PSoC6/ADC_1.h ****             | ADC_1_CFG2_DIFF_RESULT_FORMAT_INIT \
 744:Generated_Source\PSoC6/ADC_1.h ****             | ADC_1_CFG2_AVG_SAMPLES_NUM_INIT \
 745:Generated_Source\PSoC6/ADC_1.h ****             | ADC_1_CFG2_AVG_MODE_INIT \
 746:Generated_Source\PSoC6/ADC_1.h ****             | ADC_1_CFG2_DSI_TRIGGER_LEVEL_INIT \
 747:Generated_Source\PSoC6/ADC_1.h ****             | ADC_1_CFG2_DSI_TRIGGER_EN_INIT \
 748:Generated_Source\PSoC6/ADC_1.h ****             | ADC_1_CFG2_UAB_SCAN_MODE_INIT \
 749:Generated_Source\PSoC6/ADC_1.h ****             | SAR_SAMPLE_CTRL_VALID_IGNORE_Msk \
 750:Generated_Source\PSoC6/ADC_1.h ****             | ADC_1_CFG2_TRIGGER_OUT_INIT \
 751:Generated_Source\PSoC6/ADC_1.h ****             | SAR_SAMPLE_CTRL_EOS_DSI_OUT_EN_Msk \
 752:Generated_Source\PSoC6/ADC_1.h ****     )
 753:Generated_Source\PSoC6/ADC_1.h **** 
ARM GAS  C:\Users\Angel\AppData\Local\Temp\ccvqOPgy.s 			page 71


 754:Generated_Source\PSoC6/ADC_1.h ****     #define ADC_1_CFG2_RANGE_THRES_INIT \
 755:Generated_Source\PSoC6/ADC_1.h ****             (ADC_1_CFG2_LOW_LIMIT \
 756:Generated_Source\PSoC6/ADC_1.h ****             | (uint32)((uint32)ADC_1_CFG2_HIGH_LIMIT \
 757:Generated_Source\PSoC6/ADC_1.h ****             << SAR_RANGE_THRES_RANGE_HIGH_Pos))
 758:Generated_Source\PSoC6/ADC_1.h **** 
 759:Generated_Source\PSoC6/ADC_1.h ****     #define ADC_1_CFG2_RANGE_COND_INIT   (cy_en_sar_range_detect_condition_t)ADC_1_CFG2_RANGE_COND
 760:Generated_Source\PSoC6/ADC_1.h **** 
 761:Generated_Source\PSoC6/ADC_1.h ****     /* Misc Config
 762:Generated_Source\PSoC6/ADC_1.h ****         [0] - Freerunning: Set if the sample mode is freerunning
 763:Generated_Source\PSoC6/ADC_1.h ****     */
 764:Generated_Source\PSoC6/ADC_1.h ****     #define ADC_1_CFG2_MISC_CONFIG_INIT \
 765:Generated_Source\PSoC6/ADC_1.h ****             (ADC_1_CFG2_FREERUNNING)
 766:Generated_Source\PSoC6/ADC_1.h **** #endif /* ADC_1_TOTAL_CONFIGS > 2 */
 767:Generated_Source\PSoC6/ADC_1.h **** 
 768:Generated_Source\PSoC6/ADC_1.h **** /* ************************************************************************** */
 769:Generated_Source\PSoC6/ADC_1.h **** /* End configuration 2 calculated defines                                     */
 770:Generated_Source\PSoC6/ADC_1.h **** /* ************************************************************************** */
 771:Generated_Source\PSoC6/ADC_1.h **** 
 772:Generated_Source\PSoC6/ADC_1.h **** /* ************************************************************************** */
 773:Generated_Source\PSoC6/ADC_1.h **** /* Begin configuration 3 calculated defines                                   */
 774:Generated_Source\PSoC6/ADC_1.h **** /* ************************************************************************** */
 775:Generated_Source\PSoC6/ADC_1.h **** #if(ADC_1_TOTAL_CONFIGS > 3)
 776:Generated_Source\PSoC6/ADC_1.h ****     #define ADC_1_CFG3_SAMPLE_TIME01_INIT \
 777:Generated_Source\PSoC6/ADC_1.h ****             ((ADC_1_CFG3_APERTURE_TIME0 \
 778:Generated_Source\PSoC6/ADC_1.h ****             << SAR_SAMPLE_TIME01_SAMPLE_TIME0_Pos) \
 779:Generated_Source\PSoC6/ADC_1.h ****             | (ADC_1_CFG3_APERTURE_TIME1 \
 780:Generated_Source\PSoC6/ADC_1.h ****             << SAR_SAMPLE_TIME01_SAMPLE_TIME1_Pos))
 781:Generated_Source\PSoC6/ADC_1.h **** 
 782:Generated_Source\PSoC6/ADC_1.h ****     #define ADC_1_CFG3_SAMPLE_TIME23_INIT \
 783:Generated_Source\PSoC6/ADC_1.h ****             ((ADC_1_CFG3_APERTURE_TIME2 \
 784:Generated_Source\PSoC6/ADC_1.h ****             << SAR_SAMPLE_TIME23_SAMPLE_TIME2_Pos) \
 785:Generated_Source\PSoC6/ADC_1.h ****             | (ADC_1_CFG3_APERTURE_TIME3 \
 786:Generated_Source\PSoC6/ADC_1.h ****             << SAR_SAMPLE_TIME23_SAMPLE_TIME3_Pos))
 787:Generated_Source\PSoC6/ADC_1.h **** 
 788:Generated_Source\PSoC6/ADC_1.h ****     /* Enable soc pin if used */
 789:Generated_Source\PSoC6/ADC_1.h ****     #define ADC_1_CFG3_DSI_TRIGGER_EN_INIT \
 790:Generated_Source\PSoC6/ADC_1.h ****             (ADC_1_CFG3_USE_SOC \
 791:Generated_Source\PSoC6/ADC_1.h ****              << SAR_SAMPLE_CTRL_DSI_TRIGGER_EN_Pos)
 792:Generated_Source\PSoC6/ADC_1.h **** 
 793:Generated_Source\PSoC6/ADC_1.h ****     /* Set soc operation to edge or level based on sample mode */
 794:Generated_Source\PSoC6/ADC_1.h ****     #if(ADC_1_CFG3_FREERUNNING == ADC_1_FREERUNNING)
 795:Generated_Source\PSoC6/ADC_1.h ****         #define ADC_1_CFG3_DSI_TRIGGER_LEVEL_INIT    (SAR_SAMPLE_CTRL_DSI_TRIGGER_LEVEL_Msk)
 796:Generated_Source\PSoC6/ADC_1.h ****     #else /* Edge trigger */
 797:Generated_Source\PSoC6/ADC_1.h ****         #define ADC_1_CFG3_DSI_TRIGGER_LEVEL_INIT    (0u)
 798:Generated_Source\PSoC6/ADC_1.h ****     #endif /* End ADC_1_CFG3_FREERUNNING == ADC_1_FREERUNNING */
 799:Generated_Source\PSoC6/ADC_1.h **** 
 800:Generated_Source\PSoC6/ADC_1.h ****     /* Set SE_NEG_INPUT  */
 801:Generated_Source\PSoC6/ADC_1.h ****     #if(ADC_1_CFG3_VNEG_INPUT_SEL == ADC_1_NEG_SEL_VSSA_KELVIN)
 802:Generated_Source\PSoC6/ADC_1.h ****         #define ADC_1_CFG3_SE_NEG_INPUT_INIT \
 803:Generated_Source\PSoC6/ADC_1.h ****             ((uint32)(ADC_1_NEG_SEL_VSSA_KELVIN \
 804:Generated_Source\PSoC6/ADC_1.h ****             << SAR_CTRL_NEG_SEL_Pos ))
 805:Generated_Source\PSoC6/ADC_1.h ****     #elif(ADC_1_CFG3_VNEG_INPUT_SEL == ADC_1_NEG_SEL_VREF)
 806:Generated_Source\PSoC6/ADC_1.h ****         #define ADC_1_CFG3_SE_NEG_INPUT_INIT     (ADC_1_NEG_SEL_VREF \
 807:Generated_Source\PSoC6/ADC_1.h ****                                                                 << SAR_CTRL_NEG_SEL_Pos )
 808:Generated_Source\PSoC6/ADC_1.h ****     #elif (ADC_1_CFG3_SINGLE_PRESENT != 0u)
 809:Generated_Source\PSoC6/ADC_1.h ****         #define ADC_1_CFG3_SE_NEG_INPUT_INIT         ADC_1_CFG3_NEG_OTHER
 810:Generated_Source\PSoC6/ADC_1.h ****     #else
ARM GAS  C:\Users\Angel\AppData\Local\Temp\ccvqOPgy.s 			page 72


 811:Generated_Source\PSoC6/ADC_1.h ****         #define ADC_1_CFG3_SE_NEG_INPUT_INIT         0u
 812:Generated_Source\PSoC6/ADC_1.h ****     #endif /* ADC_1_CFG3_VNEG_INPUT_SEL == ADC_1_NEG_SEL_VSSA_KELVIN */
 813:Generated_Source\PSoC6/ADC_1.h **** 
 814:Generated_Source\PSoC6/ADC_1.h ****     #define ADC_1_CFG3_NEG_OTHER                 (uint16)((uint16)ADC_1_SARMUX__VNEG3 << SAR_CTRL_N
 815:Generated_Source\PSoC6/ADC_1.h **** 
 816:Generated_Source\PSoC6/ADC_1.h ****     #define ADC_1_CFG3_SWITCH_CONF_INIT          0u
 817:Generated_Source\PSoC6/ADC_1.h **** 
 818:Generated_Source\PSoC6/ADC_1.h ****     /* If the SAR is configured for multiple channels, always set SAR_HW_CTRL_NEGVREF to 1 */
 819:Generated_Source\PSoC6/ADC_1.h ****     #define ADC_1_CFG3_HW_CTRL_NEGVREF_INIT      SAR_CTRL_SAR_HW_CTRL_NEGVREF_Msk
 820:Generated_Source\PSoC6/ADC_1.h **** 
 821:Generated_Source\PSoC6/ADC_1.h ****     #define ADC_1_CFG3_POWER_INIT  (ADC_1_PWR_CTRL_VREF_NORMAL_PWR)
 822:Generated_Source\PSoC6/ADC_1.h **** 
 823:Generated_Source\PSoC6/ADC_1.h ****     /* SAMPLE_CTRL initial values */
 824:Generated_Source\PSoC6/ADC_1.h ****     #define ADC_1_CFG3_SE_RESULT_FORMAT_INIT \
 825:Generated_Source\PSoC6/ADC_1.h ****             (ADC_1_CFG3_SINGLE_ENDED_FORMAT \
 826:Generated_Source\PSoC6/ADC_1.h ****             << SAR_SAMPLE_CTRL_SINGLE_ENDED_SIGNED_Pos)
 827:Generated_Source\PSoC6/ADC_1.h **** 
 828:Generated_Source\PSoC6/ADC_1.h ****     #define ADC_1_CFG3_DIFF_RESULT_FORMAT_INIT \
 829:Generated_Source\PSoC6/ADC_1.h ****             (ADC_1_CFG3_DIFFERENTIAL_FORMAT \
 830:Generated_Source\PSoC6/ADC_1.h ****             << SAR_SAMPLE_CTRL_DIFFERENTIAL_SIGNED_Pos)
 831:Generated_Source\PSoC6/ADC_1.h **** 
 832:Generated_Source\PSoC6/ADC_1.h ****     #define ADC_1_CFG3_AVG_SAMPLES_NUM_INIT \
 833:Generated_Source\PSoC6/ADC_1.h ****             (ADC_1_CFG3_SAMPLES_AVERAGED \
 834:Generated_Source\PSoC6/ADC_1.h ****             << SAR_SAMPLE_CTRL_AVG_CNT_Pos)
 835:Generated_Source\PSoC6/ADC_1.h **** 
 836:Generated_Source\PSoC6/ADC_1.h ****     /* Combination of Average Mode and Average Shift */
 837:Generated_Source\PSoC6/ADC_1.h ****     #define ADC_1_CFG3_AVG_MODE_INIT \
 838:Generated_Source\PSoC6/ADC_1.h ****             (ADC_1_CFG3_AVGERAGING_MODE \
 839:Generated_Source\PSoC6/ADC_1.h ****             << SAR_SAMPLE_CTRL_AVG_SHIFT_Pos)
 840:Generated_Source\PSoC6/ADC_1.h **** 
 841:Generated_Source\PSoC6/ADC_1.h ****     #define ADC_1_CFG3_TRIGGER_OUT_INIT      (0u)
 842:Generated_Source\PSoC6/ADC_1.h ****     #define ADC_1_CFG3_UAB_SCAN_MODE_INIT    (0u)
 843:Generated_Source\PSoC6/ADC_1.h **** 
 844:Generated_Source\PSoC6/ADC_1.h ****     #define ADC_1_CFG3_VREF_POWER_INIT  \
 845:Generated_Source\PSoC6/ADC_1.h ****             (ADC_1_CFG3_VREF_PWR \
 846:Generated_Source\PSoC6/ADC_1.h ****             << SAR_CTRL_PWR_CTRL_VREF_Pos)
 847:Generated_Source\PSoC6/ADC_1.h **** 
 848:Generated_Source\PSoC6/ADC_1.h ****     #define ADC_1_CFG3_COMP_PWR_INIT  \
 849:Generated_Source\PSoC6/ADC_1.h ****             (ADC_1_CFG3_COMP_PWR \
 850:Generated_Source\PSoC6/ADC_1.h ****             << SAR_CTRL_COMP_PWR_Pos)
 851:Generated_Source\PSoC6/ADC_1.h **** 
 852:Generated_Source\PSoC6/ADC_1.h ****     #define ADC_1_CFG3_COMP_DLY_INIT  \
 853:Generated_Source\PSoC6/ADC_1.h ****             (ADC_1_CFG3_COMP_DLY \
 854:Generated_Source\PSoC6/ADC_1.h ****             << SAR_CTRL_COMP_DLY_Pos)
 855:Generated_Source\PSoC6/ADC_1.h **** 
 856:Generated_Source\PSoC6/ADC_1.h ****     #define ADC_1_CFG3_CTRL_INIT  \
 857:Generated_Source\PSoC6/ADC_1.h ****             (ADC_1_CFG3_VREF_POWER_INIT \
 858:Generated_Source\PSoC6/ADC_1.h ****             | ADC_1_CFG3_VREF_SEL_MASK \
 859:Generated_Source\PSoC6/ADC_1.h ****             | ADC_1_CFG3_SE_NEG_INPUT_INIT \
 860:Generated_Source\PSoC6/ADC_1.h ****             | ADC_1_CFG3_HW_CTRL_NEGVREF_INIT \
 861:Generated_Source\PSoC6/ADC_1.h ****             | ADC_1_CFG3_COMP_DLY_INIT \
 862:Generated_Source\PSoC6/ADC_1.h ****             | SAR_CTRL_REFBUF_EN_Msk \
 863:Generated_Source\PSoC6/ADC_1.h ****             | ADC_1_CFG3_COMP_PWR_INIT \
 864:Generated_Source\PSoC6/ADC_1.h ****             | SAR_CTRL_DSI_SYNC_CONFIG_Msk  \
 865:Generated_Source\PSoC6/ADC_1.h ****             | ADC_1_CFG3_SWITCH_CONF_INIT )
 866:Generated_Source\PSoC6/ADC_1.h **** 
 867:Generated_Source\PSoC6/ADC_1.h **** 
ARM GAS  C:\Users\Angel\AppData\Local\Temp\ccvqOPgy.s 			page 73


 868:Generated_Source\PSoC6/ADC_1.h ****     #define ADC_1_CFG3_SAMPLE_CTRL_INIT \
 869:Generated_Source\PSoC6/ADC_1.h ****             (ADC_1_CFG3_SE_RESULT_FORMAT_INIT \
 870:Generated_Source\PSoC6/ADC_1.h ****             | ADC_1_CFG3_DIFF_RESULT_FORMAT_INIT \
 871:Generated_Source\PSoC6/ADC_1.h ****             | ADC_1_CFG3_AVG_SAMPLES_NUM_INIT \
 872:Generated_Source\PSoC6/ADC_1.h ****             | ADC_1_CFG3_AVG_MODE_INIT \
 873:Generated_Source\PSoC6/ADC_1.h ****             | ADC_1_CFG3_DSI_TRIGGER_LEVEL_INIT \
 874:Generated_Source\PSoC6/ADC_1.h ****             | ADC_1_CFG3_DSI_TRIGGER_EN_INIT \
 875:Generated_Source\PSoC6/ADC_1.h ****             | ADC_1_CFG3_UAB_SCAN_MODE_INIT \
 876:Generated_Source\PSoC6/ADC_1.h ****             | SAR_SAMPLE_CTRL_VALID_IGNORE_Msk \
 877:Generated_Source\PSoC6/ADC_1.h ****             | ADC_1_CFG3_TRIGGER_OUT_INIT \
 878:Generated_Source\PSoC6/ADC_1.h ****             | SAR_SAMPLE_CTRL_EOS_DSI_OUT_EN_Msk \
 879:Generated_Source\PSoC6/ADC_1.h ****     )
 880:Generated_Source\PSoC6/ADC_1.h **** 
 881:Generated_Source\PSoC6/ADC_1.h ****     #define ADC_1_CFG3_RANGE_THRES_INIT \
 882:Generated_Source\PSoC6/ADC_1.h ****             (ADC_1_CFG3_LOW_LIMIT \
 883:Generated_Source\PSoC6/ADC_1.h ****             | (uint32)((uint32)ADC_1_CFG3_HIGH_LIMIT \
 884:Generated_Source\PSoC6/ADC_1.h ****             << SAR_RANGE_THRES_RANGE_HIGH_Pos))
 885:Generated_Source\PSoC6/ADC_1.h **** 
 886:Generated_Source\PSoC6/ADC_1.h ****     #define ADC_1_CFG3_RANGE_COND_INIT   (cy_en_sar_range_detect_condition_t)ADC_1_CFG3_RANGE_COND
 887:Generated_Source\PSoC6/ADC_1.h **** 
 888:Generated_Source\PSoC6/ADC_1.h ****     /* Misc Config
 889:Generated_Source\PSoC6/ADC_1.h ****         [0] - Freerunning: Set if the sample mode is freerunning
 890:Generated_Source\PSoC6/ADC_1.h ****     */
 891:Generated_Source\PSoC6/ADC_1.h ****     #define ADC_1_CFG3_MISC_CONFIG_INIT \
 892:Generated_Source\PSoC6/ADC_1.h ****             (ADC_1_CFG3_FREERUNNING )
 893:Generated_Source\PSoC6/ADC_1.h **** 
 894:Generated_Source\PSoC6/ADC_1.h **** #endif /* ADC_1_TOTAL_CONFIGS > 3 */
 895:Generated_Source\PSoC6/ADC_1.h **** 
 896:Generated_Source\PSoC6/ADC_1.h **** /* ************************************************************************** */
 897:Generated_Source\PSoC6/ADC_1.h **** /* End configuration 3 calculated defines                                     */
 898:Generated_Source\PSoC6/ADC_1.h **** /* ************************************************************************** */
 899:Generated_Source\PSoC6/ADC_1.h **** 
 900:Generated_Source\PSoC6/ADC_1.h **** /******************************************************************************
 901:Generated_Source\PSoC6/ADC_1.h **** * Function Name: ADC_1_Enable
 902:Generated_Source\PSoC6/ADC_1.h **** ****************************************************************************//*
 903:Generated_Source\PSoC6/ADC_1.h **** *
 904:Generated_Source\PSoC6/ADC_1.h **** * \brief Enables the component.
 905:Generated_Source\PSoC6/ADC_1.h **** *
 906:Generated_Source\PSoC6/ADC_1.h **** * \param None
 907:Generated_Source\PSoC6/ADC_1.h **** *
 908:Generated_Source\PSoC6/ADC_1.h **** * \return None
 909:Generated_Source\PSoC6/ADC_1.h **** *
 910:Generated_Source\PSoC6/ADC_1.h **** * \sideeffect
 911:Generated_Source\PSoC6/ADC_1.h **** *  None
 912:Generated_Source\PSoC6/ADC_1.h **** *
 913:Generated_Source\PSoC6/ADC_1.h **** *******************************************************************************/
 914:Generated_Source\PSoC6/ADC_1.h **** __STATIC_INLINE void ADC_1_Enable(void)
 915:Generated_Source\PSoC6/ADC_1.h **** {
 916:Generated_Source\PSoC6/ADC_1.h ****     Cy_SAR_Enable(ADC_1_SAR__HW);
 917:Generated_Source\PSoC6/ADC_1.h **** }
 918:Generated_Source\PSoC6/ADC_1.h **** 
 919:Generated_Source\PSoC6/ADC_1.h **** /*******************************************************************************
 920:Generated_Source\PSoC6/ADC_1.h **** * Function Name: ADC_1_Stop
 921:Generated_Source\PSoC6/ADC_1.h **** ****************************************************************************//**
 922:Generated_Source\PSoC6/ADC_1.h **** *
 923:Generated_Source\PSoC6/ADC_1.h **** * \brief This function stops ADC conversions and puts the ADC into its lowest
 924:Generated_Source\PSoC6/ADC_1.h **** * power mode.
ARM GAS  C:\Users\Angel\AppData\Local\Temp\ccvqOPgy.s 			page 74


 925:Generated_Source\PSoC6/ADC_1.h **** *
 926:Generated_Source\PSoC6/ADC_1.h **** * \param None
 927:Generated_Source\PSoC6/ADC_1.h **** *
 928:Generated_Source\PSoC6/ADC_1.h **** * \return None
 929:Generated_Source\PSoC6/ADC_1.h **** *
 930:Generated_Source\PSoC6/ADC_1.h **** * \sideeffect
 931:Generated_Source\PSoC6/ADC_1.h **** * Do not use the ADC_1_Stop() API to halt conversions. Instead use the
 932:Generated_Source\PSoC6/ADC_1.h **** * ADC_1_StopConvert() API. If you use the ADC_1_Stop() API
 933:Generated_Source\PSoC6/ADC_1.h **** * to halt conversions then later use the ADC_1_Start() and
 934:Generated_Source\PSoC6/ADC_1.h **** * ADC_1_StartConvert() APIs to resume conversions, the first channel
 935:Generated_Source\PSoC6/ADC_1.h **** * of the scan may be corrupt. The ADC_1_StopConvert() API will enable
 936:Generated_Source\PSoC6/ADC_1.h **** * the ADC_1 to complete the current scan of channels. After the
 937:Generated_Source\PSoC6/ADC_1.h **** * channel scan is complete, the ADC_1 will stop all conversions, which
 938:Generated_Source\PSoC6/ADC_1.h **** * can be detected by the use of an ISR or the ADC_1_IsEndConversion()
 939:Generated_Source\PSoC6/ADC_1.h **** * function.
 940:Generated_Source\PSoC6/ADC_1.h **** *
 941:Generated_Source\PSoC6/ADC_1.h **** *******************************************************************************/
 942:Generated_Source\PSoC6/ADC_1.h **** __STATIC_INLINE void ADC_1_Stop(void)
 943:Generated_Source\PSoC6/ADC_1.h **** {
 944:Generated_Source\PSoC6/ADC_1.h ****     Cy_SAR_Disable(ADC_1_SAR__HW);
 945:Generated_Source\PSoC6/ADC_1.h **** }
 946:Generated_Source\PSoC6/ADC_1.h **** 
 947:Generated_Source\PSoC6/ADC_1.h **** /*******************************************************************************
 948:Generated_Source\PSoC6/ADC_1.h **** * Function Name: ADC_1_StopConvert
 949:Generated_Source\PSoC6/ADC_1.h **** ****************************************************************************//**
 950:Generated_Source\PSoC6/ADC_1.h **** *
 951:Generated_Source\PSoC6/ADC_1.h **** * \brief Forces the ADC_1 to stop conversions. If a conversion is
 952:Generated_Source\PSoC6/ADC_1.h **** * currently executing, that conversion will complete, but no further conversions
 953:Generated_Source\PSoC6/ADC_1.h **** * will occur.
 954:Generated_Source\PSoC6/ADC_1.h **** *
 955:Generated_Source\PSoC6/ADC_1.h **** * \param None
 956:Generated_Source\PSoC6/ADC_1.h **** *
 957:Generated_Source\PSoC6/ADC_1.h **** * \return None
 958:Generated_Source\PSoC6/ADC_1.h **** *
 959:Generated_Source\PSoC6/ADC_1.h **** * \sideeffect None
 960:Generated_Source\PSoC6/ADC_1.h **** *
 961:Generated_Source\PSoC6/ADC_1.h **** *******************************************************************************/
 962:Generated_Source\PSoC6/ADC_1.h **** __STATIC_INLINE void ADC_1_StopConvert(void)
 963:Generated_Source\PSoC6/ADC_1.h **** {
 964:Generated_Source\PSoC6/ADC_1.h ****     Cy_SAR_StopConvert(ADC_1_SAR__HW);
 965:Generated_Source\PSoC6/ADC_1.h **** }
 966:Generated_Source\PSoC6/ADC_1.h **** 
 967:Generated_Source\PSoC6/ADC_1.h **** /*******************************************************************************
 968:Generated_Source\PSoC6/ADC_1.h **** * Function Name: ADC_1_GetResult16
 969:Generated_Source\PSoC6/ADC_1.h **** ****************************************************************************//**
 970:Generated_Source\PSoC6/ADC_1.h **** *
 971:Generated_Source\PSoC6/ADC_1.h **** * \brief Gets the data available in the channel result data register
 972:Generated_Source\PSoC6/ADC_1.h **** *
 973:Generated_Source\PSoC6/ADC_1.h **** * \param chan The ADC_1 channel to read the result from. The first
 974:Generated_Source\PSoC6/ADC_1.h **** * channel is 0.
 975:Generated_Source\PSoC6/ADC_1.h **** *
 976:Generated_Source\PSoC6/ADC_1.h **** * \return Returns converted data as a signed 16-bit integer.
 977:Generated_Source\PSoC6/ADC_1.h **** *
 978:Generated_Source\PSoC6/ADC_1.h **** * \sideeffect None
 979:Generated_Source\PSoC6/ADC_1.h **** *
 980:Generated_Source\PSoC6/ADC_1.h **** *******************************************************************************/
 981:Generated_Source\PSoC6/ADC_1.h **** __STATIC_INLINE int16_t ADC_1_GetResult16(uint32_t chan)
ARM GAS  C:\Users\Angel\AppData\Local\Temp\ccvqOPgy.s 			page 75


 982:Generated_Source\PSoC6/ADC_1.h **** {
 983:Generated_Source\PSoC6/ADC_1.h ****     /* Halt CPU in debug mode if channel is out of valid range */
 984:Generated_Source\PSoC6/ADC_1.h ****     CY_ASSERT(chan < ADC_1_allConfigs[ADC_1_currentConfig].numChannels);
 1744              		.loc 4 984 0 discriminator 3
 1745 0062 1E4B     		ldr	r3, .L90+12
 1746 0064 1B68     		ldr	r3, [r3]
 1747 0066 03EB8303 		add	r3, r3, r3, lsl #2
 1748 006a 9A00     		lsls	r2, r3, #2
 1749 006c 1C4B     		ldr	r3, .L90+16
 1750 006e 1A44     		add	r2, r2, r3
 1751 0070 5368     		ldr	r3, [r2, #4]
 1752 0072 23B9     		cbnz	r3, .L86
 1753              		.loc 4 984 0 is_stmt 0
 1754 0074 4FF47671 		mov	r1, #984
 1755 0078 1A48     		ldr	r0, .L90+20
 1756 007a FFF7FEFF 		bl	Cy_SysLib_AssertFailed
 1757              	.LVL182:
 1758              	.L86:
 985:Generated_Source\PSoC6/ADC_1.h **** 
 986:Generated_Source\PSoC6/ADC_1.h ****     return Cy_SAR_GetResult16(ADC_1_SAR__HW, chan);
 1759              		.loc 4 986 0 is_stmt 1
 1760 007e 0021     		movs	r1, #0
 1761 0080 1948     		ldr	r0, .L90+24
 1762 0082 FFF7FEFF 		bl	Cy_SAR_GetResult16
 1763              	.LVL183:
 1764              	.LBE589:
 1765              	.LBE588:
 354:main_cm4.c    ****                         printf("%s ", myString);
 1766              		.loc 1 354 0
 1767 0086 0246     		mov	r2, r0
 1768 0088 1849     		ldr	r1, .L90+28
 1769 008a 6846     		mov	r0, sp
 1770              	.LVL184:
 1771 008c FFF7FEFF 		bl	sprintf
 1772              	.LVL185:
 355:main_cm4.c    ****                         
 1773              		.loc 1 355 0
 1774 0090 6946     		mov	r1, sp
 1775 0092 1748     		ldr	r0, .L90+32
 1776 0094 FFF7FEFF 		bl	printf
 1777              	.LVL186:
 1778              	.LBB590:
 1779              	.LBB591:
 1780              	.LBB592:
 1781              		.file 5 "Generated_Source\\PSoC6\\pdl\\drivers/peripheral/scb/cy_scb_uart.h"
   1:Generated_Source\PSoC6\pdl\drivers/peripheral/scb/cy_scb_uart.h **** /***************************************************************************//**
   2:Generated_Source\PSoC6\pdl\drivers/peripheral/scb/cy_scb_uart.h **** * \file cy_scb_uart.h
   3:Generated_Source\PSoC6\pdl\drivers/peripheral/scb/cy_scb_uart.h **** * \version 2.30
   4:Generated_Source\PSoC6\pdl\drivers/peripheral/scb/cy_scb_uart.h **** *
   5:Generated_Source\PSoC6\pdl\drivers/peripheral/scb/cy_scb_uart.h **** * Provides UART API declarations of the SCB driver.
   6:Generated_Source\PSoC6\pdl\drivers/peripheral/scb/cy_scb_uart.h **** *
   7:Generated_Source\PSoC6\pdl\drivers/peripheral/scb/cy_scb_uart.h **** ********************************************************************************
   8:Generated_Source\PSoC6\pdl\drivers/peripheral/scb/cy_scb_uart.h **** * \copyright
   9:Generated_Source\PSoC6\pdl\drivers/peripheral/scb/cy_scb_uart.h **** * Copyright 2016-2021, Cypress Semiconductor Corporation.  All rights reserved.
  10:Generated_Source\PSoC6\pdl\drivers/peripheral/scb/cy_scb_uart.h **** * You may use this file only in accordance with the license, terms, conditions,
  11:Generated_Source\PSoC6\pdl\drivers/peripheral/scb/cy_scb_uart.h **** * disclaimers, and limitations in the end user license agreement accompanying
  12:Generated_Source\PSoC6\pdl\drivers/peripheral/scb/cy_scb_uart.h **** * the software package with which this file was provided.
ARM GAS  C:\Users\Angel\AppData\Local\Temp\ccvqOPgy.s 			page 76


  13:Generated_Source\PSoC6\pdl\drivers/peripheral/scb/cy_scb_uart.h **** *******************************************************************************/
  14:Generated_Source\PSoC6\pdl\drivers/peripheral/scb/cy_scb_uart.h **** 
  15:Generated_Source\PSoC6\pdl\drivers/peripheral/scb/cy_scb_uart.h **** /**
  16:Generated_Source\PSoC6\pdl\drivers/peripheral/scb/cy_scb_uart.h **** * \addtogroup group_scb_uart
  17:Generated_Source\PSoC6\pdl\drivers/peripheral/scb/cy_scb_uart.h **** * \{
  18:Generated_Source\PSoC6\pdl\drivers/peripheral/scb/cy_scb_uart.h **** * Driver API for UART
  19:Generated_Source\PSoC6\pdl\drivers/peripheral/scb/cy_scb_uart.h **** *
  20:Generated_Source\PSoC6\pdl\drivers/peripheral/scb/cy_scb_uart.h **** * The functions and other declarations used in this part of the driver are in
  21:Generated_Source\PSoC6\pdl\drivers/peripheral/scb/cy_scb_uart.h **** * cy_scb_uart.h. You can also include cy_pdl.h (ModusToolbox only) to get access
  22:Generated_Source\PSoC6\pdl\drivers/peripheral/scb/cy_scb_uart.h **** * to all functions and declarations in the PDL.
  23:Generated_Source\PSoC6\pdl\drivers/peripheral/scb/cy_scb_uart.h **** *
  24:Generated_Source\PSoC6\pdl\drivers/peripheral/scb/cy_scb_uart.h **** * The Universal Asynchronous Receiver/Transmitter (UART) protocol is an
  25:Generated_Source\PSoC6\pdl\drivers/peripheral/scb/cy_scb_uart.h **** * asynchronous serial interface protocol. UART communication is typically
  26:Generated_Source\PSoC6\pdl\drivers/peripheral/scb/cy_scb_uart.h **** * point-to-point. The UART interface consists of two signals:
  27:Generated_Source\PSoC6\pdl\drivers/peripheral/scb/cy_scb_uart.h **** * * TX: Transmitter output
  28:Generated_Source\PSoC6\pdl\drivers/peripheral/scb/cy_scb_uart.h **** * * RX: Receiver input
  29:Generated_Source\PSoC6\pdl\drivers/peripheral/scb/cy_scb_uart.h **** *
  30:Generated_Source\PSoC6\pdl\drivers/peripheral/scb/cy_scb_uart.h **** * Additionally, two side-band signals are used to implement flow control in
  31:Generated_Source\PSoC6\pdl\drivers/peripheral/scb/cy_scb_uart.h **** * UART. Note that the flow control applies only to TX functionality.
  32:Generated_Source\PSoC6\pdl\drivers/peripheral/scb/cy_scb_uart.h **** * * Clear to Send (CTS): This is an input signal to the transmitter.
  33:Generated_Source\PSoC6\pdl\drivers/peripheral/scb/cy_scb_uart.h **** *   When active, it indicates that the slave is ready for the master to
  34:Generated_Source\PSoC6\pdl\drivers/peripheral/scb/cy_scb_uart.h **** *   transmit data.
  35:Generated_Source\PSoC6\pdl\drivers/peripheral/scb/cy_scb_uart.h **** * * Ready to Send (RTS): This is an output signal from the receiver. When
  36:Generated_Source\PSoC6\pdl\drivers/peripheral/scb/cy_scb_uart.h **** *   active, it indicates that the receiver is ready to receive data
  37:Generated_Source\PSoC6\pdl\drivers/peripheral/scb/cy_scb_uart.h **** *
  38:Generated_Source\PSoC6\pdl\drivers/peripheral/scb/cy_scb_uart.h **** * Features:
  39:Generated_Source\PSoC6\pdl\drivers/peripheral/scb/cy_scb_uart.h **** * * Supports UART protocol
  40:Generated_Source\PSoC6\pdl\drivers/peripheral/scb/cy_scb_uart.h **** *   * Standard UART
  41:Generated_Source\PSoC6\pdl\drivers/peripheral/scb/cy_scb_uart.h **** *   * Multi-processor mode
  42:Generated_Source\PSoC6\pdl\drivers/peripheral/scb/cy_scb_uart.h **** * * SmartCard (ISO7816) reader
  43:Generated_Source\PSoC6\pdl\drivers/peripheral/scb/cy_scb_uart.h **** * * IrDA
  44:Generated_Source\PSoC6\pdl\drivers/peripheral/scb/cy_scb_uart.h **** * * Data frame size programmable from 4 to 16 bits
  45:Generated_Source\PSoC6\pdl\drivers/peripheral/scb/cy_scb_uart.h **** * * Programmable number of STOP bits, which can be set in terms of half bit
  46:Generated_Source\PSoC6\pdl\drivers/peripheral/scb/cy_scb_uart.h **** *   periods between 1 and 4
  47:Generated_Source\PSoC6\pdl\drivers/peripheral/scb/cy_scb_uart.h **** * * Parity support (odd and even parity)
  48:Generated_Source\PSoC6\pdl\drivers/peripheral/scb/cy_scb_uart.h **** * * Median filter on Rx input
  49:Generated_Source\PSoC6\pdl\drivers/peripheral/scb/cy_scb_uart.h **** * * Programmable oversampling
  50:Generated_Source\PSoC6\pdl\drivers/peripheral/scb/cy_scb_uart.h **** * * Start skipping
  51:Generated_Source\PSoC6\pdl\drivers/peripheral/scb/cy_scb_uart.h **** *
  52:Generated_Source\PSoC6\pdl\drivers/peripheral/scb/cy_scb_uart.h **** ********************************************************************************
  53:Generated_Source\PSoC6\pdl\drivers/peripheral/scb/cy_scb_uart.h **** * \section group_scb_uart_configuration Configuration Considerations
  54:Generated_Source\PSoC6\pdl\drivers/peripheral/scb/cy_scb_uart.h **** ********************************************************************************
  55:Generated_Source\PSoC6\pdl\drivers/peripheral/scb/cy_scb_uart.h **** * The UART driver configuration can be divided to number of sequential
  56:Generated_Source\PSoC6\pdl\drivers/peripheral/scb/cy_scb_uart.h **** * steps listed below:
  57:Generated_Source\PSoC6\pdl\drivers/peripheral/scb/cy_scb_uart.h **** * * \ref group_scb_uart_config
  58:Generated_Source\PSoC6\pdl\drivers/peripheral/scb/cy_scb_uart.h **** * * \ref group_scb_uart_pins
  59:Generated_Source\PSoC6\pdl\drivers/peripheral/scb/cy_scb_uart.h **** * * \ref group_scb_uart_clock
  60:Generated_Source\PSoC6\pdl\drivers/peripheral/scb/cy_scb_uart.h **** * * \ref group_scb_uart_data_rate
  61:Generated_Source\PSoC6\pdl\drivers/peripheral/scb/cy_scb_uart.h **** * * \ref group_scb_uart_intr
  62:Generated_Source\PSoC6\pdl\drivers/peripheral/scb/cy_scb_uart.h **** * * \ref group_scb_uart_enable
  63:Generated_Source\PSoC6\pdl\drivers/peripheral/scb/cy_scb_uart.h **** *
  64:Generated_Source\PSoC6\pdl\drivers/peripheral/scb/cy_scb_uart.h **** * \note
  65:Generated_Source\PSoC6\pdl\drivers/peripheral/scb/cy_scb_uart.h **** * UART driver is built on top of the SCB hardware block. The SCB5 instance is
  66:Generated_Source\PSoC6\pdl\drivers/peripheral/scb/cy_scb_uart.h **** * used as an example for all code snippets. Modify the code to match your
  67:Generated_Source\PSoC6\pdl\drivers/peripheral/scb/cy_scb_uart.h **** * design.
  68:Generated_Source\PSoC6\pdl\drivers/peripheral/scb/cy_scb_uart.h **** *
  69:Generated_Source\PSoC6\pdl\drivers/peripheral/scb/cy_scb_uart.h **** ********************************************************************************
ARM GAS  C:\Users\Angel\AppData\Local\Temp\ccvqOPgy.s 			page 77


  70:Generated_Source\PSoC6\pdl\drivers/peripheral/scb/cy_scb_uart.h **** * \subsection group_scb_uart_config Configure UART
  71:Generated_Source\PSoC6\pdl\drivers/peripheral/scb/cy_scb_uart.h **** ********************************************************************************
  72:Generated_Source\PSoC6\pdl\drivers/peripheral/scb/cy_scb_uart.h **** * To set up the UART driver, provide the configuration parameters in the
  73:Generated_Source\PSoC6\pdl\drivers/peripheral/scb/cy_scb_uart.h **** * \ref cy_stc_scb_uart_config_t structure. For example: provide uartMode,
  74:Generated_Source\PSoC6\pdl\drivers/peripheral/scb/cy_scb_uart.h **** * oversample, dataWidth, enableMsbFirst, parity, and stopBits. The other
  75:Generated_Source\PSoC6\pdl\drivers/peripheral/scb/cy_scb_uart.h **** * parameters are optional. To initialize the driver, call \ref Cy_SCB_UART_Init
  76:Generated_Source\PSoC6\pdl\drivers/peripheral/scb/cy_scb_uart.h **** * function providing a pointer to the populated \ref cy_stc_scb_uart_config_t
  77:Generated_Source\PSoC6\pdl\drivers/peripheral/scb/cy_scb_uart.h **** * structure and the allocated \ref cy_stc_scb_uart_context_t structure.
  78:Generated_Source\PSoC6\pdl\drivers/peripheral/scb/cy_scb_uart.h **** *
  79:Generated_Source\PSoC6\pdl\drivers/peripheral/scb/cy_scb_uart.h **** * \snippet SCB_CompDatasheet_sut_01_revA.cydsn\uart_snippets.c UART_CFG
  80:Generated_Source\PSoC6\pdl\drivers/peripheral/scb/cy_scb_uart.h **** *
  81:Generated_Source\PSoC6\pdl\drivers/peripheral/scb/cy_scb_uart.h **** ********************************************************************************
  82:Generated_Source\PSoC6\pdl\drivers/peripheral/scb/cy_scb_uart.h **** * \subsection group_scb_uart_pins Assign and Configure Pins
  83:Generated_Source\PSoC6\pdl\drivers/peripheral/scb/cy_scb_uart.h **** ********************************************************************************
  84:Generated_Source\PSoC6\pdl\drivers/peripheral/scb/cy_scb_uart.h **** * Only dedicated SCB pins can be used for UART operation. The HSIOM
  85:Generated_Source\PSoC6\pdl\drivers/peripheral/scb/cy_scb_uart.h **** * register must be configured to connect dedicated SCB UART pins to the
  86:Generated_Source\PSoC6\pdl\drivers/peripheral/scb/cy_scb_uart.h **** * SCB block. Also, the UART output pins must be configured in Strong Drive
  87:Generated_Source\PSoC6\pdl\drivers/peripheral/scb/cy_scb_uart.h **** * Input Off mode and UART input pins in Digital High-Z:
  88:Generated_Source\PSoC6\pdl\drivers/peripheral/scb/cy_scb_uart.h **** *
  89:Generated_Source\PSoC6\pdl\drivers/peripheral/scb/cy_scb_uart.h **** * \snippet SCB_CompDatasheet_sut_01_revA.cydsn\uart_snippets.c UART_CFG_PINS
  90:Generated_Source\PSoC6\pdl\drivers/peripheral/scb/cy_scb_uart.h **** *
  91:Generated_Source\PSoC6\pdl\drivers/peripheral/scb/cy_scb_uart.h **** ********************************************************************************
  92:Generated_Source\PSoC6\pdl\drivers/peripheral/scb/cy_scb_uart.h **** * \subsection group_scb_uart_clock Assign Clock Divider
  93:Generated_Source\PSoC6\pdl\drivers/peripheral/scb/cy_scb_uart.h **** ********************************************************************************
  94:Generated_Source\PSoC6\pdl\drivers/peripheral/scb/cy_scb_uart.h **** * A clock source must be connected to the SCB block to oversample input and
  95:Generated_Source\PSoC6\pdl\drivers/peripheral/scb/cy_scb_uart.h **** * output signals, in this document this clock will be referred as clk_scb.
  96:Generated_Source\PSoC6\pdl\drivers/peripheral/scb/cy_scb_uart.h **** * You must use one of available integer or fractional dividers. Use the
  97:Generated_Source\PSoC6\pdl\drivers/peripheral/scb/cy_scb_uart.h **** * \ref group_sysclk driver API to do this.
  98:Generated_Source\PSoC6\pdl\drivers/peripheral/scb/cy_scb_uart.h **** *
  99:Generated_Source\PSoC6\pdl\drivers/peripheral/scb/cy_scb_uart.h **** * \snippet SCB_CompDatasheet_sut_01_revA.cydsn\uart_snippets.c UART_CFG_ASSIGN_CLOCK
 100:Generated_Source\PSoC6\pdl\drivers/peripheral/scb/cy_scb_uart.h **** *
 101:Generated_Source\PSoC6\pdl\drivers/peripheral/scb/cy_scb_uart.h **** ********************************************************************************
 102:Generated_Source\PSoC6\pdl\drivers/peripheral/scb/cy_scb_uart.h **** * \subsection group_scb_uart_data_rate Configure Baud Rate
 103:Generated_Source\PSoC6\pdl\drivers/peripheral/scb/cy_scb_uart.h **** ********************************************************************************
 104:Generated_Source\PSoC6\pdl\drivers/peripheral/scb/cy_scb_uart.h **** * To get the UART to operate with the desired baud rate, the clk_scb frequency
 105:Generated_Source\PSoC6\pdl\drivers/peripheral/scb/cy_scb_uart.h **** * and the oversample must be configured. Use the \ref group_sysclk driver API
 106:Generated_Source\PSoC6\pdl\drivers/peripheral/scb/cy_scb_uart.h **** * to configure clk_scb frequency. Set the <em><b>oversample parameter
 107:Generated_Source\PSoC6\pdl\drivers/peripheral/scb/cy_scb_uart.h **** * in configuration structure</b></em> to define the number of the SCB clocks
 108:Generated_Source\PSoC6\pdl\drivers/peripheral/scb/cy_scb_uart.h **** * within one UART bit-time.
 109:Generated_Source\PSoC6\pdl\drivers/peripheral/scb/cy_scb_uart.h **** *
 110:Generated_Source\PSoC6\pdl\drivers/peripheral/scb/cy_scb_uart.h **** * \snippet SCB_CompDatasheet_sut_01_revA.cydsn\uart_snippets.c UART_CFG_DATA_RATE
 111:Generated_Source\PSoC6\pdl\drivers/peripheral/scb/cy_scb_uart.h **** *
 112:Generated_Source\PSoC6\pdl\drivers/peripheral/scb/cy_scb_uart.h **** * <b>Refer to the technical reference manual (TRM) section UART sub-section
 113:Generated_Source\PSoC6\pdl\drivers/peripheral/scb/cy_scb_uart.h **** * Clocking and Oversampling to get information about how to configure the UART to run with
 114:Generated_Source\PSoC6\pdl\drivers/peripheral/scb/cy_scb_uart.h **** * desired baud rate.</b>
 115:Generated_Source\PSoC6\pdl\drivers/peripheral/scb/cy_scb_uart.h **** *
 116:Generated_Source\PSoC6\pdl\drivers/peripheral/scb/cy_scb_uart.h **** ********************************************************************************
 117:Generated_Source\PSoC6\pdl\drivers/peripheral/scb/cy_scb_uart.h **** * \subsection group_scb_uart_intr Configure Interrupt
 118:Generated_Source\PSoC6\pdl\drivers/peripheral/scb/cy_scb_uart.h **** ********************************************************************************
 119:Generated_Source\PSoC6\pdl\drivers/peripheral/scb/cy_scb_uart.h **** * The interrupt is optional for the UART operation. To configure interrupt
 120:Generated_Source\PSoC6\pdl\drivers/peripheral/scb/cy_scb_uart.h **** * the \ref Cy_SCB_UART_Interrupt function must be called in the interrupt
 121:Generated_Source\PSoC6\pdl\drivers/peripheral/scb/cy_scb_uart.h **** * handler for the selected SCB instance. Also, this interrupt must be enabled
 122:Generated_Source\PSoC6\pdl\drivers/peripheral/scb/cy_scb_uart.h **** * in the NVIC.
 123:Generated_Source\PSoC6\pdl\drivers/peripheral/scb/cy_scb_uart.h **** * The interrupt must be configured when \ref group_scb_uart_hl will be used.
 124:Generated_Source\PSoC6\pdl\drivers/peripheral/scb/cy_scb_uart.h **** *
 125:Generated_Source\PSoC6\pdl\drivers/peripheral/scb/cy_scb_uart.h **** * \snippet SCB_CompDatasheet_sut_01_revA.cydsn\uart_snippets.c UART_INTR_A
 126:Generated_Source\PSoC6\pdl\drivers/peripheral/scb/cy_scb_uart.h **** * \snippet SCB_CompDatasheet_sut_01_revA.cydsn\uart_snippets.c UART_INTR_B
ARM GAS  C:\Users\Angel\AppData\Local\Temp\ccvqOPgy.s 			page 78


 127:Generated_Source\PSoC6\pdl\drivers/peripheral/scb/cy_scb_uart.h **** *
 128:Generated_Source\PSoC6\pdl\drivers/peripheral/scb/cy_scb_uart.h **** ********************************************************************************
 129:Generated_Source\PSoC6\pdl\drivers/peripheral/scb/cy_scb_uart.h **** * \subsection group_scb_uart_enable Enable UART
 130:Generated_Source\PSoC6\pdl\drivers/peripheral/scb/cy_scb_uart.h **** ********************************************************************************
 131:Generated_Source\PSoC6\pdl\drivers/peripheral/scb/cy_scb_uart.h **** * Finally, enable the UART operation by calling \ref Cy_SCB_UART_Enable.
 132:Generated_Source\PSoC6\pdl\drivers/peripheral/scb/cy_scb_uart.h **** *
 133:Generated_Source\PSoC6\pdl\drivers/peripheral/scb/cy_scb_uart.h **** * \snippet SCB_CompDatasheet_sut_01_revA.cydsn\uart_snippets.c UART_ENABLE
 134:Generated_Source\PSoC6\pdl\drivers/peripheral/scb/cy_scb_uart.h **** *
 135:Generated_Source\PSoC6\pdl\drivers/peripheral/scb/cy_scb_uart.h **** ********************************************************************************
 136:Generated_Source\PSoC6\pdl\drivers/peripheral/scb/cy_scb_uart.h **** * \section group_scb_uart_use_cases Common Use Cases
 137:Generated_Source\PSoC6\pdl\drivers/peripheral/scb/cy_scb_uart.h **** ********************************************************************************
 138:Generated_Source\PSoC6\pdl\drivers/peripheral/scb/cy_scb_uart.h **** * The UART API is divided into two categories: \ref group_scb_uart_low_level_functions
 139:Generated_Source\PSoC6\pdl\drivers/peripheral/scb/cy_scb_uart.h **** * and \ref group_scb_uart_high_level_functions. \n
 140:Generated_Source\PSoC6\pdl\drivers/peripheral/scb/cy_scb_uart.h **** * <em>Do not mix <b>High-Level</b> and <b>Low-Level</b> API because a Low-Level
 141:Generated_Source\PSoC6\pdl\drivers/peripheral/scb/cy_scb_uart.h **** * API can adversely affect the operation of a High-Level API.</em>
 142:Generated_Source\PSoC6\pdl\drivers/peripheral/scb/cy_scb_uart.h **** *
 143:Generated_Source\PSoC6\pdl\drivers/peripheral/scb/cy_scb_uart.h **** ********************************************************************************
 144:Generated_Source\PSoC6\pdl\drivers/peripheral/scb/cy_scb_uart.h **** * \subsection group_scb_uart_ll Low-Level API
 145:Generated_Source\PSoC6\pdl\drivers/peripheral/scb/cy_scb_uart.h **** ********************************************************************************
 146:Generated_Source\PSoC6\pdl\drivers/peripheral/scb/cy_scb_uart.h **** * The \ref group_scb_uart_low_level_functions functions allow
 147:Generated_Source\PSoC6\pdl\drivers/peripheral/scb/cy_scb_uart.h **** * interacting directly with the hardware and do not use \ref Cy_SCB_UART_Interrupt.
 148:Generated_Source\PSoC6\pdl\drivers/peripheral/scb/cy_scb_uart.h **** * These functions do not require context for operation. Thus, NULL can be
 149:Generated_Source\PSoC6\pdl\drivers/peripheral/scb/cy_scb_uart.h **** * passed for context parameter in \ref Cy_SCB_UART_Init and \ref Cy_SCB_UART_Disable
 150:Generated_Source\PSoC6\pdl\drivers/peripheral/scb/cy_scb_uart.h **** * instead of a pointer to the context structure.
 151:Generated_Source\PSoC6\pdl\drivers/peripheral/scb/cy_scb_uart.h **** *
 152:Generated_Source\PSoC6\pdl\drivers/peripheral/scb/cy_scb_uart.h **** * * To write data into the TX FIFO, use one of the provided functions:
 153:Generated_Source\PSoC6\pdl\drivers/peripheral/scb/cy_scb_uart.h **** *   \ref Cy_SCB_UART_Put, \ref Cy_SCB_UART_PutArray,
 154:Generated_Source\PSoC6\pdl\drivers/peripheral/scb/cy_scb_uart.h **** *   \ref Cy_SCB_UART_PutArrayBlocking or \ref Cy_SCB_UART_PutString.
 155:Generated_Source\PSoC6\pdl\drivers/peripheral/scb/cy_scb_uart.h **** *   Note that putting data into the TX FIFO starts data transfer.
 156:Generated_Source\PSoC6\pdl\drivers/peripheral/scb/cy_scb_uart.h **** *
 157:Generated_Source\PSoC6\pdl\drivers/peripheral/scb/cy_scb_uart.h **** * * To read data from the RX FIFO, use one of the provided functions:
 158:Generated_Source\PSoC6\pdl\drivers/peripheral/scb/cy_scb_uart.h **** *   \ref Cy_SCB_UART_Get, \ref Cy_SCB_UART_GetArray or
 159:Generated_Source\PSoC6\pdl\drivers/peripheral/scb/cy_scb_uart.h **** *   \ref Cy_SCB_UART_GetArrayBlocking.
 160:Generated_Source\PSoC6\pdl\drivers/peripheral/scb/cy_scb_uart.h **** *
 161:Generated_Source\PSoC6\pdl\drivers/peripheral/scb/cy_scb_uart.h **** * * The statuses can be polled using: \ref Cy_SCB_UART_GetRxFifoStatus and
 162:Generated_Source\PSoC6\pdl\drivers/peripheral/scb/cy_scb_uart.h **** *   \ref Cy_SCB_UART_GetTxFifoStatus.
 163:Generated_Source\PSoC6\pdl\drivers/peripheral/scb/cy_scb_uart.h **** *   <em>The statuses are <b>W1C (Write 1 to Clear)</b> and after a status
 164:Generated_Source\PSoC6\pdl\drivers/peripheral/scb/cy_scb_uart.h **** *   is set, it must be cleared.</em> Note that there are statuses evaluated as level.
 165:Generated_Source\PSoC6\pdl\drivers/peripheral/scb/cy_scb_uart.h **** *   These statuses remain set until an event is true. Therefore, after the clear
 166:Generated_Source\PSoC6\pdl\drivers/peripheral/scb/cy_scb_uart.h **** *   operation, the status is cleared but then it is restored (if event is still
 167:Generated_Source\PSoC6\pdl\drivers/peripheral/scb/cy_scb_uart.h **** *   true).
 168:Generated_Source\PSoC6\pdl\drivers/peripheral/scb/cy_scb_uart.h **** *   Also, the following functions can be used for polling as well
 169:Generated_Source\PSoC6\pdl\drivers/peripheral/scb/cy_scb_uart.h **** *   \ref Cy_SCB_UART_IsTxComplete, \ref Cy_SCB_UART_GetNumInRxFifo and
 170:Generated_Source\PSoC6\pdl\drivers/peripheral/scb/cy_scb_uart.h **** *   \ref Cy_SCB_UART_GetNumInTxFifo.
 171:Generated_Source\PSoC6\pdl\drivers/peripheral/scb/cy_scb_uart.h **** *
 172:Generated_Source\PSoC6\pdl\drivers/peripheral/scb/cy_scb_uart.h **** * \snippet SCB_CompDatasheet_sut_01_revA.cydsn\uart_snippets.c UART_TRANSMIT_DATA_LL
 173:Generated_Source\PSoC6\pdl\drivers/peripheral/scb/cy_scb_uart.h **** *
 174:Generated_Source\PSoC6\pdl\drivers/peripheral/scb/cy_scb_uart.h **** ********************************************************************************
 175:Generated_Source\PSoC6\pdl\drivers/peripheral/scb/cy_scb_uart.h **** * \subsection group_scb_uart_hl High-Level API
 176:Generated_Source\PSoC6\pdl\drivers/peripheral/scb/cy_scb_uart.h **** ********************************************************************************
 177:Generated_Source\PSoC6\pdl\drivers/peripheral/scb/cy_scb_uart.h **** * The \ref group_scb_uart_high_level_functions API use \ref Cy_SCB_UART_Interrupt
 178:Generated_Source\PSoC6\pdl\drivers/peripheral/scb/cy_scb_uart.h **** * to execute the transfer. Call \ref Cy_SCB_UART_Transmit to start transmission.
 179:Generated_Source\PSoC6\pdl\drivers/peripheral/scb/cy_scb_uart.h **** * Call \ref Cy_SCB_UART_Receive to start receive operation. After the
 180:Generated_Source\PSoC6\pdl\drivers/peripheral/scb/cy_scb_uart.h **** * operation is started the \ref Cy_SCB_UART_Interrupt handles the data
 181:Generated_Source\PSoC6\pdl\drivers/peripheral/scb/cy_scb_uart.h **** * transfer until its completion.
 182:Generated_Source\PSoC6\pdl\drivers/peripheral/scb/cy_scb_uart.h **** * Therefore \ref Cy_SCB_UART_Interrupt must be called inside the user
 183:Generated_Source\PSoC6\pdl\drivers/peripheral/scb/cy_scb_uart.h **** * interrupt handler to make the High-Level API work. To monitor status
ARM GAS  C:\Users\Angel\AppData\Local\Temp\ccvqOPgy.s 			page 79


 184:Generated_Source\PSoC6\pdl\drivers/peripheral/scb/cy_scb_uart.h **** * of transmit operation, use \ref Cy_SCB_UART_GetTransmitStatus and
 185:Generated_Source\PSoC6\pdl\drivers/peripheral/scb/cy_scb_uart.h **** * \ref Cy_SCB_UART_GetReceiveStatus to monitor receive status appropriately.
 186:Generated_Source\PSoC6\pdl\drivers/peripheral/scb/cy_scb_uart.h **** * Alternatively use \ref Cy_SCB_UART_RegisterCallback to register callback
 187:Generated_Source\PSoC6\pdl\drivers/peripheral/scb/cy_scb_uart.h **** * function to be notified about \ref group_scb_uart_macros_callback_events.
 188:Generated_Source\PSoC6\pdl\drivers/peripheral/scb/cy_scb_uart.h **** *
 189:Generated_Source\PSoC6\pdl\drivers/peripheral/scb/cy_scb_uart.h **** * <b>Receive Operation</b>
 190:Generated_Source\PSoC6\pdl\drivers/peripheral/scb/cy_scb_uart.h **** * \snippet SCB_CompDatasheet_sut_01_revA.cydsn\uart_snippets.c UART_RECEIVE_DATA_HL
 191:Generated_Source\PSoC6\pdl\drivers/peripheral/scb/cy_scb_uart.h **** *
 192:Generated_Source\PSoC6\pdl\drivers/peripheral/scb/cy_scb_uart.h **** * <b>Transmit Operation</b>
 193:Generated_Source\PSoC6\pdl\drivers/peripheral/scb/cy_scb_uart.h **** * \snippet SCB_CompDatasheet_sut_01_revA.cydsn\uart_snippets.c UART_TRANSMIT_DATA_HL
 194:Generated_Source\PSoC6\pdl\drivers/peripheral/scb/cy_scb_uart.h **** *
 195:Generated_Source\PSoC6\pdl\drivers/peripheral/scb/cy_scb_uart.h **** * There is also capability to insert a receive ring buffer that operates between
 196:Generated_Source\PSoC6\pdl\drivers/peripheral/scb/cy_scb_uart.h **** * the RX FIFO and the user buffer. The received data is copied into the ring
 197:Generated_Source\PSoC6\pdl\drivers/peripheral/scb/cy_scb_uart.h **** * buffer from the RX FIFO. This process runs in the background after the ring
 198:Generated_Source\PSoC6\pdl\drivers/peripheral/scb/cy_scb_uart.h **** * buffer operation is started by \ref Cy_SCB_UART_StartRingBuffer.
 199:Generated_Source\PSoC6\pdl\drivers/peripheral/scb/cy_scb_uart.h **** * When \ref Cy_SCB_UART_Receive is called, it first reads data from the ring
 200:Generated_Source\PSoC6\pdl\drivers/peripheral/scb/cy_scb_uart.h **** * buffer and then sets up an interrupt to receive more data if the required
 201:Generated_Source\PSoC6\pdl\drivers/peripheral/scb/cy_scb_uart.h **** * amount has not yet been read.
 202:Generated_Source\PSoC6\pdl\drivers/peripheral/scb/cy_scb_uart.h **** *
 203:Generated_Source\PSoC6\pdl\drivers/peripheral/scb/cy_scb_uart.h **** ********************************************************************************
 204:Generated_Source\PSoC6\pdl\drivers/peripheral/scb/cy_scb_uart.h **** * \section group_scb_uart_dma_trig DMA Trigger
 205:Generated_Source\PSoC6\pdl\drivers/peripheral/scb/cy_scb_uart.h **** ********************************************************************************
 206:Generated_Source\PSoC6\pdl\drivers/peripheral/scb/cy_scb_uart.h **** * The SCB provides TX and RX output trigger signals that can be routed to the
 207:Generated_Source\PSoC6\pdl\drivers/peripheral/scb/cy_scb_uart.h **** * DMA controller inputs. These signals are assigned based on the data availability
 208:Generated_Source\PSoC6\pdl\drivers/peripheral/scb/cy_scb_uart.h **** * in the TX and RX FIFOs appropriately.
 209:Generated_Source\PSoC6\pdl\drivers/peripheral/scb/cy_scb_uart.h **** *
 210:Generated_Source\PSoC6\pdl\drivers/peripheral/scb/cy_scb_uart.h **** * * The RX trigger signal is active while the number of data
 211:Generated_Source\PSoC6\pdl\drivers/peripheral/scb/cy_scb_uart.h **** *   elements in the RX FIFO is greater than the value of RX FIFO level. Use
 212:Generated_Source\PSoC6\pdl\drivers/peripheral/scb/cy_scb_uart.h **** *   function \ref Cy_SCB_SetRxFifoLevel or set configuration structure
 213:Generated_Source\PSoC6\pdl\drivers/peripheral/scb/cy_scb_uart.h **** *   rxFifoTriggerLevel parameter to configure RX FIFO level value. \n
 214:Generated_Source\PSoC6\pdl\drivers/peripheral/scb/cy_scb_uart.h **** *   <em>For example, the RX FIFO has 8 data elements and the RX FIFO level is 0.
 215:Generated_Source\PSoC6\pdl\drivers/peripheral/scb/cy_scb_uart.h **** *   The RX trigger signal is active until DMA reads all data from
 216:Generated_Source\PSoC6\pdl\drivers/peripheral/scb/cy_scb_uart.h **** *   the RX FIFO.</em>
 217:Generated_Source\PSoC6\pdl\drivers/peripheral/scb/cy_scb_uart.h **** *
 218:Generated_Source\PSoC6\pdl\drivers/peripheral/scb/cy_scb_uart.h **** * * The TX trigger signal is active while the number of data elements
 219:Generated_Source\PSoC6\pdl\drivers/peripheral/scb/cy_scb_uart.h **** *   in the TX FIFO is less than the value of TX FIFO level. Use function
 220:Generated_Source\PSoC6\pdl\drivers/peripheral/scb/cy_scb_uart.h **** *   \ref Cy_SCB_SetTxFifoLevel or set configuration structure txFifoTriggerLevel
 221:Generated_Source\PSoC6\pdl\drivers/peripheral/scb/cy_scb_uart.h **** *   parameter to configure TX FIFO level value. \n
 222:Generated_Source\PSoC6\pdl\drivers/peripheral/scb/cy_scb_uart.h **** *   <em>For example, the TX FIFO has 0 data elements (empty) and the TX FIFO level
 223:Generated_Source\PSoC6\pdl\drivers/peripheral/scb/cy_scb_uart.h **** *   is 7. The TX trigger signal is active until DMA loads TX FIFO
 224:Generated_Source\PSoC6\pdl\drivers/peripheral/scb/cy_scb_uart.h **** *   with 8 data elements (note that after the first TX load operation, the data
 225:Generated_Source\PSoC6\pdl\drivers/peripheral/scb/cy_scb_uart.h **** *   element goes to the shift register and TX FIFO is empty).</em>
 226:Generated_Source\PSoC6\pdl\drivers/peripheral/scb/cy_scb_uart.h **** *
 227:Generated_Source\PSoC6\pdl\drivers/peripheral/scb/cy_scb_uart.h **** * To route SCB TX or RX trigger signals to DMA controller use \ref group_trigmux
 228:Generated_Source\PSoC6\pdl\drivers/peripheral/scb/cy_scb_uart.h **** * driver API.
 229:Generated_Source\PSoC6\pdl\drivers/peripheral/scb/cy_scb_uart.h **** *
 230:Generated_Source\PSoC6\pdl\drivers/peripheral/scb/cy_scb_uart.h **** * \note
 231:Generated_Source\PSoC6\pdl\drivers/peripheral/scb/cy_scb_uart.h **** * To properly handle DMA level request signal activation and de-activation from the SCB
 232:Generated_Source\PSoC6\pdl\drivers/peripheral/scb/cy_scb_uart.h **** * peripheral block the DMA Descriptor typically must be configured to re-trigger
 233:Generated_Source\PSoC6\pdl\drivers/peripheral/scb/cy_scb_uart.h **** * after 16 Clk_Slow cycles.
 234:Generated_Source\PSoC6\pdl\drivers/peripheral/scb/cy_scb_uart.h **** *
 235:Generated_Source\PSoC6\pdl\drivers/peripheral/scb/cy_scb_uart.h **** ********************************************************************************
 236:Generated_Source\PSoC6\pdl\drivers/peripheral/scb/cy_scb_uart.h **** * \section group_scb_uart_lp Low Power Support
 237:Generated_Source\PSoC6\pdl\drivers/peripheral/scb/cy_scb_uart.h **** ********************************************************************************
 238:Generated_Source\PSoC6\pdl\drivers/peripheral/scb/cy_scb_uart.h **** * The UART driver provides callback functions to handle power mode
 239:Generated_Source\PSoC6\pdl\drivers/peripheral/scb/cy_scb_uart.h **** * transition. The callback \ref Cy_SCB_UART_DeepSleepCallback must be called
 240:Generated_Source\PSoC6\pdl\drivers/peripheral/scb/cy_scb_uart.h **** * during execution of \ref Cy_SysPm_CpuEnterDeepSleep \ref Cy_SCB_UART_HibernateCallback
ARM GAS  C:\Users\Angel\AppData\Local\Temp\ccvqOPgy.s 			page 80


 241:Generated_Source\PSoC6\pdl\drivers/peripheral/scb/cy_scb_uart.h **** * must be called during execution of \ref Cy_SysPm_SystemEnterHibernate. To trigger the
 242:Generated_Source\PSoC6\pdl\drivers/peripheral/scb/cy_scb_uart.h **** * callback execution, the callback must be registered before calling the
 243:Generated_Source\PSoC6\pdl\drivers/peripheral/scb/cy_scb_uart.h **** * power mode transition function. Refer to \ref group_syspm driver for more
 244:Generated_Source\PSoC6\pdl\drivers/peripheral/scb/cy_scb_uart.h **** * information about power mode transitions and callback registration.
 245:Generated_Source\PSoC6\pdl\drivers/peripheral/scb/cy_scb_uart.h **** *
 246:Generated_Source\PSoC6\pdl\drivers/peripheral/scb/cy_scb_uart.h **** * The UART is disabled during Deep Sleep and Hibernate and stops driving
 247:Generated_Source\PSoC6\pdl\drivers/peripheral/scb/cy_scb_uart.h **** * the output pins. The state of the UART output pins TX and RTS is High-Z,
 248:Generated_Source\PSoC6\pdl\drivers/peripheral/scb/cy_scb_uart.h **** * which can cause unexpected behavior of the UART receiver due to possible
 249:Generated_Source\PSoC6\pdl\drivers/peripheral/scb/cy_scb_uart.h **** * glitches on these lines. These pins must be set to the inactive state before
 250:Generated_Source\PSoC6\pdl\drivers/peripheral/scb/cy_scb_uart.h **** * entering Deep Sleep or Hibernate mode.
 251:Generated_Source\PSoC6\pdl\drivers/peripheral/scb/cy_scb_uart.h **** * These pins must keep the inactive level (the same state
 252:Generated_Source\PSoC6\pdl\drivers/peripheral/scb/cy_scb_uart.h **** * when UART TX is enabled and does not transfer data) before entering Deep
 253:Generated_Source\PSoC6\pdl\drivers/peripheral/scb/cy_scb_uart.h **** * Sleep or Hibernate mode. To do that, write the GPIO data register of each pin
 254:Generated_Source\PSoC6\pdl\drivers/peripheral/scb/cy_scb_uart.h **** * to the inactive level for each output pin. Then configure High-Speed Input
 255:Generated_Source\PSoC6\pdl\drivers/peripheral/scb/cy_scb_uart.h **** * Output Multiplexer (HSIOM) of each pin to be controlled by the GPIO (use
 256:Generated_Source\PSoC6\pdl\drivers/peripheral/scb/cy_scb_uart.h **** * \ref group_gpio driver API). After exiting Deep Sleep mode the UART
 257:Generated_Source\PSoC6\pdl\drivers/peripheral/scb/cy_scb_uart.h **** * must be enabled and the pins configuration restored to return the
 258:Generated_Source\PSoC6\pdl\drivers/peripheral/scb/cy_scb_uart.h **** * UART control of the pins (after exiting Hibernate mode, the
 259:Generated_Source\PSoC6\pdl\drivers/peripheral/scb/cy_scb_uart.h **** * system initialization code does the same). Copy either or
 260:Generated_Source\PSoC6\pdl\drivers/peripheral/scb/cy_scb_uart.h **** * both \ref Cy_SCB_UART_DeepSleepCallback and \ref Cy_SCB_UART_HibernateCallback
 261:Generated_Source\PSoC6\pdl\drivers/peripheral/scb/cy_scb_uart.h **** * as appropriate, and make the changes described above inside the function.
 262:Generated_Source\PSoC6\pdl\drivers/peripheral/scb/cy_scb_uart.h **** * Alternately, external pull-up or pull-down resistors can be connected
 263:Generated_Source\PSoC6\pdl\drivers/peripheral/scb/cy_scb_uart.h **** * to the appropriate UART lines to keep them inactive during Deep-Sleep or
 264:Generated_Source\PSoC6\pdl\drivers/peripheral/scb/cy_scb_uart.h **** * Hibernate.
 265:Generated_Source\PSoC6\pdl\drivers/peripheral/scb/cy_scb_uart.h **** *
 266:Generated_Source\PSoC6\pdl\drivers/peripheral/scb/cy_scb_uart.h **** ********************************************************************************
 267:Generated_Source\PSoC6\pdl\drivers/peripheral/scb/cy_scb_uart.h **** * \section group_scb_uart_more_information More Information
 268:Generated_Source\PSoC6\pdl\drivers/peripheral/scb/cy_scb_uart.h **** ********************************************************************************
 269:Generated_Source\PSoC6\pdl\drivers/peripheral/scb/cy_scb_uart.h **** * For more information on the SCB peripheral, refer to the technical reference
 270:Generated_Source\PSoC6\pdl\drivers/peripheral/scb/cy_scb_uart.h **** * manual (TRM).
 271:Generated_Source\PSoC6\pdl\drivers/peripheral/scb/cy_scb_uart.h **** *
 272:Generated_Source\PSoC6\pdl\drivers/peripheral/scb/cy_scb_uart.h **** ********************************************************************************
 273:Generated_Source\PSoC6\pdl\drivers/peripheral/scb/cy_scb_uart.h **** * \section group_scb_uart_MISRA MISRA-C Compliance
 274:Generated_Source\PSoC6\pdl\drivers/peripheral/scb/cy_scb_uart.h **** ********************************************************************************
 275:Generated_Source\PSoC6\pdl\drivers/peripheral/scb/cy_scb_uart.h **** * <table class="doxtable">
 276:Generated_Source\PSoC6\pdl\drivers/peripheral/scb/cy_scb_uart.h **** *   <tr>
 277:Generated_Source\PSoC6\pdl\drivers/peripheral/scb/cy_scb_uart.h **** *     <th>MISRA Rule</th>
 278:Generated_Source\PSoC6\pdl\drivers/peripheral/scb/cy_scb_uart.h **** *     <th>Rule Class (Required/Advisory)</th>
 279:Generated_Source\PSoC6\pdl\drivers/peripheral/scb/cy_scb_uart.h **** *     <th>Rule Description</th>
 280:Generated_Source\PSoC6\pdl\drivers/peripheral/scb/cy_scb_uart.h **** *     <th>Description of Deviation(s)</th>
 281:Generated_Source\PSoC6\pdl\drivers/peripheral/scb/cy_scb_uart.h **** *   </tr>
 282:Generated_Source\PSoC6\pdl\drivers/peripheral/scb/cy_scb_uart.h **** *   <tr>
 283:Generated_Source\PSoC6\pdl\drivers/peripheral/scb/cy_scb_uart.h **** *     <td>11.4</td>
 284:Generated_Source\PSoC6\pdl\drivers/peripheral/scb/cy_scb_uart.h **** *     <td>A</td>
 285:Generated_Source\PSoC6\pdl\drivers/peripheral/scb/cy_scb_uart.h **** *     <td>A cast should not be performed between a pointer to object type and
 286:Generated_Source\PSoC6\pdl\drivers/peripheral/scb/cy_scb_uart.h **** *         a different pointer to object type.</td>
 287:Generated_Source\PSoC6\pdl\drivers/peripheral/scb/cy_scb_uart.h **** *     <td>
 288:Generated_Source\PSoC6\pdl\drivers/peripheral/scb/cy_scb_uart.h **** *         * The pointer to the buffer memory is void to allow handling different
 289:Generated_Source\PSoC6\pdl\drivers/peripheral/scb/cy_scb_uart.h **** *         different data types: uint8_t (4-8 bits) or uint16_t (9-16 bits).
 290:Generated_Source\PSoC6\pdl\drivers/peripheral/scb/cy_scb_uart.h **** *         The cast operation is safe because the configuration is verified
 291:Generated_Source\PSoC6\pdl\drivers/peripheral/scb/cy_scb_uart.h **** *         before operation is performed.
 292:Generated_Source\PSoC6\pdl\drivers/peripheral/scb/cy_scb_uart.h **** *         * The functions \ref Cy_SCB_UART_DeepSleepCallback and
 293:Generated_Source\PSoC6\pdl\drivers/peripheral/scb/cy_scb_uart.h **** *         \ref Cy_SCB_UART_HibernateCallback are callback of
 294:Generated_Source\PSoC6\pdl\drivers/peripheral/scb/cy_scb_uart.h **** *         \ref cy_en_syspm_status_t type. The cast operation safety in these
 295:Generated_Source\PSoC6\pdl\drivers/peripheral/scb/cy_scb_uart.h **** *         functions becomes the user's responsibility because pointers are
 296:Generated_Source\PSoC6\pdl\drivers/peripheral/scb/cy_scb_uart.h **** *         initialized when callback is registered in SysPm driver.</td>
 297:Generated_Source\PSoC6\pdl\drivers/peripheral/scb/cy_scb_uart.h **** *   </tr>
ARM GAS  C:\Users\Angel\AppData\Local\Temp\ccvqOPgy.s 			page 81


 298:Generated_Source\PSoC6\pdl\drivers/peripheral/scb/cy_scb_uart.h **** *   <tr>
 299:Generated_Source\PSoC6\pdl\drivers/peripheral/scb/cy_scb_uart.h **** *     <td>14.2</td>
 300:Generated_Source\PSoC6\pdl\drivers/peripheral/scb/cy_scb_uart.h **** *     <td>R</td>
 301:Generated_Source\PSoC6\pdl\drivers/peripheral/scb/cy_scb_uart.h **** *     <td>All non-null statements shall either: a) have at least one side-effect
 302:Generated_Source\PSoC6\pdl\drivers/peripheral/scb/cy_scb_uart.h **** *         however executed, or b) cause control flow to change.</td>
 303:Generated_Source\PSoC6\pdl\drivers/peripheral/scb/cy_scb_uart.h **** *     <td>The unused function parameters are cast to void. This statement
 304:Generated_Source\PSoC6\pdl\drivers/peripheral/scb/cy_scb_uart.h **** *         has no side-effect and is used to suppress a compiler warning.</td>
 305:Generated_Source\PSoC6\pdl\drivers/peripheral/scb/cy_scb_uart.h **** *   </tr>
 306:Generated_Source\PSoC6\pdl\drivers/peripheral/scb/cy_scb_uart.h **** *   <tr>
 307:Generated_Source\PSoC6\pdl\drivers/peripheral/scb/cy_scb_uart.h **** *     <td>14.7</td>
 308:Generated_Source\PSoC6\pdl\drivers/peripheral/scb/cy_scb_uart.h **** *     <td>R</td>
 309:Generated_Source\PSoC6\pdl\drivers/peripheral/scb/cy_scb_uart.h **** *     <td>A function shall have a single point of exit at the end of the
 310:Generated_Source\PSoC6\pdl\drivers/peripheral/scb/cy_scb_uart.h **** *         function.</td>
 311:Generated_Source\PSoC6\pdl\drivers/peripheral/scb/cy_scb_uart.h **** *     <td>The functions can return from several points. This is done to improve
 312:Generated_Source\PSoC6\pdl\drivers/peripheral/scb/cy_scb_uart.h **** *         code clarity when returning error status code if input parameters
 313:Generated_Source\PSoC6\pdl\drivers/peripheral/scb/cy_scb_uart.h **** *         validation fails.</td>
 314:Generated_Source\PSoC6\pdl\drivers/peripheral/scb/cy_scb_uart.h **** *   </tr>
 315:Generated_Source\PSoC6\pdl\drivers/peripheral/scb/cy_scb_uart.h **** * </table>
 316:Generated_Source\PSoC6\pdl\drivers/peripheral/scb/cy_scb_uart.h **** *
 317:Generated_Source\PSoC6\pdl\drivers/peripheral/scb/cy_scb_uart.h **** * \section group_scb_uart_changelog Changelog
 318:Generated_Source\PSoC6\pdl\drivers/peripheral/scb/cy_scb_uart.h **** * <table class="doxtable">
 319:Generated_Source\PSoC6\pdl\drivers/peripheral/scb/cy_scb_uart.h **** *   <tr><th>Version</th><th>Changes</th><th>Reason for Change</th></tr>
 320:Generated_Source\PSoC6\pdl\drivers/peripheral/scb/cy_scb_uart.h **** *   <tr>
 321:Generated_Source\PSoC6\pdl\drivers/peripheral/scb/cy_scb_uart.h **** *     <td rowspan="2">2.20</td>
 322:Generated_Source\PSoC6\pdl\drivers/peripheral/scb/cy_scb_uart.h **** *     <td>Flattened the organization of the driver source code into the single
 323:Generated_Source\PSoC6\pdl\drivers/peripheral/scb/cy_scb_uart.h **** *         source directory and the single include directory.
 324:Generated_Source\PSoC6\pdl\drivers/peripheral/scb/cy_scb_uart.h **** *     </td>
 325:Generated_Source\PSoC6\pdl\drivers/peripheral/scb/cy_scb_uart.h **** *     <td>Driver library directory-structure simplification.</td>
 326:Generated_Source\PSoC6\pdl\drivers/peripheral/scb/cy_scb_uart.h **** *   </tr>
 327:Generated_Source\PSoC6\pdl\drivers/peripheral/scb/cy_scb_uart.h **** *   <tr>
 328:Generated_Source\PSoC6\pdl\drivers/peripheral/scb/cy_scb_uart.h **** *     <td>Added register access layer. Use register access macros instead
 329:Generated_Source\PSoC6\pdl\drivers/peripheral/scb/cy_scb_uart.h **** *         of direct register access using dereferenced pointers.</td>
 330:Generated_Source\PSoC6\pdl\drivers/peripheral/scb/cy_scb_uart.h **** *     <td>Makes register access device-independent, so that the PDL does
 331:Generated_Source\PSoC6\pdl\drivers/peripheral/scb/cy_scb_uart.h **** *         not need to be recompiled for each supported part number.</td>
 332:Generated_Source\PSoC6\pdl\drivers/peripheral/scb/cy_scb_uart.h **** *   </tr>
 333:Generated_Source\PSoC6\pdl\drivers/peripheral/scb/cy_scb_uart.h **** *   <tr>
 334:Generated_Source\PSoC6\pdl\drivers/peripheral/scb/cy_scb_uart.h **** *     <td>2.10</td>
 335:Generated_Source\PSoC6\pdl\drivers/peripheral/scb/cy_scb_uart.h **** *     <td>None.</td>
 336:Generated_Source\PSoC6\pdl\drivers/peripheral/scb/cy_scb_uart.h **** *     <td>SCB I2C driver updated.</td>
 337:Generated_Source\PSoC6\pdl\drivers/peripheral/scb/cy_scb_uart.h **** *   </tr>
 338:Generated_Source\PSoC6\pdl\drivers/peripheral/scb/cy_scb_uart.h **** *   <tr>
 339:Generated_Source\PSoC6\pdl\drivers/peripheral/scb/cy_scb_uart.h **** *     <td rowspan="5">2.0</td>
 340:Generated_Source\PSoC6\pdl\drivers/peripheral/scb/cy_scb_uart.h **** *     <td>Added parameters validation for public API.</td>
 341:Generated_Source\PSoC6\pdl\drivers/peripheral/scb/cy_scb_uart.h **** *     <td></td>
 342:Generated_Source\PSoC6\pdl\drivers/peripheral/scb/cy_scb_uart.h **** *   </tr>
 343:Generated_Source\PSoC6\pdl\drivers/peripheral/scb/cy_scb_uart.h **** *   <tr>
 344:Generated_Source\PSoC6\pdl\drivers/peripheral/scb/cy_scb_uart.h **** *     <td>Replaced variables that have limited range of values with enumerated
 345:Generated_Source\PSoC6\pdl\drivers/peripheral/scb/cy_scb_uart.h **** *         types.</td>
 346:Generated_Source\PSoC6\pdl\drivers/peripheral/scb/cy_scb_uart.h **** *     <td></td>
 347:Generated_Source\PSoC6\pdl\drivers/peripheral/scb/cy_scb_uart.h **** *   </tr>
 348:Generated_Source\PSoC6\pdl\drivers/peripheral/scb/cy_scb_uart.h **** *   <tr>
 349:Generated_Source\PSoC6\pdl\drivers/peripheral/scb/cy_scb_uart.h **** *     <td>Added missing "cy_cb_" to the callback function type names.</td>
 350:Generated_Source\PSoC6\pdl\drivers/peripheral/scb/cy_scb_uart.h **** *     <td></td>
 351:Generated_Source\PSoC6\pdl\drivers/peripheral/scb/cy_scb_uart.h **** *   </tr>
 352:Generated_Source\PSoC6\pdl\drivers/peripheral/scb/cy_scb_uart.h **** *   <tr>
 353:Generated_Source\PSoC6\pdl\drivers/peripheral/scb/cy_scb_uart.h **** *     <td>Added function \ref Cy_SCB_UART_SendBreakBlocking for break condition
 354:Generated_Source\PSoC6\pdl\drivers/peripheral/scb/cy_scb_uart.h **** *         generation.</td>
ARM GAS  C:\Users\Angel\AppData\Local\Temp\ccvqOPgy.s 			page 82


 355:Generated_Source\PSoC6\pdl\drivers/peripheral/scb/cy_scb_uart.h **** *     <td></td>
 356:Generated_Source\PSoC6\pdl\drivers/peripheral/scb/cy_scb_uart.h **** *   </tr>
 357:Generated_Source\PSoC6\pdl\drivers/peripheral/scb/cy_scb_uart.h **** *   <tr>
 358:Generated_Source\PSoC6\pdl\drivers/peripheral/scb/cy_scb_uart.h **** *     <td>Fixed low power callbacks \ref Cy_SCB_UART_DeepSleepCallback and
 359:Generated_Source\PSoC6\pdl\drivers/peripheral/scb/cy_scb_uart.h **** *         \ref Cy_SCB_UART_HibernateCallback to prevent the device from entering
 360:Generated_Source\PSoC6\pdl\drivers/peripheral/scb/cy_scb_uart.h **** *         low power mode when RX FIFO is not empty.</td>
 361:Generated_Source\PSoC6\pdl\drivers/peripheral/scb/cy_scb_uart.h **** *     <td>The callbacks allowed entering device into low power mode when RX FIFO
 362:Generated_Source\PSoC6\pdl\drivers/peripheral/scb/cy_scb_uart.h **** *         had data.</td>
 363:Generated_Source\PSoC6\pdl\drivers/peripheral/scb/cy_scb_uart.h **** *   </tr>
 364:Generated_Source\PSoC6\pdl\drivers/peripheral/scb/cy_scb_uart.h **** *   <tr>
 365:Generated_Source\PSoC6\pdl\drivers/peripheral/scb/cy_scb_uart.h **** *     <td>1.0</td>
 366:Generated_Source\PSoC6\pdl\drivers/peripheral/scb/cy_scb_uart.h **** *     <td>Initial version.</td>
 367:Generated_Source\PSoC6\pdl\drivers/peripheral/scb/cy_scb_uart.h **** *     <td></td>
 368:Generated_Source\PSoC6\pdl\drivers/peripheral/scb/cy_scb_uart.h **** *   </tr>
 369:Generated_Source\PSoC6\pdl\drivers/peripheral/scb/cy_scb_uart.h **** * </table>
 370:Generated_Source\PSoC6\pdl\drivers/peripheral/scb/cy_scb_uart.h **** *
 371:Generated_Source\PSoC6\pdl\drivers/peripheral/scb/cy_scb_uart.h **** * \defgroup group_scb_uart_macros Macros
 372:Generated_Source\PSoC6\pdl\drivers/peripheral/scb/cy_scb_uart.h **** * \defgroup group_scb_uart_functions Functions
 373:Generated_Source\PSoC6\pdl\drivers/peripheral/scb/cy_scb_uart.h **** * \{
 374:Generated_Source\PSoC6\pdl\drivers/peripheral/scb/cy_scb_uart.h **** * \defgroup group_scb_uart_general_functions General
 375:Generated_Source\PSoC6\pdl\drivers/peripheral/scb/cy_scb_uart.h **** * \defgroup group_scb_uart_high_level_functions High-Level
 376:Generated_Source\PSoC6\pdl\drivers/peripheral/scb/cy_scb_uart.h **** * \defgroup group_scb_uart_low_level_functions Low-Level
 377:Generated_Source\PSoC6\pdl\drivers/peripheral/scb/cy_scb_uart.h **** * \defgroup group_scb_uart_interrupt_functions Interrupt
 378:Generated_Source\PSoC6\pdl\drivers/peripheral/scb/cy_scb_uart.h **** * \defgroup group_scb_uart_low_power_functions Low Power Callbacks
 379:Generated_Source\PSoC6\pdl\drivers/peripheral/scb/cy_scb_uart.h **** * \}
 380:Generated_Source\PSoC6\pdl\drivers/peripheral/scb/cy_scb_uart.h **** * \defgroup group_scb_uart_data_structures Data Structures
 381:Generated_Source\PSoC6\pdl\drivers/peripheral/scb/cy_scb_uart.h **** * \defgroup group_scb_uart_enums Enumerated Types
 382:Generated_Source\PSoC6\pdl\drivers/peripheral/scb/cy_scb_uart.h **** */
 383:Generated_Source\PSoC6\pdl\drivers/peripheral/scb/cy_scb_uart.h **** 
 384:Generated_Source\PSoC6\pdl\drivers/peripheral/scb/cy_scb_uart.h **** #if !defined(CY_SCB_UART_H)
 385:Generated_Source\PSoC6\pdl\drivers/peripheral/scb/cy_scb_uart.h **** #define CY_SCB_UART_H
 386:Generated_Source\PSoC6\pdl\drivers/peripheral/scb/cy_scb_uart.h **** 
 387:Generated_Source\PSoC6\pdl\drivers/peripheral/scb/cy_scb_uart.h **** #include "cy_scb_common.h"
 388:Generated_Source\PSoC6\pdl\drivers/peripheral/scb/cy_scb_uart.h **** 
 389:Generated_Source\PSoC6\pdl\drivers/peripheral/scb/cy_scb_uart.h **** #if defined(__cplusplus)
 390:Generated_Source\PSoC6\pdl\drivers/peripheral/scb/cy_scb_uart.h **** extern "C" {
 391:Generated_Source\PSoC6\pdl\drivers/peripheral/scb/cy_scb_uart.h **** #endif
 392:Generated_Source\PSoC6\pdl\drivers/peripheral/scb/cy_scb_uart.h **** 
 393:Generated_Source\PSoC6\pdl\drivers/peripheral/scb/cy_scb_uart.h **** /***************************************
 394:Generated_Source\PSoC6\pdl\drivers/peripheral/scb/cy_scb_uart.h **** *          Enumerated Types
 395:Generated_Source\PSoC6\pdl\drivers/peripheral/scb/cy_scb_uart.h **** ***************************************/
 396:Generated_Source\PSoC6\pdl\drivers/peripheral/scb/cy_scb_uart.h **** 
 397:Generated_Source\PSoC6\pdl\drivers/peripheral/scb/cy_scb_uart.h **** /**
 398:Generated_Source\PSoC6\pdl\drivers/peripheral/scb/cy_scb_uart.h **** * \addtogroup group_scb_uart_enums
 399:Generated_Source\PSoC6\pdl\drivers/peripheral/scb/cy_scb_uart.h **** * \{
 400:Generated_Source\PSoC6\pdl\drivers/peripheral/scb/cy_scb_uart.h **** */
 401:Generated_Source\PSoC6\pdl\drivers/peripheral/scb/cy_scb_uart.h **** 
 402:Generated_Source\PSoC6\pdl\drivers/peripheral/scb/cy_scb_uart.h **** /** UART status codes */
 403:Generated_Source\PSoC6\pdl\drivers/peripheral/scb/cy_scb_uart.h **** typedef enum
 404:Generated_Source\PSoC6\pdl\drivers/peripheral/scb/cy_scb_uart.h **** {
 405:Generated_Source\PSoC6\pdl\drivers/peripheral/scb/cy_scb_uart.h ****     /** Operation completed successfully */
 406:Generated_Source\PSoC6\pdl\drivers/peripheral/scb/cy_scb_uart.h ****     CY_SCB_UART_SUCCESS = 0U,
 407:Generated_Source\PSoC6\pdl\drivers/peripheral/scb/cy_scb_uart.h **** 
 408:Generated_Source\PSoC6\pdl\drivers/peripheral/scb/cy_scb_uart.h ****     /** One or more of input parameters are invalid */
 409:Generated_Source\PSoC6\pdl\drivers/peripheral/scb/cy_scb_uart.h ****     CY_SCB_UART_BAD_PARAM = (CY_SCB_ID | CY_PDL_STATUS_ERROR | CY_SCB_UART_ID | 1U),
 410:Generated_Source\PSoC6\pdl\drivers/peripheral/scb/cy_scb_uart.h **** 
 411:Generated_Source\PSoC6\pdl\drivers/peripheral/scb/cy_scb_uart.h ****     /**
ARM GAS  C:\Users\Angel\AppData\Local\Temp\ccvqOPgy.s 			page 83


 412:Generated_Source\PSoC6\pdl\drivers/peripheral/scb/cy_scb_uart.h ****     * The UART is busy processing a receive operation.
 413:Generated_Source\PSoC6\pdl\drivers/peripheral/scb/cy_scb_uart.h ****     */
 414:Generated_Source\PSoC6\pdl\drivers/peripheral/scb/cy_scb_uart.h ****     CY_SCB_UART_RECEIVE_BUSY = (CY_SCB_ID | CY_PDL_STATUS_ERROR | CY_SCB_UART_ID | 2U),
 415:Generated_Source\PSoC6\pdl\drivers/peripheral/scb/cy_scb_uart.h **** 
 416:Generated_Source\PSoC6\pdl\drivers/peripheral/scb/cy_scb_uart.h ****     /**
 417:Generated_Source\PSoC6\pdl\drivers/peripheral/scb/cy_scb_uart.h ****     * The UART is busy processing a transmit operation.
 418:Generated_Source\PSoC6\pdl\drivers/peripheral/scb/cy_scb_uart.h ****     */
 419:Generated_Source\PSoC6\pdl\drivers/peripheral/scb/cy_scb_uart.h ****     CY_SCB_UART_TRANSMIT_BUSY = (CY_SCB_ID | CY_PDL_STATUS_ERROR | CY_SCB_UART_ID | 3U)
 420:Generated_Source\PSoC6\pdl\drivers/peripheral/scb/cy_scb_uart.h **** } cy_en_scb_uart_status_t;
 421:Generated_Source\PSoC6\pdl\drivers/peripheral/scb/cy_scb_uart.h **** 
 422:Generated_Source\PSoC6\pdl\drivers/peripheral/scb/cy_scb_uart.h **** /** UART Mode */
 423:Generated_Source\PSoC6\pdl\drivers/peripheral/scb/cy_scb_uart.h **** typedef enum
 424:Generated_Source\PSoC6\pdl\drivers/peripheral/scb/cy_scb_uart.h **** {
 425:Generated_Source\PSoC6\pdl\drivers/peripheral/scb/cy_scb_uart.h ****     CY_SCB_UART_STANDARD  = 0U, /**< Configures the SCB for Standard UART operation */
 426:Generated_Source\PSoC6\pdl\drivers/peripheral/scb/cy_scb_uart.h ****     CY_SCB_UART_SMARTCARD = 1U, /**< Configures the SCB for SmartCard operation */
 427:Generated_Source\PSoC6\pdl\drivers/peripheral/scb/cy_scb_uart.h ****     CY_SCB_UART_IRDA      = 2U, /**< Configures the SCB for IrDA operation */
 428:Generated_Source\PSoC6\pdl\drivers/peripheral/scb/cy_scb_uart.h **** } cy_en_scb_uart_mode_t;
 429:Generated_Source\PSoC6\pdl\drivers/peripheral/scb/cy_scb_uart.h **** 
 430:Generated_Source\PSoC6\pdl\drivers/peripheral/scb/cy_scb_uart.h **** /** UART Stop Bits */
 431:Generated_Source\PSoC6\pdl\drivers/peripheral/scb/cy_scb_uart.h **** typedef enum
 432:Generated_Source\PSoC6\pdl\drivers/peripheral/scb/cy_scb_uart.h **** {
 433:Generated_Source\PSoC6\pdl\drivers/peripheral/scb/cy_scb_uart.h ****     CY_SCB_UART_STOP_BITS_1   = 2U,  /**< UART looks for 1 Stop Bit    */
 434:Generated_Source\PSoC6\pdl\drivers/peripheral/scb/cy_scb_uart.h ****     CY_SCB_UART_STOP_BITS_1_5 = 3U,  /**< UART looks for 1.5 Stop Bits */
 435:Generated_Source\PSoC6\pdl\drivers/peripheral/scb/cy_scb_uart.h ****     CY_SCB_UART_STOP_BITS_2   = 4U,  /**< UART looks for 2 Stop Bits   */
 436:Generated_Source\PSoC6\pdl\drivers/peripheral/scb/cy_scb_uart.h ****     CY_SCB_UART_STOP_BITS_2_5 = 5U,  /**< UART looks for 2.5 Stop Bits */
 437:Generated_Source\PSoC6\pdl\drivers/peripheral/scb/cy_scb_uart.h ****     CY_SCB_UART_STOP_BITS_3   = 6U,  /**< UART looks for 3 Stop Bits   */
 438:Generated_Source\PSoC6\pdl\drivers/peripheral/scb/cy_scb_uart.h ****     CY_SCB_UART_STOP_BITS_3_5 = 7U,  /**< UART looks for 3.5 Stop Bits */
 439:Generated_Source\PSoC6\pdl\drivers/peripheral/scb/cy_scb_uart.h ****     CY_SCB_UART_STOP_BITS_4   = 8U,  /**< UART looks for 4 Stop Bits   */
 440:Generated_Source\PSoC6\pdl\drivers/peripheral/scb/cy_scb_uart.h **** } cy_en_scb_uart_stop_bits_t;
 441:Generated_Source\PSoC6\pdl\drivers/peripheral/scb/cy_scb_uart.h **** 
 442:Generated_Source\PSoC6\pdl\drivers/peripheral/scb/cy_scb_uart.h **** /** UART Parity */
 443:Generated_Source\PSoC6\pdl\drivers/peripheral/scb/cy_scb_uart.h **** typedef enum
 444:Generated_Source\PSoC6\pdl\drivers/peripheral/scb/cy_scb_uart.h **** {
 445:Generated_Source\PSoC6\pdl\drivers/peripheral/scb/cy_scb_uart.h ****     CY_SCB_UART_PARITY_NONE = 0U,    /**< UART has no parity check   */
 446:Generated_Source\PSoC6\pdl\drivers/peripheral/scb/cy_scb_uart.h ****     CY_SCB_UART_PARITY_EVEN = 2U,    /**< UART has even parity check */
 447:Generated_Source\PSoC6\pdl\drivers/peripheral/scb/cy_scb_uart.h ****     CY_SCB_UART_PARITY_ODD  = 3U,    /**< UART has odd parity check  */
 448:Generated_Source\PSoC6\pdl\drivers/peripheral/scb/cy_scb_uart.h **** } cy_en_scb_uart_parity_t;
 449:Generated_Source\PSoC6\pdl\drivers/peripheral/scb/cy_scb_uart.h **** 
 450:Generated_Source\PSoC6\pdl\drivers/peripheral/scb/cy_scb_uart.h **** /** UART Polarity */
 451:Generated_Source\PSoC6\pdl\drivers/peripheral/scb/cy_scb_uart.h **** typedef enum
 452:Generated_Source\PSoC6\pdl\drivers/peripheral/scb/cy_scb_uart.h **** {
 453:Generated_Source\PSoC6\pdl\drivers/peripheral/scb/cy_scb_uart.h ****     CY_SCB_UART_ACTIVE_LOW  = 0U,   /**< Signal is active low */
 454:Generated_Source\PSoC6\pdl\drivers/peripheral/scb/cy_scb_uart.h ****     CY_SCB_UART_ACTIVE_HIGH = 1U,   /**< Signal is active high */
 455:Generated_Source\PSoC6\pdl\drivers/peripheral/scb/cy_scb_uart.h **** } cy_en_scb_uart_polarity_t;
 456:Generated_Source\PSoC6\pdl\drivers/peripheral/scb/cy_scb_uart.h **** /** \} group_scb_uart_enums */
 457:Generated_Source\PSoC6\pdl\drivers/peripheral/scb/cy_scb_uart.h **** 
 458:Generated_Source\PSoC6\pdl\drivers/peripheral/scb/cy_scb_uart.h **** 
 459:Generated_Source\PSoC6\pdl\drivers/peripheral/scb/cy_scb_uart.h **** /*******************************************************************************
 460:Generated_Source\PSoC6\pdl\drivers/peripheral/scb/cy_scb_uart.h **** *                           Type Definitions
 461:Generated_Source\PSoC6\pdl\drivers/peripheral/scb/cy_scb_uart.h **** *******************************************************************************/
 462:Generated_Source\PSoC6\pdl\drivers/peripheral/scb/cy_scb_uart.h **** 
 463:Generated_Source\PSoC6\pdl\drivers/peripheral/scb/cy_scb_uart.h **** /**
 464:Generated_Source\PSoC6\pdl\drivers/peripheral/scb/cy_scb_uart.h **** * \addtogroup group_scb_uart_data_structures
 465:Generated_Source\PSoC6\pdl\drivers/peripheral/scb/cy_scb_uart.h **** * \{
 466:Generated_Source\PSoC6\pdl\drivers/peripheral/scb/cy_scb_uart.h **** */
 467:Generated_Source\PSoC6\pdl\drivers/peripheral/scb/cy_scb_uart.h **** 
 468:Generated_Source\PSoC6\pdl\drivers/peripheral/scb/cy_scb_uart.h **** /**
ARM GAS  C:\Users\Angel\AppData\Local\Temp\ccvqOPgy.s 			page 84


 469:Generated_Source\PSoC6\pdl\drivers/peripheral/scb/cy_scb_uart.h **** * Provides the typedef for the callback function called in the
 470:Generated_Source\PSoC6\pdl\drivers/peripheral/scb/cy_scb_uart.h **** * \ref Cy_SCB_UART_Interrupt to notify the user about occurrences of
 471:Generated_Source\PSoC6\pdl\drivers/peripheral/scb/cy_scb_uart.h **** * \ref group_scb_uart_macros_callback_events.
 472:Generated_Source\PSoC6\pdl\drivers/peripheral/scb/cy_scb_uart.h **** */
 473:Generated_Source\PSoC6\pdl\drivers/peripheral/scb/cy_scb_uart.h **** typedef void (* cy_cb_scb_uart_handle_events_t)(uint32_t event);
 474:Generated_Source\PSoC6\pdl\drivers/peripheral/scb/cy_scb_uart.h **** 
 475:Generated_Source\PSoC6\pdl\drivers/peripheral/scb/cy_scb_uart.h **** /** UART configuration structure */
 476:Generated_Source\PSoC6\pdl\drivers/peripheral/scb/cy_scb_uart.h **** typedef struct stc_scb_uart_config
 477:Generated_Source\PSoC6\pdl\drivers/peripheral/scb/cy_scb_uart.h **** {
 478:Generated_Source\PSoC6\pdl\drivers/peripheral/scb/cy_scb_uart.h ****     /** Specifies the UART's mode of operation */
 479:Generated_Source\PSoC6\pdl\drivers/peripheral/scb/cy_scb_uart.h ****     cy_en_scb_uart_mode_t    uartMode;
 480:Generated_Source\PSoC6\pdl\drivers/peripheral/scb/cy_scb_uart.h **** 
 481:Generated_Source\PSoC6\pdl\drivers/peripheral/scb/cy_scb_uart.h ****     /**
 482:Generated_Source\PSoC6\pdl\drivers/peripheral/scb/cy_scb_uart.h ****     * Oversample factor for UART.
 483:Generated_Source\PSoC6\pdl\drivers/peripheral/scb/cy_scb_uart.h ****     * * The UART baud rate is the SCB Clock frequency / oversample
 484:Generated_Source\PSoC6\pdl\drivers/peripheral/scb/cy_scb_uart.h ****     *  (valid range is 8-16).
 485:Generated_Source\PSoC6\pdl\drivers/peripheral/scb/cy_scb_uart.h ****     * * For IrDA, the oversample is always 16, unless
 486:Generated_Source\PSoC6\pdl\drivers/peripheral/scb/cy_scb_uart.h ****     * \ref irdaEnableLowPowerReceiver is enabled. Then the oversample is
 487:Generated_Source\PSoC6\pdl\drivers/peripheral/scb/cy_scb_uart.h ****     * reduced to the \ref group_scb_uart_macros_irda_lp_ovs set.
 488:Generated_Source\PSoC6\pdl\drivers/peripheral/scb/cy_scb_uart.h ****     */
 489:Generated_Source\PSoC6\pdl\drivers/peripheral/scb/cy_scb_uart.h ****     uint32_t    oversample;
 490:Generated_Source\PSoC6\pdl\drivers/peripheral/scb/cy_scb_uart.h **** 
 491:Generated_Source\PSoC6\pdl\drivers/peripheral/scb/cy_scb_uart.h ****     /** The width of UART data (valid range is 5 to 9) */
 492:Generated_Source\PSoC6\pdl\drivers/peripheral/scb/cy_scb_uart.h ****     uint32_t    dataWidth;
 493:Generated_Source\PSoC6\pdl\drivers/peripheral/scb/cy_scb_uart.h **** 
 494:Generated_Source\PSoC6\pdl\drivers/peripheral/scb/cy_scb_uart.h ****     /**
 495:Generated_Source\PSoC6\pdl\drivers/peripheral/scb/cy_scb_uart.h ****     * Enables the hardware to shift out data element MSB first; otherwise,
 496:Generated_Source\PSoC6\pdl\drivers/peripheral/scb/cy_scb_uart.h ****     * LSB first
 497:Generated_Source\PSoC6\pdl\drivers/peripheral/scb/cy_scb_uart.h ****     */
 498:Generated_Source\PSoC6\pdl\drivers/peripheral/scb/cy_scb_uart.h ****     bool        enableMsbFirst;
 499:Generated_Source\PSoC6\pdl\drivers/peripheral/scb/cy_scb_uart.h **** 
 500:Generated_Source\PSoC6\pdl\drivers/peripheral/scb/cy_scb_uart.h ****     /**
 501:Generated_Source\PSoC6\pdl\drivers/peripheral/scb/cy_scb_uart.h ****     * Specifies the number of stop bits in the UART transaction, in half-bit
 502:Generated_Source\PSoC6\pdl\drivers/peripheral/scb/cy_scb_uart.h ****     * increments
 503:Generated_Source\PSoC6\pdl\drivers/peripheral/scb/cy_scb_uart.h ****     */
 504:Generated_Source\PSoC6\pdl\drivers/peripheral/scb/cy_scb_uart.h ****     cy_en_scb_uart_stop_bits_t    stopBits;
 505:Generated_Source\PSoC6\pdl\drivers/peripheral/scb/cy_scb_uart.h **** 
 506:Generated_Source\PSoC6\pdl\drivers/peripheral/scb/cy_scb_uart.h ****     /** Configures the UART parity */
 507:Generated_Source\PSoC6\pdl\drivers/peripheral/scb/cy_scb_uart.h ****     cy_en_scb_uart_parity_t    parity;
 508:Generated_Source\PSoC6\pdl\drivers/peripheral/scb/cy_scb_uart.h **** 
 509:Generated_Source\PSoC6\pdl\drivers/peripheral/scb/cy_scb_uart.h ****     /**
 510:Generated_Source\PSoC6\pdl\drivers/peripheral/scb/cy_scb_uart.h ****     * Enables a digital 3-tap median filter (2 out of 3 voting) to be applied
 511:Generated_Source\PSoC6\pdl\drivers/peripheral/scb/cy_scb_uart.h ****     * to the input of the RX FIFO to filter glitches on the line (for IrDA,
 512:Generated_Source\PSoC6\pdl\drivers/peripheral/scb/cy_scb_uart.h ****     * this parameter is ignored)
 513:Generated_Source\PSoC6\pdl\drivers/peripheral/scb/cy_scb_uart.h ****     *
 514:Generated_Source\PSoC6\pdl\drivers/peripheral/scb/cy_scb_uart.h ****     */
 515:Generated_Source\PSoC6\pdl\drivers/peripheral/scb/cy_scb_uart.h ****     bool        enableInputFilter;
 516:Generated_Source\PSoC6\pdl\drivers/peripheral/scb/cy_scb_uart.h **** 
 517:Generated_Source\PSoC6\pdl\drivers/peripheral/scb/cy_scb_uart.h ****     /**
 518:Generated_Source\PSoC6\pdl\drivers/peripheral/scb/cy_scb_uart.h ****     * Enables the hardware to drop data in the RX FIFO when a parity error is
 519:Generated_Source\PSoC6\pdl\drivers/peripheral/scb/cy_scb_uart.h ****     * detected
 520:Generated_Source\PSoC6\pdl\drivers/peripheral/scb/cy_scb_uart.h ****     */
 521:Generated_Source\PSoC6\pdl\drivers/peripheral/scb/cy_scb_uart.h ****     bool        dropOnParityError;
 522:Generated_Source\PSoC6\pdl\drivers/peripheral/scb/cy_scb_uart.h **** 
 523:Generated_Source\PSoC6\pdl\drivers/peripheral/scb/cy_scb_uart.h ****     /**
 524:Generated_Source\PSoC6\pdl\drivers/peripheral/scb/cy_scb_uart.h ****     * Enables the hardware to drop data in the RX FIFO when a frame error is
 525:Generated_Source\PSoC6\pdl\drivers/peripheral/scb/cy_scb_uart.h ****     * detected
ARM GAS  C:\Users\Angel\AppData\Local\Temp\ccvqOPgy.s 			page 85


 526:Generated_Source\PSoC6\pdl\drivers/peripheral/scb/cy_scb_uart.h ****     */
 527:Generated_Source\PSoC6\pdl\drivers/peripheral/scb/cy_scb_uart.h ****     bool        dropOnFrameError;
 528:Generated_Source\PSoC6\pdl\drivers/peripheral/scb/cy_scb_uart.h **** 
 529:Generated_Source\PSoC6\pdl\drivers/peripheral/scb/cy_scb_uart.h ****     /**
 530:Generated_Source\PSoC6\pdl\drivers/peripheral/scb/cy_scb_uart.h ****     * Enables the UART operation in Multi-Processor mode which requires
 531:Generated_Source\PSoC6\pdl\drivers/peripheral/scb/cy_scb_uart.h ****     * dataWidth to be 9 bits (the 9th bit is used to indicate address byte)
 532:Generated_Source\PSoC6\pdl\drivers/peripheral/scb/cy_scb_uart.h ****     */
 533:Generated_Source\PSoC6\pdl\drivers/peripheral/scb/cy_scb_uart.h ****     bool        enableMutliProcessorMode;
 534:Generated_Source\PSoC6\pdl\drivers/peripheral/scb/cy_scb_uart.h **** 
 535:Generated_Source\PSoC6\pdl\drivers/peripheral/scb/cy_scb_uart.h ****     /**
 536:Generated_Source\PSoC6\pdl\drivers/peripheral/scb/cy_scb_uart.h ****     * If Multi Processor mode is enabled, this is the address of the RX
 537:Generated_Source\PSoC6\pdl\drivers/peripheral/scb/cy_scb_uart.h ****     * FIFO. If the address matches, data is accepted into the FIFO. If
 538:Generated_Source\PSoC6\pdl\drivers/peripheral/scb/cy_scb_uart.h ****     * it does not match, the data is ignored.
 539:Generated_Source\PSoC6\pdl\drivers/peripheral/scb/cy_scb_uart.h ****     */
 540:Generated_Source\PSoC6\pdl\drivers/peripheral/scb/cy_scb_uart.h ****     uint32_t    receiverAddress;
 541:Generated_Source\PSoC6\pdl\drivers/peripheral/scb/cy_scb_uart.h **** 
 542:Generated_Source\PSoC6\pdl\drivers/peripheral/scb/cy_scb_uart.h ****     /**
 543:Generated_Source\PSoC6\pdl\drivers/peripheral/scb/cy_scb_uart.h ****     * This is the address mask for the Multi Processor address. 1 indicates
 544:Generated_Source\PSoC6\pdl\drivers/peripheral/scb/cy_scb_uart.h ****     * that the incoming address must match the corresponding bit in the slave
 545:Generated_Source\PSoC6\pdl\drivers/peripheral/scb/cy_scb_uart.h ****     * address. A 0 in the mask indicates that the incoming address does
 546:Generated_Source\PSoC6\pdl\drivers/peripheral/scb/cy_scb_uart.h ****     * not need to match.
 547:Generated_Source\PSoC6\pdl\drivers/peripheral/scb/cy_scb_uart.h ****     */
 548:Generated_Source\PSoC6\pdl\drivers/peripheral/scb/cy_scb_uart.h ****     uint32_t    receiverAddressMask;
 549:Generated_Source\PSoC6\pdl\drivers/peripheral/scb/cy_scb_uart.h **** 
 550:Generated_Source\PSoC6\pdl\drivers/peripheral/scb/cy_scb_uart.h ****     /**
 551:Generated_Source\PSoC6\pdl\drivers/peripheral/scb/cy_scb_uart.h ****     * Enables the hardware to accept the matching address in the RX FIFO.
 552:Generated_Source\PSoC6\pdl\drivers/peripheral/scb/cy_scb_uart.h ****     * This is useful when the device supports more than one address.
 553:Generated_Source\PSoC6\pdl\drivers/peripheral/scb/cy_scb_uart.h ****     */
 554:Generated_Source\PSoC6\pdl\drivers/peripheral/scb/cy_scb_uart.h ****     bool        acceptAddrInFifo;
 555:Generated_Source\PSoC6\pdl\drivers/peripheral/scb/cy_scb_uart.h **** 
 556:Generated_Source\PSoC6\pdl\drivers/peripheral/scb/cy_scb_uart.h ****     /** Inverts the IrDA RX input */
 557:Generated_Source\PSoC6\pdl\drivers/peripheral/scb/cy_scb_uart.h ****     bool        irdaInvertRx;
 558:Generated_Source\PSoC6\pdl\drivers/peripheral/scb/cy_scb_uart.h **** 
 559:Generated_Source\PSoC6\pdl\drivers/peripheral/scb/cy_scb_uart.h ****     /**
 560:Generated_Source\PSoC6\pdl\drivers/peripheral/scb/cy_scb_uart.h ****     * Enables the low-power receive for IrDA mode.
 561:Generated_Source\PSoC6\pdl\drivers/peripheral/scb/cy_scb_uart.h ****     * Note that the transmission must be disabled if this mode is enabled.
 562:Generated_Source\PSoC6\pdl\drivers/peripheral/scb/cy_scb_uart.h ****     */
 563:Generated_Source\PSoC6\pdl\drivers/peripheral/scb/cy_scb_uart.h ****     bool        irdaEnableLowPowerReceiver;
 564:Generated_Source\PSoC6\pdl\drivers/peripheral/scb/cy_scb_uart.h **** 
 565:Generated_Source\PSoC6\pdl\drivers/peripheral/scb/cy_scb_uart.h ****     /**
 566:Generated_Source\PSoC6\pdl\drivers/peripheral/scb/cy_scb_uart.h ****     * Enables retransmission of the frame placed in the TX FIFO when
 567:Generated_Source\PSoC6\pdl\drivers/peripheral/scb/cy_scb_uart.h ****     * NACK is received in SmartCard mode (for Standard and IrDA , this parameter
 568:Generated_Source\PSoC6\pdl\drivers/peripheral/scb/cy_scb_uart.h ****     * is ignored)
 569:Generated_Source\PSoC6\pdl\drivers/peripheral/scb/cy_scb_uart.h ****     */
 570:Generated_Source\PSoC6\pdl\drivers/peripheral/scb/cy_scb_uart.h ****     bool        smartCardRetryOnNack;
 571:Generated_Source\PSoC6\pdl\drivers/peripheral/scb/cy_scb_uart.h **** 
 572:Generated_Source\PSoC6\pdl\drivers/peripheral/scb/cy_scb_uart.h ****     /**
 573:Generated_Source\PSoC6\pdl\drivers/peripheral/scb/cy_scb_uart.h ****     * Enables the usage of the CTS input signal for the transmitter. The
 574:Generated_Source\PSoC6\pdl\drivers/peripheral/scb/cy_scb_uart.h ****     * transmitter waits for CTS to be active before sending data
 575:Generated_Source\PSoC6\pdl\drivers/peripheral/scb/cy_scb_uart.h ****     */
 576:Generated_Source\PSoC6\pdl\drivers/peripheral/scb/cy_scb_uart.h ****     bool        enableCts;
 577:Generated_Source\PSoC6\pdl\drivers/peripheral/scb/cy_scb_uart.h **** 
 578:Generated_Source\PSoC6\pdl\drivers/peripheral/scb/cy_scb_uart.h ****     /** Sets the CTS Polarity */
 579:Generated_Source\PSoC6\pdl\drivers/peripheral/scb/cy_scb_uart.h ****     cy_en_scb_uart_polarity_t    ctsPolarity;
 580:Generated_Source\PSoC6\pdl\drivers/peripheral/scb/cy_scb_uart.h **** 
 581:Generated_Source\PSoC6\pdl\drivers/peripheral/scb/cy_scb_uart.h ****     /**
 582:Generated_Source\PSoC6\pdl\drivers/peripheral/scb/cy_scb_uart.h ****     * When the RX FIFO has fewer entries than rtsRxFifoLevel, the
ARM GAS  C:\Users\Angel\AppData\Local\Temp\ccvqOPgy.s 			page 86


 583:Generated_Source\PSoC6\pdl\drivers/peripheral/scb/cy_scb_uart.h ****     * RTS signal is active (note to disable RTS, set this field to zero)
 584:Generated_Source\PSoC6\pdl\drivers/peripheral/scb/cy_scb_uart.h ****     */
 585:Generated_Source\PSoC6\pdl\drivers/peripheral/scb/cy_scb_uart.h ****     uint32_t    rtsRxFifoLevel;
 586:Generated_Source\PSoC6\pdl\drivers/peripheral/scb/cy_scb_uart.h **** 
 587:Generated_Source\PSoC6\pdl\drivers/peripheral/scb/cy_scb_uart.h ****     /** Sets the RTS Polarity */
 588:Generated_Source\PSoC6\pdl\drivers/peripheral/scb/cy_scb_uart.h ****     cy_en_scb_uart_polarity_t    rtsPolarity;
 589:Generated_Source\PSoC6\pdl\drivers/peripheral/scb/cy_scb_uart.h **** 
 590:Generated_Source\PSoC6\pdl\drivers/peripheral/scb/cy_scb_uart.h ****     /** Specifies the number of bits to detect a break condition */
 591:Generated_Source\PSoC6\pdl\drivers/peripheral/scb/cy_scb_uart.h ****     uint32_t    breakWidth;
 592:Generated_Source\PSoC6\pdl\drivers/peripheral/scb/cy_scb_uart.h **** 
 593:Generated_Source\PSoC6\pdl\drivers/peripheral/scb/cy_scb_uart.h ****     /**
 594:Generated_Source\PSoC6\pdl\drivers/peripheral/scb/cy_scb_uart.h ****     * When there are more entries in the RX FIFO than this level
 595:Generated_Source\PSoC6\pdl\drivers/peripheral/scb/cy_scb_uart.h ****     * the RX trigger output goes high. This output can be connected
 596:Generated_Source\PSoC6\pdl\drivers/peripheral/scb/cy_scb_uart.h ****     * to a DMA channel through a trigger mux.
 597:Generated_Source\PSoC6\pdl\drivers/peripheral/scb/cy_scb_uart.h ****     * Also, it controls the \ref CY_SCB_UART_RX_TRIGGER interrupt source.
 598:Generated_Source\PSoC6\pdl\drivers/peripheral/scb/cy_scb_uart.h ****     */
 599:Generated_Source\PSoC6\pdl\drivers/peripheral/scb/cy_scb_uart.h ****     uint32_t    rxFifoTriggerLevel;
 600:Generated_Source\PSoC6\pdl\drivers/peripheral/scb/cy_scb_uart.h **** 
 601:Generated_Source\PSoC6\pdl\drivers/peripheral/scb/cy_scb_uart.h ****     /**
 602:Generated_Source\PSoC6\pdl\drivers/peripheral/scb/cy_scb_uart.h ****     * The bits set in this mask allow the event to cause an interrupt
 603:Generated_Source\PSoC6\pdl\drivers/peripheral/scb/cy_scb_uart.h ****     * (See \ref group_scb_uart_macros_rx_fifo_status for the set of constants)
 604:Generated_Source\PSoC6\pdl\drivers/peripheral/scb/cy_scb_uart.h ****     */
 605:Generated_Source\PSoC6\pdl\drivers/peripheral/scb/cy_scb_uart.h ****     uint32_t    rxFifoIntEnableMask;
 606:Generated_Source\PSoC6\pdl\drivers/peripheral/scb/cy_scb_uart.h **** 
 607:Generated_Source\PSoC6\pdl\drivers/peripheral/scb/cy_scb_uart.h ****     /**
 608:Generated_Source\PSoC6\pdl\drivers/peripheral/scb/cy_scb_uart.h ****     * When there are fewer entries in the TX FIFO then this level
 609:Generated_Source\PSoC6\pdl\drivers/peripheral/scb/cy_scb_uart.h ****     * the TX trigger output goes high. This output can be connected
 610:Generated_Source\PSoC6\pdl\drivers/peripheral/scb/cy_scb_uart.h ****     * to a DMA channel through a trigger mux.
 611:Generated_Source\PSoC6\pdl\drivers/peripheral/scb/cy_scb_uart.h ****     * Also, it controls \ref CY_SCB_UART_TX_TRIGGER interrupt source.
 612:Generated_Source\PSoC6\pdl\drivers/peripheral/scb/cy_scb_uart.h ****     */
 613:Generated_Source\PSoC6\pdl\drivers/peripheral/scb/cy_scb_uart.h ****     uint32_t    txFifoTriggerLevel;
 614:Generated_Source\PSoC6\pdl\drivers/peripheral/scb/cy_scb_uart.h **** 
 615:Generated_Source\PSoC6\pdl\drivers/peripheral/scb/cy_scb_uart.h ****     /**
 616:Generated_Source\PSoC6\pdl\drivers/peripheral/scb/cy_scb_uart.h ****     * Bits set in this mask allows the event to cause an interrupt
 617:Generated_Source\PSoC6\pdl\drivers/peripheral/scb/cy_scb_uart.h ****     * (See \ref group_scb_uart_macros_tx_fifo_status for the set of constants)
 618:Generated_Source\PSoC6\pdl\drivers/peripheral/scb/cy_scb_uart.h ****     */
 619:Generated_Source\PSoC6\pdl\drivers/peripheral/scb/cy_scb_uart.h ****     uint32_t    txFifoIntEnableMask;
 620:Generated_Source\PSoC6\pdl\drivers/peripheral/scb/cy_scb_uart.h **** } cy_stc_scb_uart_config_t;
 621:Generated_Source\PSoC6\pdl\drivers/peripheral/scb/cy_scb_uart.h **** 
 622:Generated_Source\PSoC6\pdl\drivers/peripheral/scb/cy_scb_uart.h **** /** UART context structure.
 623:Generated_Source\PSoC6\pdl\drivers/peripheral/scb/cy_scb_uart.h **** * All fields for the context structure are internal. Firmware never reads or
 624:Generated_Source\PSoC6\pdl\drivers/peripheral/scb/cy_scb_uart.h **** * writes these values. Firmware allocates the structure and provides the
 625:Generated_Source\PSoC6\pdl\drivers/peripheral/scb/cy_scb_uart.h **** * address of the structure to the driver in function calls. Firmware must
 626:Generated_Source\PSoC6\pdl\drivers/peripheral/scb/cy_scb_uart.h **** * ensure that the defined instance of this structure remains in scope
 627:Generated_Source\PSoC6\pdl\drivers/peripheral/scb/cy_scb_uart.h **** * while the drive is in use.
 628:Generated_Source\PSoC6\pdl\drivers/peripheral/scb/cy_scb_uart.h **** */
 629:Generated_Source\PSoC6\pdl\drivers/peripheral/scb/cy_scb_uart.h **** typedef struct cy_stc_scb_uart_context
 630:Generated_Source\PSoC6\pdl\drivers/peripheral/scb/cy_scb_uart.h **** {
 631:Generated_Source\PSoC6\pdl\drivers/peripheral/scb/cy_scb_uart.h ****     /** \cond INTERNAL */
 632:Generated_Source\PSoC6\pdl\drivers/peripheral/scb/cy_scb_uart.h ****     uint32_t volatile txStatus;         /**< The transmit status */
 633:Generated_Source\PSoC6\pdl\drivers/peripheral/scb/cy_scb_uart.h ****     uint32_t volatile rxStatus;         /**< The receive status */
 634:Generated_Source\PSoC6\pdl\drivers/peripheral/scb/cy_scb_uart.h **** 
 635:Generated_Source\PSoC6\pdl\drivers/peripheral/scb/cy_scb_uart.h ****     void     *rxRingBuf;                /**< The pointer to the ring buffer */
 636:Generated_Source\PSoC6\pdl\drivers/peripheral/scb/cy_scb_uart.h ****     uint32_t  rxRingBufSize;            /**< The ring buffer size */
 637:Generated_Source\PSoC6\pdl\drivers/peripheral/scb/cy_scb_uart.h ****     uint32_t volatile rxRingBufHead;    /**< The ring buffer head index */
 638:Generated_Source\PSoC6\pdl\drivers/peripheral/scb/cy_scb_uart.h ****     uint32_t volatile rxRingBufTail;    /**< The ring buffer tail index */
 639:Generated_Source\PSoC6\pdl\drivers/peripheral/scb/cy_scb_uart.h **** 
ARM GAS  C:\Users\Angel\AppData\Local\Temp\ccvqOPgy.s 			page 87


 640:Generated_Source\PSoC6\pdl\drivers/peripheral/scb/cy_scb_uart.h ****     void     *rxBuf;                    /**< The pointer to the receive buffer */
 641:Generated_Source\PSoC6\pdl\drivers/peripheral/scb/cy_scb_uart.h ****     uint32_t  rxBufSize;                /**< The receive buffer size */
 642:Generated_Source\PSoC6\pdl\drivers/peripheral/scb/cy_scb_uart.h ****     uint32_t volatile rxBufIdx;         /**< The current location in the receive buffer */
 643:Generated_Source\PSoC6\pdl\drivers/peripheral/scb/cy_scb_uart.h **** 
 644:Generated_Source\PSoC6\pdl\drivers/peripheral/scb/cy_scb_uart.h ****     void     *txBuf;                    /**< The pointer to the transmit buffer */
 645:Generated_Source\PSoC6\pdl\drivers/peripheral/scb/cy_scb_uart.h ****     uint32_t  txBufSize;                /**< The transmit buffer size */
 646:Generated_Source\PSoC6\pdl\drivers/peripheral/scb/cy_scb_uart.h ****     uint32_t volatile txLeftToTransmit; /**< The number of data elements left to be transmitted */
 647:Generated_Source\PSoC6\pdl\drivers/peripheral/scb/cy_scb_uart.h **** 
 648:Generated_Source\PSoC6\pdl\drivers/peripheral/scb/cy_scb_uart.h ****     /** The pointer to an event callback that is called when any of
 649:Generated_Source\PSoC6\pdl\drivers/peripheral/scb/cy_scb_uart.h ****     * \ref group_scb_uart_macros_callback_events occurs
 650:Generated_Source\PSoC6\pdl\drivers/peripheral/scb/cy_scb_uart.h ****     */
 651:Generated_Source\PSoC6\pdl\drivers/peripheral/scb/cy_scb_uart.h ****     cy_cb_scb_uart_handle_events_t cbEvents;
 652:Generated_Source\PSoC6\pdl\drivers/peripheral/scb/cy_scb_uart.h **** 
 653:Generated_Source\PSoC6\pdl\drivers/peripheral/scb/cy_scb_uart.h **** #if !defined(NDEBUG)
 654:Generated_Source\PSoC6\pdl\drivers/peripheral/scb/cy_scb_uart.h ****     uint32_t initKey;               /**< Tracks the context initialization */
 655:Generated_Source\PSoC6\pdl\drivers/peripheral/scb/cy_scb_uart.h **** #endif /* !(NDEBUG) */
 656:Generated_Source\PSoC6\pdl\drivers/peripheral/scb/cy_scb_uart.h ****     /** \endcond */
 657:Generated_Source\PSoC6\pdl\drivers/peripheral/scb/cy_scb_uart.h **** } cy_stc_scb_uart_context_t;
 658:Generated_Source\PSoC6\pdl\drivers/peripheral/scb/cy_scb_uart.h **** /** \} group_scb_uart_data_structures */
 659:Generated_Source\PSoC6\pdl\drivers/peripheral/scb/cy_scb_uart.h **** 
 660:Generated_Source\PSoC6\pdl\drivers/peripheral/scb/cy_scb_uart.h **** 
 661:Generated_Source\PSoC6\pdl\drivers/peripheral/scb/cy_scb_uart.h **** /*******************************************************************************
 662:Generated_Source\PSoC6\pdl\drivers/peripheral/scb/cy_scb_uart.h **** *                           Function Prototypes
 663:Generated_Source\PSoC6\pdl\drivers/peripheral/scb/cy_scb_uart.h **** *******************************************************************************/
 664:Generated_Source\PSoC6\pdl\drivers/peripheral/scb/cy_scb_uart.h **** 
 665:Generated_Source\PSoC6\pdl\drivers/peripheral/scb/cy_scb_uart.h **** /**
 666:Generated_Source\PSoC6\pdl\drivers/peripheral/scb/cy_scb_uart.h **** * \addtogroup group_scb_uart_general_functions
 667:Generated_Source\PSoC6\pdl\drivers/peripheral/scb/cy_scb_uart.h **** * \{
 668:Generated_Source\PSoC6\pdl\drivers/peripheral/scb/cy_scb_uart.h **** */
 669:Generated_Source\PSoC6\pdl\drivers/peripheral/scb/cy_scb_uart.h **** cy_en_scb_uart_status_t Cy_SCB_UART_Init(CySCB_Type *base, cy_stc_scb_uart_config_t const *config,
 670:Generated_Source\PSoC6\pdl\drivers/peripheral/scb/cy_scb_uart.h ****                                          cy_stc_scb_uart_context_t *context);
 671:Generated_Source\PSoC6\pdl\drivers/peripheral/scb/cy_scb_uart.h **** void Cy_SCB_UART_DeInit (CySCB_Type *base);
 672:Generated_Source\PSoC6\pdl\drivers/peripheral/scb/cy_scb_uart.h **** __STATIC_INLINE void Cy_SCB_UART_Enable(CySCB_Type *base);
 673:Generated_Source\PSoC6\pdl\drivers/peripheral/scb/cy_scb_uart.h **** void Cy_SCB_UART_Disable(CySCB_Type *base, cy_stc_scb_uart_context_t *context);
 674:Generated_Source\PSoC6\pdl\drivers/peripheral/scb/cy_scb_uart.h **** 
 675:Generated_Source\PSoC6\pdl\drivers/peripheral/scb/cy_scb_uart.h **** __STATIC_INLINE void     Cy_SCB_UART_EnableCts      (CySCB_Type *base);
 676:Generated_Source\PSoC6\pdl\drivers/peripheral/scb/cy_scb_uart.h **** __STATIC_INLINE void     Cy_SCB_UART_DisableCts     (CySCB_Type *base);
 677:Generated_Source\PSoC6\pdl\drivers/peripheral/scb/cy_scb_uart.h **** __STATIC_INLINE void     Cy_SCB_UART_SetRtsFifoLevel(CySCB_Type *base, uint32_t level);
 678:Generated_Source\PSoC6\pdl\drivers/peripheral/scb/cy_scb_uart.h **** __STATIC_INLINE uint32_t Cy_SCB_UART_GetRtsFifoLevel(CySCB_Type const *base);
 679:Generated_Source\PSoC6\pdl\drivers/peripheral/scb/cy_scb_uart.h **** 
 680:Generated_Source\PSoC6\pdl\drivers/peripheral/scb/cy_scb_uart.h **** __STATIC_INLINE void Cy_SCB_UART_EnableSkipStart (CySCB_Type *base);
 681:Generated_Source\PSoC6\pdl\drivers/peripheral/scb/cy_scb_uart.h **** __STATIC_INLINE void Cy_SCB_UART_DisableSkipStart(CySCB_Type *base);
 682:Generated_Source\PSoC6\pdl\drivers/peripheral/scb/cy_scb_uart.h **** /** \} group_scb_uart_general_functions */
 683:Generated_Source\PSoC6\pdl\drivers/peripheral/scb/cy_scb_uart.h **** 
 684:Generated_Source\PSoC6\pdl\drivers/peripheral/scb/cy_scb_uart.h **** /**
 685:Generated_Source\PSoC6\pdl\drivers/peripheral/scb/cy_scb_uart.h **** * \addtogroup group_scb_uart_high_level_functions
 686:Generated_Source\PSoC6\pdl\drivers/peripheral/scb/cy_scb_uart.h **** * \{
 687:Generated_Source\PSoC6\pdl\drivers/peripheral/scb/cy_scb_uart.h **** */
 688:Generated_Source\PSoC6\pdl\drivers/peripheral/scb/cy_scb_uart.h **** void     Cy_SCB_UART_StartRingBuffer   (CySCB_Type *base, void *buffer, uint32_t size,
 689:Generated_Source\PSoC6\pdl\drivers/peripheral/scb/cy_scb_uart.h ****                                         cy_stc_scb_uart_context_t *context);
 690:Generated_Source\PSoC6\pdl\drivers/peripheral/scb/cy_scb_uart.h **** void     Cy_SCB_UART_StopRingBuffer    (CySCB_Type *base, cy_stc_scb_uart_context_t *context);
 691:Generated_Source\PSoC6\pdl\drivers/peripheral/scb/cy_scb_uart.h **** uint32_t Cy_SCB_UART_GetNumInRingBuffer(CySCB_Type const *base, cy_stc_scb_uart_context_t const *co
 692:Generated_Source\PSoC6\pdl\drivers/peripheral/scb/cy_scb_uart.h **** void     Cy_SCB_UART_ClearRingBuffer   (CySCB_Type const *base, cy_stc_scb_uart_context_t *context)
 693:Generated_Source\PSoC6\pdl\drivers/peripheral/scb/cy_scb_uart.h **** 
 694:Generated_Source\PSoC6\pdl\drivers/peripheral/scb/cy_scb_uart.h **** cy_en_scb_uart_status_t Cy_SCB_UART_Receive(CySCB_Type *base, void *buffer, uint32_t size,
 695:Generated_Source\PSoC6\pdl\drivers/peripheral/scb/cy_scb_uart.h ****                                             cy_stc_scb_uart_context_t *context);
 696:Generated_Source\PSoC6\pdl\drivers/peripheral/scb/cy_scb_uart.h **** void     Cy_SCB_UART_AbortReceive    (CySCB_Type *base, cy_stc_scb_uart_context_t *context);
ARM GAS  C:\Users\Angel\AppData\Local\Temp\ccvqOPgy.s 			page 88


 697:Generated_Source\PSoC6\pdl\drivers/peripheral/scb/cy_scb_uart.h **** uint32_t Cy_SCB_UART_GetReceiveStatus(CySCB_Type const *base, cy_stc_scb_uart_context_t const *cont
 698:Generated_Source\PSoC6\pdl\drivers/peripheral/scb/cy_scb_uart.h **** uint32_t Cy_SCB_UART_GetNumReceived  (CySCB_Type const *base, cy_stc_scb_uart_context_t const *cont
 699:Generated_Source\PSoC6\pdl\drivers/peripheral/scb/cy_scb_uart.h **** 
 700:Generated_Source\PSoC6\pdl\drivers/peripheral/scb/cy_scb_uart.h **** cy_en_scb_uart_status_t Cy_SCB_UART_Transmit(CySCB_Type *base, void *buffer, uint32_t size,
 701:Generated_Source\PSoC6\pdl\drivers/peripheral/scb/cy_scb_uart.h ****                                              cy_stc_scb_uart_context_t *context);
 702:Generated_Source\PSoC6\pdl\drivers/peripheral/scb/cy_scb_uart.h **** void     Cy_SCB_UART_AbortTransmit       (CySCB_Type *base, cy_stc_scb_uart_context_t *context);
 703:Generated_Source\PSoC6\pdl\drivers/peripheral/scb/cy_scb_uart.h **** uint32_t Cy_SCB_UART_GetTransmitStatus   (CySCB_Type const *base, cy_stc_scb_uart_context_t const *
 704:Generated_Source\PSoC6\pdl\drivers/peripheral/scb/cy_scb_uart.h **** uint32_t Cy_SCB_UART_GetNumLeftToTransmit(CySCB_Type const *base, cy_stc_scb_uart_context_t const *
 705:Generated_Source\PSoC6\pdl\drivers/peripheral/scb/cy_scb_uart.h **** /** \} group_scb_uart_high_level_functions */
 706:Generated_Source\PSoC6\pdl\drivers/peripheral/scb/cy_scb_uart.h **** 
 707:Generated_Source\PSoC6\pdl\drivers/peripheral/scb/cy_scb_uart.h **** /**
 708:Generated_Source\PSoC6\pdl\drivers/peripheral/scb/cy_scb_uart.h **** * \addtogroup group_scb_uart_low_level_functions
 709:Generated_Source\PSoC6\pdl\drivers/peripheral/scb/cy_scb_uart.h **** * \{
 710:Generated_Source\PSoC6\pdl\drivers/peripheral/scb/cy_scb_uart.h **** */
 711:Generated_Source\PSoC6\pdl\drivers/peripheral/scb/cy_scb_uart.h **** __STATIC_INLINE uint32_t Cy_SCB_UART_Put             (CySCB_Type *base, uint32_t data);
 712:Generated_Source\PSoC6\pdl\drivers/peripheral/scb/cy_scb_uart.h **** __STATIC_INLINE uint32_t Cy_SCB_UART_PutArray        (CySCB_Type *base, void *buffer, uint32_t size
 713:Generated_Source\PSoC6\pdl\drivers/peripheral/scb/cy_scb_uart.h **** __STATIC_INLINE void     Cy_SCB_UART_PutArrayBlocking(CySCB_Type *base, void *buffer, uint32_t size
 714:Generated_Source\PSoC6\pdl\drivers/peripheral/scb/cy_scb_uart.h **** __STATIC_INLINE void     Cy_SCB_UART_PutString       (CySCB_Type *base, char_t const string[]);
 715:Generated_Source\PSoC6\pdl\drivers/peripheral/scb/cy_scb_uart.h **** void Cy_SCB_UART_SendBreakBlocking(CySCB_Type *base, uint32_t breakWidth);
 716:Generated_Source\PSoC6\pdl\drivers/peripheral/scb/cy_scb_uart.h **** 
 717:Generated_Source\PSoC6\pdl\drivers/peripheral/scb/cy_scb_uart.h **** __STATIC_INLINE uint32_t Cy_SCB_UART_Get             (CySCB_Type const *base);
 718:Generated_Source\PSoC6\pdl\drivers/peripheral/scb/cy_scb_uart.h **** __STATIC_INLINE uint32_t Cy_SCB_UART_GetArray        (CySCB_Type const *base, void *buffer, uint32_
 719:Generated_Source\PSoC6\pdl\drivers/peripheral/scb/cy_scb_uart.h **** __STATIC_INLINE void     Cy_SCB_UART_GetArrayBlocking(CySCB_Type const *base, void *buffer, uint32_
 720:Generated_Source\PSoC6\pdl\drivers/peripheral/scb/cy_scb_uart.h **** 
 721:Generated_Source\PSoC6\pdl\drivers/peripheral/scb/cy_scb_uart.h **** __STATIC_INLINE uint32_t Cy_SCB_UART_GetTxFifoStatus  (CySCB_Type const *base);
 722:Generated_Source\PSoC6\pdl\drivers/peripheral/scb/cy_scb_uart.h **** __STATIC_INLINE void     Cy_SCB_UART_ClearTxFifoStatus(CySCB_Type *base, uint32_t clearMask);
 723:Generated_Source\PSoC6\pdl\drivers/peripheral/scb/cy_scb_uart.h **** 
 724:Generated_Source\PSoC6\pdl\drivers/peripheral/scb/cy_scb_uart.h **** __STATIC_INLINE uint32_t Cy_SCB_UART_GetRxFifoStatus  (CySCB_Type const *base);
 725:Generated_Source\PSoC6\pdl\drivers/peripheral/scb/cy_scb_uart.h **** __STATIC_INLINE void     Cy_SCB_UART_ClearRxFifoStatus(CySCB_Type *base, uint32_t clearMask);
 726:Generated_Source\PSoC6\pdl\drivers/peripheral/scb/cy_scb_uart.h **** 
 727:Generated_Source\PSoC6\pdl\drivers/peripheral/scb/cy_scb_uart.h **** __STATIC_INLINE uint32_t Cy_SCB_UART_GetNumInTxFifo   (CySCB_Type const *base);
 728:Generated_Source\PSoC6\pdl\drivers/peripheral/scb/cy_scb_uart.h **** __STATIC_INLINE bool     Cy_SCB_UART_IsTxComplete     (CySCB_Type const *base);
 729:Generated_Source\PSoC6\pdl\drivers/peripheral/scb/cy_scb_uart.h **** 
 730:Generated_Source\PSoC6\pdl\drivers/peripheral/scb/cy_scb_uart.h **** __STATIC_INLINE uint32_t Cy_SCB_UART_GetNumInRxFifo   (CySCB_Type const *base);
 731:Generated_Source\PSoC6\pdl\drivers/peripheral/scb/cy_scb_uart.h **** 
 732:Generated_Source\PSoC6\pdl\drivers/peripheral/scb/cy_scb_uart.h **** __STATIC_INLINE void     Cy_SCB_UART_ClearRxFifo      (CySCB_Type *base);
 733:Generated_Source\PSoC6\pdl\drivers/peripheral/scb/cy_scb_uart.h **** __STATIC_INLINE void     Cy_SCB_UART_ClearTxFifo      (CySCB_Type *base);
 734:Generated_Source\PSoC6\pdl\drivers/peripheral/scb/cy_scb_uart.h **** /** \} group_scb_uart_low_level_functions */
 735:Generated_Source\PSoC6\pdl\drivers/peripheral/scb/cy_scb_uart.h **** 
 736:Generated_Source\PSoC6\pdl\drivers/peripheral/scb/cy_scb_uart.h **** /**
 737:Generated_Source\PSoC6\pdl\drivers/peripheral/scb/cy_scb_uart.h **** * \addtogroup group_scb_uart_interrupt_functions
 738:Generated_Source\PSoC6\pdl\drivers/peripheral/scb/cy_scb_uart.h **** * \{
 739:Generated_Source\PSoC6\pdl\drivers/peripheral/scb/cy_scb_uart.h **** */
 740:Generated_Source\PSoC6\pdl\drivers/peripheral/scb/cy_scb_uart.h **** void Cy_SCB_UART_Interrupt(CySCB_Type *base, cy_stc_scb_uart_context_t *context);
 741:Generated_Source\PSoC6\pdl\drivers/peripheral/scb/cy_scb_uart.h **** 
 742:Generated_Source\PSoC6\pdl\drivers/peripheral/scb/cy_scb_uart.h **** __STATIC_INLINE void Cy_SCB_UART_RegisterCallback(CySCB_Type const *base, cy_cb_scb_uart_handle_eve
 743:Generated_Source\PSoC6\pdl\drivers/peripheral/scb/cy_scb_uart.h ****                                                   cy_stc_scb_uart_context_t *context);
 744:Generated_Source\PSoC6\pdl\drivers/peripheral/scb/cy_scb_uart.h **** /** \} group_scb_uart_interrupt_functions */
 745:Generated_Source\PSoC6\pdl\drivers/peripheral/scb/cy_scb_uart.h **** 
 746:Generated_Source\PSoC6\pdl\drivers/peripheral/scb/cy_scb_uart.h **** /**
 747:Generated_Source\PSoC6\pdl\drivers/peripheral/scb/cy_scb_uart.h **** * \addtogroup group_scb_uart_low_power_functions
 748:Generated_Source\PSoC6\pdl\drivers/peripheral/scb/cy_scb_uart.h **** * \{
 749:Generated_Source\PSoC6\pdl\drivers/peripheral/scb/cy_scb_uart.h **** */
 750:Generated_Source\PSoC6\pdl\drivers/peripheral/scb/cy_scb_uart.h **** cy_en_syspm_status_t Cy_SCB_UART_DeepSleepCallback(cy_stc_syspm_callback_params_t *callbackParams, 
 751:Generated_Source\PSoC6\pdl\drivers/peripheral/scb/cy_scb_uart.h **** cy_en_syspm_status_t Cy_SCB_UART_HibernateCallback(cy_stc_syspm_callback_params_t *callbackParams, 
 752:Generated_Source\PSoC6\pdl\drivers/peripheral/scb/cy_scb_uart.h **** /** \} group_scb_uart_low_power_functions */
 753:Generated_Source\PSoC6\pdl\drivers/peripheral/scb/cy_scb_uart.h **** 
ARM GAS  C:\Users\Angel\AppData\Local\Temp\ccvqOPgy.s 			page 89


 754:Generated_Source\PSoC6\pdl\drivers/peripheral/scb/cy_scb_uart.h **** 
 755:Generated_Source\PSoC6\pdl\drivers/peripheral/scb/cy_scb_uart.h **** /*******************************************************************************
 756:Generated_Source\PSoC6\pdl\drivers/peripheral/scb/cy_scb_uart.h **** *                               API Constants
 757:Generated_Source\PSoC6\pdl\drivers/peripheral/scb/cy_scb_uart.h **** *******************************************************************************/
 758:Generated_Source\PSoC6\pdl\drivers/peripheral/scb/cy_scb_uart.h **** 
 759:Generated_Source\PSoC6\pdl\drivers/peripheral/scb/cy_scb_uart.h **** /**
 760:Generated_Source\PSoC6\pdl\drivers/peripheral/scb/cy_scb_uart.h **** * \addtogroup group_scb_uart_macros
 761:Generated_Source\PSoC6\pdl\drivers/peripheral/scb/cy_scb_uart.h **** * \{
 762:Generated_Source\PSoC6\pdl\drivers/peripheral/scb/cy_scb_uart.h **** */
 763:Generated_Source\PSoC6\pdl\drivers/peripheral/scb/cy_scb_uart.h **** 
 764:Generated_Source\PSoC6\pdl\drivers/peripheral/scb/cy_scb_uart.h **** /**
 765:Generated_Source\PSoC6\pdl\drivers/peripheral/scb/cy_scb_uart.h **** * \defgroup group_scb_uart_macros_irda_lp_ovs UART IRDA Low Power Oversample factors
 766:Generated_Source\PSoC6\pdl\drivers/peripheral/scb/cy_scb_uart.h **** * \{
 767:Generated_Source\PSoC6\pdl\drivers/peripheral/scb/cy_scb_uart.h **** */
 768:Generated_Source\PSoC6\pdl\drivers/peripheral/scb/cy_scb_uart.h **** #define CY_SCB_UART_IRDA_LP_OVS16      (1UL)   /**< IrDA in low-power mode oversampled by 16   */
 769:Generated_Source\PSoC6\pdl\drivers/peripheral/scb/cy_scb_uart.h **** #define CY_SCB_UART_IRDA_LP_OVS32      (2UL)   /**< IrDA in low-power mode oversampled by 32   */
 770:Generated_Source\PSoC6\pdl\drivers/peripheral/scb/cy_scb_uart.h **** #define CY_SCB_UART_IRDA_LP_OVS48      (3UL)   /**< IrDA in low-power mode oversampled by 48   */
 771:Generated_Source\PSoC6\pdl\drivers/peripheral/scb/cy_scb_uart.h **** #define CY_SCB_UART_IRDA_LP_OVS96      (4UL)   /**< IrDA in low-power mode oversampled by 96   */
 772:Generated_Source\PSoC6\pdl\drivers/peripheral/scb/cy_scb_uart.h **** #define CY_SCB_UART_IRDA_LP_OVS192     (5UL)   /**< IrDA in low-power mode oversampled by 192  */
 773:Generated_Source\PSoC6\pdl\drivers/peripheral/scb/cy_scb_uart.h **** #define CY_SCB_UART_IRDA_LP_OVS768     (6UL)   /**< IrDA in low-power mode oversampled by 768  */
 774:Generated_Source\PSoC6\pdl\drivers/peripheral/scb/cy_scb_uart.h **** #define CY_SCB_UART_IRDA_LP_OVS1536    (7UL)   /**< IrDA in low-power mode oversampled by 1536 */
 775:Generated_Source\PSoC6\pdl\drivers/peripheral/scb/cy_scb_uart.h **** /** \} group_scb_uart_macros_irda_lp_ovs */
 776:Generated_Source\PSoC6\pdl\drivers/peripheral/scb/cy_scb_uart.h **** 
 777:Generated_Source\PSoC6\pdl\drivers/peripheral/scb/cy_scb_uart.h **** /**
 778:Generated_Source\PSoC6\pdl\drivers/peripheral/scb/cy_scb_uart.h **** * \defgroup group_scb_uart_macros_rx_fifo_status UART RX FIFO status.
 779:Generated_Source\PSoC6\pdl\drivers/peripheral/scb/cy_scb_uart.h **** * \{
 780:Generated_Source\PSoC6\pdl\drivers/peripheral/scb/cy_scb_uart.h **** * Macros to check UART RX FIFO status returned by \ref Cy_SCB_UART_GetRxFifoStatus
 781:Generated_Source\PSoC6\pdl\drivers/peripheral/scb/cy_scb_uart.h **** * function or assign mask for \ref Cy_SCB_UART_ClearRxFifoStatus function.
 782:Generated_Source\PSoC6\pdl\drivers/peripheral/scb/cy_scb_uart.h **** * Each UART RX FIFO status is encoded in a separate bit, therefore multiple
 783:Generated_Source\PSoC6\pdl\drivers/peripheral/scb/cy_scb_uart.h **** * bits may be set to indicate the current status.
 784:Generated_Source\PSoC6\pdl\drivers/peripheral/scb/cy_scb_uart.h **** */
 785:Generated_Source\PSoC6\pdl\drivers/peripheral/scb/cy_scb_uart.h **** 
 786:Generated_Source\PSoC6\pdl\drivers/peripheral/scb/cy_scb_uart.h **** /** The number of entries in the RX FIFO is more than the RX FIFO trigger level
 787:Generated_Source\PSoC6\pdl\drivers/peripheral/scb/cy_scb_uart.h **** * value
 788:Generated_Source\PSoC6\pdl\drivers/peripheral/scb/cy_scb_uart.h **** */
 789:Generated_Source\PSoC6\pdl\drivers/peripheral/scb/cy_scb_uart.h **** #define CY_SCB_UART_RX_TRIGGER         (SCB_INTR_RX_TRIGGER_Msk)
 790:Generated_Source\PSoC6\pdl\drivers/peripheral/scb/cy_scb_uart.h **** 
 791:Generated_Source\PSoC6\pdl\drivers/peripheral/scb/cy_scb_uart.h **** /** The RX FIFO is not empty, there is data to read */
 792:Generated_Source\PSoC6\pdl\drivers/peripheral/scb/cy_scb_uart.h **** #define CY_SCB_UART_RX_NOT_EMPTY       (SCB_INTR_RX_NOT_EMPTY_Msk)
 793:Generated_Source\PSoC6\pdl\drivers/peripheral/scb/cy_scb_uart.h **** 
 794:Generated_Source\PSoC6\pdl\drivers/peripheral/scb/cy_scb_uart.h **** /**
 795:Generated_Source\PSoC6\pdl\drivers/peripheral/scb/cy_scb_uart.h **** * The RX FIFO is full, there is no more space for additional data, and
 796:Generated_Source\PSoC6\pdl\drivers/peripheral/scb/cy_scb_uart.h **** * any additional data will be dropped
 797:Generated_Source\PSoC6\pdl\drivers/peripheral/scb/cy_scb_uart.h **** */
 798:Generated_Source\PSoC6\pdl\drivers/peripheral/scb/cy_scb_uart.h **** #define CY_SCB_UART_RX_FULL            (SCB_INTR_RX_FULL_Msk)
 799:Generated_Source\PSoC6\pdl\drivers/peripheral/scb/cy_scb_uart.h **** 
 800:Generated_Source\PSoC6\pdl\drivers/peripheral/scb/cy_scb_uart.h **** /**
 801:Generated_Source\PSoC6\pdl\drivers/peripheral/scb/cy_scb_uart.h **** * The RX FIFO was full and there was an attempt to write to it.
 802:Generated_Source\PSoC6\pdl\drivers/peripheral/scb/cy_scb_uart.h **** * That additional data was dropped.
 803:Generated_Source\PSoC6\pdl\drivers/peripheral/scb/cy_scb_uart.h **** */
 804:Generated_Source\PSoC6\pdl\drivers/peripheral/scb/cy_scb_uart.h **** #define CY_SCB_UART_RX_OVERFLOW        (SCB_INTR_RX_OVERFLOW_Msk)
 805:Generated_Source\PSoC6\pdl\drivers/peripheral/scb/cy_scb_uart.h **** 
 806:Generated_Source\PSoC6\pdl\drivers/peripheral/scb/cy_scb_uart.h **** /** An attempt to read from an empty RX FIFO */
 807:Generated_Source\PSoC6\pdl\drivers/peripheral/scb/cy_scb_uart.h **** #define CY_SCB_UART_RX_UNDERFLOW       (SCB_INTR_RX_UNDERFLOW_Msk)
 808:Generated_Source\PSoC6\pdl\drivers/peripheral/scb/cy_scb_uart.h **** 
 809:Generated_Source\PSoC6\pdl\drivers/peripheral/scb/cy_scb_uart.h **** /** The RX FIFO detected a frame error, either a stop or stop-bit error */
 810:Generated_Source\PSoC6\pdl\drivers/peripheral/scb/cy_scb_uart.h **** #define CY_SCB_UART_RX_ERR_FRAME       (SCB_INTR_RX_FRAME_ERROR_Msk)
ARM GAS  C:\Users\Angel\AppData\Local\Temp\ccvqOPgy.s 			page 90


 811:Generated_Source\PSoC6\pdl\drivers/peripheral/scb/cy_scb_uart.h **** 
 812:Generated_Source\PSoC6\pdl\drivers/peripheral/scb/cy_scb_uart.h **** /** The RX FIFO detected a parity error */
 813:Generated_Source\PSoC6\pdl\drivers/peripheral/scb/cy_scb_uart.h **** #define CY_SCB_UART_RX_ERR_PARITY      (SCB_INTR_RX_PARITY_ERROR_Msk)
 814:Generated_Source\PSoC6\pdl\drivers/peripheral/scb/cy_scb_uart.h **** 
 815:Generated_Source\PSoC6\pdl\drivers/peripheral/scb/cy_scb_uart.h **** /** The RX FIFO detected a break transmission from the transmitter */
 816:Generated_Source\PSoC6\pdl\drivers/peripheral/scb/cy_scb_uart.h **** #define CY_SCB_UART_RX_BREAK_DETECT    (SCB_INTR_RX_BREAK_DETECT_Msk)
 817:Generated_Source\PSoC6\pdl\drivers/peripheral/scb/cy_scb_uart.h **** /** \} group_scb_uart_macros_rx_fifo_status */
 818:Generated_Source\PSoC6\pdl\drivers/peripheral/scb/cy_scb_uart.h **** 
 819:Generated_Source\PSoC6\pdl\drivers/peripheral/scb/cy_scb_uart.h **** /**
 820:Generated_Source\PSoC6\pdl\drivers/peripheral/scb/cy_scb_uart.h **** * \defgroup group_scb_uart_macros_tx_fifo_status UART TX FIFO Statuses
 821:Generated_Source\PSoC6\pdl\drivers/peripheral/scb/cy_scb_uart.h **** * \{
 822:Generated_Source\PSoC6\pdl\drivers/peripheral/scb/cy_scb_uart.h **** * Macros to check UART TX FIFO status returned by \ref Cy_SCB_UART_GetTxFifoStatus
 823:Generated_Source\PSoC6\pdl\drivers/peripheral/scb/cy_scb_uart.h **** * function or assign mask for \ref Cy_SCB_UART_ClearTxFifoStatus function.
 824:Generated_Source\PSoC6\pdl\drivers/peripheral/scb/cy_scb_uart.h **** * Each UART TX FIFO status is encoded in a separate bit, therefore multiple bits
 825:Generated_Source\PSoC6\pdl\drivers/peripheral/scb/cy_scb_uart.h **** * may be set to indicate the current status.
 826:Generated_Source\PSoC6\pdl\drivers/peripheral/scb/cy_scb_uart.h **** */
 827:Generated_Source\PSoC6\pdl\drivers/peripheral/scb/cy_scb_uart.h **** 
 828:Generated_Source\PSoC6\pdl\drivers/peripheral/scb/cy_scb_uart.h **** /** The number of entries in the TX FIFO is less than the TX FIFO trigger level
 829:Generated_Source\PSoC6\pdl\drivers/peripheral/scb/cy_scb_uart.h **** * value
 830:Generated_Source\PSoC6\pdl\drivers/peripheral/scb/cy_scb_uart.h **** */
 831:Generated_Source\PSoC6\pdl\drivers/peripheral/scb/cy_scb_uart.h **** #define CY_SCB_UART_TX_TRIGGER     (SCB_INTR_TX_TRIGGER_Msk)
 832:Generated_Source\PSoC6\pdl\drivers/peripheral/scb/cy_scb_uart.h **** 
 833:Generated_Source\PSoC6\pdl\drivers/peripheral/scb/cy_scb_uart.h **** /** The TX FIFO is not full, there is a space for more data */
 834:Generated_Source\PSoC6\pdl\drivers/peripheral/scb/cy_scb_uart.h **** #define CY_SCB_UART_TX_NOT_FULL    (SCB_INTR_TX_NOT_FULL_Msk)
 835:Generated_Source\PSoC6\pdl\drivers/peripheral/scb/cy_scb_uart.h **** 
 836:Generated_Source\PSoC6\pdl\drivers/peripheral/scb/cy_scb_uart.h **** /** The TX FIFO is empty, note there may still be data in the shift register.*/
 837:Generated_Source\PSoC6\pdl\drivers/peripheral/scb/cy_scb_uart.h **** #define CY_SCB_UART_TX_EMPTY       (SCB_INTR_TX_EMPTY_Msk)
 838:Generated_Source\PSoC6\pdl\drivers/peripheral/scb/cy_scb_uart.h **** 
 839:Generated_Source\PSoC6\pdl\drivers/peripheral/scb/cy_scb_uart.h **** /** An attempt to write to the full TX FIFO */
 840:Generated_Source\PSoC6\pdl\drivers/peripheral/scb/cy_scb_uart.h **** #define CY_SCB_UART_TX_OVERFLOW    (SCB_INTR_TX_OVERFLOW_Msk)
 841:Generated_Source\PSoC6\pdl\drivers/peripheral/scb/cy_scb_uart.h **** 
 842:Generated_Source\PSoC6\pdl\drivers/peripheral/scb/cy_scb_uart.h **** /** An attempt to read from an empty transmitter FIFO (hardware reads). */
 843:Generated_Source\PSoC6\pdl\drivers/peripheral/scb/cy_scb_uart.h **** #define CY_SCB_UART_TX_UNDERFLOW (SCB_INTR_TX_UNDERFLOW_Msk)
 844:Generated_Source\PSoC6\pdl\drivers/peripheral/scb/cy_scb_uart.h **** 
 845:Generated_Source\PSoC6\pdl\drivers/peripheral/scb/cy_scb_uart.h **** /** All data has been transmitted out of the FIFO, including shifter */
 846:Generated_Source\PSoC6\pdl\drivers/peripheral/scb/cy_scb_uart.h **** #define CY_SCB_UART_TX_DONE        (SCB_INTR_TX_UART_DONE_Msk)
 847:Generated_Source\PSoC6\pdl\drivers/peripheral/scb/cy_scb_uart.h **** 
 848:Generated_Source\PSoC6\pdl\drivers/peripheral/scb/cy_scb_uart.h **** /** SmartCard only: the transmitter received a NACK */
 849:Generated_Source\PSoC6\pdl\drivers/peripheral/scb/cy_scb_uart.h **** #define CY_SCB_UART_TX_NACK        (SCB_INTR_TX_UART_NACK_Msk)
 850:Generated_Source\PSoC6\pdl\drivers/peripheral/scb/cy_scb_uart.h **** 
 851:Generated_Source\PSoC6\pdl\drivers/peripheral/scb/cy_scb_uart.h **** /** SmartCard only: the transmitter lost arbitration */
 852:Generated_Source\PSoC6\pdl\drivers/peripheral/scb/cy_scb_uart.h **** #define CY_SCB_UART_TX_ARB_LOST    (SCB_INTR_TX_UART_ARB_LOST_Msk)
 853:Generated_Source\PSoC6\pdl\drivers/peripheral/scb/cy_scb_uart.h **** /** \} group_scb_uart_macros_tx_fifo_status */
 854:Generated_Source\PSoC6\pdl\drivers/peripheral/scb/cy_scb_uart.h **** 
 855:Generated_Source\PSoC6\pdl\drivers/peripheral/scb/cy_scb_uart.h **** /**
 856:Generated_Source\PSoC6\pdl\drivers/peripheral/scb/cy_scb_uart.h **** * \defgroup group_scb_uart_macros_receive_status UART Receive Statuses
 857:Generated_Source\PSoC6\pdl\drivers/peripheral/scb/cy_scb_uart.h **** * \{
 858:Generated_Source\PSoC6\pdl\drivers/peripheral/scb/cy_scb_uart.h **** * Macros to check current UART receive status returned by
 859:Generated_Source\PSoC6\pdl\drivers/peripheral/scb/cy_scb_uart.h **** * \ref Cy_SCB_UART_GetReceiveStatus function.
 860:Generated_Source\PSoC6\pdl\drivers/peripheral/scb/cy_scb_uart.h **** * Each UART receive status is encoded in a separate bit, therefore multiple bits
 861:Generated_Source\PSoC6\pdl\drivers/peripheral/scb/cy_scb_uart.h **** * may be set to indicate the current status.
 862:Generated_Source\PSoC6\pdl\drivers/peripheral/scb/cy_scb_uart.h **** */
 863:Generated_Source\PSoC6\pdl\drivers/peripheral/scb/cy_scb_uart.h **** /** The receive operation started by \ref Cy_SCB_UART_Receive is in progress */
 864:Generated_Source\PSoC6\pdl\drivers/peripheral/scb/cy_scb_uart.h **** #define CY_SCB_UART_RECEIVE_ACTIVE         (0x01UL)
 865:Generated_Source\PSoC6\pdl\drivers/peripheral/scb/cy_scb_uart.h **** 
 866:Generated_Source\PSoC6\pdl\drivers/peripheral/scb/cy_scb_uart.h **** /**
 867:Generated_Source\PSoC6\pdl\drivers/peripheral/scb/cy_scb_uart.h **** * The hardware RX FIFO was full and there was an attempt to write to it.
ARM GAS  C:\Users\Angel\AppData\Local\Temp\ccvqOPgy.s 			page 91


 868:Generated_Source\PSoC6\pdl\drivers/peripheral/scb/cy_scb_uart.h **** * That additional data was dropped.
 869:Generated_Source\PSoC6\pdl\drivers/peripheral/scb/cy_scb_uart.h **** */
 870:Generated_Source\PSoC6\pdl\drivers/peripheral/scb/cy_scb_uart.h **** #define CY_SCB_UART_RECEIVE_OVERFLOW       (SCB_INTR_RX_OVERFLOW_Msk)
 871:Generated_Source\PSoC6\pdl\drivers/peripheral/scb/cy_scb_uart.h **** 
 872:Generated_Source\PSoC6\pdl\drivers/peripheral/scb/cy_scb_uart.h **** /** The receive hardware detected a frame error, either a start or
 873:Generated_Source\PSoC6\pdl\drivers/peripheral/scb/cy_scb_uart.h **** * stop bit error
 874:Generated_Source\PSoC6\pdl\drivers/peripheral/scb/cy_scb_uart.h **** */
 875:Generated_Source\PSoC6\pdl\drivers/peripheral/scb/cy_scb_uart.h **** #define CY_SCB_UART_RECEIVE_ERR_FRAME      (SCB_INTR_RX_FRAME_ERROR_Msk)
 876:Generated_Source\PSoC6\pdl\drivers/peripheral/scb/cy_scb_uart.h **** 
 877:Generated_Source\PSoC6\pdl\drivers/peripheral/scb/cy_scb_uart.h **** /** The receive hardware detected a parity error */
 878:Generated_Source\PSoC6\pdl\drivers/peripheral/scb/cy_scb_uart.h **** #define CY_SCB_UART_RECEIVE_ERR_PARITY     (SCB_INTR_RX_PARITY_ERROR_Msk)
 879:Generated_Source\PSoC6\pdl\drivers/peripheral/scb/cy_scb_uart.h **** 
 880:Generated_Source\PSoC6\pdl\drivers/peripheral/scb/cy_scb_uart.h **** /** The receive hardware detected a break transmission from transmitter */
 881:Generated_Source\PSoC6\pdl\drivers/peripheral/scb/cy_scb_uart.h **** #define CY_SCB_UART_RECEIVE_BREAK_DETECT   (SCB_INTR_RX_BREAK_DETECT_Msk)
 882:Generated_Source\PSoC6\pdl\drivers/peripheral/scb/cy_scb_uart.h **** /** \} group_scb_uart_macros_receive_status */
 883:Generated_Source\PSoC6\pdl\drivers/peripheral/scb/cy_scb_uart.h **** 
 884:Generated_Source\PSoC6\pdl\drivers/peripheral/scb/cy_scb_uart.h **** /**
 885:Generated_Source\PSoC6\pdl\drivers/peripheral/scb/cy_scb_uart.h **** * \defgroup group_scb_uart_macros_transmit_status UART Transmit Status
 886:Generated_Source\PSoC6\pdl\drivers/peripheral/scb/cy_scb_uart.h **** * \{
 887:Generated_Source\PSoC6\pdl\drivers/peripheral/scb/cy_scb_uart.h **** * Macros to check current UART transmit status returned by
 888:Generated_Source\PSoC6\pdl\drivers/peripheral/scb/cy_scb_uart.h **** * \ref Cy_SCB_UART_GetTransmitStatus function.
 889:Generated_Source\PSoC6\pdl\drivers/peripheral/scb/cy_scb_uart.h **** * Each UART transmit status is encoded in a separate bit, therefore multiple bits
 890:Generated_Source\PSoC6\pdl\drivers/peripheral/scb/cy_scb_uart.h **** * may be set to indicate the current status.
 891:Generated_Source\PSoC6\pdl\drivers/peripheral/scb/cy_scb_uart.h **** */
 892:Generated_Source\PSoC6\pdl\drivers/peripheral/scb/cy_scb_uart.h **** 
 893:Generated_Source\PSoC6\pdl\drivers/peripheral/scb/cy_scb_uart.h **** /** The transmit operation started by \ref Cy_SCB_UART_Transmit is in progress */
 894:Generated_Source\PSoC6\pdl\drivers/peripheral/scb/cy_scb_uart.h **** #define CY_SCB_UART_TRANSMIT_ACTIVE    (0x01UL)
 895:Generated_Source\PSoC6\pdl\drivers/peripheral/scb/cy_scb_uart.h **** 
 896:Generated_Source\PSoC6\pdl\drivers/peripheral/scb/cy_scb_uart.h **** /**
 897:Generated_Source\PSoC6\pdl\drivers/peripheral/scb/cy_scb_uart.h **** * All data elements specified by \ref Cy_SCB_UART_Transmit have been loaded
 898:Generated_Source\PSoC6\pdl\drivers/peripheral/scb/cy_scb_uart.h **** * into the TX FIFO
 899:Generated_Source\PSoC6\pdl\drivers/peripheral/scb/cy_scb_uart.h **** */
 900:Generated_Source\PSoC6\pdl\drivers/peripheral/scb/cy_scb_uart.h **** #define CY_SCB_UART_TRANSMIT_IN_FIFO   (0x02UL)
 901:Generated_Source\PSoC6\pdl\drivers/peripheral/scb/cy_scb_uart.h **** 
 902:Generated_Source\PSoC6\pdl\drivers/peripheral/scb/cy_scb_uart.h **** /** SmartCard only: the transmitter received a NACK */
 903:Generated_Source\PSoC6\pdl\drivers/peripheral/scb/cy_scb_uart.h **** #define CY_SCB_UART_TRANSMIT_NACK      (SCB_INTR_TX_UART_NACK_Msk)
 904:Generated_Source\PSoC6\pdl\drivers/peripheral/scb/cy_scb_uart.h **** 
 905:Generated_Source\PSoC6\pdl\drivers/peripheral/scb/cy_scb_uart.h **** /** SmartCard only: the transmitter lost arbitration */
 906:Generated_Source\PSoC6\pdl\drivers/peripheral/scb/cy_scb_uart.h **** #define CY_SCB_UART_TRANSMIT_ARB_LOST  (SCB_INTR_TX_UART_ARB_LOST_Msk)
 907:Generated_Source\PSoC6\pdl\drivers/peripheral/scb/cy_scb_uart.h **** /** \} group_scb_uart_macros_transmit_status */
 908:Generated_Source\PSoC6\pdl\drivers/peripheral/scb/cy_scb_uart.h **** 
 909:Generated_Source\PSoC6\pdl\drivers/peripheral/scb/cy_scb_uart.h **** /**
 910:Generated_Source\PSoC6\pdl\drivers/peripheral/scb/cy_scb_uart.h **** * \defgroup group_scb_uart_macros_callback_events UART Callback Events
 911:Generated_Source\PSoC6\pdl\drivers/peripheral/scb/cy_scb_uart.h **** * \{
 912:Generated_Source\PSoC6\pdl\drivers/peripheral/scb/cy_scb_uart.h **** * Macros to check UART events passed by \ref cy_cb_scb_uart_handle_events_t callback.
 913:Generated_Source\PSoC6\pdl\drivers/peripheral/scb/cy_scb_uart.h **** * Note that only single event is notified by the callback when it is called.
 914:Generated_Source\PSoC6\pdl\drivers/peripheral/scb/cy_scb_uart.h **** */
 915:Generated_Source\PSoC6\pdl\drivers/peripheral/scb/cy_scb_uart.h **** 
 916:Generated_Source\PSoC6\pdl\drivers/peripheral/scb/cy_scb_uart.h **** /**
 917:Generated_Source\PSoC6\pdl\drivers/peripheral/scb/cy_scb_uart.h **** * All data elements specified by \ref Cy_SCB_UART_Transmit have been loaded
 918:Generated_Source\PSoC6\pdl\drivers/peripheral/scb/cy_scb_uart.h **** * into the TX FIFO
 919:Generated_Source\PSoC6\pdl\drivers/peripheral/scb/cy_scb_uart.h **** */
 920:Generated_Source\PSoC6\pdl\drivers/peripheral/scb/cy_scb_uart.h **** #define CY_SCB_UART_TRANSMIT_IN_FIFO_EVENT (0x01UL)
 921:Generated_Source\PSoC6\pdl\drivers/peripheral/scb/cy_scb_uart.h **** 
 922:Generated_Source\PSoC6\pdl\drivers/peripheral/scb/cy_scb_uart.h **** /** The transmit operation started by \ref Cy_SCB_UART_Transmit is complete */
 923:Generated_Source\PSoC6\pdl\drivers/peripheral/scb/cy_scb_uart.h **** #define CY_SCB_UART_TRANSMIT_DONE_EVENT    (0x02UL)
 924:Generated_Source\PSoC6\pdl\drivers/peripheral/scb/cy_scb_uart.h **** 
ARM GAS  C:\Users\Angel\AppData\Local\Temp\ccvqOPgy.s 			page 92


 925:Generated_Source\PSoC6\pdl\drivers/peripheral/scb/cy_scb_uart.h **** /** The receive operation started by \ref Cy_SCB_UART_Receive is complete */
 926:Generated_Source\PSoC6\pdl\drivers/peripheral/scb/cy_scb_uart.h **** #define CY_SCB_UART_RECEIVE_DONE_EVENT     (0x04UL)
 927:Generated_Source\PSoC6\pdl\drivers/peripheral/scb/cy_scb_uart.h **** 
 928:Generated_Source\PSoC6\pdl\drivers/peripheral/scb/cy_scb_uart.h **** /**
 929:Generated_Source\PSoC6\pdl\drivers/peripheral/scb/cy_scb_uart.h **** * The ring buffer is full, there is no more space for additional data.
 930:Generated_Source\PSoC6\pdl\drivers/peripheral/scb/cy_scb_uart.h **** * Additional data is stored in the RX FIFO until it becomes full, at which
 931:Generated_Source\PSoC6\pdl\drivers/peripheral/scb/cy_scb_uart.h **** * point data is dropped.
 932:Generated_Source\PSoC6\pdl\drivers/peripheral/scb/cy_scb_uart.h **** */
 933:Generated_Source\PSoC6\pdl\drivers/peripheral/scb/cy_scb_uart.h **** #define CY_SCB_UART_RB_FULL_EVENT          (0x08UL)
 934:Generated_Source\PSoC6\pdl\drivers/peripheral/scb/cy_scb_uart.h **** 
 935:Generated_Source\PSoC6\pdl\drivers/peripheral/scb/cy_scb_uart.h **** /**
 936:Generated_Source\PSoC6\pdl\drivers/peripheral/scb/cy_scb_uart.h **** * An error was detected during the receive operation. This includes overflow,
 937:Generated_Source\PSoC6\pdl\drivers/peripheral/scb/cy_scb_uart.h **** * frame error, or parity error. Check \ref Cy_SCB_UART_GetReceiveStatus to
 938:Generated_Source\PSoC6\pdl\drivers/peripheral/scb/cy_scb_uart.h **** * determine the source of the error.
 939:Generated_Source\PSoC6\pdl\drivers/peripheral/scb/cy_scb_uart.h **** */
 940:Generated_Source\PSoC6\pdl\drivers/peripheral/scb/cy_scb_uart.h **** #define CY_SCB_UART_RECEIVE_ERR_EVENT      (0x10UL)
 941:Generated_Source\PSoC6\pdl\drivers/peripheral/scb/cy_scb_uart.h **** 
 942:Generated_Source\PSoC6\pdl\drivers/peripheral/scb/cy_scb_uart.h **** /**
 943:Generated_Source\PSoC6\pdl\drivers/peripheral/scb/cy_scb_uart.h **** * An error was detected during the transmit operation. This includes a NACK
 944:Generated_Source\PSoC6\pdl\drivers/peripheral/scb/cy_scb_uart.h **** * or lost arbitration. Check \ref Cy_SCB_UART_GetTransmitStatus to determine
 945:Generated_Source\PSoC6\pdl\drivers/peripheral/scb/cy_scb_uart.h **** * the source of the error
 946:Generated_Source\PSoC6\pdl\drivers/peripheral/scb/cy_scb_uart.h **** */
 947:Generated_Source\PSoC6\pdl\drivers/peripheral/scb/cy_scb_uart.h **** #define CY_SCB_UART_TRANSMIT_ERR_EVENT     (0x20UL)
 948:Generated_Source\PSoC6\pdl\drivers/peripheral/scb/cy_scb_uart.h **** /** \} group_scb_uart_macros_callback_events */
 949:Generated_Source\PSoC6\pdl\drivers/peripheral/scb/cy_scb_uart.h **** 
 950:Generated_Source\PSoC6\pdl\drivers/peripheral/scb/cy_scb_uart.h **** /** Data returned by the hardware when an empty RX FIFO is read */
 951:Generated_Source\PSoC6\pdl\drivers/peripheral/scb/cy_scb_uart.h **** #define CY_SCB_UART_RX_NO_DATA         (0xFFFFFFFFUL)
 952:Generated_Source\PSoC6\pdl\drivers/peripheral/scb/cy_scb_uart.h **** 
 953:Generated_Source\PSoC6\pdl\drivers/peripheral/scb/cy_scb_uart.h **** 
 954:Generated_Source\PSoC6\pdl\drivers/peripheral/scb/cy_scb_uart.h **** /*******************************************************************************
 955:Generated_Source\PSoC6\pdl\drivers/peripheral/scb/cy_scb_uart.h **** *                            Internal Constants
 956:Generated_Source\PSoC6\pdl\drivers/peripheral/scb/cy_scb_uart.h **** *******************************************************************************/
 957:Generated_Source\PSoC6\pdl\drivers/peripheral/scb/cy_scb_uart.h **** 
 958:Generated_Source\PSoC6\pdl\drivers/peripheral/scb/cy_scb_uart.h **** /** \cond INTERNAL */
 959:Generated_Source\PSoC6\pdl\drivers/peripheral/scb/cy_scb_uart.h **** #define CY_SCB_UART_TX_INTR_MASK    (CY_SCB_UART_TX_TRIGGER  | CY_SCB_UART_TX_NOT_FULL  | CY_SCB_UA
 960:Generated_Source\PSoC6\pdl\drivers/peripheral/scb/cy_scb_uart.h ****                                      CY_SCB_UART_TX_OVERFLOW | CY_SCB_UART_TX_UNDERFLOW | CY_SCB_UA
 961:Generated_Source\PSoC6\pdl\drivers/peripheral/scb/cy_scb_uart.h ****                                      CY_SCB_UART_TX_NACK     | CY_SCB_UART_TX_ARB_LOST)
 962:Generated_Source\PSoC6\pdl\drivers/peripheral/scb/cy_scb_uart.h **** 
 963:Generated_Source\PSoC6\pdl\drivers/peripheral/scb/cy_scb_uart.h **** #define CY_SCB_UART_RX_INTR_MASK    (CY_SCB_UART_RX_TRIGGER    | CY_SCB_UART_RX_NOT_EMPTY | CY_SCB_
 964:Generated_Source\PSoC6\pdl\drivers/peripheral/scb/cy_scb_uart.h ****                                      CY_SCB_UART_RX_OVERFLOW   | CY_SCB_UART_RX_UNDERFLOW | CY_SCB_
 965:Generated_Source\PSoC6\pdl\drivers/peripheral/scb/cy_scb_uart.h ****                                      CY_SCB_UART_RX_ERR_PARITY | CY_SCB_UART_RX_BREAK_DETECT)
 966:Generated_Source\PSoC6\pdl\drivers/peripheral/scb/cy_scb_uart.h **** 
 967:Generated_Source\PSoC6\pdl\drivers/peripheral/scb/cy_scb_uart.h **** #define CY_SCB_UART_TX_INTR        (CY_SCB_TX_INTR_LEVEL | CY_SCB_TX_INTR_UART_NACK | CY_SCB_TX_INT
 968:Generated_Source\PSoC6\pdl\drivers/peripheral/scb/cy_scb_uart.h **** 
 969:Generated_Source\PSoC6\pdl\drivers/peripheral/scb/cy_scb_uart.h **** #define CY_SCB_UART_RX_INTR        (CY_SCB_RX_INTR_LEVEL | CY_SCB_RX_INTR_OVERFLOW | CY_SCB_RX_INTR
 970:Generated_Source\PSoC6\pdl\drivers/peripheral/scb/cy_scb_uart.h ****                                     CY_SCB_RX_INTR_UART_PARITY_ERROR | CY_SCB_RX_INTR_UART_BREAK_DE
 971:Generated_Source\PSoC6\pdl\drivers/peripheral/scb/cy_scb_uart.h **** 
 972:Generated_Source\PSoC6\pdl\drivers/peripheral/scb/cy_scb_uart.h **** #define CY_SCB_UART_RECEIVE_ERR    (CY_SCB_RX_INTR_OVERFLOW | CY_SCB_RX_INTR_UART_FRAME_ERROR | \
 973:Generated_Source\PSoC6\pdl\drivers/peripheral/scb/cy_scb_uart.h ****                                     CY_SCB_RX_INTR_UART_PARITY_ERROR)
 974:Generated_Source\PSoC6\pdl\drivers/peripheral/scb/cy_scb_uart.h **** 
 975:Generated_Source\PSoC6\pdl\drivers/peripheral/scb/cy_scb_uart.h **** #define CY_SCB_UART_TRANSMIT_ERR   (CY_SCB_TX_INTR_UART_NACK | CY_SCB_TX_INTR_UART_ARB_LOST)
 976:Generated_Source\PSoC6\pdl\drivers/peripheral/scb/cy_scb_uart.h **** 
 977:Generated_Source\PSoC6\pdl\drivers/peripheral/scb/cy_scb_uart.h **** #define CY_SCB_UART_INIT_KEY       (0x00ABCDEFUL)
 978:Generated_Source\PSoC6\pdl\drivers/peripheral/scb/cy_scb_uart.h **** 
 979:Generated_Source\PSoC6\pdl\drivers/peripheral/scb/cy_scb_uart.h **** #define CY_SCB_UART_IS_MODE_VALID(mode)     ( (CY_SCB_UART_STANDARD  == (mode)) || \
 980:Generated_Source\PSoC6\pdl\drivers/peripheral/scb/cy_scb_uart.h ****                                               (CY_SCB_UART_SMARTCARD == (mode)) || \
 981:Generated_Source\PSoC6\pdl\drivers/peripheral/scb/cy_scb_uart.h ****                                               (CY_SCB_UART_IRDA      == (mode)) )
ARM GAS  C:\Users\Angel\AppData\Local\Temp\ccvqOPgy.s 			page 93


 982:Generated_Source\PSoC6\pdl\drivers/peripheral/scb/cy_scb_uart.h **** 
 983:Generated_Source\PSoC6\pdl\drivers/peripheral/scb/cy_scb_uart.h **** #define CY_SCB_UART_IS_STOP_BITS_VALID(stopBits)    ( (CY_SCB_UART_STOP_BITS_1   == (stopBits)) || 
 984:Generated_Source\PSoC6\pdl\drivers/peripheral/scb/cy_scb_uart.h ****                                                       (CY_SCB_UART_STOP_BITS_1_5 == (stopBits)) || 
 985:Generated_Source\PSoC6\pdl\drivers/peripheral/scb/cy_scb_uart.h ****                                                       (CY_SCB_UART_STOP_BITS_2   == (stopBits)) || 
 986:Generated_Source\PSoC6\pdl\drivers/peripheral/scb/cy_scb_uart.h ****                                                       (CY_SCB_UART_STOP_BITS_2_5 == (stopBits)) || 
 987:Generated_Source\PSoC6\pdl\drivers/peripheral/scb/cy_scb_uart.h ****                                                       (CY_SCB_UART_STOP_BITS_3   == (stopBits)) || 
 988:Generated_Source\PSoC6\pdl\drivers/peripheral/scb/cy_scb_uart.h ****                                                       (CY_SCB_UART_STOP_BITS_3_5 == (stopBits)) || 
 989:Generated_Source\PSoC6\pdl\drivers/peripheral/scb/cy_scb_uart.h ****                                                       (CY_SCB_UART_STOP_BITS_4   == (stopBits)) )
 990:Generated_Source\PSoC6\pdl\drivers/peripheral/scb/cy_scb_uart.h **** 
 991:Generated_Source\PSoC6\pdl\drivers/peripheral/scb/cy_scb_uart.h **** #define CY_SCB_UART_IS_PARITY_VALID(parity)         ( (CY_SCB_UART_PARITY_NONE == (parity)) || \
 992:Generated_Source\PSoC6\pdl\drivers/peripheral/scb/cy_scb_uart.h ****                                                       (CY_SCB_UART_PARITY_EVEN == (parity)) || \
 993:Generated_Source\PSoC6\pdl\drivers/peripheral/scb/cy_scb_uart.h ****                                                       (CY_SCB_UART_PARITY_ODD  == (parity)) )
 994:Generated_Source\PSoC6\pdl\drivers/peripheral/scb/cy_scb_uart.h **** 
 995:Generated_Source\PSoC6\pdl\drivers/peripheral/scb/cy_scb_uart.h **** #define CY_SCB_UART_IS_POLARITY_VALID(polarity)     ( (CY_SCB_UART_ACTIVE_LOW  == (polarity)) || \
 996:Generated_Source\PSoC6\pdl\drivers/peripheral/scb/cy_scb_uart.h ****                                                       (CY_SCB_UART_ACTIVE_HIGH == (polarity)) )
 997:Generated_Source\PSoC6\pdl\drivers/peripheral/scb/cy_scb_uart.h **** 
 998:Generated_Source\PSoC6\pdl\drivers/peripheral/scb/cy_scb_uart.h **** #define CY_SCB_UART_IS_IRDA_LP_OVS_VALID(ovs)       ( (CY_SCB_UART_IRDA_LP_OVS16   == (ovs)) || \
 999:Generated_Source\PSoC6\pdl\drivers/peripheral/scb/cy_scb_uart.h ****                                                       (CY_SCB_UART_IRDA_LP_OVS32   == (ovs)) || \
1000:Generated_Source\PSoC6\pdl\drivers/peripheral/scb/cy_scb_uart.h ****                                                       (CY_SCB_UART_IRDA_LP_OVS48   == (ovs)) || \
1001:Generated_Source\PSoC6\pdl\drivers/peripheral/scb/cy_scb_uart.h ****                                                       (CY_SCB_UART_IRDA_LP_OVS96   == (ovs)) || \
1002:Generated_Source\PSoC6\pdl\drivers/peripheral/scb/cy_scb_uart.h ****                                                       (CY_SCB_UART_IRDA_LP_OVS192  == (ovs)) || \
1003:Generated_Source\PSoC6\pdl\drivers/peripheral/scb/cy_scb_uart.h ****                                                       (CY_SCB_UART_IRDA_LP_OVS768  == (ovs)) || \
1004:Generated_Source\PSoC6\pdl\drivers/peripheral/scb/cy_scb_uart.h ****                                                       (CY_SCB_UART_IRDA_LP_OVS1536 == (ovs)) )
1005:Generated_Source\PSoC6\pdl\drivers/peripheral/scb/cy_scb_uart.h **** 
1006:Generated_Source\PSoC6\pdl\drivers/peripheral/scb/cy_scb_uart.h **** #define CY_SCB_UART_IS_ADDRESS_VALID(addr)          ((addr) <= 0xFFUL)
1007:Generated_Source\PSoC6\pdl\drivers/peripheral/scb/cy_scb_uart.h **** #define CY_SCB_UART_IS_ADDRESS_MASK_VALID(mask)     ((mask) <= 0xFFUL)
1008:Generated_Source\PSoC6\pdl\drivers/peripheral/scb/cy_scb_uart.h **** #define CY_SCB_UART_IS_DATA_WIDTH_VALID(width)      ( ((width) >= 5UL) && ((width) <= 9UL) )
1009:Generated_Source\PSoC6\pdl\drivers/peripheral/scb/cy_scb_uart.h **** #define CY_SCB_UART_IS_OVERSAMPLE_VALID(ovs, mode, lpRx)    ( ((CY_SCB_UART_STANDARD  == (mode)) ||
1010:Generated_Source\PSoC6\pdl\drivers/peripheral/scb/cy_scb_uart.h ****                                                               (((ovs) >= 8UL) && ((ovs) <= 16UL)) :
1011:Generated_Source\PSoC6\pdl\drivers/peripheral/scb/cy_scb_uart.h ****                                                               ((lpRx) ? CY_SCB_UART_IS_IRDA_LP_OVS_
1012:Generated_Source\PSoC6\pdl\drivers/peripheral/scb/cy_scb_uart.h **** 
1013:Generated_Source\PSoC6\pdl\drivers/peripheral/scb/cy_scb_uart.h **** #define CY_SCB_UART_IS_RX_BREAK_WIDTH_VALID(base, width)    ( ((width) >= (_FLD2VAL(SCB_RX_CTRL_DAT
1014:Generated_Source\PSoC6\pdl\drivers/peripheral/scb/cy_scb_uart.h ****                                                               ((width) <= 16UL) )
1015:Generated_Source\PSoC6\pdl\drivers/peripheral/scb/cy_scb_uart.h **** #define CY_SCB_UART_IS_TX_BREAK_WIDTH_VALID(width)          ( ((width) >= 4UL) && ((width) <= 16UL)
1016:Generated_Source\PSoC6\pdl\drivers/peripheral/scb/cy_scb_uart.h **** 
1017:Generated_Source\PSoC6\pdl\drivers/peripheral/scb/cy_scb_uart.h **** #define CY_SCB_UART_IS_MUTLI_PROC_VALID(mp, mode, width, parity)    ( (mp) ? ((CY_SCB_UART_STANDARD
1018:Generated_Source\PSoC6\pdl\drivers/peripheral/scb/cy_scb_uart.h ****                                                                               (CY_SCB_UART_PARITY_N
1019:Generated_Source\PSoC6\pdl\drivers/peripheral/scb/cy_scb_uart.h **** /** \endcond */
1020:Generated_Source\PSoC6\pdl\drivers/peripheral/scb/cy_scb_uart.h **** 
1021:Generated_Source\PSoC6\pdl\drivers/peripheral/scb/cy_scb_uart.h **** /** \} group_scb_uart_macros */
1022:Generated_Source\PSoC6\pdl\drivers/peripheral/scb/cy_scb_uart.h **** 
1023:Generated_Source\PSoC6\pdl\drivers/peripheral/scb/cy_scb_uart.h **** 
1024:Generated_Source\PSoC6\pdl\drivers/peripheral/scb/cy_scb_uart.h **** /*******************************************************************************
1025:Generated_Source\PSoC6\pdl\drivers/peripheral/scb/cy_scb_uart.h **** *                    In-line Function Implementation
1026:Generated_Source\PSoC6\pdl\drivers/peripheral/scb/cy_scb_uart.h **** *******************************************************************************/
1027:Generated_Source\PSoC6\pdl\drivers/peripheral/scb/cy_scb_uart.h **** 
1028:Generated_Source\PSoC6\pdl\drivers/peripheral/scb/cy_scb_uart.h **** /**
1029:Generated_Source\PSoC6\pdl\drivers/peripheral/scb/cy_scb_uart.h **** * \addtogroup group_scb_uart_general_functions
1030:Generated_Source\PSoC6\pdl\drivers/peripheral/scb/cy_scb_uart.h **** * \{
1031:Generated_Source\PSoC6\pdl\drivers/peripheral/scb/cy_scb_uart.h **** */
1032:Generated_Source\PSoC6\pdl\drivers/peripheral/scb/cy_scb_uart.h **** 
1033:Generated_Source\PSoC6\pdl\drivers/peripheral/scb/cy_scb_uart.h **** /*******************************************************************************
1034:Generated_Source\PSoC6\pdl\drivers/peripheral/scb/cy_scb_uart.h **** * Function Name: Cy_SCB_UART_Enable
1035:Generated_Source\PSoC6\pdl\drivers/peripheral/scb/cy_scb_uart.h **** ****************************************************************************//**
1036:Generated_Source\PSoC6\pdl\drivers/peripheral/scb/cy_scb_uart.h **** *
1037:Generated_Source\PSoC6\pdl\drivers/peripheral/scb/cy_scb_uart.h **** * Enables the SCB block for the UART operation.
1038:Generated_Source\PSoC6\pdl\drivers/peripheral/scb/cy_scb_uart.h **** *
ARM GAS  C:\Users\Angel\AppData\Local\Temp\ccvqOPgy.s 			page 94


1039:Generated_Source\PSoC6\pdl\drivers/peripheral/scb/cy_scb_uart.h **** * \param base
1040:Generated_Source\PSoC6\pdl\drivers/peripheral/scb/cy_scb_uart.h **** * The pointer to the UART SCB instance.
1041:Generated_Source\PSoC6\pdl\drivers/peripheral/scb/cy_scb_uart.h **** *
1042:Generated_Source\PSoC6\pdl\drivers/peripheral/scb/cy_scb_uart.h **** *******************************************************************************/
1043:Generated_Source\PSoC6\pdl\drivers/peripheral/scb/cy_scb_uart.h **** __STATIC_INLINE void Cy_SCB_UART_Enable(CySCB_Type *base)
1044:Generated_Source\PSoC6\pdl\drivers/peripheral/scb/cy_scb_uart.h **** {
1045:Generated_Source\PSoC6\pdl\drivers/peripheral/scb/cy_scb_uart.h ****     SCB_CTRL(base) |= SCB_CTRL_ENABLED_Msk;
1046:Generated_Source\PSoC6\pdl\drivers/peripheral/scb/cy_scb_uart.h **** }
1047:Generated_Source\PSoC6\pdl\drivers/peripheral/scb/cy_scb_uart.h **** 
1048:Generated_Source\PSoC6\pdl\drivers/peripheral/scb/cy_scb_uart.h **** 
1049:Generated_Source\PSoC6\pdl\drivers/peripheral/scb/cy_scb_uart.h **** /*******************************************************************************
1050:Generated_Source\PSoC6\pdl\drivers/peripheral/scb/cy_scb_uart.h **** * Function Name: Cy_SCB_UART_EnableCts
1051:Generated_Source\PSoC6\pdl\drivers/peripheral/scb/cy_scb_uart.h **** ****************************************************************************//**
1052:Generated_Source\PSoC6\pdl\drivers/peripheral/scb/cy_scb_uart.h **** *
1053:Generated_Source\PSoC6\pdl\drivers/peripheral/scb/cy_scb_uart.h **** * Enables the Clear to Send (CTS) input for the UART. The UART will not transmit
1054:Generated_Source\PSoC6\pdl\drivers/peripheral/scb/cy_scb_uart.h **** * data while this signal is inactive.
1055:Generated_Source\PSoC6\pdl\drivers/peripheral/scb/cy_scb_uart.h **** *
1056:Generated_Source\PSoC6\pdl\drivers/peripheral/scb/cy_scb_uart.h **** * \param base
1057:Generated_Source\PSoC6\pdl\drivers/peripheral/scb/cy_scb_uart.h **** * The pointer to the UART SCB instance.
1058:Generated_Source\PSoC6\pdl\drivers/peripheral/scb/cy_scb_uart.h **** *
1059:Generated_Source\PSoC6\pdl\drivers/peripheral/scb/cy_scb_uart.h **** *******************************************************************************/
1060:Generated_Source\PSoC6\pdl\drivers/peripheral/scb/cy_scb_uart.h **** __STATIC_INLINE void Cy_SCB_UART_EnableCts(CySCB_Type *base)
1061:Generated_Source\PSoC6\pdl\drivers/peripheral/scb/cy_scb_uart.h **** {
1062:Generated_Source\PSoC6\pdl\drivers/peripheral/scb/cy_scb_uart.h ****     SCB_UART_FLOW_CTRL(base) |= SCB_UART_FLOW_CTRL_CTS_ENABLED_Msk;
1063:Generated_Source\PSoC6\pdl\drivers/peripheral/scb/cy_scb_uart.h **** }
1064:Generated_Source\PSoC6\pdl\drivers/peripheral/scb/cy_scb_uart.h **** 
1065:Generated_Source\PSoC6\pdl\drivers/peripheral/scb/cy_scb_uart.h **** 
1066:Generated_Source\PSoC6\pdl\drivers/peripheral/scb/cy_scb_uart.h **** /*******************************************************************************
1067:Generated_Source\PSoC6\pdl\drivers/peripheral/scb/cy_scb_uart.h **** * Function Name: Cy_SCB_UART_DisableCts
1068:Generated_Source\PSoC6\pdl\drivers/peripheral/scb/cy_scb_uart.h **** ****************************************************************************//**
1069:Generated_Source\PSoC6\pdl\drivers/peripheral/scb/cy_scb_uart.h **** *
1070:Generated_Source\PSoC6\pdl\drivers/peripheral/scb/cy_scb_uart.h **** * Disables the Clear to Send (CTS) input for the UART.
1071:Generated_Source\PSoC6\pdl\drivers/peripheral/scb/cy_scb_uart.h **** * See \ref Cy_SCB_UART_EnableCts for the details.
1072:Generated_Source\PSoC6\pdl\drivers/peripheral/scb/cy_scb_uart.h **** *
1073:Generated_Source\PSoC6\pdl\drivers/peripheral/scb/cy_scb_uart.h **** * \param base
1074:Generated_Source\PSoC6\pdl\drivers/peripheral/scb/cy_scb_uart.h **** * The pointer to the UART SCB instance.
1075:Generated_Source\PSoC6\pdl\drivers/peripheral/scb/cy_scb_uart.h **** *
1076:Generated_Source\PSoC6\pdl\drivers/peripheral/scb/cy_scb_uart.h **** *******************************************************************************/
1077:Generated_Source\PSoC6\pdl\drivers/peripheral/scb/cy_scb_uart.h **** __STATIC_INLINE void Cy_SCB_UART_DisableCts(CySCB_Type *base)
1078:Generated_Source\PSoC6\pdl\drivers/peripheral/scb/cy_scb_uart.h **** {
1079:Generated_Source\PSoC6\pdl\drivers/peripheral/scb/cy_scb_uart.h ****     SCB_UART_FLOW_CTRL(base) &= (uint32_t) ~SCB_UART_FLOW_CTRL_CTS_ENABLED_Msk;
1080:Generated_Source\PSoC6\pdl\drivers/peripheral/scb/cy_scb_uart.h **** }
1081:Generated_Source\PSoC6\pdl\drivers/peripheral/scb/cy_scb_uart.h **** 
1082:Generated_Source\PSoC6\pdl\drivers/peripheral/scb/cy_scb_uart.h **** 
1083:Generated_Source\PSoC6\pdl\drivers/peripheral/scb/cy_scb_uart.h **** /*******************************************************************************
1084:Generated_Source\PSoC6\pdl\drivers/peripheral/scb/cy_scb_uart.h **** * Function Name: Cy_SCB_UART_SetRtsFifoLevel
1085:Generated_Source\PSoC6\pdl\drivers/peripheral/scb/cy_scb_uart.h **** ****************************************************************************//**
1086:Generated_Source\PSoC6\pdl\drivers/peripheral/scb/cy_scb_uart.h **** *
1087:Generated_Source\PSoC6\pdl\drivers/peripheral/scb/cy_scb_uart.h **** * Sets a level for the Ready To Send (RTS) signal activation.
1088:Generated_Source\PSoC6\pdl\drivers/peripheral/scb/cy_scb_uart.h **** * When the number of data elements in the receive FIFO is below this level,
1089:Generated_Source\PSoC6\pdl\drivers/peripheral/scb/cy_scb_uart.h **** * then the RTS output is active. Otherwise, the RTS signal is inactive.
1090:Generated_Source\PSoC6\pdl\drivers/peripheral/scb/cy_scb_uart.h **** * To disable the RTS signal generation, set this level to zero.
1091:Generated_Source\PSoC6\pdl\drivers/peripheral/scb/cy_scb_uart.h **** *
1092:Generated_Source\PSoC6\pdl\drivers/peripheral/scb/cy_scb_uart.h **** * \param base
1093:Generated_Source\PSoC6\pdl\drivers/peripheral/scb/cy_scb_uart.h **** * The pointer to the UART SCB instance.
1094:Generated_Source\PSoC6\pdl\drivers/peripheral/scb/cy_scb_uart.h **** *
1095:Generated_Source\PSoC6\pdl\drivers/peripheral/scb/cy_scb_uart.h **** * \param level
ARM GAS  C:\Users\Angel\AppData\Local\Temp\ccvqOPgy.s 			page 95


1096:Generated_Source\PSoC6\pdl\drivers/peripheral/scb/cy_scb_uart.h **** * The level in the RX FIFO for RTS signal activation.
1097:Generated_Source\PSoC6\pdl\drivers/peripheral/scb/cy_scb_uart.h **** *
1098:Generated_Source\PSoC6\pdl\drivers/peripheral/scb/cy_scb_uart.h **** *******************************************************************************/
1099:Generated_Source\PSoC6\pdl\drivers/peripheral/scb/cy_scb_uart.h **** __STATIC_INLINE void Cy_SCB_UART_SetRtsFifoLevel(CySCB_Type *base, uint32_t level)
1100:Generated_Source\PSoC6\pdl\drivers/peripheral/scb/cy_scb_uart.h **** {
1101:Generated_Source\PSoC6\pdl\drivers/peripheral/scb/cy_scb_uart.h ****     CY_ASSERT_L2(CY_SCB_IS_TRIGGER_LEVEL_VALID(base, level));
1102:Generated_Source\PSoC6\pdl\drivers/peripheral/scb/cy_scb_uart.h **** 
1103:Generated_Source\PSoC6\pdl\drivers/peripheral/scb/cy_scb_uart.h ****     CY_REG32_CLR_SET(SCB_UART_FLOW_CTRL(base), SCB_UART_FLOW_CTRL_TRIGGER_LEVEL, level);
1104:Generated_Source\PSoC6\pdl\drivers/peripheral/scb/cy_scb_uart.h **** }
1105:Generated_Source\PSoC6\pdl\drivers/peripheral/scb/cy_scb_uart.h **** 
1106:Generated_Source\PSoC6\pdl\drivers/peripheral/scb/cy_scb_uart.h **** 
1107:Generated_Source\PSoC6\pdl\drivers/peripheral/scb/cy_scb_uart.h **** /*******************************************************************************
1108:Generated_Source\PSoC6\pdl\drivers/peripheral/scb/cy_scb_uart.h **** * Function Name: Cy_SCB_UART_GetRtsFifoLevel
1109:Generated_Source\PSoC6\pdl\drivers/peripheral/scb/cy_scb_uart.h **** ****************************************************************************//**
1110:Generated_Source\PSoC6\pdl\drivers/peripheral/scb/cy_scb_uart.h **** *
1111:Generated_Source\PSoC6\pdl\drivers/peripheral/scb/cy_scb_uart.h **** * Returns the level in the RX FIFO for the RTS signal activation.
1112:Generated_Source\PSoC6\pdl\drivers/peripheral/scb/cy_scb_uart.h **** *
1113:Generated_Source\PSoC6\pdl\drivers/peripheral/scb/cy_scb_uart.h **** * \param base
1114:Generated_Source\PSoC6\pdl\drivers/peripheral/scb/cy_scb_uart.h **** * The pointer to the UART SCB instance.
1115:Generated_Source\PSoC6\pdl\drivers/peripheral/scb/cy_scb_uart.h **** *
1116:Generated_Source\PSoC6\pdl\drivers/peripheral/scb/cy_scb_uart.h **** * \return
1117:Generated_Source\PSoC6\pdl\drivers/peripheral/scb/cy_scb_uart.h **** * The level in the RX FIFO for RTS signal activation.
1118:Generated_Source\PSoC6\pdl\drivers/peripheral/scb/cy_scb_uart.h **** *
1119:Generated_Source\PSoC6\pdl\drivers/peripheral/scb/cy_scb_uart.h **** *******************************************************************************/
1120:Generated_Source\PSoC6\pdl\drivers/peripheral/scb/cy_scb_uart.h **** __STATIC_INLINE uint32_t Cy_SCB_UART_GetRtsFifoLevel(CySCB_Type const *base)
1121:Generated_Source\PSoC6\pdl\drivers/peripheral/scb/cy_scb_uart.h **** {
1122:Generated_Source\PSoC6\pdl\drivers/peripheral/scb/cy_scb_uart.h ****     return _FLD2VAL(SCB_UART_FLOW_CTRL_TRIGGER_LEVEL, SCB_UART_FLOW_CTRL(base));
1123:Generated_Source\PSoC6\pdl\drivers/peripheral/scb/cy_scb_uart.h **** }
1124:Generated_Source\PSoC6\pdl\drivers/peripheral/scb/cy_scb_uart.h **** 
1125:Generated_Source\PSoC6\pdl\drivers/peripheral/scb/cy_scb_uart.h **** 
1126:Generated_Source\PSoC6\pdl\drivers/peripheral/scb/cy_scb_uart.h **** /*******************************************************************************
1127:Generated_Source\PSoC6\pdl\drivers/peripheral/scb/cy_scb_uart.h **** * Function Name: Cy_SCB_UART_EnableSkipStart
1128:Generated_Source\PSoC6\pdl\drivers/peripheral/scb/cy_scb_uart.h **** ****************************************************************************//**
1129:Generated_Source\PSoC6\pdl\drivers/peripheral/scb/cy_scb_uart.h **** *
1130:Generated_Source\PSoC6\pdl\drivers/peripheral/scb/cy_scb_uart.h **** * Enables the skip start-bit functionality.
1131:Generated_Source\PSoC6\pdl\drivers/peripheral/scb/cy_scb_uart.h **** * When skip start is enabled the UART hardware does not synchronize to a
1132:Generated_Source\PSoC6\pdl\drivers/peripheral/scb/cy_scb_uart.h **** * start bit but synchronizes to the first rising edge. To create a rising edge,
1133:Generated_Source\PSoC6\pdl\drivers/peripheral/scb/cy_scb_uart.h **** * the first data bit must be a 1. This feature is useful when the start bit
1134:Generated_Source\PSoC6\pdl\drivers/peripheral/scb/cy_scb_uart.h **** * falling edge is used to wake the device through a GPIO interrupt.
1135:Generated_Source\PSoC6\pdl\drivers/peripheral/scb/cy_scb_uart.h **** *
1136:Generated_Source\PSoC6\pdl\drivers/peripheral/scb/cy_scb_uart.h **** * \param base
1137:Generated_Source\PSoC6\pdl\drivers/peripheral/scb/cy_scb_uart.h **** * The pointer to the UART SCB instance.
1138:Generated_Source\PSoC6\pdl\drivers/peripheral/scb/cy_scb_uart.h **** *
1139:Generated_Source\PSoC6\pdl\drivers/peripheral/scb/cy_scb_uart.h **** * \note
1140:Generated_Source\PSoC6\pdl\drivers/peripheral/scb/cy_scb_uart.h **** * When skip start-bit feature is enabled, it is applied (UART synchronizes
1141:Generated_Source\PSoC6\pdl\drivers/peripheral/scb/cy_scb_uart.h **** * to the first rising edge after start bit) whenever the SCB is enabled.
1142:Generated_Source\PSoC6\pdl\drivers/peripheral/scb/cy_scb_uart.h **** * This can cause incorrect UART synchronization and data reception when
1143:Generated_Source\PSoC6\pdl\drivers/peripheral/scb/cy_scb_uart.h **** * the first data bit is not a 1. Therefore, disable the skip start-bit
1144:Generated_Source\PSoC6\pdl\drivers/peripheral/scb/cy_scb_uart.h **** * when it should not be applied.
1145:Generated_Source\PSoC6\pdl\drivers/peripheral/scb/cy_scb_uart.h **** * Note that SCB is disabled before enter Deep Sleep mode or after calling
1146:Generated_Source\PSoC6\pdl\drivers/peripheral/scb/cy_scb_uart.h **** * \ref Cy_SCB_UART_Disable.
1147:Generated_Source\PSoC6\pdl\drivers/peripheral/scb/cy_scb_uart.h **** *
1148:Generated_Source\PSoC6\pdl\drivers/peripheral/scb/cy_scb_uart.h **** *******************************************************************************/
1149:Generated_Source\PSoC6\pdl\drivers/peripheral/scb/cy_scb_uart.h **** __STATIC_INLINE void Cy_SCB_UART_EnableSkipStart(CySCB_Type *base)
1150:Generated_Source\PSoC6\pdl\drivers/peripheral/scb/cy_scb_uart.h **** {
1151:Generated_Source\PSoC6\pdl\drivers/peripheral/scb/cy_scb_uart.h ****     SCB_UART_RX_CTRL(base) |= SCB_UART_RX_CTRL_SKIP_START_Msk;
1152:Generated_Source\PSoC6\pdl\drivers/peripheral/scb/cy_scb_uart.h **** }
ARM GAS  C:\Users\Angel\AppData\Local\Temp\ccvqOPgy.s 			page 96


1153:Generated_Source\PSoC6\pdl\drivers/peripheral/scb/cy_scb_uart.h **** 
1154:Generated_Source\PSoC6\pdl\drivers/peripheral/scb/cy_scb_uart.h **** 
1155:Generated_Source\PSoC6\pdl\drivers/peripheral/scb/cy_scb_uart.h **** /*******************************************************************************
1156:Generated_Source\PSoC6\pdl\drivers/peripheral/scb/cy_scb_uart.h **** * Function Name: Cy_SCB_UART_DisableSkipStart
1157:Generated_Source\PSoC6\pdl\drivers/peripheral/scb/cy_scb_uart.h **** ****************************************************************************//**
1158:Generated_Source\PSoC6\pdl\drivers/peripheral/scb/cy_scb_uart.h **** *
1159:Generated_Source\PSoC6\pdl\drivers/peripheral/scb/cy_scb_uart.h **** * Disable the skip start-bit functionality.
1160:Generated_Source\PSoC6\pdl\drivers/peripheral/scb/cy_scb_uart.h **** * See \ref Cy_SCB_UART_EnableSkipStart for the details.
1161:Generated_Source\PSoC6\pdl\drivers/peripheral/scb/cy_scb_uart.h **** *
1162:Generated_Source\PSoC6\pdl\drivers/peripheral/scb/cy_scb_uart.h **** * \param base
1163:Generated_Source\PSoC6\pdl\drivers/peripheral/scb/cy_scb_uart.h **** * The pointer to the UART SCB instance.
1164:Generated_Source\PSoC6\pdl\drivers/peripheral/scb/cy_scb_uart.h **** *
1165:Generated_Source\PSoC6\pdl\drivers/peripheral/scb/cy_scb_uart.h **** *******************************************************************************/
1166:Generated_Source\PSoC6\pdl\drivers/peripheral/scb/cy_scb_uart.h **** __STATIC_INLINE void Cy_SCB_UART_DisableSkipStart(CySCB_Type *base)
1167:Generated_Source\PSoC6\pdl\drivers/peripheral/scb/cy_scb_uart.h **** {
1168:Generated_Source\PSoC6\pdl\drivers/peripheral/scb/cy_scb_uart.h ****     SCB_UART_RX_CTRL(base) &= (uint32_t) ~SCB_UART_RX_CTRL_SKIP_START_Msk;
1169:Generated_Source\PSoC6\pdl\drivers/peripheral/scb/cy_scb_uart.h **** }
1170:Generated_Source\PSoC6\pdl\drivers/peripheral/scb/cy_scb_uart.h **** /** \} group_scb_uart_general_functions */
1171:Generated_Source\PSoC6\pdl\drivers/peripheral/scb/cy_scb_uart.h **** 
1172:Generated_Source\PSoC6\pdl\drivers/peripheral/scb/cy_scb_uart.h **** 
1173:Generated_Source\PSoC6\pdl\drivers/peripheral/scb/cy_scb_uart.h **** /**
1174:Generated_Source\PSoC6\pdl\drivers/peripheral/scb/cy_scb_uart.h **** * \addtogroup group_scb_uart_low_level_functions
1175:Generated_Source\PSoC6\pdl\drivers/peripheral/scb/cy_scb_uart.h **** * \{
1176:Generated_Source\PSoC6\pdl\drivers/peripheral/scb/cy_scb_uart.h **** */
1177:Generated_Source\PSoC6\pdl\drivers/peripheral/scb/cy_scb_uart.h **** /*******************************************************************************
1178:Generated_Source\PSoC6\pdl\drivers/peripheral/scb/cy_scb_uart.h **** * Function Name: Cy_SCB_UART_Get
1179:Generated_Source\PSoC6\pdl\drivers/peripheral/scb/cy_scb_uart.h **** ****************************************************************************//**
1180:Generated_Source\PSoC6\pdl\drivers/peripheral/scb/cy_scb_uart.h **** *
1181:Generated_Source\PSoC6\pdl\drivers/peripheral/scb/cy_scb_uart.h **** * Reads a single data element from the UART RX FIFO.
1182:Generated_Source\PSoC6\pdl\drivers/peripheral/scb/cy_scb_uart.h **** * This function does not check whether the RX FIFO has data before reading it.
1183:Generated_Source\PSoC6\pdl\drivers/peripheral/scb/cy_scb_uart.h **** * If the RX FIFO is empty, the function returns \ref CY_SCB_UART_RX_NO_DATA.
1184:Generated_Source\PSoC6\pdl\drivers/peripheral/scb/cy_scb_uart.h **** *
1185:Generated_Source\PSoC6\pdl\drivers/peripheral/scb/cy_scb_uart.h **** * \param base
1186:Generated_Source\PSoC6\pdl\drivers/peripheral/scb/cy_scb_uart.h **** * The pointer to the UART SCB instance.
1187:Generated_Source\PSoC6\pdl\drivers/peripheral/scb/cy_scb_uart.h **** *
1188:Generated_Source\PSoC6\pdl\drivers/peripheral/scb/cy_scb_uart.h **** * \return
1189:Generated_Source\PSoC6\pdl\drivers/peripheral/scb/cy_scb_uart.h **** * Data from the RX FIFO.
1190:Generated_Source\PSoC6\pdl\drivers/peripheral/scb/cy_scb_uart.h **** * The data element size is defined by the configured data width.
1191:Generated_Source\PSoC6\pdl\drivers/peripheral/scb/cy_scb_uart.h **** *
1192:Generated_Source\PSoC6\pdl\drivers/peripheral/scb/cy_scb_uart.h **** *******************************************************************************/
1193:Generated_Source\PSoC6\pdl\drivers/peripheral/scb/cy_scb_uart.h **** __STATIC_INLINE uint32_t Cy_SCB_UART_Get(CySCB_Type const *base)
1194:Generated_Source\PSoC6\pdl\drivers/peripheral/scb/cy_scb_uart.h **** {
1195:Generated_Source\PSoC6\pdl\drivers/peripheral/scb/cy_scb_uart.h ****     return Cy_SCB_ReadRxFifo(base);
1196:Generated_Source\PSoC6\pdl\drivers/peripheral/scb/cy_scb_uart.h **** }
1197:Generated_Source\PSoC6\pdl\drivers/peripheral/scb/cy_scb_uart.h **** 
1198:Generated_Source\PSoC6\pdl\drivers/peripheral/scb/cy_scb_uart.h **** 
1199:Generated_Source\PSoC6\pdl\drivers/peripheral/scb/cy_scb_uart.h **** /*******************************************************************************
1200:Generated_Source\PSoC6\pdl\drivers/peripheral/scb/cy_scb_uart.h **** * Function Name: Cy_SCB_UART_GetArray
1201:Generated_Source\PSoC6\pdl\drivers/peripheral/scb/cy_scb_uart.h **** ****************************************************************************//**
1202:Generated_Source\PSoC6\pdl\drivers/peripheral/scb/cy_scb_uart.h **** *
1203:Generated_Source\PSoC6\pdl\drivers/peripheral/scb/cy_scb_uart.h **** * Reads an array of data out of the UART RX FIFO.
1204:Generated_Source\PSoC6\pdl\drivers/peripheral/scb/cy_scb_uart.h **** * This function does not block. It returns how many data elements were read
1205:Generated_Source\PSoC6\pdl\drivers/peripheral/scb/cy_scb_uart.h **** * from the RX FIFO.
1206:Generated_Source\PSoC6\pdl\drivers/peripheral/scb/cy_scb_uart.h **** *
1207:Generated_Source\PSoC6\pdl\drivers/peripheral/scb/cy_scb_uart.h **** * \param base
1208:Generated_Source\PSoC6\pdl\drivers/peripheral/scb/cy_scb_uart.h **** * The pointer to the UART SCB instance.
1209:Generated_Source\PSoC6\pdl\drivers/peripheral/scb/cy_scb_uart.h **** *
ARM GAS  C:\Users\Angel\AppData\Local\Temp\ccvqOPgy.s 			page 97


1210:Generated_Source\PSoC6\pdl\drivers/peripheral/scb/cy_scb_uart.h **** * \param buffer
1211:Generated_Source\PSoC6\pdl\drivers/peripheral/scb/cy_scb_uart.h **** * The pointer to the location to place the data read from the RX FIFO.
1212:Generated_Source\PSoC6\pdl\drivers/peripheral/scb/cy_scb_uart.h **** * The element size is defined by the data type, which depends on the configured
1213:Generated_Source\PSoC6\pdl\drivers/peripheral/scb/cy_scb_uart.h **** * data width.
1214:Generated_Source\PSoC6\pdl\drivers/peripheral/scb/cy_scb_uart.h **** *
1215:Generated_Source\PSoC6\pdl\drivers/peripheral/scb/cy_scb_uart.h **** * \param size
1216:Generated_Source\PSoC6\pdl\drivers/peripheral/scb/cy_scb_uart.h **** * The number of data elements to read from the RX FIFO.
1217:Generated_Source\PSoC6\pdl\drivers/peripheral/scb/cy_scb_uart.h **** *
1218:Generated_Source\PSoC6\pdl\drivers/peripheral/scb/cy_scb_uart.h **** * \return
1219:Generated_Source\PSoC6\pdl\drivers/peripheral/scb/cy_scb_uart.h **** * The number of data elements read from the RX FIFO.
1220:Generated_Source\PSoC6\pdl\drivers/peripheral/scb/cy_scb_uart.h **** *
1221:Generated_Source\PSoC6\pdl\drivers/peripheral/scb/cy_scb_uart.h **** *******************************************************************************/
1222:Generated_Source\PSoC6\pdl\drivers/peripheral/scb/cy_scb_uart.h **** __STATIC_INLINE uint32_t Cy_SCB_UART_GetArray(CySCB_Type const *base, void *buffer, uint32_t size)
1223:Generated_Source\PSoC6\pdl\drivers/peripheral/scb/cy_scb_uart.h **** {
1224:Generated_Source\PSoC6\pdl\drivers/peripheral/scb/cy_scb_uart.h ****     CY_ASSERT_L1(CY_SCB_IS_BUFFER_VALID(buffer, size));
1225:Generated_Source\PSoC6\pdl\drivers/peripheral/scb/cy_scb_uart.h **** 
1226:Generated_Source\PSoC6\pdl\drivers/peripheral/scb/cy_scb_uart.h ****     return Cy_SCB_ReadArray(base, buffer, size);
1227:Generated_Source\PSoC6\pdl\drivers/peripheral/scb/cy_scb_uart.h **** }
1228:Generated_Source\PSoC6\pdl\drivers/peripheral/scb/cy_scb_uart.h **** 
1229:Generated_Source\PSoC6\pdl\drivers/peripheral/scb/cy_scb_uart.h **** 
1230:Generated_Source\PSoC6\pdl\drivers/peripheral/scb/cy_scb_uart.h **** /*******************************************************************************
1231:Generated_Source\PSoC6\pdl\drivers/peripheral/scb/cy_scb_uart.h **** * Function Name: Cy_SCB_UART_GetArrayBlocking
1232:Generated_Source\PSoC6\pdl\drivers/peripheral/scb/cy_scb_uart.h **** ****************************************************************************//**
1233:Generated_Source\PSoC6\pdl\drivers/peripheral/scb/cy_scb_uart.h **** *
1234:Generated_Source\PSoC6\pdl\drivers/peripheral/scb/cy_scb_uart.h **** * Reads an array of data out of the UART RX FIFO.
1235:Generated_Source\PSoC6\pdl\drivers/peripheral/scb/cy_scb_uart.h **** * This function blocks until the number of data elements specified by the
1236:Generated_Source\PSoC6\pdl\drivers/peripheral/scb/cy_scb_uart.h **** * size has been read from the RX FIFO.
1237:Generated_Source\PSoC6\pdl\drivers/peripheral/scb/cy_scb_uart.h **** *
1238:Generated_Source\PSoC6\pdl\drivers/peripheral/scb/cy_scb_uart.h **** * \param base
1239:Generated_Source\PSoC6\pdl\drivers/peripheral/scb/cy_scb_uart.h **** * The pointer to the UART SCB instance.
1240:Generated_Source\PSoC6\pdl\drivers/peripheral/scb/cy_scb_uart.h **** *
1241:Generated_Source\PSoC6\pdl\drivers/peripheral/scb/cy_scb_uart.h **** * \param buffer
1242:Generated_Source\PSoC6\pdl\drivers/peripheral/scb/cy_scb_uart.h **** * The pointer to the location to place the data read from the RX FIFO.
1243:Generated_Source\PSoC6\pdl\drivers/peripheral/scb/cy_scb_uart.h **** * The element size is defined by the data type, which depends on the configured
1244:Generated_Source\PSoC6\pdl\drivers/peripheral/scb/cy_scb_uart.h **** * data width.
1245:Generated_Source\PSoC6\pdl\drivers/peripheral/scb/cy_scb_uart.h **** *
1246:Generated_Source\PSoC6\pdl\drivers/peripheral/scb/cy_scb_uart.h **** * \param size
1247:Generated_Source\PSoC6\pdl\drivers/peripheral/scb/cy_scb_uart.h **** * The number of data elements to read from the RX FIFO.
1248:Generated_Source\PSoC6\pdl\drivers/peripheral/scb/cy_scb_uart.h **** *
1249:Generated_Source\PSoC6\pdl\drivers/peripheral/scb/cy_scb_uart.h **** *******************************************************************************/
1250:Generated_Source\PSoC6\pdl\drivers/peripheral/scb/cy_scb_uart.h **** __STATIC_INLINE void Cy_SCB_UART_GetArrayBlocking(CySCB_Type const *base, void *buffer, uint32_t si
1251:Generated_Source\PSoC6\pdl\drivers/peripheral/scb/cy_scb_uart.h **** {
1252:Generated_Source\PSoC6\pdl\drivers/peripheral/scb/cy_scb_uart.h ****     CY_ASSERT_L1(CY_SCB_IS_BUFFER_VALID(buffer, size));
1253:Generated_Source\PSoC6\pdl\drivers/peripheral/scb/cy_scb_uart.h **** 
1254:Generated_Source\PSoC6\pdl\drivers/peripheral/scb/cy_scb_uart.h ****     Cy_SCB_ReadArrayBlocking(base, buffer, size);
1255:Generated_Source\PSoC6\pdl\drivers/peripheral/scb/cy_scb_uart.h **** }
1256:Generated_Source\PSoC6\pdl\drivers/peripheral/scb/cy_scb_uart.h **** 
1257:Generated_Source\PSoC6\pdl\drivers/peripheral/scb/cy_scb_uart.h **** 
1258:Generated_Source\PSoC6\pdl\drivers/peripheral/scb/cy_scb_uart.h **** /*******************************************************************************
1259:Generated_Source\PSoC6\pdl\drivers/peripheral/scb/cy_scb_uart.h **** * Function Name: Cy_SCB_UART_GetRxFifoStatus
1260:Generated_Source\PSoC6\pdl\drivers/peripheral/scb/cy_scb_uart.h **** ****************************************************************************//**
1261:Generated_Source\PSoC6\pdl\drivers/peripheral/scb/cy_scb_uart.h **** *
1262:Generated_Source\PSoC6\pdl\drivers/peripheral/scb/cy_scb_uart.h **** * Returns the current status of the RX FIFO.
1263:Generated_Source\PSoC6\pdl\drivers/peripheral/scb/cy_scb_uart.h **** *
1264:Generated_Source\PSoC6\pdl\drivers/peripheral/scb/cy_scb_uart.h **** * \param base
1265:Generated_Source\PSoC6\pdl\drivers/peripheral/scb/cy_scb_uart.h **** * The pointer to the UART SCB instance.
1266:Generated_Source\PSoC6\pdl\drivers/peripheral/scb/cy_scb_uart.h **** *
ARM GAS  C:\Users\Angel\AppData\Local\Temp\ccvqOPgy.s 			page 98


1267:Generated_Source\PSoC6\pdl\drivers/peripheral/scb/cy_scb_uart.h **** * \return
1268:Generated_Source\PSoC6\pdl\drivers/peripheral/scb/cy_scb_uart.h **** * \ref group_scb_uart_macros_rx_fifo_status
1269:Generated_Source\PSoC6\pdl\drivers/peripheral/scb/cy_scb_uart.h **** *
1270:Generated_Source\PSoC6\pdl\drivers/peripheral/scb/cy_scb_uart.h **** *******************************************************************************/
1271:Generated_Source\PSoC6\pdl\drivers/peripheral/scb/cy_scb_uart.h **** __STATIC_INLINE uint32_t Cy_SCB_UART_GetRxFifoStatus(CySCB_Type const *base)
1272:Generated_Source\PSoC6\pdl\drivers/peripheral/scb/cy_scb_uart.h **** {
1273:Generated_Source\PSoC6\pdl\drivers/peripheral/scb/cy_scb_uart.h ****     return (Cy_SCB_GetRxInterruptStatus(base) & CY_SCB_UART_RX_INTR_MASK);
1274:Generated_Source\PSoC6\pdl\drivers/peripheral/scb/cy_scb_uart.h **** }
1275:Generated_Source\PSoC6\pdl\drivers/peripheral/scb/cy_scb_uart.h **** 
1276:Generated_Source\PSoC6\pdl\drivers/peripheral/scb/cy_scb_uart.h **** 
1277:Generated_Source\PSoC6\pdl\drivers/peripheral/scb/cy_scb_uart.h **** /*******************************************************************************
1278:Generated_Source\PSoC6\pdl\drivers/peripheral/scb/cy_scb_uart.h **** * Function Name: Cy_SCB_UART_ClearRxFifoStatus
1279:Generated_Source\PSoC6\pdl\drivers/peripheral/scb/cy_scb_uart.h **** ****************************************************************************//**
1280:Generated_Source\PSoC6\pdl\drivers/peripheral/scb/cy_scb_uart.h **** *
1281:Generated_Source\PSoC6\pdl\drivers/peripheral/scb/cy_scb_uart.h **** * Clears the selected statuses of the RX FIFO.
1282:Generated_Source\PSoC6\pdl\drivers/peripheral/scb/cy_scb_uart.h **** *
1283:Generated_Source\PSoC6\pdl\drivers/peripheral/scb/cy_scb_uart.h **** * \param base
1284:Generated_Source\PSoC6\pdl\drivers/peripheral/scb/cy_scb_uart.h **** * The pointer to the UART SCB instance.
1285:Generated_Source\PSoC6\pdl\drivers/peripheral/scb/cy_scb_uart.h **** *
1286:Generated_Source\PSoC6\pdl\drivers/peripheral/scb/cy_scb_uart.h **** * \param clearMask
1287:Generated_Source\PSoC6\pdl\drivers/peripheral/scb/cy_scb_uart.h **** * The mask whose statuses to clear.
1288:Generated_Source\PSoC6\pdl\drivers/peripheral/scb/cy_scb_uart.h **** * See \ref group_scb_uart_macros_rx_fifo_status for the set of constants.
1289:Generated_Source\PSoC6\pdl\drivers/peripheral/scb/cy_scb_uart.h **** *
1290:Generated_Source\PSoC6\pdl\drivers/peripheral/scb/cy_scb_uart.h **** * \note
1291:Generated_Source\PSoC6\pdl\drivers/peripheral/scb/cy_scb_uart.h **** * * This status is also used for interrupt generation, so clearing it also
1292:Generated_Source\PSoC6\pdl\drivers/peripheral/scb/cy_scb_uart.h **** *   clears the interrupt sources.
1293:Generated_Source\PSoC6\pdl\drivers/peripheral/scb/cy_scb_uart.h **** * * Level-sensitive statuses such as \ref CY_SCB_UART_RX_TRIGGER,
1294:Generated_Source\PSoC6\pdl\drivers/peripheral/scb/cy_scb_uart.h **** *   \ref CY_SCB_UART_RX_NOT_EMPTY and \ref CY_SCB_UART_RX_FULL are set high again after
1295:Generated_Source\PSoC6\pdl\drivers/peripheral/scb/cy_scb_uart.h **** *   being cleared if the condition remains true.
1296:Generated_Source\PSoC6\pdl\drivers/peripheral/scb/cy_scb_uart.h **** *
1297:Generated_Source\PSoC6\pdl\drivers/peripheral/scb/cy_scb_uart.h **** *******************************************************************************/
1298:Generated_Source\PSoC6\pdl\drivers/peripheral/scb/cy_scb_uart.h **** __STATIC_INLINE void Cy_SCB_UART_ClearRxFifoStatus(CySCB_Type *base, uint32_t clearMask)
1299:Generated_Source\PSoC6\pdl\drivers/peripheral/scb/cy_scb_uart.h **** {
1300:Generated_Source\PSoC6\pdl\drivers/peripheral/scb/cy_scb_uart.h ****     CY_ASSERT_L2(CY_SCB_IS_INTR_VALID(clearMask, CY_SCB_UART_RX_INTR_MASK));
1301:Generated_Source\PSoC6\pdl\drivers/peripheral/scb/cy_scb_uart.h **** 
1302:Generated_Source\PSoC6\pdl\drivers/peripheral/scb/cy_scb_uart.h ****     Cy_SCB_ClearRxInterrupt(base, clearMask);
1303:Generated_Source\PSoC6\pdl\drivers/peripheral/scb/cy_scb_uart.h **** }
1304:Generated_Source\PSoC6\pdl\drivers/peripheral/scb/cy_scb_uart.h **** 
1305:Generated_Source\PSoC6\pdl\drivers/peripheral/scb/cy_scb_uart.h **** 
1306:Generated_Source\PSoC6\pdl\drivers/peripheral/scb/cy_scb_uart.h **** /*******************************************************************************
1307:Generated_Source\PSoC6\pdl\drivers/peripheral/scb/cy_scb_uart.h **** * Function Name: Cy_SCB_UART_GetNumInRxFifo
1308:Generated_Source\PSoC6\pdl\drivers/peripheral/scb/cy_scb_uart.h **** ****************************************************************************//**
1309:Generated_Source\PSoC6\pdl\drivers/peripheral/scb/cy_scb_uart.h **** *
1310:Generated_Source\PSoC6\pdl\drivers/peripheral/scb/cy_scb_uart.h **** * Returns the number of data elements in the UART RX FIFO.
1311:Generated_Source\PSoC6\pdl\drivers/peripheral/scb/cy_scb_uart.h **** *
1312:Generated_Source\PSoC6\pdl\drivers/peripheral/scb/cy_scb_uart.h **** * \param base
1313:Generated_Source\PSoC6\pdl\drivers/peripheral/scb/cy_scb_uart.h **** * The pointer to the UART SCB instance.
1314:Generated_Source\PSoC6\pdl\drivers/peripheral/scb/cy_scb_uart.h **** *
1315:Generated_Source\PSoC6\pdl\drivers/peripheral/scb/cy_scb_uart.h **** * \return
1316:Generated_Source\PSoC6\pdl\drivers/peripheral/scb/cy_scb_uart.h **** * The number of data elements in the RX FIFO.
1317:Generated_Source\PSoC6\pdl\drivers/peripheral/scb/cy_scb_uart.h **** * The size of date element defined by the configured data width.
1318:Generated_Source\PSoC6\pdl\drivers/peripheral/scb/cy_scb_uart.h **** *
1319:Generated_Source\PSoC6\pdl\drivers/peripheral/scb/cy_scb_uart.h **** *******************************************************************************/
1320:Generated_Source\PSoC6\pdl\drivers/peripheral/scb/cy_scb_uart.h **** __STATIC_INLINE uint32_t Cy_SCB_UART_GetNumInRxFifo(CySCB_Type const *base)
1321:Generated_Source\PSoC6\pdl\drivers/peripheral/scb/cy_scb_uart.h **** {
1322:Generated_Source\PSoC6\pdl\drivers/peripheral/scb/cy_scb_uart.h ****     return Cy_SCB_GetNumInRxFifo(base);
1323:Generated_Source\PSoC6\pdl\drivers/peripheral/scb/cy_scb_uart.h **** }
ARM GAS  C:\Users\Angel\AppData\Local\Temp\ccvqOPgy.s 			page 99


1324:Generated_Source\PSoC6\pdl\drivers/peripheral/scb/cy_scb_uart.h **** 
1325:Generated_Source\PSoC6\pdl\drivers/peripheral/scb/cy_scb_uart.h **** /*******************************************************************************
1326:Generated_Source\PSoC6\pdl\drivers/peripheral/scb/cy_scb_uart.h **** * Function Name: Cy_SCB_UART_ClearRxFifo
1327:Generated_Source\PSoC6\pdl\drivers/peripheral/scb/cy_scb_uart.h **** ****************************************************************************//**
1328:Generated_Source\PSoC6\pdl\drivers/peripheral/scb/cy_scb_uart.h **** *
1329:Generated_Source\PSoC6\pdl\drivers/peripheral/scb/cy_scb_uart.h **** * Clears all data out of the UART RX FIFO.
1330:Generated_Source\PSoC6\pdl\drivers/peripheral/scb/cy_scb_uart.h **** *
1331:Generated_Source\PSoC6\pdl\drivers/peripheral/scb/cy_scb_uart.h **** * \param base
1332:Generated_Source\PSoC6\pdl\drivers/peripheral/scb/cy_scb_uart.h **** * The pointer to the UART SCB instance.
1333:Generated_Source\PSoC6\pdl\drivers/peripheral/scb/cy_scb_uart.h **** *
1334:Generated_Source\PSoC6\pdl\drivers/peripheral/scb/cy_scb_uart.h **** * \sideeffect
1335:Generated_Source\PSoC6\pdl\drivers/peripheral/scb/cy_scb_uart.h **** * Any data currently in the shifter is cleared and lost.
1336:Generated_Source\PSoC6\pdl\drivers/peripheral/scb/cy_scb_uart.h **** *
1337:Generated_Source\PSoC6\pdl\drivers/peripheral/scb/cy_scb_uart.h **** *******************************************************************************/
1338:Generated_Source\PSoC6\pdl\drivers/peripheral/scb/cy_scb_uart.h **** __STATIC_INLINE void Cy_SCB_UART_ClearRxFifo(CySCB_Type *base)
1339:Generated_Source\PSoC6\pdl\drivers/peripheral/scb/cy_scb_uart.h **** {
1340:Generated_Source\PSoC6\pdl\drivers/peripheral/scb/cy_scb_uart.h ****     Cy_SCB_ClearRxFifo(base);
1341:Generated_Source\PSoC6\pdl\drivers/peripheral/scb/cy_scb_uart.h **** }
1342:Generated_Source\PSoC6\pdl\drivers/peripheral/scb/cy_scb_uart.h **** 
1343:Generated_Source\PSoC6\pdl\drivers/peripheral/scb/cy_scb_uart.h **** 
1344:Generated_Source\PSoC6\pdl\drivers/peripheral/scb/cy_scb_uart.h **** /*******************************************************************************
1345:Generated_Source\PSoC6\pdl\drivers/peripheral/scb/cy_scb_uart.h **** * Function Name: Cy_SCB_UART_Put
1346:Generated_Source\PSoC6\pdl\drivers/peripheral/scb/cy_scb_uart.h **** ****************************************************************************//**
1347:Generated_Source\PSoC6\pdl\drivers/peripheral/scb/cy_scb_uart.h **** *
1348:Generated_Source\PSoC6\pdl\drivers/peripheral/scb/cy_scb_uart.h **** * Places a single data element in the UART TX FIFO.
1349:Generated_Source\PSoC6\pdl\drivers/peripheral/scb/cy_scb_uart.h **** * This function does not block and returns how many data elements were placed
1350:Generated_Source\PSoC6\pdl\drivers/peripheral/scb/cy_scb_uart.h **** * in the TX FIFO.
1351:Generated_Source\PSoC6\pdl\drivers/peripheral/scb/cy_scb_uart.h **** *
1352:Generated_Source\PSoC6\pdl\drivers/peripheral/scb/cy_scb_uart.h **** * \param base
1353:Generated_Source\PSoC6\pdl\drivers/peripheral/scb/cy_scb_uart.h **** * The pointer to the UART SCB instance.
1354:Generated_Source\PSoC6\pdl\drivers/peripheral/scb/cy_scb_uart.h **** *
1355:Generated_Source\PSoC6\pdl\drivers/peripheral/scb/cy_scb_uart.h **** * \param data
1356:Generated_Source\PSoC6\pdl\drivers/peripheral/scb/cy_scb_uart.h **** * Data to put in the TX FIFO.
1357:Generated_Source\PSoC6\pdl\drivers/peripheral/scb/cy_scb_uart.h **** * The element size is defined by the data type, which depends on the configured
1358:Generated_Source\PSoC6\pdl\drivers/peripheral/scb/cy_scb_uart.h **** * data width.
1359:Generated_Source\PSoC6\pdl\drivers/peripheral/scb/cy_scb_uart.h **** *
1360:Generated_Source\PSoC6\pdl\drivers/peripheral/scb/cy_scb_uart.h **** * \return
1361:Generated_Source\PSoC6\pdl\drivers/peripheral/scb/cy_scb_uart.h **** * The number of data elements placed in the TX FIFO: 0 or 1.
1362:Generated_Source\PSoC6\pdl\drivers/peripheral/scb/cy_scb_uart.h **** *
1363:Generated_Source\PSoC6\pdl\drivers/peripheral/scb/cy_scb_uart.h **** *******************************************************************************/
1364:Generated_Source\PSoC6\pdl\drivers/peripheral/scb/cy_scb_uart.h **** __STATIC_INLINE uint32_t Cy_SCB_UART_Put(CySCB_Type *base, uint32_t data)
1365:Generated_Source\PSoC6\pdl\drivers/peripheral/scb/cy_scb_uart.h **** {
1366:Generated_Source\PSoC6\pdl\drivers/peripheral/scb/cy_scb_uart.h ****     return Cy_SCB_Write(base, data);
1367:Generated_Source\PSoC6\pdl\drivers/peripheral/scb/cy_scb_uart.h **** }
1368:Generated_Source\PSoC6\pdl\drivers/peripheral/scb/cy_scb_uart.h **** 
1369:Generated_Source\PSoC6\pdl\drivers/peripheral/scb/cy_scb_uart.h **** 
1370:Generated_Source\PSoC6\pdl\drivers/peripheral/scb/cy_scb_uart.h **** /*******************************************************************************
1371:Generated_Source\PSoC6\pdl\drivers/peripheral/scb/cy_scb_uart.h **** * Function Name: Cy_SCB_UART_PutArray
1372:Generated_Source\PSoC6\pdl\drivers/peripheral/scb/cy_scb_uart.h **** ****************************************************************************//**
1373:Generated_Source\PSoC6\pdl\drivers/peripheral/scb/cy_scb_uart.h **** *
1374:Generated_Source\PSoC6\pdl\drivers/peripheral/scb/cy_scb_uart.h **** * Places an array of data in the UART TX FIFO.
1375:Generated_Source\PSoC6\pdl\drivers/peripheral/scb/cy_scb_uart.h **** * This function does not block. It returns how many data elements were
1376:Generated_Source\PSoC6\pdl\drivers/peripheral/scb/cy_scb_uart.h **** * placed in the TX FIFO.
1377:Generated_Source\PSoC6\pdl\drivers/peripheral/scb/cy_scb_uart.h **** *
1378:Generated_Source\PSoC6\pdl\drivers/peripheral/scb/cy_scb_uart.h **** * \param base
1379:Generated_Source\PSoC6\pdl\drivers/peripheral/scb/cy_scb_uart.h **** * The pointer to the UART SCB instance.
1380:Generated_Source\PSoC6\pdl\drivers/peripheral/scb/cy_scb_uart.h **** *
ARM GAS  C:\Users\Angel\AppData\Local\Temp\ccvqOPgy.s 			page 100


1381:Generated_Source\PSoC6\pdl\drivers/peripheral/scb/cy_scb_uart.h **** * \param buffer
1382:Generated_Source\PSoC6\pdl\drivers/peripheral/scb/cy_scb_uart.h **** * The pointer to data to place in the TX FIFO.
1383:Generated_Source\PSoC6\pdl\drivers/peripheral/scb/cy_scb_uart.h **** * The element size is defined by the data type, which depends on the configured
1384:Generated_Source\PSoC6\pdl\drivers/peripheral/scb/cy_scb_uart.h **** * TX data width.
1385:Generated_Source\PSoC6\pdl\drivers/peripheral/scb/cy_scb_uart.h **** *
1386:Generated_Source\PSoC6\pdl\drivers/peripheral/scb/cy_scb_uart.h **** * \param size
1387:Generated_Source\PSoC6\pdl\drivers/peripheral/scb/cy_scb_uart.h **** * The number of data elements to TX.
1388:Generated_Source\PSoC6\pdl\drivers/peripheral/scb/cy_scb_uart.h **** *
1389:Generated_Source\PSoC6\pdl\drivers/peripheral/scb/cy_scb_uart.h **** * \return
1390:Generated_Source\PSoC6\pdl\drivers/peripheral/scb/cy_scb_uart.h **** * The number of data elements placed in the TX FIFO.
1391:Generated_Source\PSoC6\pdl\drivers/peripheral/scb/cy_scb_uart.h **** *
1392:Generated_Source\PSoC6\pdl\drivers/peripheral/scb/cy_scb_uart.h **** *******************************************************************************/
1393:Generated_Source\PSoC6\pdl\drivers/peripheral/scb/cy_scb_uart.h **** __STATIC_INLINE uint32_t Cy_SCB_UART_PutArray(CySCB_Type *base, void *buffer, uint32_t size)
1394:Generated_Source\PSoC6\pdl\drivers/peripheral/scb/cy_scb_uart.h **** {
1395:Generated_Source\PSoC6\pdl\drivers/peripheral/scb/cy_scb_uart.h ****     CY_ASSERT_L1(CY_SCB_IS_BUFFER_VALID(buffer, size));
1396:Generated_Source\PSoC6\pdl\drivers/peripheral/scb/cy_scb_uart.h **** 
1397:Generated_Source\PSoC6\pdl\drivers/peripheral/scb/cy_scb_uart.h ****     return Cy_SCB_WriteArray(base, buffer, size);
1398:Generated_Source\PSoC6\pdl\drivers/peripheral/scb/cy_scb_uart.h **** }
1399:Generated_Source\PSoC6\pdl\drivers/peripheral/scb/cy_scb_uart.h **** 
1400:Generated_Source\PSoC6\pdl\drivers/peripheral/scb/cy_scb_uart.h **** 
1401:Generated_Source\PSoC6\pdl\drivers/peripheral/scb/cy_scb_uart.h **** /*******************************************************************************
1402:Generated_Source\PSoC6\pdl\drivers/peripheral/scb/cy_scb_uart.h **** * Function Name: Cy_SCB_UART_PutArrayBlocking
1403:Generated_Source\PSoC6\pdl\drivers/peripheral/scb/cy_scb_uart.h **** ****************************************************************************//**
1404:Generated_Source\PSoC6\pdl\drivers/peripheral/scb/cy_scb_uart.h **** *
1405:Generated_Source\PSoC6\pdl\drivers/peripheral/scb/cy_scb_uart.h **** * Places an array of data in the UART TX FIFO.
1406:Generated_Source\PSoC6\pdl\drivers/peripheral/scb/cy_scb_uart.h **** * This function blocks until the number of data elements specified by the size
1407:Generated_Source\PSoC6\pdl\drivers/peripheral/scb/cy_scb_uart.h **** * is placed in the TX FIFO.
1408:Generated_Source\PSoC6\pdl\drivers/peripheral/scb/cy_scb_uart.h **** *
1409:Generated_Source\PSoC6\pdl\drivers/peripheral/scb/cy_scb_uart.h **** * \param base
1410:Generated_Source\PSoC6\pdl\drivers/peripheral/scb/cy_scb_uart.h **** * The pointer to the UART SCB instance.
1411:Generated_Source\PSoC6\pdl\drivers/peripheral/scb/cy_scb_uart.h **** *
1412:Generated_Source\PSoC6\pdl\drivers/peripheral/scb/cy_scb_uart.h **** * \param buffer
1413:Generated_Source\PSoC6\pdl\drivers/peripheral/scb/cy_scb_uart.h **** * The pointer to data to place in the TX FIFO.
1414:Generated_Source\PSoC6\pdl\drivers/peripheral/scb/cy_scb_uart.h **** * The element size is defined by the data type, which depends on the configured
1415:Generated_Source\PSoC6\pdl\drivers/peripheral/scb/cy_scb_uart.h **** * data width.
1416:Generated_Source\PSoC6\pdl\drivers/peripheral/scb/cy_scb_uart.h **** *
1417:Generated_Source\PSoC6\pdl\drivers/peripheral/scb/cy_scb_uart.h **** * \param size
1418:Generated_Source\PSoC6\pdl\drivers/peripheral/scb/cy_scb_uart.h **** * The number of data elements to write into the TX FIFO.
1419:Generated_Source\PSoC6\pdl\drivers/peripheral/scb/cy_scb_uart.h **** *
1420:Generated_Source\PSoC6\pdl\drivers/peripheral/scb/cy_scb_uart.h **** *******************************************************************************/
1421:Generated_Source\PSoC6\pdl\drivers/peripheral/scb/cy_scb_uart.h **** __STATIC_INLINE void Cy_SCB_UART_PutArrayBlocking(CySCB_Type *base, void *buffer, uint32_t size)
1422:Generated_Source\PSoC6\pdl\drivers/peripheral/scb/cy_scb_uart.h **** {
1423:Generated_Source\PSoC6\pdl\drivers/peripheral/scb/cy_scb_uart.h ****     CY_ASSERT_L1(CY_SCB_IS_BUFFER_VALID(buffer, size));
1424:Generated_Source\PSoC6\pdl\drivers/peripheral/scb/cy_scb_uart.h **** 
1425:Generated_Source\PSoC6\pdl\drivers/peripheral/scb/cy_scb_uart.h ****     Cy_SCB_WriteArrayBlocking(base, buffer, size);
1426:Generated_Source\PSoC6\pdl\drivers/peripheral/scb/cy_scb_uart.h **** }
1427:Generated_Source\PSoC6\pdl\drivers/peripheral/scb/cy_scb_uart.h **** 
1428:Generated_Source\PSoC6\pdl\drivers/peripheral/scb/cy_scb_uart.h **** 
1429:Generated_Source\PSoC6\pdl\drivers/peripheral/scb/cy_scb_uart.h **** /*******************************************************************************
1430:Generated_Source\PSoC6\pdl\drivers/peripheral/scb/cy_scb_uart.h **** * Function Name: Cy_SCB_UART_PutString
1431:Generated_Source\PSoC6\pdl\drivers/peripheral/scb/cy_scb_uart.h **** ****************************************************************************//**
1432:Generated_Source\PSoC6\pdl\drivers/peripheral/scb/cy_scb_uart.h **** *
1433:Generated_Source\PSoC6\pdl\drivers/peripheral/scb/cy_scb_uart.h **** * Places a NULL terminated string in the UART TX FIFO.
1434:Generated_Source\PSoC6\pdl\drivers/peripheral/scb/cy_scb_uart.h **** * This function blocks until the entire string is placed in the TX FIFO.
1435:Generated_Source\PSoC6\pdl\drivers/peripheral/scb/cy_scb_uart.h **** *
1436:Generated_Source\PSoC6\pdl\drivers/peripheral/scb/cy_scb_uart.h **** * \param base
1437:Generated_Source\PSoC6\pdl\drivers/peripheral/scb/cy_scb_uart.h **** * The pointer to the UART SCB instance.
ARM GAS  C:\Users\Angel\AppData\Local\Temp\ccvqOPgy.s 			page 101


1438:Generated_Source\PSoC6\pdl\drivers/peripheral/scb/cy_scb_uart.h **** *
1439:Generated_Source\PSoC6\pdl\drivers/peripheral/scb/cy_scb_uart.h **** * \param string
1440:Generated_Source\PSoC6\pdl\drivers/peripheral/scb/cy_scb_uart.h **** * The pointer to the null terminated string array.
1441:Generated_Source\PSoC6\pdl\drivers/peripheral/scb/cy_scb_uart.h **** *
1442:Generated_Source\PSoC6\pdl\drivers/peripheral/scb/cy_scb_uart.h **** *******************************************************************************/
1443:Generated_Source\PSoC6\pdl\drivers/peripheral/scb/cy_scb_uart.h **** __STATIC_INLINE void Cy_SCB_UART_PutString(CySCB_Type *base, char_t const string[])
1444:Generated_Source\PSoC6\pdl\drivers/peripheral/scb/cy_scb_uart.h **** {
1445:Generated_Source\PSoC6\pdl\drivers/peripheral/scb/cy_scb_uart.h ****     CY_ASSERT_L1(CY_SCB_IS_BUFFER_VALID(string, 1UL));
1446:Generated_Source\PSoC6\pdl\drivers/peripheral/scb/cy_scb_uart.h **** 
1447:Generated_Source\PSoC6\pdl\drivers/peripheral/scb/cy_scb_uart.h ****     Cy_SCB_WriteString(base, string);
 1782              		.loc 5 1447 0
 1783 0098 164D     		ldr	r5, .L90+36
 1784 009a 6946     		mov	r1, sp
 1785 009c 2846     		mov	r0, r5
 1786 009e FFF7FEFF 		bl	Cy_SCB_WriteString
 1787              	.LVL187:
 1788              	.LBE592:
 1789              	.LBE591:
 1790              	.LBE590:
 1791              	.LBB593:
 1792              	.LBB594:
 1793              	.LBB595:
 1794 00a2 1549     		ldr	r1, .L90+40
 1795 00a4 2846     		mov	r0, r5
 1796 00a6 FFF7FEFF 		bl	Cy_SCB_WriteString
 1797              	.LVL188:
 1798              	.LBE595:
 1799              	.LBE594:
 1800              	.LBE593:
 1801              	.LBE587:
 341:main_cm4.c    ****                 { 
 1802              		.loc 1 341 0
 1803 00aa 0134     		adds	r4, r4, #1
 1804              	.LVL189:
 1805              	.L85:
 341:main_cm4.c    ****                 { 
 1806              		.loc 1 341 0 is_stmt 0 discriminator 1
 1807 00ac 072C     		cmp	r4, #7
 1808 00ae CDDD     		ble	.L87
 337:main_cm4.c    ****             {
 1809              		.loc 1 337 0 is_stmt 1 discriminator 2
 1810 00b0 0136     		adds	r6, r6, #1
 1811              	.LVL190:
 1812              	.L84:
 337:main_cm4.c    ****             {
 1813              		.loc 1 337 0 is_stmt 0 discriminator 1
 1814 00b2 072E     		cmp	r6, #7
 1815 00b4 C2DD     		ble	.L88
 1816              	.LVL191:
 1817              	.LBB596:
 1818              	.LBB597:
 1819              	.LBB598:
 1820              		.loc 5 1447 0 is_stmt 1
 1821 00b6 1149     		ldr	r1, .L90+44
 1822 00b8 0E48     		ldr	r0, .L90+36
 1823 00ba FFF7FEFF 		bl	Cy_SCB_WriteString
 1824              	.LVL192:
ARM GAS  C:\Users\Angel\AppData\Local\Temp\ccvqOPgy.s 			page 102


 1825              	.LBE598:
 1826              	.LBE597:
 1827              	.LBE596:
 363:main_cm4.c    ****                CLCD_PutString("Done");
 1828              		.loc 1 363 0
 1829 00be FFF7FEFF 		bl	CLCD_Clear
 1830              	.LVL193:
 364:main_cm4.c    ****                 
 1831              		.loc 1 364 0
 1832 00c2 0F48     		ldr	r0, .L90+48
 1833 00c4 FFF7FEFF 		bl	CLCD_PutString
 1834              	.LVL194:
 366:main_cm4.c    ****             }
 1835              		.loc 1 366 0
 1836 00c8 6420     		movs	r0, #100
 1837 00ca FFF7FEFF 		bl	Cy_SysLib_Delay
 1838              	.LVL195:
 1839 00ce A5E7     		b	.L81
 1840              	.L91:
 1841              		.align	2
 1842              	.L90:
 1843 00d0 00003240 		.word	1077018624
 1844 00d4 1C000000 		.word	.LC3
 1845 00d8 30000000 		.word	.LC4
 1846 00dc 00000000 		.word	ADC_1_currentConfig
 1847 00e0 00000000 		.word	ADC_1_allConfigs
 1848 00e4 44000000 		.word	.LC5
 1849 00e8 00001D41 		.word	1092419584
 1850 00ec 64000000 		.word	.LC6
 1851 00f0 68000000 		.word	.LC7
 1852 00f4 00006640 		.word	1080426496
 1853 00f8 6C000000 		.word	.LC8
 1854 00fc 70000000 		.word	.LC9
 1855 0100 74000000 		.word	.LC10
 1856              	.LBE586:
 1857              		.cfi_endproc
 1858              	.LFE532:
 1859              		.size	main, .-main
 1860              		.global	main_func_list
 1861              		.comm	column,16,4
 1862              		.comm	row,16,4
 1863              		.data
 1864              		.align	2
 1865              		.set	.LANCHOR0,. + 0
 1866              		.type	main_func_list, %object
 1867              		.size	main_func_list, 108
 1868              	main_func_list:
 1869 0000 7C000000 		.word	.LC11
 1870 0004 00000000 		.word	do_help
 1871 0008 84000000 		.word	.LC12
 1872 000c 98000000 		.word	.LC13
 1873 0010 00000000 		.word	do_clear
 1874 0014 A0000000 		.word	.LC14
 1875 0018 AC000000 		.word	.LC15
 1876 001c 00000000 		.word	do_write
 1877 0020 B4000000 		.word	.LC16
 1878 0024 C8000000 		.word	.LC17
ARM GAS  C:\Users\Angel\AppData\Local\Temp\ccvqOPgy.s 			page 103


 1879 0028 00000000 		.word	do_print
 1880 002c D0000000 		.word	.LC18
 1881 0030 E4000000 		.word	.LC19
 1882 0034 00000000 		.word	do_SetDDRAddr
 1883 0038 E8000000 		.word	.LC20
 1884 003c F8000000 		.word	.LC21
 1885 0040 00000000 		.word	do_SetCGRAMAddr
 1886 0044 FC000000 		.word	.LC22
 1887 0048 10010000 		.word	.LC23
 1888 004c 00000000 		.word	do_Command
 1889 0050 18010000 		.word	.LC24
 1890 0054 2C010000 		.word	.LC25
 1891 0058 00000000 		.word	do_pos
 1892 005c 30010000 		.word	.LC26
 1893 0060 00000000 		.word	0
 1894 0064 00000000 		.word	0
 1895 0068 00000000 		.word	0
 1896              		.section	.rodata.str1.4,"aMS",%progbits,1
 1897              		.align	2
 1898              	.LC0:
 1899 0000 252A7320 		.ascii	"%*s %s\000"
 1899      257300
 1900 0007 00       		.space	1
 1901              	.LC1:
 1902 0008 252A7320 		.ascii	"%*s %x\000"
 1902      257800
 1903 000f 00       		.space	1
 1904              	.LC2:
 1905 0010 252A7320 		.ascii	"%*s %d %d\000"
 1905      25642025 
 1905      6400
 1906 001a 0000     		.space	2
 1907              	.LC3:
 1908 001c 52656164 		.ascii	"Ready for Pic...\000"
 1908      7920666F 
 1908      72205069 
 1908      632E2E2E 
 1908      00
 1909 002d 000000   		.space	3
 1910              	.LC4:
 1911 0030 41637175 		.ascii	"Acquiring Pic...\000"
 1911      6972696E 
 1911      67205069 
 1911      632E2E2E 
 1911      00
 1912 0041 000000   		.space	3
 1913              	.LC5:
 1914 0044 47656E65 		.ascii	"Generated_Source\\PSoC6/ADC_1.h\000"
 1914      72617465 
 1914      645F536F 
 1914      75726365 
 1914      5C50536F 
 1915 0063 00       		.space	1
 1916              	.LC6:
 1917 0064 256400   		.ascii	"%d\000"
 1918 0067 00       		.space	1
 1919              	.LC7:
ARM GAS  C:\Users\Angel\AppData\Local\Temp\ccvqOPgy.s 			page 104


 1920 0068 25732000 		.ascii	"%s \000"
 1921              	.LC8:
 1922 006c 2000     		.ascii	" \000"
 1923 006e 0000     		.space	2
 1924              	.LC9:
 1925 0070 652000   		.ascii	"e \000"
 1926 0073 00       		.space	1
 1927              	.LC10:
 1928 0074 446F6E65 		.ascii	"Done\000"
 1928      00
 1929 0079 000000   		.space	3
 1930              	.LC11:
 1931 007c 68656C70 		.ascii	"help\000"
 1931      00
 1932 0081 000000   		.space	3
 1933              	.LC12:
 1934 0084 73686F77 		.ascii	"show help message\000"
 1934      2068656C 
 1934      70206D65 
 1934      73736167 
 1934      6500
 1935 0096 0000     		.space	2
 1936              	.LC13:
 1937 0098 636C6561 		.ascii	"clear\000"
 1937      7200
 1938 009e 0000     		.space	2
 1939              	.LC14:
 1940 00a0 436C6561 		.ascii	"Clear LCD\000"
 1940      72204C43 
 1940      4400
 1941 00aa 0000     		.space	2
 1942              	.LC15:
 1943 00ac 77726974 		.ascii	"write\000"
 1943      6500
 1944 00b2 0000     		.space	2
 1945              	.LC16:
 1946 00b4 57726974 		.ascii	"Write data to LCD\000"
 1946      65206461 
 1946      74612074 
 1946      6F204C43 
 1946      4400
 1947 00c6 0000     		.space	2
 1948              	.LC17:
 1949 00c8 7072696E 		.ascii	"print\000"
 1949      7400
 1950 00ce 0000     		.space	2
 1951              	.LC18:
 1952 00d0 57726974 		.ascii	"Write string to LCD\000"
 1952      65207374 
 1952      72696E67 
 1952      20746F20 
 1952      4C434400 
 1953              	.LC19:
 1954 00e4 64647200 		.ascii	"ddr\000"
 1955              	.LC20:
 1956 00e8 53657420 		.ascii	"Set DDR Address\000"
 1956      44445220 
ARM GAS  C:\Users\Angel\AppData\Local\Temp\ccvqOPgy.s 			page 105


 1956      41646472 
 1956      65737300 
 1957              	.LC21:
 1958 00f8 636700   		.ascii	"cg\000"
 1959 00fb 00       		.space	1
 1960              	.LC22:
 1961 00fc 53657420 		.ascii	"Set CG RAM Address\000"
 1961      43472052 
 1961      414D2041 
 1961      64647265 
 1961      737300
 1962 010f 00       		.space	1
 1963              	.LC23:
 1964 0110 636F6D6D 		.ascii	"command\000"
 1964      616E6400 
 1965              	.LC24:
 1966 0118 73656E64 		.ascii	"send instruction\000"
 1966      20696E73 
 1966      74727563 
 1966      74696F6E 
 1966      00
 1967 0129 000000   		.space	3
 1968              	.LC25:
 1969 012c 706F7300 		.ascii	"pos\000"
 1970              	.LC26:
 1971 0130 706F7320 		.ascii	"pos line col\000"
 1971      6C696E65 
 1971      20636F6C 
 1971      00
 1972              		.text
 1973              	.Letext0:
 1974              		.file 6 "c:\\program files (x86)\\cypress\\psoc creator\\4.4\\psoc creator\\import\\gnu\\arm\\5.4.
 1975              		.file 7 "c:\\program files (x86)\\cypress\\psoc creator\\4.4\\psoc creator\\import\\gnu\\arm\\5.4.
 1976              		.file 8 "Generated_Source\\PSoC6\\pdl\\devices/psoc6/include/ip/cyip_gpio.h"
 1977              		.file 9 "Generated_Source\\PSoC6\\pdl\\devices/psoc6/include/ip/cyip_scb.h"
 1978              		.file 10 "Generated_Source\\PSoC6\\pdl\\devices/psoc6/include/ip/cyip_sar.h"
 1979              		.file 11 "Generated_Source\\PSoC6\\pdl\\devices/psoc6/include/psoc6_01_config.h"
 1980              		.file 12 "Generated_Source\\PSoC6\\pdl\\drivers/peripheral/device/cy_device.h"
 1981              		.file 13 "Generated_Source\\PSoC6\\pdl\\drivers/peripheral/syslib/cy_syslib.h"
 1982              		.file 14 "Generated_Source\\PSoC6\\pdl\\drivers/peripheral/sar/cy_sar.h"
 1983              		.file 15 ".\\sources\\func_list/func_list.h"
 1984              		.file 16 "Generated_Source\\PSoC6/UART.h"
 1985              		.file 17 "Generated_Source\\PSoC6\\pdl\\cmsis/include/core_cm4.h"
 1986              		.file 18 ".\\sources\\tty/tty_utils.h"
 1987              		.file 19 ".\\sources\\clcd/clcd.h"
 1988              		.file 20 "c:\\program files (x86)\\cypress\\psoc creator\\4.4\\psoc creator\\import\\gnu\\arm\\5.4
 1989              		.file 21 "Generated_Source\\PSoC6\\pdl\\drivers/peripheral/scb/cy_scb_common.h"
 1990              		.section	.debug_info,"",%progbits
 1991              	.Ldebug_info0:
 1992 0000 C0330000 		.4byte	0x33c0
 1993 0004 0400     		.2byte	0x4
 1994 0006 00000000 		.4byte	.Ldebug_abbrev0
 1995 000a 04       		.byte	0x4
 1996 000b 01       		.uleb128 0x1
 1997 000c 23030000 		.4byte	.LASF348
 1998 0010 0C       		.byte	0xc
 1999 0011 71000000 		.4byte	.LASF349
ARM GAS  C:\Users\Angel\AppData\Local\Temp\ccvqOPgy.s 			page 106


 2000 0015 90120000 		.4byte	.LASF350
 2001 0019 00000000 		.4byte	.Ldebug_ranges0+0
 2002 001d 00000000 		.4byte	0
 2003 0021 00000000 		.4byte	.Ldebug_line0
 2004 0025 02       		.uleb128 0x2
 2005 0026 02       		.byte	0x2
 2006 0027 05       		.byte	0x5
 2007 0028 59020000 		.4byte	.LASF0
 2008 002c 02       		.uleb128 0x2
 2009 002d 01       		.byte	0x1
 2010 002e 06       		.byte	0x6
 2011 002f FB100000 		.4byte	.LASF1
 2012 0033 03       		.uleb128 0x3
 2013 0034 220E0000 		.4byte	.LASF3
 2014 0038 06       		.byte	0x6
 2015 0039 1D       		.byte	0x1d
 2016 003a 3E000000 		.4byte	0x3e
 2017 003e 02       		.uleb128 0x2
 2018 003f 01       		.byte	0x1
 2019 0040 08       		.byte	0x8
 2020 0041 390C0000 		.4byte	.LASF2
 2021 0045 03       		.uleb128 0x3
 2022 0046 0D0A0000 		.4byte	.LASF4
 2023 004a 06       		.byte	0x6
 2024 004b 29       		.byte	0x29
 2025 004c 25000000 		.4byte	0x25
 2026 0050 03       		.uleb128 0x3
 2027 0051 C1050000 		.4byte	.LASF5
 2028 0055 06       		.byte	0x6
 2029 0056 2B       		.byte	0x2b
 2030 0057 5B000000 		.4byte	0x5b
 2031 005b 02       		.uleb128 0x2
 2032 005c 02       		.byte	0x2
 2033 005d 07       		.byte	0x7
 2034 005e 6B0B0000 		.4byte	.LASF6
 2035 0062 03       		.uleb128 0x3
 2036 0063 BA010000 		.4byte	.LASF7
 2037 0067 06       		.byte	0x6
 2038 0068 3F       		.byte	0x3f
 2039 0069 6D000000 		.4byte	0x6d
 2040 006d 02       		.uleb128 0x2
 2041 006e 04       		.byte	0x4
 2042 006f 05       		.byte	0x5
 2043 0070 010D0000 		.4byte	.LASF8
 2044 0074 03       		.uleb128 0x3
 2045 0075 B20F0000 		.4byte	.LASF9
 2046 0079 06       		.byte	0x6
 2047 007a 41       		.byte	0x41
 2048 007b 7F000000 		.4byte	0x7f
 2049 007f 02       		.uleb128 0x2
 2050 0080 04       		.byte	0x4
 2051 0081 07       		.byte	0x7
 2052 0082 E80E0000 		.4byte	.LASF10
 2053 0086 02       		.uleb128 0x2
 2054 0087 08       		.byte	0x8
 2055 0088 05       		.byte	0x5
 2056 0089 88090000 		.4byte	.LASF11
ARM GAS  C:\Users\Angel\AppData\Local\Temp\ccvqOPgy.s 			page 107


 2057 008d 02       		.uleb128 0x2
 2058 008e 08       		.byte	0x8
 2059 008f 07       		.byte	0x7
 2060 0090 46050000 		.4byte	.LASF12
 2061 0094 04       		.uleb128 0x4
 2062 0095 04       		.byte	0x4
 2063 0096 05       		.byte	0x5
 2064 0097 696E7400 		.ascii	"int\000"
 2065 009b 02       		.uleb128 0x2
 2066 009c 04       		.byte	0x4
 2067 009d 07       		.byte	0x7
 2068 009e 7F020000 		.4byte	.LASF13
 2069 00a2 03       		.uleb128 0x3
 2070 00a3 0B090000 		.4byte	.LASF14
 2071 00a7 07       		.byte	0x7
 2072 00a8 18       		.byte	0x18
 2073 00a9 33000000 		.4byte	0x33
 2074 00ad 03       		.uleb128 0x3
 2075 00ae 1F050000 		.4byte	.LASF15
 2076 00b2 07       		.byte	0x7
 2077 00b3 20       		.byte	0x20
 2078 00b4 45000000 		.4byte	0x45
 2079 00b8 03       		.uleb128 0x3
 2080 00b9 9C0B0000 		.4byte	.LASF16
 2081 00bd 07       		.byte	0x7
 2082 00be 24       		.byte	0x24
 2083 00bf 50000000 		.4byte	0x50
 2084 00c3 03       		.uleb128 0x3
 2085 00c4 270F0000 		.4byte	.LASF17
 2086 00c8 07       		.byte	0x7
 2087 00c9 2C       		.byte	0x2c
 2088 00ca 62000000 		.4byte	0x62
 2089 00ce 03       		.uleb128 0x3
 2090 00cf 72040000 		.4byte	.LASF18
 2091 00d3 07       		.byte	0x7
 2092 00d4 30       		.byte	0x30
 2093 00d5 74000000 		.4byte	0x74
 2094 00d9 02       		.uleb128 0x2
 2095 00da 04       		.byte	0x4
 2096 00db 07       		.byte	0x7
 2097 00dc 470C0000 		.4byte	.LASF19
 2098 00e0 05       		.uleb128 0x5
 2099 00e1 CE000000 		.4byte	0xce
 2100 00e5 06       		.uleb128 0x6
 2101 00e6 E0000000 		.4byte	0xe0
 2102 00ea 07       		.uleb128 0x7
 2103 00eb E5000000 		.4byte	0xe5
 2104 00ef FA000000 		.4byte	0xfa
 2105 00f3 08       		.uleb128 0x8
 2106 00f4 D9000000 		.4byte	0xd9
 2107 00f8 01       		.byte	0x1
 2108 00f9 00       		.byte	0
 2109 00fa 07       		.uleb128 0x7
 2110 00fb E5000000 		.4byte	0xe5
 2111 00ff 0A010000 		.4byte	0x10a
 2112 0103 08       		.uleb128 0x8
 2113 0104 D9000000 		.4byte	0xd9
ARM GAS  C:\Users\Angel\AppData\Local\Temp\ccvqOPgy.s 			page 108


 2114 0108 03       		.byte	0x3
 2115 0109 00       		.byte	0
 2116 010a 07       		.uleb128 0x7
 2117 010b E0000000 		.4byte	0xe0
 2118 010f 1A010000 		.4byte	0x11a
 2119 0113 08       		.uleb128 0x8
 2120 0114 D9000000 		.4byte	0xd9
 2121 0118 0F       		.byte	0xf
 2122 0119 00       		.byte	0
 2123 011a 07       		.uleb128 0x7
 2124 011b E5000000 		.4byte	0xe5
 2125 011f 2A010000 		.4byte	0x12a
 2126 0123 08       		.uleb128 0x8
 2127 0124 D9000000 		.4byte	0xd9
 2128 0128 05       		.byte	0x5
 2129 0129 00       		.byte	0
 2130 012a 07       		.uleb128 0x7
 2131 012b E5000000 		.4byte	0xe5
 2132 012f 3A010000 		.4byte	0x13a
 2133 0133 08       		.uleb128 0x8
 2134 0134 D9000000 		.4byte	0xd9
 2135 0138 7F       		.byte	0x7f
 2136 0139 00       		.byte	0
 2137 013a 07       		.uleb128 0x7
 2138 013b E5000000 		.4byte	0xe5
 2139 013f 4A010000 		.4byte	0x14a
 2140 0143 08       		.uleb128 0x8
 2141 0144 D9000000 		.4byte	0xd9
 2142 0148 0C       		.byte	0xc
 2143 0149 00       		.byte	0
 2144 014a 07       		.uleb128 0x7
 2145 014b E5000000 		.4byte	0xe5
 2146 014f 5A010000 		.4byte	0x15a
 2147 0153 08       		.uleb128 0x8
 2148 0154 D9000000 		.4byte	0xd9
 2149 0158 0F       		.byte	0xf
 2150 0159 00       		.byte	0
 2151 015a 07       		.uleb128 0x7
 2152 015b E5000000 		.4byte	0xe5
 2153 015f 6A010000 		.4byte	0x16a
 2154 0163 08       		.uleb128 0x8
 2155 0164 D9000000 		.4byte	0xd9
 2156 0168 1E       		.byte	0x1e
 2157 0169 00       		.byte	0
 2158 016a 07       		.uleb128 0x7
 2159 016b E5000000 		.4byte	0xe5
 2160 016f 7A010000 		.4byte	0x17a
 2161 0173 08       		.uleb128 0x8
 2162 0174 D9000000 		.4byte	0xd9
 2163 0178 02       		.byte	0x2
 2164 0179 00       		.byte	0
 2165 017a 07       		.uleb128 0x7
 2166 017b E5000000 		.4byte	0xe5
 2167 017f 8A010000 		.4byte	0x18a
 2168 0183 08       		.uleb128 0x8
 2169 0184 D9000000 		.4byte	0xd9
 2170 0188 0E       		.byte	0xe
ARM GAS  C:\Users\Angel\AppData\Local\Temp\ccvqOPgy.s 			page 109


 2171 0189 00       		.byte	0
 2172 018a 07       		.uleb128 0x7
 2173 018b E5000000 		.4byte	0xe5
 2174 018f 9A010000 		.4byte	0x19a
 2175 0193 08       		.uleb128 0x8
 2176 0194 D9000000 		.4byte	0xd9
 2177 0198 0B       		.byte	0xb
 2178 0199 00       		.byte	0
 2179 019a 09       		.uleb128 0x9
 2180 019b 80       		.byte	0x80
 2181 019c 08       		.byte	0x8
 2182 019d 22       		.byte	0x22
 2183 019e 6E020000 		.4byte	0x26e
 2184 01a2 0A       		.uleb128 0xa
 2185 01a3 4F555400 		.ascii	"OUT\000"
 2186 01a7 08       		.byte	0x8
 2187 01a8 23       		.byte	0x23
 2188 01a9 E0000000 		.4byte	0xe0
 2189 01ad 00       		.byte	0
 2190 01ae 0B       		.uleb128 0xb
 2191 01af 0D050000 		.4byte	.LASF20
 2192 01b3 08       		.byte	0x8
 2193 01b4 24       		.byte	0x24
 2194 01b5 E0000000 		.4byte	0xe0
 2195 01b9 04       		.byte	0x4
 2196 01ba 0B       		.uleb128 0xb
 2197 01bb 8B060000 		.4byte	.LASF21
 2198 01bf 08       		.byte	0x8
 2199 01c0 25       		.byte	0x25
 2200 01c1 E0000000 		.4byte	0xe0
 2201 01c5 08       		.byte	0x8
 2202 01c6 0B       		.uleb128 0xb
 2203 01c7 050E0000 		.4byte	.LASF22
 2204 01cb 08       		.byte	0x8
 2205 01cc 26       		.byte	0x26
 2206 01cd E0000000 		.4byte	0xe0
 2207 01d1 0C       		.byte	0xc
 2208 01d2 0A       		.uleb128 0xa
 2209 01d3 494E00   		.ascii	"IN\000"
 2210 01d6 08       		.byte	0x8
 2211 01d7 27       		.byte	0x27
 2212 01d8 E5000000 		.4byte	0xe5
 2213 01dc 10       		.byte	0x10
 2214 01dd 0B       		.uleb128 0xb
 2215 01de A7040000 		.4byte	.LASF23
 2216 01e2 08       		.byte	0x8
 2217 01e3 28       		.byte	0x28
 2218 01e4 E0000000 		.4byte	0xe0
 2219 01e8 14       		.byte	0x14
 2220 01e9 0B       		.uleb128 0xb
 2221 01ea AC0A0000 		.4byte	.LASF24
 2222 01ee 08       		.byte	0x8
 2223 01ef 29       		.byte	0x29
 2224 01f0 E0000000 		.4byte	0xe0
 2225 01f4 18       		.byte	0x18
 2226 01f5 0B       		.uleb128 0xb
 2227 01f6 9B0E0000 		.4byte	.LASF25
ARM GAS  C:\Users\Angel\AppData\Local\Temp\ccvqOPgy.s 			page 110


 2228 01fa 08       		.byte	0x8
 2229 01fb 2A       		.byte	0x2a
 2230 01fc E5000000 		.4byte	0xe5
 2231 0200 1C       		.byte	0x1c
 2232 0201 0B       		.uleb128 0xb
 2233 0202 C0020000 		.4byte	.LASF26
 2234 0206 08       		.byte	0x8
 2235 0207 2B       		.byte	0x2b
 2236 0208 E0000000 		.4byte	0xe0
 2237 020c 20       		.byte	0x20
 2238 020d 0B       		.uleb128 0xb
 2239 020e E90F0000 		.4byte	.LASF27
 2240 0212 08       		.byte	0x8
 2241 0213 2C       		.byte	0x2c
 2242 0214 E0000000 		.4byte	0xe0
 2243 0218 24       		.byte	0x24
 2244 0219 0A       		.uleb128 0xa
 2245 021a 43464700 		.ascii	"CFG\000"
 2246 021e 08       		.byte	0x8
 2247 021f 2D       		.byte	0x2d
 2248 0220 E0000000 		.4byte	0xe0
 2249 0224 28       		.byte	0x28
 2250 0225 0B       		.uleb128 0xb
 2251 0226 34040000 		.4byte	.LASF28
 2252 022a 08       		.byte	0x8
 2253 022b 2E       		.byte	0x2e
 2254 022c E0000000 		.4byte	0xe0
 2255 0230 2C       		.byte	0x2c
 2256 0231 0B       		.uleb128 0xb
 2257 0232 38060000 		.4byte	.LASF29
 2258 0236 08       		.byte	0x8
 2259 0237 2F       		.byte	0x2f
 2260 0238 E0000000 		.4byte	0xe0
 2261 023c 30       		.byte	0x30
 2262 023d 0B       		.uleb128 0xb
 2263 023e A5010000 		.4byte	.LASF30
 2264 0242 08       		.byte	0x8
 2265 0243 30       		.byte	0x30
 2266 0244 E0000000 		.4byte	0xe0
 2267 0248 34       		.byte	0x34
 2268 0249 0B       		.uleb128 0xb
 2269 024a 14000000 		.4byte	.LASF31
 2270 024e 08       		.byte	0x8
 2271 024f 31       		.byte	0x31
 2272 0250 E5000000 		.4byte	0xe5
 2273 0254 38       		.byte	0x38
 2274 0255 0B       		.uleb128 0xb
 2275 0256 670F0000 		.4byte	.LASF32
 2276 025a 08       		.byte	0x8
 2277 025b 32       		.byte	0x32
 2278 025c E0000000 		.4byte	0xe0
 2279 0260 3C       		.byte	0x3c
 2280 0261 0B       		.uleb128 0xb
 2281 0262 15050000 		.4byte	.LASF33
 2282 0266 08       		.byte	0x8
 2283 0267 33       		.byte	0x33
 2284 0268 73020000 		.4byte	0x273
ARM GAS  C:\Users\Angel\AppData\Local\Temp\ccvqOPgy.s 			page 111


 2285 026c 40       		.byte	0x40
 2286 026d 00       		.byte	0
 2287 026e 05       		.uleb128 0x5
 2288 026f 4A010000 		.4byte	0x14a
 2289 0273 06       		.uleb128 0x6
 2290 0274 6E020000 		.4byte	0x26e
 2291 0278 03       		.uleb128 0x3
 2292 0279 840D0000 		.4byte	.LASF34
 2293 027d 08       		.byte	0x8
 2294 027e 34       		.byte	0x34
 2295 027f 9A010000 		.4byte	0x19a
 2296 0283 0C       		.uleb128 0xc
 2297 0284 2440     		.2byte	0x4024
 2298 0286 08       		.byte	0x8
 2299 0287 39       		.byte	0x39
 2300 0288 0E030000 		.4byte	0x30e
 2301 028c 0A       		.uleb128 0xa
 2302 028d 50525400 		.ascii	"PRT\000"
 2303 0291 08       		.byte	0x8
 2304 0292 3A       		.byte	0x3a
 2305 0293 0E030000 		.4byte	0x30e
 2306 0297 00       		.byte	0
 2307 0298 0D       		.uleb128 0xd
 2308 0299 28000000 		.4byte	.LASF35
 2309 029d 08       		.byte	0x8
 2310 029e 3B       		.byte	0x3b
 2311 029f E5000000 		.4byte	0xe5
 2312 02a3 0040     		.2byte	0x4000
 2313 02a5 0D       		.uleb128 0xd
 2314 02a6 34000000 		.4byte	.LASF36
 2315 02aa 08       		.byte	0x8
 2316 02ab 3C       		.byte	0x3c
 2317 02ac E5000000 		.4byte	0xe5
 2318 02b0 0440     		.2byte	0x4004
 2319 02b2 0D       		.uleb128 0xd
 2320 02b3 40000000 		.4byte	.LASF37
 2321 02b7 08       		.byte	0x8
 2322 02b8 3D       		.byte	0x3d
 2323 02b9 E5000000 		.4byte	0xe5
 2324 02bd 0840     		.2byte	0x4008
 2325 02bf 0D       		.uleb128 0xd
 2326 02c0 4C000000 		.4byte	.LASF38
 2327 02c4 08       		.byte	0x8
 2328 02c5 3E       		.byte	0x3e
 2329 02c6 E5000000 		.4byte	0xe5
 2330 02ca 0C40     		.2byte	0x400c
 2331 02cc 0D       		.uleb128 0xd
 2332 02cd 1D000000 		.4byte	.LASF39
 2333 02d1 08       		.byte	0x8
 2334 02d2 3F       		.byte	0x3f
 2335 02d3 E5000000 		.4byte	0xe5
 2336 02d7 1040     		.2byte	0x4010
 2337 02d9 0D       		.uleb128 0xd
 2338 02da 1A070000 		.4byte	.LASF40
 2339 02de 08       		.byte	0x8
 2340 02df 40       		.byte	0x40
 2341 02e0 E0000000 		.4byte	0xe0
ARM GAS  C:\Users\Angel\AppData\Local\Temp\ccvqOPgy.s 			page 112


 2342 02e4 1440     		.2byte	0x4014
 2343 02e6 0D       		.uleb128 0xd
 2344 02e7 ED100000 		.4byte	.LASF41
 2345 02eb 08       		.byte	0x8
 2346 02ec 41       		.byte	0x41
 2347 02ed E0000000 		.4byte	0xe0
 2348 02f1 1840     		.2byte	0x4018
 2349 02f3 0D       		.uleb128 0xd
 2350 02f4 2D0B0000 		.4byte	.LASF42
 2351 02f8 08       		.byte	0x8
 2352 02f9 42       		.byte	0x42
 2353 02fa E5000000 		.4byte	0xe5
 2354 02fe 1C40     		.2byte	0x401c
 2355 0300 0D       		.uleb128 0xd
 2356 0301 BF0B0000 		.4byte	.LASF43
 2357 0305 08       		.byte	0x8
 2358 0306 43       		.byte	0x43
 2359 0307 E0000000 		.4byte	0xe0
 2360 030b 2040     		.2byte	0x4020
 2361 030d 00       		.byte	0
 2362 030e 07       		.uleb128 0x7
 2363 030f 78020000 		.4byte	0x278
 2364 0313 1E030000 		.4byte	0x31e
 2365 0317 08       		.uleb128 0x8
 2366 0318 D9000000 		.4byte	0xd9
 2367 031c 7F       		.byte	0x7f
 2368 031d 00       		.byte	0
 2369 031e 03       		.uleb128 0x3
 2370 031f 86040000 		.4byte	.LASF44
 2371 0323 08       		.byte	0x8
 2372 0324 44       		.byte	0x44
 2373 0325 83020000 		.4byte	0x283
 2374 0329 07       		.uleb128 0x7
 2375 032a E5000000 		.4byte	0xe5
 2376 032e 39030000 		.4byte	0x339
 2377 0332 08       		.uleb128 0x8
 2378 0333 D9000000 		.4byte	0xd9
 2379 0337 0A       		.byte	0xa
 2380 0338 00       		.byte	0
 2381 0339 07       		.uleb128 0x7
 2382 033a E5000000 		.4byte	0xe5
 2383 033e 49030000 		.4byte	0x349
 2384 0342 08       		.uleb128 0x8
 2385 0343 D9000000 		.4byte	0xd9
 2386 0347 2E       		.byte	0x2e
 2387 0348 00       		.byte	0
 2388 0349 07       		.uleb128 0x7
 2389 034a E5000000 		.4byte	0xe5
 2390 034e 59030000 		.4byte	0x359
 2391 0352 08       		.uleb128 0x8
 2392 0353 D9000000 		.4byte	0xd9
 2393 0357 2D       		.byte	0x2d
 2394 0358 00       		.byte	0
 2395 0359 07       		.uleb128 0x7
 2396 035a E0000000 		.4byte	0xe0
 2397 035e 6A030000 		.4byte	0x36a
 2398 0362 0E       		.uleb128 0xe
ARM GAS  C:\Users\Angel\AppData\Local\Temp\ccvqOPgy.s 			page 113


 2399 0363 D9000000 		.4byte	0xd9
 2400 0367 FF01     		.2byte	0x1ff
 2401 0369 00       		.byte	0
 2402 036a 07       		.uleb128 0x7
 2403 036b E5000000 		.4byte	0xe5
 2404 036f 7A030000 		.4byte	0x37a
 2405 0373 08       		.uleb128 0x8
 2406 0374 D9000000 		.4byte	0xd9
 2407 0378 62       		.byte	0x62
 2408 0379 00       		.byte	0
 2409 037a 0C       		.uleb128 0xc
 2410 037b D00F     		.2byte	0xfd0
 2411 037d 09       		.byte	0x9
 2412 037e 21       		.byte	0x21
 2413 037f E4060000 		.4byte	0x6e4
 2414 0383 0B       		.uleb128 0xb
 2415 0384 E9120000 		.4byte	.LASF45
 2416 0388 09       		.byte	0x9
 2417 0389 22       		.byte	0x22
 2418 038a E0000000 		.4byte	0xe0
 2419 038e 00       		.byte	0
 2420 038f 0B       		.uleb128 0xb
 2421 0390 02120000 		.4byte	.LASF46
 2422 0394 09       		.byte	0x9
 2423 0395 23       		.byte	0x23
 2424 0396 E5000000 		.4byte	0xe5
 2425 039a 04       		.byte	0x4
 2426 039b 0B       		.uleb128 0xb
 2427 039c 65110000 		.4byte	.LASF47
 2428 03a0 09       		.byte	0x9
 2429 03a1 24       		.byte	0x24
 2430 03a2 E0000000 		.4byte	0xe0
 2431 03a6 08       		.byte	0x8
 2432 03a7 0B       		.uleb128 0xb
 2433 03a8 BF000000 		.4byte	.LASF48
 2434 03ac 09       		.byte	0x9
 2435 03ad 25       		.byte	0x25
 2436 03ae E5000000 		.4byte	0xe5
 2437 03b2 0C       		.byte	0xc
 2438 03b3 0B       		.uleb128 0xb
 2439 03b4 14000000 		.4byte	.LASF31
 2440 03b8 09       		.byte	0x9
 2441 03b9 26       		.byte	0x26
 2442 03ba E9060000 		.4byte	0x6e9
 2443 03be 10       		.byte	0x10
 2444 03bf 0B       		.uleb128 0xb
 2445 03c0 7B0E0000 		.4byte	.LASF49
 2446 03c4 09       		.byte	0x9
 2447 03c5 27       		.byte	0x27
 2448 03c6 E0000000 		.4byte	0xe0
 2449 03ca 20       		.byte	0x20
 2450 03cb 0B       		.uleb128 0xb
 2451 03cc 800F0000 		.4byte	.LASF50
 2452 03d0 09       		.byte	0x9
 2453 03d1 28       		.byte	0x28
 2454 03d2 E5000000 		.4byte	0xe5
 2455 03d6 24       		.byte	0x24
ARM GAS  C:\Users\Angel\AppData\Local\Temp\ccvqOPgy.s 			page 114


 2456 03d7 0B       		.uleb128 0xb
 2457 03d8 15050000 		.4byte	.LASF33
 2458 03dc 09       		.byte	0x9
 2459 03dd 29       		.byte	0x29
 2460 03de F3060000 		.4byte	0x6f3
 2461 03e2 28       		.byte	0x28
 2462 03e3 0B       		.uleb128 0xb
 2463 03e4 12110000 		.4byte	.LASF51
 2464 03e8 09       		.byte	0x9
 2465 03e9 2A       		.byte	0x2a
 2466 03ea E0000000 		.4byte	0xe0
 2467 03ee 40       		.byte	0x40
 2468 03ef 0B       		.uleb128 0xb
 2469 03f0 25060000 		.4byte	.LASF52
 2470 03f4 09       		.byte	0x9
 2471 03f5 2B       		.byte	0x2b
 2472 03f6 E0000000 		.4byte	0xe0
 2473 03fa 44       		.byte	0x44
 2474 03fb 0B       		.uleb128 0xb
 2475 03fc E2030000 		.4byte	.LASF53
 2476 0400 09       		.byte	0x9
 2477 0401 2C       		.byte	0x2c
 2478 0402 E0000000 		.4byte	0xe0
 2479 0406 48       		.byte	0x48
 2480 0407 0B       		.uleb128 0xb
 2481 0408 D50D0000 		.4byte	.LASF54
 2482 040c 09       		.byte	0x9
 2483 040d 2D       		.byte	0x2d
 2484 040e E5000000 		.4byte	0xe5
 2485 0412 4C       		.byte	0x4c
 2486 0413 0B       		.uleb128 0xb
 2487 0414 170A0000 		.4byte	.LASF55
 2488 0418 09       		.byte	0x9
 2489 0419 2E       		.byte	0x2e
 2490 041a E0000000 		.4byte	0xe0
 2491 041e 50       		.byte	0x50
 2492 041f 0B       		.uleb128 0xb
 2493 0420 960C0000 		.4byte	.LASF56
 2494 0424 09       		.byte	0x9
 2495 0425 2F       		.byte	0x2f
 2496 0426 FD060000 		.4byte	0x6fd
 2497 042a 54       		.byte	0x54
 2498 042b 0B       		.uleb128 0xb
 2499 042c D20E0000 		.4byte	.LASF57
 2500 0430 09       		.byte	0x9
 2501 0431 30       		.byte	0x30
 2502 0432 E0000000 		.4byte	0xe0
 2503 0436 60       		.byte	0x60
 2504 0437 0B       		.uleb128 0xb
 2505 0438 170D0000 		.4byte	.LASF58
 2506 043c 09       		.byte	0x9
 2507 043d 31       		.byte	0x31
 2508 043e E5000000 		.4byte	0xe5
 2509 0442 64       		.byte	0x64
 2510 0443 0B       		.uleb128 0xb
 2511 0444 490E0000 		.4byte	.LASF59
 2512 0448 09       		.byte	0x9
ARM GAS  C:\Users\Angel\AppData\Local\Temp\ccvqOPgy.s 			page 115


 2513 0449 32       		.byte	0x32
 2514 044a E0000000 		.4byte	0xe0
 2515 044e 68       		.byte	0x68
 2516 044f 0B       		.uleb128 0xb
 2517 0450 500C0000 		.4byte	.LASF60
 2518 0454 09       		.byte	0x9
 2519 0455 33       		.byte	0x33
 2520 0456 E0000000 		.4byte	0xe0
 2521 045a 6C       		.byte	0x6c
 2522 045b 0B       		.uleb128 0xb
 2523 045c 4B040000 		.4byte	.LASF61
 2524 0460 09       		.byte	0x9
 2525 0461 34       		.byte	0x34
 2526 0462 E0000000 		.4byte	0xe0
 2527 0466 70       		.byte	0x70
 2528 0467 0B       		.uleb128 0xb
 2529 0468 A00C0000 		.4byte	.LASF62
 2530 046c 09       		.byte	0x9
 2531 046d 35       		.byte	0x35
 2532 046e 07070000 		.4byte	0x707
 2533 0472 74       		.byte	0x74
 2534 0473 0D       		.uleb128 0xd
 2535 0474 BC100000 		.4byte	.LASF63
 2536 0478 09       		.byte	0x9
 2537 0479 36       		.byte	0x36
 2538 047a E0000000 		.4byte	0xe0
 2539 047e 0002     		.2byte	0x200
 2540 0480 0D       		.uleb128 0xd
 2541 0481 370E0000 		.4byte	.LASF64
 2542 0485 09       		.byte	0x9
 2543 0486 37       		.byte	0x37
 2544 0487 E0000000 		.4byte	0xe0
 2545 048b 0402     		.2byte	0x204
 2546 048d 0D       		.uleb128 0xd
 2547 048e 14010000 		.4byte	.LASF65
 2548 0492 09       		.byte	0x9
 2549 0493 38       		.byte	0x38
 2550 0494 E5000000 		.4byte	0xe5
 2551 0498 0802     		.2byte	0x208
 2552 049a 0D       		.uleb128 0xd
 2553 049b AA0C0000 		.4byte	.LASF66
 2554 049f 09       		.byte	0x9
 2555 04a0 39       		.byte	0x39
 2556 04a1 11070000 		.4byte	0x711
 2557 04a5 0C02     		.2byte	0x20c
 2558 04a7 0D       		.uleb128 0xd
 2559 04a8 96100000 		.4byte	.LASF67
 2560 04ac 09       		.byte	0x9
 2561 04ad 3A       		.byte	0x3a
 2562 04ae E0000000 		.4byte	0xe0
 2563 04b2 4002     		.2byte	0x240
 2564 04b4 0D       		.uleb128 0xd
 2565 04b5 B40C0000 		.4byte	.LASF68
 2566 04b9 09       		.byte	0x9
 2567 04ba 3B       		.byte	0x3b
 2568 04bb 1B070000 		.4byte	0x71b
 2569 04bf 4402     		.2byte	0x244
ARM GAS  C:\Users\Angel\AppData\Local\Temp\ccvqOPgy.s 			page 116


 2570 04c1 0D       		.uleb128 0xd
 2571 04c2 A70E0000 		.4byte	.LASF69
 2572 04c6 09       		.byte	0x9
 2573 04c7 3C       		.byte	0x3c
 2574 04c8 E0000000 		.4byte	0xe0
 2575 04cc 0003     		.2byte	0x300
 2576 04ce 0D       		.uleb128 0xd
 2577 04cf AD010000 		.4byte	.LASF70
 2578 04d3 09       		.byte	0x9
 2579 04d4 3D       		.byte	0x3d
 2580 04d5 E0000000 		.4byte	0xe0
 2581 04d9 0403     		.2byte	0x304
 2582 04db 0D       		.uleb128 0xd
 2583 04dc 66100000 		.4byte	.LASF71
 2584 04e0 09       		.byte	0x9
 2585 04e1 3E       		.byte	0x3e
 2586 04e2 E5000000 		.4byte	0xe5
 2587 04e6 0803     		.2byte	0x308
 2588 04e8 0D       		.uleb128 0xd
 2589 04e9 BE0C0000 		.4byte	.LASF72
 2590 04ed 09       		.byte	0x9
 2591 04ee 3F       		.byte	0x3f
 2592 04ef E5000000 		.4byte	0xe5
 2593 04f3 0C03     		.2byte	0x30c
 2594 04f5 0D       		.uleb128 0xd
 2595 04f6 E2060000 		.4byte	.LASF73
 2596 04fa 09       		.byte	0x9
 2597 04fb 40       		.byte	0x40
 2598 04fc E0000000 		.4byte	0xe0
 2599 0500 1003     		.2byte	0x310
 2600 0502 0D       		.uleb128 0xd
 2601 0503 C80C0000 		.4byte	.LASF74
 2602 0507 09       		.byte	0x9
 2603 0508 41       		.byte	0x41
 2604 0509 25070000 		.4byte	0x725
 2605 050d 1403     		.2byte	0x314
 2606 050f 0D       		.uleb128 0xd
 2607 0510 6F090000 		.4byte	.LASF75
 2608 0514 09       		.byte	0x9
 2609 0515 42       		.byte	0x42
 2610 0516 E5000000 		.4byte	0xe5
 2611 051a 4003     		.2byte	0x340
 2612 051c 0D       		.uleb128 0xd
 2613 051d 60040000 		.4byte	.LASF76
 2614 0521 09       		.byte	0x9
 2615 0522 43       		.byte	0x43
 2616 0523 E5000000 		.4byte	0xe5
 2617 0527 4403     		.2byte	0x344
 2618 0529 0D       		.uleb128 0xd
 2619 052a D20C0000 		.4byte	.LASF77
 2620 052e 09       		.byte	0x9
 2621 052f 44       		.byte	0x44
 2622 0530 2F070000 		.4byte	0x72f
 2623 0534 4803     		.2byte	0x348
 2624 0536 0D       		.uleb128 0xd
 2625 0537 88120000 		.4byte	.LASF78
 2626 053b 09       		.byte	0x9
ARM GAS  C:\Users\Angel\AppData\Local\Temp\ccvqOPgy.s 			page 117


 2627 053c 45       		.byte	0x45
 2628 053d 34070000 		.4byte	0x734
 2629 0541 0004     		.2byte	0x400
 2630 0543 0D       		.uleb128 0xd
 2631 0544 64120000 		.4byte	.LASF79
 2632 0548 09       		.byte	0x9
 2633 0549 46       		.byte	0x46
 2634 054a 3E070000 		.4byte	0x73e
 2635 054e 000C     		.2byte	0xc00
 2636 0550 0D       		.uleb128 0xd
 2637 0551 4B010000 		.4byte	.LASF80
 2638 0555 09       		.byte	0x9
 2639 0556 47       		.byte	0x47
 2640 0557 E5000000 		.4byte	0xe5
 2641 055b 000E     		.2byte	0xe00
 2642 055d 0D       		.uleb128 0xd
 2643 055e 0E100000 		.4byte	.LASF81
 2644 0562 09       		.byte	0x9
 2645 0563 48       		.byte	0x48
 2646 0564 48070000 		.4byte	0x748
 2647 0568 040E     		.2byte	0xe04
 2648 056a 0D       		.uleb128 0xd
 2649 056b 39070000 		.4byte	.LASF82
 2650 056f 09       		.byte	0x9
 2651 0570 49       		.byte	0x49
 2652 0571 E0000000 		.4byte	0xe0
 2653 0575 800E     		.2byte	0xe80
 2654 0577 0D       		.uleb128 0xd
 2655 0578 19100000 		.4byte	.LASF83
 2656 057c 09       		.byte	0x9
 2657 057d 4A       		.byte	0x4a
 2658 057e E5000000 		.4byte	0xe5
 2659 0582 840E     		.2byte	0xe84
 2660 0584 0D       		.uleb128 0xd
 2661 0585 A50B0000 		.4byte	.LASF84
 2662 0589 09       		.byte	0x9
 2663 058a 4B       		.byte	0x4b
 2664 058b E0000000 		.4byte	0xe0
 2665 058f 880E     		.2byte	0xe88
 2666 0591 0D       		.uleb128 0xd
 2667 0592 9C080000 		.4byte	.LASF85
 2668 0596 09       		.byte	0x9
 2669 0597 4C       		.byte	0x4c
 2670 0598 E5000000 		.4byte	0xe5
 2671 059c 8C0E     		.2byte	0xe8c
 2672 059e 0D       		.uleb128 0xd
 2673 059f 24100000 		.4byte	.LASF86
 2674 05a3 09       		.byte	0x9
 2675 05a4 4D       		.byte	0x4d
 2676 05a5 52070000 		.4byte	0x752
 2677 05a9 900E     		.2byte	0xe90
 2678 05ab 0D       		.uleb128 0xd
 2679 05ac 93060000 		.4byte	.LASF87
 2680 05b0 09       		.byte	0x9
 2681 05b1 4E       		.byte	0x4e
 2682 05b2 E0000000 		.4byte	0xe0
 2683 05b6 C00E     		.2byte	0xec0
ARM GAS  C:\Users\Angel\AppData\Local\Temp\ccvqOPgy.s 			page 118


 2684 05b8 0D       		.uleb128 0xd
 2685 05b9 2F100000 		.4byte	.LASF88
 2686 05bd 09       		.byte	0x9
 2687 05be 4F       		.byte	0x4f
 2688 05bf E5000000 		.4byte	0xe5
 2689 05c3 C40E     		.2byte	0xec4
 2690 05c5 0D       		.uleb128 0xd
 2691 05c6 180C0000 		.4byte	.LASF89
 2692 05ca 09       		.byte	0x9
 2693 05cb 50       		.byte	0x50
 2694 05cc E0000000 		.4byte	0xe0
 2695 05d0 C80E     		.2byte	0xec8
 2696 05d2 0D       		.uleb128 0xd
 2697 05d3 530E0000 		.4byte	.LASF90
 2698 05d7 09       		.byte	0x9
 2699 05d8 51       		.byte	0x51
 2700 05d9 E5000000 		.4byte	0xe5
 2701 05dd CC0E     		.2byte	0xecc
 2702 05df 0D       		.uleb128 0xd
 2703 05e0 3A100000 		.4byte	.LASF91
 2704 05e4 09       		.byte	0x9
 2705 05e5 52       		.byte	0x52
 2706 05e6 5C070000 		.4byte	0x75c
 2707 05ea D00E     		.2byte	0xed0
 2708 05ec 0D       		.uleb128 0xd
 2709 05ed FA0E0000 		.4byte	.LASF92
 2710 05f1 09       		.byte	0x9
 2711 05f2 53       		.byte	0x53
 2712 05f3 E0000000 		.4byte	0xe0
 2713 05f7 000F     		.2byte	0xf00
 2714 05f9 0D       		.uleb128 0xd
 2715 05fa 7B040000 		.4byte	.LASF93
 2716 05fe 09       		.byte	0x9
 2717 05ff 54       		.byte	0x54
 2718 0600 E0000000 		.4byte	0xe0
 2719 0604 040F     		.2byte	0xf04
 2720 0606 0D       		.uleb128 0xd
 2721 0607 3B0F0000 		.4byte	.LASF94
 2722 060b 09       		.byte	0x9
 2723 060c 55       		.byte	0x55
 2724 060d E0000000 		.4byte	0xe0
 2725 0611 080F     		.2byte	0xf08
 2726 0613 0D       		.uleb128 0xd
 2727 0614 C0040000 		.4byte	.LASF95
 2728 0618 09       		.byte	0x9
 2729 0619 56       		.byte	0x56
 2730 061a E5000000 		.4byte	0xe5
 2731 061e 0C0F     		.2byte	0xf0c
 2732 0620 0D       		.uleb128 0xd
 2733 0621 45100000 		.4byte	.LASF96
 2734 0625 09       		.byte	0x9
 2735 0626 57       		.byte	0x57
 2736 0627 66070000 		.4byte	0x766
 2737 062b 100F     		.2byte	0xf10
 2738 062d 0D       		.uleb128 0xd
 2739 062e 200F0000 		.4byte	.LASF97
 2740 0632 09       		.byte	0x9
ARM GAS  C:\Users\Angel\AppData\Local\Temp\ccvqOPgy.s 			page 119


 2741 0633 58       		.byte	0x58
 2742 0634 E0000000 		.4byte	0xe0
 2743 0638 400F     		.2byte	0xf40
 2744 063a 0D       		.uleb128 0xd
 2745 063b 02020000 		.4byte	.LASF98
 2746 063f 09       		.byte	0x9
 2747 0640 59       		.byte	0x59
 2748 0641 E0000000 		.4byte	0xe0
 2749 0645 440F     		.2byte	0xf44
 2750 0647 0D       		.uleb128 0xd
 2751 0648 7F080000 		.4byte	.LASF99
 2752 064c 09       		.byte	0x9
 2753 064d 5A       		.byte	0x5a
 2754 064e E0000000 		.4byte	0xe0
 2755 0652 480F     		.2byte	0xf48
 2756 0654 0D       		.uleb128 0xd
 2757 0655 45070000 		.4byte	.LASF100
 2758 0659 09       		.byte	0x9
 2759 065a 5B       		.byte	0x5b
 2760 065b E5000000 		.4byte	0xe5
 2761 065f 4C0F     		.2byte	0xf4c
 2762 0661 0D       		.uleb128 0xd
 2763 0662 50100000 		.4byte	.LASF101
 2764 0666 09       		.byte	0x9
 2765 0667 5C       		.byte	0x5c
 2766 0668 70070000 		.4byte	0x770
 2767 066c 500F     		.2byte	0xf50
 2768 066e 0D       		.uleb128 0xd
 2769 066f CD0D0000 		.4byte	.LASF102
 2770 0673 09       		.byte	0x9
 2771 0674 5D       		.byte	0x5d
 2772 0675 E0000000 		.4byte	0xe0
 2773 0679 800F     		.2byte	0xf80
 2774 067b 0D       		.uleb128 0xd
 2775 067c 2B020000 		.4byte	.LASF103
 2776 0680 09       		.byte	0x9
 2777 0681 5E       		.byte	0x5e
 2778 0682 E0000000 		.4byte	0xe0
 2779 0686 840F     		.2byte	0xf84
 2780 0688 0D       		.uleb128 0xd
 2781 0689 D7000000 		.4byte	.LASF104
 2782 068d 09       		.byte	0x9
 2783 068e 5F       		.byte	0x5f
 2784 068f E0000000 		.4byte	0xe0
 2785 0693 880F     		.2byte	0xf88
 2786 0695 0D       		.uleb128 0xd
 2787 0696 2E0D0000 		.4byte	.LASF105
 2788 069a 09       		.byte	0x9
 2789 069b 60       		.byte	0x60
 2790 069c E5000000 		.4byte	0xe5
 2791 06a0 8C0F     		.2byte	0xf8c
 2792 06a2 0D       		.uleb128 0xd
 2793 06a3 5B100000 		.4byte	.LASF106
 2794 06a7 09       		.byte	0x9
 2795 06a8 61       		.byte	0x61
 2796 06a9 7A070000 		.4byte	0x77a
 2797 06ad 900F     		.2byte	0xf90
ARM GAS  C:\Users\Angel\AppData\Local\Temp\ccvqOPgy.s 			page 120


 2798 06af 0D       		.uleb128 0xd
 2799 06b0 0C0B0000 		.4byte	.LASF107
 2800 06b4 09       		.byte	0x9
 2801 06b5 62       		.byte	0x62
 2802 06b6 E0000000 		.4byte	0xe0
 2803 06ba C00F     		.2byte	0xfc0
 2804 06bc 0D       		.uleb128 0xd
 2805 06bd E0110000 		.4byte	.LASF108
 2806 06c1 09       		.byte	0x9
 2807 06c2 63       		.byte	0x63
 2808 06c3 E0000000 		.4byte	0xe0
 2809 06c7 C40F     		.2byte	0xfc4
 2810 06c9 0D       		.uleb128 0xd
 2811 06ca 2A110000 		.4byte	.LASF109
 2812 06ce 09       		.byte	0x9
 2813 06cf 64       		.byte	0x64
 2814 06d0 E0000000 		.4byte	0xe0
 2815 06d4 C80F     		.2byte	0xfc8
 2816 06d6 0D       		.uleb128 0xd
 2817 06d7 37020000 		.4byte	.LASF110
 2818 06db 09       		.byte	0x9
 2819 06dc 65       		.byte	0x65
 2820 06dd E5000000 		.4byte	0xe5
 2821 06e1 CC0F     		.2byte	0xfcc
 2822 06e3 00       		.byte	0
 2823 06e4 05       		.uleb128 0x5
 2824 06e5 FA000000 		.4byte	0xfa
 2825 06e9 06       		.uleb128 0x6
 2826 06ea E4060000 		.4byte	0x6e4
 2827 06ee 05       		.uleb128 0x5
 2828 06ef 1A010000 		.4byte	0x11a
 2829 06f3 06       		.uleb128 0x6
 2830 06f4 EE060000 		.4byte	0x6ee
 2831 06f8 05       		.uleb128 0x5
 2832 06f9 6A010000 		.4byte	0x16a
 2833 06fd 06       		.uleb128 0x6
 2834 06fe F8060000 		.4byte	0x6f8
 2835 0702 05       		.uleb128 0x5
 2836 0703 6A030000 		.4byte	0x36a
 2837 0707 06       		.uleb128 0x6
 2838 0708 02070000 		.4byte	0x702
 2839 070c 05       		.uleb128 0x5
 2840 070d 3A010000 		.4byte	0x13a
 2841 0711 06       		.uleb128 0x6
 2842 0712 0C070000 		.4byte	0x70c
 2843 0716 05       		.uleb128 0x5
 2844 0717 39030000 		.4byte	0x339
 2845 071b 06       		.uleb128 0x6
 2846 071c 16070000 		.4byte	0x716
 2847 0720 05       		.uleb128 0x5
 2848 0721 29030000 		.4byte	0x329
 2849 0725 06       		.uleb128 0x6
 2850 0726 20070000 		.4byte	0x720
 2851 072a 05       		.uleb128 0x5
 2852 072b 49030000 		.4byte	0x349
 2853 072f 06       		.uleb128 0x6
 2854 0730 2A070000 		.4byte	0x72a
ARM GAS  C:\Users\Angel\AppData\Local\Temp\ccvqOPgy.s 			page 121


 2855 0734 05       		.uleb128 0x5
 2856 0735 59030000 		.4byte	0x359
 2857 0739 05       		.uleb128 0x5
 2858 073a 2A010000 		.4byte	0x12a
 2859 073e 06       		.uleb128 0x6
 2860 073f 39070000 		.4byte	0x739
 2861 0743 05       		.uleb128 0x5
 2862 0744 5A010000 		.4byte	0x15a
 2863 0748 06       		.uleb128 0x6
 2864 0749 43070000 		.4byte	0x743
 2865 074d 05       		.uleb128 0x5
 2866 074e 8A010000 		.4byte	0x18a
 2867 0752 06       		.uleb128 0x6
 2868 0753 4D070000 		.4byte	0x74d
 2869 0757 05       		.uleb128 0x5
 2870 0758 8A010000 		.4byte	0x18a
 2871 075c 06       		.uleb128 0x6
 2872 075d 57070000 		.4byte	0x757
 2873 0761 05       		.uleb128 0x5
 2874 0762 8A010000 		.4byte	0x18a
 2875 0766 06       		.uleb128 0x6
 2876 0767 61070000 		.4byte	0x761
 2877 076b 05       		.uleb128 0x5
 2878 076c 8A010000 		.4byte	0x18a
 2879 0770 06       		.uleb128 0x6
 2880 0771 6B070000 		.4byte	0x76b
 2881 0775 05       		.uleb128 0x5
 2882 0776 8A010000 		.4byte	0x18a
 2883 077a 06       		.uleb128 0x6
 2884 077b 75070000 		.4byte	0x775
 2885 077f 03       		.uleb128 0x3
 2886 0780 3C080000 		.4byte	.LASF111
 2887 0784 09       		.byte	0x9
 2888 0785 66       		.byte	0x66
 2889 0786 7A030000 		.4byte	0x37a
 2890 078a 0C       		.uleb128 0xc
 2891 078b 080F     		.2byte	0xf08
 2892 078d 0A       		.byte	0xa
 2893 078e 21       		.byte	0x21
 2894 078f 120A0000 		.4byte	0xa12
 2895 0793 0B       		.uleb128 0xb
 2896 0794 E9120000 		.4byte	.LASF45
 2897 0798 0A       		.byte	0xa
 2898 0799 22       		.byte	0x22
 2899 079a E0000000 		.4byte	0xe0
 2900 079e 00       		.byte	0
 2901 079f 0B       		.uleb128 0xb
 2902 07a0 B60A0000 		.4byte	.LASF112
 2903 07a4 0A       		.byte	0xa
 2904 07a5 23       		.byte	0x23
 2905 07a6 E0000000 		.4byte	0xe0
 2906 07aa 04       		.byte	0x4
 2907 07ab 0B       		.uleb128 0xb
 2908 07ac 14000000 		.4byte	.LASF31
 2909 07b0 0A       		.byte	0xa
 2910 07b1 24       		.byte	0x24
 2911 07b2 170A0000 		.4byte	0xa17
ARM GAS  C:\Users\Angel\AppData\Local\Temp\ccvqOPgy.s 			page 122


 2912 07b6 08       		.byte	0x8
 2913 07b7 0B       		.uleb128 0xb
 2914 07b8 8C020000 		.4byte	.LASF113
 2915 07bc 0A       		.byte	0xa
 2916 07bd 25       		.byte	0x25
 2917 07be E0000000 		.4byte	0xe0
 2918 07c2 10       		.byte	0x10
 2919 07c3 0B       		.uleb128 0xb
 2920 07c4 A8050000 		.4byte	.LASF114
 2921 07c8 0A       		.byte	0xa
 2922 07c9 26       		.byte	0x26
 2923 07ca E0000000 		.4byte	0xe0
 2924 07ce 14       		.byte	0x14
 2925 07cf 0B       		.uleb128 0xb
 2926 07d0 A90D0000 		.4byte	.LASF115
 2927 07d4 0A       		.byte	0xa
 2928 07d5 27       		.byte	0x27
 2929 07d6 E0000000 		.4byte	0xe0
 2930 07da 18       		.byte	0x18
 2931 07db 0B       		.uleb128 0xb
 2932 07dc FB060000 		.4byte	.LASF116
 2933 07e0 0A       		.byte	0xa
 2934 07e1 28       		.byte	0x28
 2935 07e2 E0000000 		.4byte	0xe0
 2936 07e6 1C       		.byte	0x1c
 2937 07e7 0B       		.uleb128 0xb
 2938 07e8 CF000000 		.4byte	.LASF117
 2939 07ec 0A       		.byte	0xa
 2940 07ed 29       		.byte	0x29
 2941 07ee E0000000 		.4byte	0xe0
 2942 07f2 20       		.byte	0x20
 2943 07f3 0B       		.uleb128 0xb
 2944 07f4 1C0B0000 		.4byte	.LASF118
 2945 07f8 0A       		.byte	0xa
 2946 07f9 2A       		.byte	0x2a
 2947 07fa E0000000 		.4byte	0xe0
 2948 07fe 24       		.byte	0x24
 2949 07ff 0B       		.uleb128 0xb
 2950 0800 15050000 		.4byte	.LASF33
 2951 0804 0A       		.byte	0xa
 2952 0805 2B       		.byte	0x2b
 2953 0806 310A0000 		.4byte	0xa31
 2954 080a 28       		.byte	0x28
 2955 080b 0B       		.uleb128 0xb
 2956 080c 5B0F0000 		.4byte	.LASF119
 2957 0810 0A       		.byte	0xa
 2958 0811 2C       		.byte	0x2c
 2959 0812 360A0000 		.4byte	0xa36
 2960 0816 80       		.byte	0x80
 2961 0817 0B       		.uleb128 0xb
 2962 0818 960C0000 		.4byte	.LASF56
 2963 081c 0A       		.byte	0xa
 2964 081d 2D       		.byte	0x2d
 2965 081e 400A0000 		.4byte	0xa40
 2966 0822 C0       		.byte	0xc0
 2967 0823 0D       		.uleb128 0xd
 2968 0824 BC0D0000 		.4byte	.LASF120
ARM GAS  C:\Users\Angel\AppData\Local\Temp\ccvqOPgy.s 			page 123


 2969 0828 0A       		.byte	0xa
 2970 0829 2E       		.byte	0x2e
 2971 082a 4A0A0000 		.4byte	0xa4a
 2972 082e 0001     		.2byte	0x100
 2973 0830 0D       		.uleb128 0xd
 2974 0831 A00C0000 		.4byte	.LASF62
 2975 0835 0A       		.byte	0xa
 2976 0836 2F       		.byte	0x2f
 2977 0837 540A0000 		.4byte	0xa54
 2978 083b 4001     		.2byte	0x140
 2979 083d 0D       		.uleb128 0xd
 2980 083e 390A0000 		.4byte	.LASF121
 2981 0842 0A       		.byte	0xa
 2982 0843 30       		.byte	0x30
 2983 0844 5E0A0000 		.4byte	0xa5e
 2984 0848 8001     		.2byte	0x180
 2985 084a 0D       		.uleb128 0xd
 2986 084b AA0C0000 		.4byte	.LASF66
 2987 084f 0A       		.byte	0xa
 2988 0850 31       		.byte	0x31
 2989 0851 680A0000 		.4byte	0xa68
 2990 0855 C001     		.2byte	0x1c0
 2991 0857 0D       		.uleb128 0xd
 2992 0858 5F000000 		.4byte	.LASF122
 2993 085c 0A       		.byte	0xa
 2994 085d 32       		.byte	0x32
 2995 085e E5000000 		.4byte	0xe5
 2996 0862 0002     		.2byte	0x200
 2997 0864 0D       		.uleb128 0xd
 2998 0865 470F0000 		.4byte	.LASF123
 2999 0869 0A       		.byte	0xa
 3000 086a 33       		.byte	0x33
 3001 086b E5000000 		.4byte	0xe5
 3002 086f 0402     		.2byte	0x204
 3003 0871 0D       		.uleb128 0xd
 3004 0872 C4010000 		.4byte	.LASF124
 3005 0876 0A       		.byte	0xa
 3006 0877 34       		.byte	0x34
 3007 0878 E5000000 		.4byte	0xe5
 3008 087c 0802     		.2byte	0x208
 3009 087e 0D       		.uleb128 0xd
 3010 087f B6080000 		.4byte	.LASF125
 3011 0883 0A       		.byte	0xa
 3012 0884 35       		.byte	0x35
 3013 0885 E5000000 		.4byte	0xe5
 3014 0889 0C02     		.2byte	0x20c
 3015 088b 0D       		.uleb128 0xd
 3016 088c A7040000 		.4byte	.LASF23
 3017 0890 0A       		.byte	0xa
 3018 0891 36       		.byte	0x36
 3019 0892 E0000000 		.4byte	0xe0
 3020 0896 1002     		.2byte	0x210
 3021 0898 0D       		.uleb128 0xd
 3022 0899 C0020000 		.4byte	.LASF26
 3023 089d 0A       		.byte	0xa
 3024 089e 37       		.byte	0x37
 3025 089f E0000000 		.4byte	0xe0
ARM GAS  C:\Users\Angel\AppData\Local\Temp\ccvqOPgy.s 			page 124


 3026 08a3 1402     		.2byte	0x214
 3027 08a5 0D       		.uleb128 0xd
 3028 08a6 AC0A0000 		.4byte	.LASF24
 3029 08aa 0A       		.byte	0xa
 3030 08ab 38       		.byte	0x38
 3031 08ac E0000000 		.4byte	0xe0
 3032 08b0 1802     		.2byte	0x218
 3033 08b2 0D       		.uleb128 0xd
 3034 08b3 9B0E0000 		.4byte	.LASF25
 3035 08b7 0A       		.byte	0xa
 3036 08b8 39       		.byte	0x39
 3037 08b9 E5000000 		.4byte	0xe5
 3038 08bd 1C02     		.2byte	0x21c
 3039 08bf 0D       		.uleb128 0xd
 3040 08c0 71020000 		.4byte	.LASF126
 3041 08c4 0A       		.byte	0xa
 3042 08c5 3A       		.byte	0x3a
 3043 08c6 E0000000 		.4byte	0xe0
 3044 08ca 2002     		.2byte	0x220
 3045 08cc 0D       		.uleb128 0xd
 3046 08cd 03080000 		.4byte	.LASF127
 3047 08d1 0A       		.byte	0xa
 3048 08d2 3B       		.byte	0x3b
 3049 08d3 E0000000 		.4byte	0xe0
 3050 08d7 2402     		.2byte	0x224
 3051 08d9 0D       		.uleb128 0xd
 3052 08da F20F0000 		.4byte	.LASF128
 3053 08de 0A       		.byte	0xa
 3054 08df 3C       		.byte	0x3c
 3055 08e0 E0000000 		.4byte	0xe0
 3056 08e4 2802     		.2byte	0x228
 3057 08e6 0D       		.uleb128 0xd
 3058 08e7 E7070000 		.4byte	.LASF129
 3059 08eb 0A       		.byte	0xa
 3060 08ec 3D       		.byte	0x3d
 3061 08ed E5000000 		.4byte	0xe5
 3062 08f1 2C02     		.2byte	0x22c
 3063 08f3 0D       		.uleb128 0xd
 3064 08f4 690A0000 		.4byte	.LASF130
 3065 08f8 0A       		.byte	0xa
 3066 08f9 3E       		.byte	0x3e
 3067 08fa E0000000 		.4byte	0xe0
 3068 08fe 3002     		.2byte	0x230
 3069 0900 0D       		.uleb128 0xd
 3070 0901 27090000 		.4byte	.LASF131
 3071 0905 0A       		.byte	0xa
 3072 0906 3F       		.byte	0x3f
 3073 0907 E0000000 		.4byte	0xe0
 3074 090b 3402     		.2byte	0x234
 3075 090d 0D       		.uleb128 0xd
 3076 090e 23010000 		.4byte	.LASF132
 3077 0912 0A       		.byte	0xa
 3078 0913 40       		.byte	0x40
 3079 0914 E0000000 		.4byte	0xe0
 3080 0918 3802     		.2byte	0x238
 3081 091a 0D       		.uleb128 0xd
 3082 091b DD090000 		.4byte	.LASF133
ARM GAS  C:\Users\Angel\AppData\Local\Temp\ccvqOPgy.s 			page 125


 3083 091f 0A       		.byte	0xa
 3084 0920 41       		.byte	0x41
 3085 0921 E5000000 		.4byte	0xe5
 3086 0925 3C02     		.2byte	0x23c
 3087 0927 0D       		.uleb128 0xd
 3088 0928 4B010000 		.4byte	.LASF80
 3089 092c 0A       		.byte	0xa
 3090 092d 42       		.byte	0x42
 3091 092e E5000000 		.4byte	0xe5
 3092 0932 4002     		.2byte	0x240
 3093 0934 0D       		.uleb128 0xd
 3094 0935 B40C0000 		.4byte	.LASF68
 3095 0939 0A       		.byte	0xa
 3096 093a 43       		.byte	0x43
 3097 093b 720A0000 		.4byte	0xa72
 3098 093f 4402     		.2byte	0x244
 3099 0941 0D       		.uleb128 0xd
 3100 0942 D9080000 		.4byte	.LASF134
 3101 0946 0A       		.byte	0xa
 3102 0947 44       		.byte	0x44
 3103 0948 E0000000 		.4byte	0xe0
 3104 094c 8002     		.2byte	0x280
 3105 094e 0D       		.uleb128 0xd
 3106 094f BE0C0000 		.4byte	.LASF72
 3107 0953 0A       		.byte	0xa
 3108 0954 45       		.byte	0x45
 3109 0955 7C0A0000 		.4byte	0xa7c
 3110 0959 8402     		.2byte	0x284
 3111 095b 0D       		.uleb128 0xd
 3112 095c 9A020000 		.4byte	.LASF135
 3113 0960 0A       		.byte	0xa
 3114 0961 46       		.byte	0x46
 3115 0962 E5000000 		.4byte	0xe5
 3116 0966 9002     		.2byte	0x290
 3117 0968 0D       		.uleb128 0xd
 3118 0969 C80C0000 		.4byte	.LASF74
 3119 096d 0A       		.byte	0xa
 3120 096e 47       		.byte	0x47
 3121 096f 860A0000 		.4byte	0xa86
 3122 0973 9402     		.2byte	0x294
 3123 0975 0D       		.uleb128 0xd
 3124 0976 02120000 		.4byte	.LASF46
 3125 097a 0A       		.byte	0xa
 3126 097b 48       		.byte	0x48
 3127 097c E5000000 		.4byte	0xe5
 3128 0980 A002     		.2byte	0x2a0
 3129 0982 0D       		.uleb128 0xd
 3130 0983 F1080000 		.4byte	.LASF136
 3131 0987 0A       		.byte	0xa
 3132 0988 49       		.byte	0x49
 3133 0989 E5000000 		.4byte	0xe5
 3134 098d A402     		.2byte	0x2a4
 3135 098f 0D       		.uleb128 0xd
 3136 0990 D20C0000 		.4byte	.LASF77
 3137 0994 0A       		.byte	0xa
 3138 0995 4A       		.byte	0x4a
 3139 0996 900A0000 		.4byte	0xa90
ARM GAS  C:\Users\Angel\AppData\Local\Temp\ccvqOPgy.s 			page 126


 3140 099a A802     		.2byte	0x2a8
 3141 099c 0D       		.uleb128 0xd
 3142 099d 2F0F0000 		.4byte	.LASF137
 3143 09a1 0A       		.byte	0xa
 3144 09a2 4B       		.byte	0x4b
 3145 09a3 E0000000 		.4byte	0xe0
 3146 09a7 0003     		.2byte	0x300
 3147 09a9 0D       		.uleb128 0xd
 3148 09aa DC0A0000 		.4byte	.LASF138
 3149 09ae 0A       		.byte	0xa
 3150 09af 4C       		.byte	0x4c
 3151 09b0 E0000000 		.4byte	0xe0
 3152 09b4 0403     		.2byte	0x304
 3153 09b6 0D       		.uleb128 0xd
 3154 09b7 64120000 		.4byte	.LASF79
 3155 09bb 0A       		.byte	0xa
 3156 09bc 4D       		.byte	0x4d
 3157 09bd AA0A0000 		.4byte	0xaaa
 3158 09c1 0803     		.2byte	0x308
 3159 09c3 0D       		.uleb128 0xd
 3160 09c4 52110000 		.4byte	.LASF139
 3161 09c8 0A       		.byte	0xa
 3162 09c9 4E       		.byte	0x4e
 3163 09ca E0000000 		.4byte	0xe0
 3164 09ce 4003     		.2byte	0x340
 3165 09d0 0D       		.uleb128 0xd
 3166 09d1 EE0C0000 		.4byte	.LASF140
 3167 09d5 0A       		.byte	0xa
 3168 09d6 4F       		.byte	0x4f
 3169 09d7 E0000000 		.4byte	0xe0
 3170 09db 4403     		.2byte	0x344
 3171 09dd 0D       		.uleb128 0xd
 3172 09de 8B110000 		.4byte	.LASF141
 3173 09e2 0A       		.byte	0xa
 3174 09e3 50       		.byte	0x50
 3175 09e4 E5000000 		.4byte	0xe5
 3176 09e8 4803     		.2byte	0x348
 3177 09ea 0D       		.uleb128 0xd
 3178 09eb 0E100000 		.4byte	.LASF81
 3179 09ef 0A       		.byte	0xa
 3180 09f0 51       		.byte	0x51
 3181 09f1 C50A0000 		.4byte	0xac5
 3182 09f5 4C03     		.2byte	0x34c
 3183 09f7 0D       		.uleb128 0xd
 3184 09f8 9E0F0000 		.4byte	.LASF142
 3185 09fc 0A       		.byte	0xa
 3186 09fd 52       		.byte	0x52
 3187 09fe E0000000 		.4byte	0xe0
 3188 0a02 000F     		.2byte	0xf00
 3189 0a04 0D       		.uleb128 0xd
 3190 0a05 A80F0000 		.4byte	.LASF143
 3191 0a09 0A       		.byte	0xa
 3192 0a0a 53       		.byte	0x53
 3193 0a0b E0000000 		.4byte	0xe0
 3194 0a0f 040F     		.2byte	0xf04
 3195 0a11 00       		.byte	0
 3196 0a12 05       		.uleb128 0x5
ARM GAS  C:\Users\Angel\AppData\Local\Temp\ccvqOPgy.s 			page 127


 3197 0a13 EA000000 		.4byte	0xea
 3198 0a17 06       		.uleb128 0x6
 3199 0a18 120A0000 		.4byte	0xa12
 3200 0a1c 07       		.uleb128 0x7
 3201 0a1d E5000000 		.4byte	0xe5
 3202 0a21 2C0A0000 		.4byte	0xa2c
 3203 0a25 08       		.uleb128 0x8
 3204 0a26 D9000000 		.4byte	0xd9
 3205 0a2a 15       		.byte	0x15
 3206 0a2b 00       		.byte	0
 3207 0a2c 05       		.uleb128 0x5
 3208 0a2d 1C0A0000 		.4byte	0xa1c
 3209 0a31 06       		.uleb128 0x6
 3210 0a32 2C0A0000 		.4byte	0xa2c
 3211 0a36 05       		.uleb128 0x5
 3212 0a37 0A010000 		.4byte	0x10a
 3213 0a3b 05       		.uleb128 0x5
 3214 0a3c 4A010000 		.4byte	0x14a
 3215 0a40 06       		.uleb128 0x6
 3216 0a41 3B0A0000 		.4byte	0xa3b
 3217 0a45 05       		.uleb128 0x5
 3218 0a46 4A010000 		.4byte	0x14a
 3219 0a4a 06       		.uleb128 0x6
 3220 0a4b 450A0000 		.4byte	0xa45
 3221 0a4f 05       		.uleb128 0x5
 3222 0a50 4A010000 		.4byte	0x14a
 3223 0a54 06       		.uleb128 0x6
 3224 0a55 4F0A0000 		.4byte	0xa4f
 3225 0a59 05       		.uleb128 0x5
 3226 0a5a 4A010000 		.4byte	0x14a
 3227 0a5e 06       		.uleb128 0x6
 3228 0a5f 590A0000 		.4byte	0xa59
 3229 0a63 05       		.uleb128 0x5
 3230 0a64 4A010000 		.4byte	0x14a
 3231 0a68 06       		.uleb128 0x6
 3232 0a69 630A0000 		.4byte	0xa63
 3233 0a6d 05       		.uleb128 0x5
 3234 0a6e 7A010000 		.4byte	0x17a
 3235 0a72 06       		.uleb128 0x6
 3236 0a73 6D0A0000 		.4byte	0xa6d
 3237 0a77 05       		.uleb128 0x5
 3238 0a78 6A010000 		.4byte	0x16a
 3239 0a7c 06       		.uleb128 0x6
 3240 0a7d 770A0000 		.4byte	0xa77
 3241 0a81 05       		.uleb128 0x5
 3242 0a82 6A010000 		.4byte	0x16a
 3243 0a86 06       		.uleb128 0x6
 3244 0a87 810A0000 		.4byte	0xa81
 3245 0a8b 05       		.uleb128 0x5
 3246 0a8c 1C0A0000 		.4byte	0xa1c
 3247 0a90 06       		.uleb128 0x6
 3248 0a91 8B0A0000 		.4byte	0xa8b
 3249 0a95 07       		.uleb128 0x7
 3250 0a96 E5000000 		.4byte	0xe5
 3251 0a9a A50A0000 		.4byte	0xaa5
 3252 0a9e 08       		.uleb128 0x8
 3253 0a9f D9000000 		.4byte	0xd9
ARM GAS  C:\Users\Angel\AppData\Local\Temp\ccvqOPgy.s 			page 128


 3254 0aa3 0D       		.byte	0xd
 3255 0aa4 00       		.byte	0
 3256 0aa5 05       		.uleb128 0x5
 3257 0aa6 950A0000 		.4byte	0xa95
 3258 0aaa 06       		.uleb128 0x6
 3259 0aab A50A0000 		.4byte	0xaa5
 3260 0aaf 07       		.uleb128 0x7
 3261 0ab0 E5000000 		.4byte	0xe5
 3262 0ab4 C00A0000 		.4byte	0xac0
 3263 0ab8 0E       		.uleb128 0xe
 3264 0ab9 D9000000 		.4byte	0xd9
 3265 0abd EC02     		.2byte	0x2ec
 3266 0abf 00       		.byte	0
 3267 0ac0 05       		.uleb128 0x5
 3268 0ac1 AF0A0000 		.4byte	0xaaf
 3269 0ac5 06       		.uleb128 0x6
 3270 0ac6 C00A0000 		.4byte	0xac0
 3271 0aca 03       		.uleb128 0x3
 3272 0acb A6070000 		.4byte	.LASF144
 3273 0acf 0A       		.byte	0xa
 3274 0ad0 54       		.byte	0x54
 3275 0ad1 8A070000 		.4byte	0x78a
 3276 0ad5 0F       		.uleb128 0xf
 3277 0ad6 FF090000 		.4byte	.LASF145
 3278 0ada 0B       		.byte	0xb
 3279 0adb 3106     		.2byte	0x631
 3280 0add 78020000 		.4byte	0x278
 3281 0ae1 0F       		.uleb128 0xf
 3282 0ae2 BD0F0000 		.4byte	.LASF146
 3283 0ae6 0B       		.byte	0xb
 3284 0ae7 3206     		.2byte	0x632
 3285 0ae9 1E030000 		.4byte	0x31e
 3286 0aed 0F       		.uleb128 0xf
 3287 0aee 1A040000 		.4byte	.LASF147
 3288 0af2 0B       		.byte	0xb
 3289 0af3 4F06     		.2byte	0x64f
 3290 0af5 7F070000 		.4byte	0x77f
 3291 0af9 0F       		.uleb128 0xf
 3292 0afa 82060000 		.4byte	.LASF148
 3293 0afe 0B       		.byte	0xb
 3294 0aff 5206     		.2byte	0x652
 3295 0b01 CA0A0000 		.4byte	0xaca
 3296 0b05 02       		.uleb128 0x2
 3297 0b06 08       		.byte	0x8
 3298 0b07 04       		.byte	0x4
 3299 0b08 880B0000 		.4byte	.LASF149
 3300 0b0c 09       		.uleb128 0x9
 3301 0b0d B8       		.byte	0xb8
 3302 0b0e 0C       		.byte	0xc
 3303 0b0f 34       		.byte	0x34
 3304 0b10 1D0F0000 		.4byte	0xf1d
 3305 0b14 0B       		.uleb128 0xb
 3306 0b15 D7010000 		.4byte	.LASF150
 3307 0b19 0C       		.byte	0xc
 3308 0b1a 37       		.byte	0x37
 3309 0b1b CE000000 		.4byte	0xce
 3310 0b1f 00       		.byte	0
ARM GAS  C:\Users\Angel\AppData\Local\Temp\ccvqOPgy.s 			page 129


 3311 0b20 0B       		.uleb128 0xb
 3312 0b21 15080000 		.4byte	.LASF151
 3313 0b25 0C       		.byte	0xc
 3314 0b26 38       		.byte	0x38
 3315 0b27 CE000000 		.4byte	0xce
 3316 0b2b 04       		.byte	0x4
 3317 0b2c 0B       		.uleb128 0xb
 3318 0b2d E4000000 		.4byte	.LASF152
 3319 0b31 0C       		.byte	0xc
 3320 0b32 39       		.byte	0x39
 3321 0b33 CE000000 		.4byte	0xce
 3322 0b37 08       		.byte	0x8
 3323 0b38 0B       		.uleb128 0xb
 3324 0b39 B7000000 		.4byte	.LASF153
 3325 0b3d 0C       		.byte	0xc
 3326 0b3e 3A       		.byte	0x3a
 3327 0b3f CE000000 		.4byte	0xce
 3328 0b43 0C       		.byte	0xc
 3329 0b44 0B       		.uleb128 0xb
 3330 0b45 B60B0000 		.4byte	.LASF154
 3331 0b49 0C       		.byte	0xc
 3332 0b4a 3B       		.byte	0x3b
 3333 0b4b CE000000 		.4byte	0xce
 3334 0b4f 10       		.byte	0x10
 3335 0b50 0B       		.uleb128 0xb
 3336 0b51 2F0A0000 		.4byte	.LASF155
 3337 0b55 0C       		.byte	0xc
 3338 0b56 3C       		.byte	0x3c
 3339 0b57 CE000000 		.4byte	0xce
 3340 0b5b 14       		.byte	0x14
 3341 0b5c 0B       		.uleb128 0xb
 3342 0b5d 30070000 		.4byte	.LASF156
 3343 0b61 0C       		.byte	0xc
 3344 0b62 3D       		.byte	0x3d
 3345 0b63 CE000000 		.4byte	0xce
 3346 0b67 18       		.byte	0x18
 3347 0b68 0B       		.uleb128 0xb
 3348 0b69 C3110000 		.4byte	.LASF157
 3349 0b6d 0C       		.byte	0xc
 3350 0b6e 3E       		.byte	0x3e
 3351 0b6f CE000000 		.4byte	0xce
 3352 0b73 1C       		.byte	0x1c
 3353 0b74 0B       		.uleb128 0xb
 3354 0b75 96090000 		.4byte	.LASF158
 3355 0b79 0C       		.byte	0xc
 3356 0b7a 3F       		.byte	0x3f
 3357 0b7b CE000000 		.4byte	0xce
 3358 0b7f 20       		.byte	0x20
 3359 0b80 0B       		.uleb128 0xb
 3360 0b81 AD090000 		.4byte	.LASF159
 3361 0b85 0C       		.byte	0xc
 3362 0b86 40       		.byte	0x40
 3363 0b87 CE000000 		.4byte	0xce
 3364 0b8b 24       		.byte	0x24
 3365 0b8c 0B       		.uleb128 0xb
 3366 0b8d 0A0D0000 		.4byte	.LASF160
 3367 0b91 0C       		.byte	0xc
ARM GAS  C:\Users\Angel\AppData\Local\Temp\ccvqOPgy.s 			page 130


 3368 0b92 43       		.byte	0x43
 3369 0b93 A2000000 		.4byte	0xa2
 3370 0b97 28       		.byte	0x28
 3371 0b98 0B       		.uleb128 0xb
 3372 0b99 B2040000 		.4byte	.LASF161
 3373 0b9d 0C       		.byte	0xc
 3374 0b9e 44       		.byte	0x44
 3375 0b9f A2000000 		.4byte	0xa2
 3376 0ba3 29       		.byte	0x29
 3377 0ba4 0B       		.uleb128 0xb
 3378 0ba5 0E0C0000 		.4byte	.LASF162
 3379 0ba9 0C       		.byte	0xc
 3380 0baa 45       		.byte	0x45
 3381 0bab A2000000 		.4byte	0xa2
 3382 0baf 2A       		.byte	0x2a
 3383 0bb0 0B       		.uleb128 0xb
 3384 0bb1 3D0D0000 		.4byte	.LASF163
 3385 0bb5 0C       		.byte	0xc
 3386 0bb6 46       		.byte	0x46
 3387 0bb7 A2000000 		.4byte	0xa2
 3388 0bbb 2B       		.byte	0x2b
 3389 0bbc 0B       		.uleb128 0xb
 3390 0bbd 220D0000 		.4byte	.LASF164
 3391 0bc1 0C       		.byte	0xc
 3392 0bc2 47       		.byte	0x47
 3393 0bc3 A2000000 		.4byte	0xa2
 3394 0bc7 2C       		.byte	0x2c
 3395 0bc8 0B       		.uleb128 0xb
 3396 0bc9 DB0E0000 		.4byte	.LASF165
 3397 0bcd 0C       		.byte	0xc
 3398 0bce 48       		.byte	0x48
 3399 0bcf A2000000 		.4byte	0xa2
 3400 0bd3 2D       		.byte	0x2d
 3401 0bd4 0B       		.uleb128 0xb
 3402 0bd5 CB120000 		.4byte	.LASF166
 3403 0bd9 0C       		.byte	0xc
 3404 0bda 49       		.byte	0x49
 3405 0bdb A2000000 		.4byte	0xa2
 3406 0bdf 2E       		.byte	0x2e
 3407 0be0 0B       		.uleb128 0xb
 3408 0be1 9D110000 		.4byte	.LASF167
 3409 0be5 0C       		.byte	0xc
 3410 0be6 4A       		.byte	0x4a
 3411 0be7 A2000000 		.4byte	0xa2
 3412 0beb 2F       		.byte	0x2f
 3413 0bec 0B       		.uleb128 0xb
 3414 0bed D6030000 		.4byte	.LASF168
 3415 0bf1 0C       		.byte	0xc
 3416 0bf2 4B       		.byte	0x4b
 3417 0bf3 A2000000 		.4byte	0xa2
 3418 0bf7 30       		.byte	0x30
 3419 0bf8 0B       		.uleb128 0xb
 3420 0bf9 D10A0000 		.4byte	.LASF169
 3421 0bfd 0C       		.byte	0xc
 3422 0bfe 4E       		.byte	0x4e
 3423 0bff A2000000 		.4byte	0xa2
 3424 0c03 31       		.byte	0x31
ARM GAS  C:\Users\Angel\AppData\Local\Temp\ccvqOPgy.s 			page 131


 3425 0c04 0B       		.uleb128 0xb
 3426 0c05 1C110000 		.4byte	.LASF170
 3427 0c09 0C       		.byte	0xc
 3428 0c0a 4F       		.byte	0x4f
 3429 0c0b A2000000 		.4byte	0xa2
 3430 0c0f 32       		.byte	0x32
 3431 0c10 0B       		.uleb128 0xb
 3432 0c11 8D0A0000 		.4byte	.LASF171
 3433 0c15 0C       		.byte	0xc
 3434 0c16 50       		.byte	0x50
 3435 0c17 A2000000 		.4byte	0xa2
 3436 0c1b 33       		.byte	0x33
 3437 0c1c 0B       		.uleb128 0xb
 3438 0c1d 94010000 		.4byte	.LASF172
 3439 0c21 0C       		.byte	0xc
 3440 0c22 51       		.byte	0x51
 3441 0c23 A2000000 		.4byte	0xa2
 3442 0c27 34       		.byte	0x34
 3443 0c28 0B       		.uleb128 0xb
 3444 0c29 94050000 		.4byte	.LASF173
 3445 0c2d 0C       		.byte	0xc
 3446 0c2e 52       		.byte	0x52
 3447 0c2f AD000000 		.4byte	0xad
 3448 0c33 36       		.byte	0x36
 3449 0c34 0B       		.uleb128 0xb
 3450 0c35 F7010000 		.4byte	.LASF174
 3451 0c39 0C       		.byte	0xc
 3452 0c3a 53       		.byte	0x53
 3453 0c3b AD000000 		.4byte	0xad
 3454 0c3f 38       		.byte	0x38
 3455 0c40 0B       		.uleb128 0xb
 3456 0c41 540A0000 		.4byte	.LASF175
 3457 0c45 0C       		.byte	0xc
 3458 0c46 54       		.byte	0x54
 3459 0c47 AD000000 		.4byte	0xad
 3460 0c4b 3A       		.byte	0x3a
 3461 0c4c 0B       		.uleb128 0xb
 3462 0c4d F3110000 		.4byte	.LASF176
 3463 0c51 0C       		.byte	0xc
 3464 0c52 55       		.byte	0x55
 3465 0c53 A2000000 		.4byte	0xa2
 3466 0c57 3C       		.byte	0x3c
 3467 0c58 0B       		.uleb128 0xb
 3468 0c59 FE020000 		.4byte	.LASF177
 3469 0c5d 0C       		.byte	0xc
 3470 0c5e 56       		.byte	0x56
 3471 0c5f A2000000 		.4byte	0xa2
 3472 0c63 3D       		.byte	0x3d
 3473 0c64 0B       		.uleb128 0xb
 3474 0c65 E80B0000 		.4byte	.LASF178
 3475 0c69 0C       		.byte	0xc
 3476 0c6a 57       		.byte	0x57
 3477 0c6b A2000000 		.4byte	0xa2
 3478 0c6f 3E       		.byte	0x3e
 3479 0c70 0B       		.uleb128 0xb
 3480 0c71 A2000000 		.4byte	.LASF179
 3481 0c75 0C       		.byte	0xc
ARM GAS  C:\Users\Angel\AppData\Local\Temp\ccvqOPgy.s 			page 132


 3482 0c76 58       		.byte	0x58
 3483 0c77 A2000000 		.4byte	0xa2
 3484 0c7b 3F       		.byte	0x3f
 3485 0c7c 0B       		.uleb128 0xb
 3486 0c7d 56010000 		.4byte	.LASF180
 3487 0c81 0C       		.byte	0xc
 3488 0c82 59       		.byte	0x59
 3489 0c83 A2000000 		.4byte	0xa2
 3490 0c87 40       		.byte	0x40
 3491 0c88 0B       		.uleb128 0xb
 3492 0c89 EE0A0000 		.4byte	.LASF181
 3493 0c8d 0C       		.byte	0xc
 3494 0c8e 5A       		.byte	0x5a
 3495 0c8f A2000000 		.4byte	0xa2
 3496 0c93 41       		.byte	0x41
 3497 0c94 0B       		.uleb128 0xb
 3498 0c95 CB100000 		.4byte	.LASF182
 3499 0c99 0C       		.byte	0xc
 3500 0c9a 5B       		.byte	0x5b
 3501 0c9b A2000000 		.4byte	0xa2
 3502 0c9f 42       		.byte	0x42
 3503 0ca0 0B       		.uleb128 0xb
 3504 0ca1 70070000 		.4byte	.LASF183
 3505 0ca5 0C       		.byte	0xc
 3506 0ca6 5C       		.byte	0x5c
 3507 0ca7 A2000000 		.4byte	0xa2
 3508 0cab 43       		.byte	0x43
 3509 0cac 0B       		.uleb128 0xb
 3510 0cad 8B080000 		.4byte	.LASF184
 3511 0cb1 0C       		.byte	0xc
 3512 0cb2 5D       		.byte	0x5d
 3513 0cb3 A2000000 		.4byte	0xa2
 3514 0cb7 44       		.byte	0x44
 3515 0cb8 0B       		.uleb128 0xb
 3516 0cb9 4B0D0000 		.4byte	.LASF185
 3517 0cbd 0C       		.byte	0xc
 3518 0cbe 5E       		.byte	0x5e
 3519 0cbf CE000000 		.4byte	0xce
 3520 0cc3 48       		.byte	0x48
 3521 0cc4 0B       		.uleb128 0xb
 3522 0cc5 C9020000 		.4byte	.LASF186
 3523 0cc9 0C       		.byte	0xc
 3524 0cca 5F       		.byte	0x5f
 3525 0ccb CE000000 		.4byte	0xce
 3526 0ccf 4C       		.byte	0x4c
 3527 0cd0 0B       		.uleb128 0xb
 3528 0cd1 A1100000 		.4byte	.LASF187
 3529 0cd5 0C       		.byte	0xc
 3530 0cd6 60       		.byte	0x60
 3531 0cd7 A2000000 		.4byte	0xa2
 3532 0cdb 50       		.byte	0x50
 3533 0cdc 0B       		.uleb128 0xb
 3534 0cdd 9F060000 		.4byte	.LASF188
 3535 0ce1 0C       		.byte	0xc
 3536 0ce2 61       		.byte	0x61
 3537 0ce3 A2000000 		.4byte	0xa2
 3538 0ce7 51       		.byte	0x51
ARM GAS  C:\Users\Angel\AppData\Local\Temp\ccvqOPgy.s 			page 133


 3539 0ce8 0B       		.uleb128 0xb
 3540 0ce9 EF090000 		.4byte	.LASF189
 3541 0ced 0C       		.byte	0xc
 3542 0cee 62       		.byte	0x62
 3543 0cef A2000000 		.4byte	0xa2
 3544 0cf3 52       		.byte	0x52
 3545 0cf4 0B       		.uleb128 0xb
 3546 0cf5 CE040000 		.4byte	.LASF190
 3547 0cf9 0C       		.byte	0xc
 3548 0cfa 63       		.byte	0x63
 3549 0cfb A2000000 		.4byte	0xa2
 3550 0cff 53       		.byte	0x53
 3551 0d00 0B       		.uleb128 0xb
 3552 0d01 F50D0000 		.4byte	.LASF191
 3553 0d05 0C       		.byte	0xc
 3554 0d06 64       		.byte	0x64
 3555 0d07 A2000000 		.4byte	0xa2
 3556 0d0b 54       		.byte	0x54
 3557 0d0c 0B       		.uleb128 0xb
 3558 0d0d 06070000 		.4byte	.LASF192
 3559 0d11 0C       		.byte	0xc
 3560 0d12 65       		.byte	0x65
 3561 0d13 A2000000 		.4byte	0xa2
 3562 0d17 55       		.byte	0x55
 3563 0d18 0B       		.uleb128 0xb
 3564 0d19 00000000 		.4byte	.LASF193
 3565 0d1d 0C       		.byte	0xc
 3566 0d1e 66       		.byte	0x66
 3567 0d1f A2000000 		.4byte	0xa2
 3568 0d23 56       		.byte	0x56
 3569 0d24 0B       		.uleb128 0xb
 3570 0d25 CC110000 		.4byte	.LASF194
 3571 0d29 0C       		.byte	0xc
 3572 0d2a 67       		.byte	0x67
 3573 0d2b A2000000 		.4byte	0xa2
 3574 0d2f 57       		.byte	0x57
 3575 0d30 0B       		.uleb128 0xb
 3576 0d31 5A060000 		.4byte	.LASF195
 3577 0d35 0C       		.byte	0xc
 3578 0d36 68       		.byte	0x68
 3579 0d37 A2000000 		.4byte	0xa2
 3580 0d3b 58       		.byte	0x58
 3581 0d3c 0B       		.uleb128 0xb
 3582 0d3d 09120000 		.4byte	.LASF196
 3583 0d41 0C       		.byte	0xc
 3584 0d42 69       		.byte	0x69
 3585 0d43 A2000000 		.4byte	0xa2
 3586 0d47 59       		.byte	0x59
 3587 0d48 0B       		.uleb128 0xb
 3588 0d49 07110000 		.4byte	.LASF197
 3589 0d4d 0C       		.byte	0xc
 3590 0d4e 6E       		.byte	0x6e
 3591 0d4f B8000000 		.4byte	0xb8
 3592 0d53 5A       		.byte	0x5a
 3593 0d54 0B       		.uleb128 0xb
 3594 0d55 02010000 		.4byte	.LASF198
 3595 0d59 0C       		.byte	0xc
ARM GAS  C:\Users\Angel\AppData\Local\Temp\ccvqOPgy.s 			page 134


 3596 0d5a 6F       		.byte	0x6f
 3597 0d5b B8000000 		.4byte	0xb8
 3598 0d5f 5C       		.byte	0x5c
 3599 0d60 0B       		.uleb128 0xb
 3600 0d61 9E090000 		.4byte	.LASF199
 3601 0d65 0C       		.byte	0xc
 3602 0d66 70       		.byte	0x70
 3603 0d67 A2000000 		.4byte	0xa2
 3604 0d6b 5E       		.byte	0x5e
 3605 0d6c 0B       		.uleb128 0xb
 3606 0d6d 37110000 		.4byte	.LASF200
 3607 0d71 0C       		.byte	0xc
 3608 0d72 71       		.byte	0x71
 3609 0d73 A2000000 		.4byte	0xa2
 3610 0d77 5F       		.byte	0x5f
 3611 0d78 0B       		.uleb128 0xb
 3612 0d79 95070000 		.4byte	.LASF201
 3613 0d7d 0C       		.byte	0xc
 3614 0d7e 72       		.byte	0x72
 3615 0d7f A2000000 		.4byte	0xa2
 3616 0d83 60       		.byte	0x60
 3617 0d84 0B       		.uleb128 0xb
 3618 0d85 FA080000 		.4byte	.LASF202
 3619 0d89 0C       		.byte	0xc
 3620 0d8a 73       		.byte	0x73
 3621 0d8b CE000000 		.4byte	0xce
 3622 0d8f 64       		.byte	0x64
 3623 0d90 0B       		.uleb128 0xb
 3624 0d91 290C0000 		.4byte	.LASF203
 3625 0d95 0C       		.byte	0xc
 3626 0d96 76       		.byte	0x76
 3627 0d97 B8000000 		.4byte	0xb8
 3628 0d9b 68       		.byte	0x68
 3629 0d9c 0B       		.uleb128 0xb
 3630 0d9d 19020000 		.4byte	.LASF204
 3631 0da1 0C       		.byte	0xc
 3632 0da2 77       		.byte	0x77
 3633 0da3 B8000000 		.4byte	0xb8
 3634 0da7 6A       		.byte	0x6a
 3635 0da8 0B       		.uleb128 0xb
 3636 0da9 450A0000 		.4byte	.LASF205
 3637 0dad 0C       		.byte	0xc
 3638 0dae 78       		.byte	0x78
 3639 0daf B8000000 		.4byte	0xb8
 3640 0db3 6C       		.byte	0x6c
 3641 0db4 0B       		.uleb128 0xb
 3642 0db5 F1020000 		.4byte	.LASF206
 3643 0db9 0C       		.byte	0xc
 3644 0dba 79       		.byte	0x79
 3645 0dbb B8000000 		.4byte	0xb8
 3646 0dbf 6E       		.byte	0x6e
 3647 0dc0 0B       		.uleb128 0xb
 3648 0dc1 13090000 		.4byte	.LASF207
 3649 0dc5 0C       		.byte	0xc
 3650 0dc6 7B       		.byte	0x7b
 3651 0dc7 A2000000 		.4byte	0xa2
 3652 0dcb 70       		.byte	0x70
ARM GAS  C:\Users\Angel\AppData\Local\Temp\ccvqOPgy.s 			page 135


 3653 0dcc 0B       		.uleb128 0xb
 3654 0dcd EF030000 		.4byte	.LASF208
 3655 0dd1 0C       		.byte	0xc
 3656 0dd2 7C       		.byte	0x7c
 3657 0dd3 A2000000 		.4byte	0xa2
 3658 0dd7 71       		.byte	0x71
 3659 0dd8 0B       		.uleb128 0xb
 3660 0dd9 A5020000 		.4byte	.LASF209
 3661 0ddd 0C       		.byte	0xc
 3662 0dde 7D       		.byte	0x7d
 3663 0ddf A2000000 		.4byte	0xa2
 3664 0de3 72       		.byte	0x72
 3665 0de4 0B       		.uleb128 0xb
 3666 0de5 7D010000 		.4byte	.LASF210
 3667 0de9 0C       		.byte	0xc
 3668 0dea 7E       		.byte	0x7e
 3669 0deb A2000000 		.4byte	0xa2
 3670 0def 73       		.byte	0x73
 3671 0df0 0B       		.uleb128 0xb
 3672 0df1 840C0000 		.4byte	.LASF211
 3673 0df5 0C       		.byte	0xc
 3674 0df6 80       		.byte	0x80
 3675 0df7 B8000000 		.4byte	0xb8
 3676 0dfb 74       		.byte	0x74
 3677 0dfc 0B       		.uleb128 0xb
 3678 0dfd 3D0B0000 		.4byte	.LASF212
 3679 0e01 0C       		.byte	0xc
 3680 0e02 81       		.byte	0x81
 3681 0e03 B8000000 		.4byte	0xb8
 3682 0e07 76       		.byte	0x76
 3683 0e08 0B       		.uleb128 0xb
 3684 0e09 6A080000 		.4byte	.LASF213
 3685 0e0d 0C       		.byte	0xc
 3686 0e0e 82       		.byte	0x82
 3687 0e0f B8000000 		.4byte	0xb8
 3688 0e13 78       		.byte	0x78
 3689 0e14 0B       		.uleb128 0xb
 3690 0e15 5D050000 		.4byte	.LASF214
 3691 0e19 0C       		.byte	0xc
 3692 0e1a 83       		.byte	0x83
 3693 0e1b B8000000 		.4byte	0xb8
 3694 0e1f 7A       		.byte	0x7a
 3695 0e20 0B       		.uleb128 0xb
 3696 0e21 660E0000 		.4byte	.LASF215
 3697 0e25 0C       		.byte	0xc
 3698 0e26 86       		.byte	0x86
 3699 0e27 A2000000 		.4byte	0xa2
 3700 0e2b 7C       		.byte	0x7c
 3701 0e2c 0B       		.uleb128 0xb
 3702 0e2d 85100000 		.4byte	.LASF216
 3703 0e31 0C       		.byte	0xc
 3704 0e32 87       		.byte	0x87
 3705 0e33 A2000000 		.4byte	0xa2
 3706 0e37 7D       		.byte	0x7d
 3707 0e38 0B       		.uleb128 0xb
 3708 0e39 27050000 		.4byte	.LASF217
 3709 0e3d 0C       		.byte	0xc
ARM GAS  C:\Users\Angel\AppData\Local\Temp\ccvqOPgy.s 			page 136


 3710 0e3e 88       		.byte	0x88
 3711 0e3f A2000000 		.4byte	0xa2
 3712 0e43 7E       		.byte	0x7e
 3713 0e44 0B       		.uleb128 0xb
 3714 0e45 93040000 		.4byte	.LASF218
 3715 0e49 0C       		.byte	0xc
 3716 0e4a 89       		.byte	0x89
 3717 0e4b A2000000 		.4byte	0xa2
 3718 0e4f 7F       		.byte	0x7f
 3719 0e50 0B       		.uleb128 0xb
 3720 0e51 72050000 		.4byte	.LASF219
 3721 0e55 0C       		.byte	0xc
 3722 0e56 8A       		.byte	0x8a
 3723 0e57 A2000000 		.4byte	0xa2
 3724 0e5b 80       		.byte	0x80
 3725 0e5c 0B       		.uleb128 0xb
 3726 0e5d 8B000000 		.4byte	.LASF220
 3727 0e61 0C       		.byte	0xc
 3728 0e62 8D       		.byte	0x8d
 3729 0e63 CE000000 		.4byte	0xce
 3730 0e67 84       		.byte	0x84
 3731 0e68 0B       		.uleb128 0xb
 3732 0e69 840E0000 		.4byte	.LASF221
 3733 0e6d 0C       		.byte	0xc
 3734 0e6e 8E       		.byte	0x8e
 3735 0e6f CE000000 		.4byte	0xce
 3736 0e73 88       		.byte	0x88
 3737 0e74 0B       		.uleb128 0xb
 3738 0e75 0B060000 		.4byte	.LASF222
 3739 0e79 0C       		.byte	0xc
 3740 0e7a 8F       		.byte	0x8f
 3741 0e7b CE000000 		.4byte	0xce
 3742 0e7f 8C       		.byte	0x8c
 3743 0e80 0B       		.uleb128 0xb
 3744 0e81 6F0C0000 		.4byte	.LASF223
 3745 0e85 0C       		.byte	0xc
 3746 0e86 90       		.byte	0x90
 3747 0e87 CE000000 		.4byte	0xce
 3748 0e8b 90       		.byte	0x90
 3749 0e8c 0B       		.uleb128 0xb
 3750 0e8d 0D0E0000 		.4byte	.LASF224
 3751 0e91 0C       		.byte	0xc
 3752 0e92 91       		.byte	0x91
 3753 0e93 CE000000 		.4byte	0xce
 3754 0e97 94       		.byte	0x94
 3755 0e98 0B       		.uleb128 0xb
 3756 0e99 04040000 		.4byte	.LASF225
 3757 0e9d 0C       		.byte	0xc
 3758 0e9e 92       		.byte	0x92
 3759 0e9f CE000000 		.4byte	0xce
 3760 0ea3 98       		.byte	0x98
 3761 0ea4 0B       		.uleb128 0xb
 3762 0ea5 AF0E0000 		.4byte	.LASF226
 3763 0ea9 0C       		.byte	0xc
 3764 0eaa 93       		.byte	0x93
 3765 0eab CE000000 		.4byte	0xce
 3766 0eaf 9C       		.byte	0x9c
ARM GAS  C:\Users\Angel\AppData\Local\Temp\ccvqOPgy.s 			page 137


 3767 0eb0 0B       		.uleb128 0xb
 3768 0eb1 5A070000 		.4byte	.LASF227
 3769 0eb5 0C       		.byte	0xc
 3770 0eb6 94       		.byte	0x94
 3771 0eb7 CE000000 		.4byte	0xce
 3772 0ebb A0       		.byte	0xa0
 3773 0ebc 0B       		.uleb128 0xb
 3774 0ebd ED000000 		.4byte	.LASF228
 3775 0ec1 0C       		.byte	0xc
 3776 0ec2 95       		.byte	0x95
 3777 0ec3 B8000000 		.4byte	0xb8
 3778 0ec7 A4       		.byte	0xa4
 3779 0ec8 0B       		.uleb128 0xb
 3780 0ec9 5A0C0000 		.4byte	.LASF229
 3781 0ecd 0C       		.byte	0xc
 3782 0ece 96       		.byte	0x96
 3783 0ecf B8000000 		.4byte	0xb8
 3784 0ed3 A6       		.byte	0xa6
 3785 0ed4 0B       		.uleb128 0xb
 3786 0ed5 010F0000 		.4byte	.LASF230
 3787 0ed9 0C       		.byte	0xc
 3788 0eda 97       		.byte	0x97
 3789 0edb B8000000 		.4byte	0xb8
 3790 0edf A8       		.byte	0xa8
 3791 0ee0 0B       		.uleb128 0xb
 3792 0ee1 7A090000 		.4byte	.LASF231
 3793 0ee5 0C       		.byte	0xc
 3794 0ee6 98       		.byte	0x98
 3795 0ee7 B8000000 		.4byte	0xb8
 3796 0eeb AA       		.byte	0xaa
 3797 0eec 0B       		.uleb128 0xb
 3798 0eed E3020000 		.4byte	.LASF232
 3799 0ef1 0C       		.byte	0xc
 3800 0ef2 99       		.byte	0x99
 3801 0ef3 B8000000 		.4byte	0xb8
 3802 0ef7 AC       		.byte	0xac
 3803 0ef8 0B       		.uleb128 0xb
 3804 0ef9 FE0A0000 		.4byte	.LASF233
 3805 0efd 0C       		.byte	0xc
 3806 0efe 9A       		.byte	0x9a
 3807 0eff B8000000 		.4byte	0xb8
 3808 0f03 AE       		.byte	0xae
 3809 0f04 0B       		.uleb128 0xb
 3810 0f05 09030000 		.4byte	.LASF234
 3811 0f09 0C       		.byte	0xc
 3812 0f0a 9D       		.byte	0x9d
 3813 0f0b B8000000 		.4byte	0xb8
 3814 0f0f B0       		.byte	0xb0
 3815 0f10 0B       		.uleb128 0xb
 3816 0f11 C70F0000 		.4byte	.LASF235
 3817 0f15 0C       		.byte	0xc
 3818 0f16 9E       		.byte	0x9e
 3819 0f17 CE000000 		.4byte	0xce
 3820 0f1b B4       		.byte	0xb4
 3821 0f1c 00       		.byte	0
 3822 0f1d 03       		.uleb128 0x3
 3823 0f1e 3B040000 		.4byte	.LASF236
ARM GAS  C:\Users\Angel\AppData\Local\Temp\ccvqOPgy.s 			page 138


 3824 0f22 0C       		.byte	0xc
 3825 0f23 9F       		.byte	0x9f
 3826 0f24 0C0B0000 		.4byte	0xb0c
 3827 0f28 10       		.uleb128 0x10
 3828 0f29 04       		.byte	0x4
 3829 0f2a 2E0F0000 		.4byte	0xf2e
 3830 0f2e 11       		.uleb128 0x11
 3831 0f2f 0F       		.uleb128 0xf
 3832 0f30 B50D0000 		.4byte	.LASF237
 3833 0f34 0D       		.byte	0xd
 3834 0f35 F601     		.2byte	0x1f6
 3835 0f37 3B0F0000 		.4byte	0xf3b
 3836 0f3b 02       		.uleb128 0x2
 3837 0f3c 01       		.byte	0x1
 3838 0f3d 08       		.byte	0x8
 3839 0f3e 20080000 		.4byte	.LASF238
 3840 0f42 02       		.uleb128 0x2
 3841 0f43 04       		.byte	0x4
 3842 0f44 04       		.byte	0x4
 3843 0f45 AC040000 		.4byte	.LASF239
 3844 0f49 02       		.uleb128 0x2
 3845 0f4a 08       		.byte	0x8
 3846 0f4b 04       		.byte	0x4
 3847 0f4c BA060000 		.4byte	.LASF240
 3848 0f50 12       		.uleb128 0x12
 3849 0f51 04       		.byte	0x4
 3850 0f52 02       		.uleb128 0x2
 3851 0f53 01       		.byte	0x1
 3852 0f54 02       		.byte	0x2
 3853 0f55 CD060000 		.4byte	.LASF241
 3854 0f59 13       		.uleb128 0x13
 3855 0f5a 01       		.byte	0x1
 3856 0f5b 3E000000 		.4byte	0x3e
 3857 0f5f 0E       		.byte	0xe
 3858 0f60 1304     		.2byte	0x413
 3859 0f62 7F0F0000 		.4byte	0xf7f
 3860 0f66 14       		.uleb128 0x14
 3861 0f67 F60B0000 		.4byte	.LASF242
 3862 0f6b 00       		.byte	0
 3863 0f6c 14       		.uleb128 0x14
 3864 0f6d DE050000 		.4byte	.LASF243
 3865 0f71 01       		.byte	0x1
 3866 0f72 14       		.uleb128 0x14
 3867 0f73 6C0D0000 		.4byte	.LASF244
 3868 0f77 02       		.byte	0x2
 3869 0f78 14       		.uleb128 0x14
 3870 0f79 63010000 		.4byte	.LASF245
 3871 0f7d 03       		.byte	0x3
 3872 0f7e 00       		.byte	0
 3873 0f7f 0F       		.uleb128 0xf
 3874 0f80 41120000 		.4byte	.LASF246
 3875 0f84 0E       		.byte	0xe
 3876 0f85 1804     		.2byte	0x418
 3877 0f87 590F0000 		.4byte	0xf59
 3878 0f8b 15       		.uleb128 0x15
 3879 0f8c 78       		.byte	0x78
 3880 0f8d 0E       		.byte	0xe
ARM GAS  C:\Users\Angel\AppData\Local\Temp\ccvqOPgy.s 			page 139


 3881 0f8e 0205     		.2byte	0x502
 3882 0f90 58100000 		.4byte	0x1058
 3883 0f94 16       		.uleb128 0x16
 3884 0f95 20060000 		.4byte	.LASF247
 3885 0f99 0E       		.byte	0xe
 3886 0f9a 0405     		.2byte	0x504
 3887 0f9c CE000000 		.4byte	0xce
 3888 0fa0 00       		.byte	0
 3889 0fa1 16       		.uleb128 0x16
 3890 0fa2 750F0000 		.4byte	.LASF248
 3891 0fa6 0E       		.byte	0xe
 3892 0fa7 0505     		.2byte	0x505
 3893 0fa9 CE000000 		.4byte	0xce
 3894 0fad 04       		.byte	0x4
 3895 0fae 16       		.uleb128 0x16
 3896 0faf DB0B0000 		.4byte	.LASF249
 3897 0fb3 0E       		.byte	0xe
 3898 0fb4 0605     		.2byte	0x506
 3899 0fb6 CE000000 		.4byte	0xce
 3900 0fba 08       		.byte	0x8
 3901 0fbb 16       		.uleb128 0x16
 3902 0fbc C50E0000 		.4byte	.LASF250
 3903 0fc0 0E       		.byte	0xe
 3904 0fc1 0705     		.2byte	0x507
 3905 0fc3 CE000000 		.4byte	0xce
 3906 0fc7 0C       		.byte	0xc
 3907 0fc8 16       		.uleb128 0x16
 3908 0fc9 B6050000 		.4byte	.LASF251
 3909 0fcd 0E       		.byte	0xe
 3910 0fce 0805     		.2byte	0x508
 3911 0fd0 CE000000 		.4byte	0xce
 3912 0fd4 10       		.byte	0x10
 3913 0fd5 16       		.uleb128 0x16
 3914 0fd6 65090000 		.4byte	.LASF252
 3915 0fda 0E       		.byte	0xe
 3916 0fdb 0905     		.2byte	0x509
 3917 0fdd 7F0F0000 		.4byte	0xf7f
 3918 0fe1 14       		.byte	0x14
 3919 0fe2 16       		.uleb128 0x16
 3920 0fe3 A1050000 		.4byte	.LASF253
 3921 0fe7 0E       		.byte	0xe
 3922 0fe8 0A05     		.2byte	0x50a
 3923 0fea CE000000 		.4byte	0xce
 3924 0fee 18       		.byte	0x18
 3925 0fef 16       		.uleb128 0x16
 3926 0ff0 73110000 		.4byte	.LASF254
 3927 0ff4 0E       		.byte	0xe
 3928 0ff5 0B05     		.2byte	0x50b
 3929 0ff7 58100000 		.4byte	0x1058
 3930 0ffb 1C       		.byte	0x1c
 3931 0ffc 16       		.uleb128 0x16
 3932 0ffd D6120000 		.4byte	.LASF255
 3933 1001 0E       		.byte	0xe
 3934 1002 0C05     		.2byte	0x50c
 3935 1004 CE000000 		.4byte	0xce
 3936 1008 5C       		.byte	0x5c
 3937 1009 16       		.uleb128 0x16
ARM GAS  C:\Users\Angel\AppData\Local\Temp\ccvqOPgy.s 			page 140


 3938 100a D7020000 		.4byte	.LASF256
 3939 100e 0E       		.byte	0xe
 3940 100f 0D05     		.2byte	0x50d
 3941 1011 CE000000 		.4byte	0xce
 3942 1015 60       		.byte	0x60
 3943 1016 16       		.uleb128 0x16
 3944 1017 1D120000 		.4byte	.LASF257
 3945 101b 0E       		.byte	0xe
 3946 101c 0E05     		.2byte	0x50e
 3947 101e CE000000 		.4byte	0xce
 3948 1022 64       		.byte	0x64
 3949 1023 16       		.uleb128 0x16
 3950 1024 610B0000 		.4byte	.LASF258
 3951 1028 0E       		.byte	0xe
 3952 1029 0F05     		.2byte	0x50f
 3953 102b CE000000 		.4byte	0xce
 3954 102f 68       		.byte	0x68
 3955 1030 16       		.uleb128 0x16
 3956 1031 36090000 		.4byte	.LASF259
 3957 1035 0E       		.byte	0xe
 3958 1036 1005     		.2byte	0x510
 3959 1038 CE000000 		.4byte	0xce
 3960 103c 6C       		.byte	0x6c
 3961 103d 16       		.uleb128 0x16
 3962 103e B5110000 		.4byte	.LASF260
 3963 1042 0E       		.byte	0xe
 3964 1043 1105     		.2byte	0x511
 3965 1045 520F0000 		.4byte	0xf52
 3966 1049 70       		.byte	0x70
 3967 104a 16       		.uleb128 0x16
 3968 104b CB070000 		.4byte	.LASF261
 3969 104f 0E       		.byte	0xe
 3970 1050 1205     		.2byte	0x512
 3971 1052 CE000000 		.4byte	0xce
 3972 1056 74       		.byte	0x74
 3973 1057 00       		.byte	0
 3974 1058 07       		.uleb128 0x7
 3975 1059 CE000000 		.4byte	0xce
 3976 105d 68100000 		.4byte	0x1068
 3977 1061 08       		.uleb128 0x8
 3978 1062 D9000000 		.4byte	0xd9
 3979 1066 0F       		.byte	0xf
 3980 1067 00       		.byte	0
 3981 1068 0F       		.uleb128 0xf
 3982 1069 F7050000 		.4byte	.LASF262
 3983 106d 0E       		.byte	0xe
 3984 106e 1305     		.2byte	0x513
 3985 1070 8B0F0000 		.4byte	0xf8b
 3986 1074 10       		.uleb128 0x10
 3987 1075 04       		.byte	0x4
 3988 1076 7A100000 		.4byte	0x107a
 3989 107a 17       		.uleb128 0x17
 3990 107b 85100000 		.4byte	0x1085
 3991 107f 18       		.uleb128 0x18
 3992 1080 CE000000 		.4byte	0xce
 3993 1084 00       		.byte	0
 3994 1085 0F       		.uleb128 0xf
ARM GAS  C:\Users\Angel\AppData\Local\Temp\ccvqOPgy.s 			page 141


 3995 1086 46090000 		.4byte	.LASF263
 3996 108a 05       		.byte	0x5
 3997 108b D901     		.2byte	0x1d9
 3998 108d 74100000 		.4byte	0x1074
 3999 1091 19       		.uleb128 0x19
 4000 1092 F5040000 		.4byte	.LASF286
 4001 1096 38       		.byte	0x38
 4002 1097 05       		.byte	0x5
 4003 1098 7502     		.2byte	0x275
 4004 109a 55110000 		.4byte	0x1155
 4005 109e 16       		.uleb128 0x16
 4006 109f AE000000 		.4byte	.LASF264
 4007 10a3 05       		.byte	0x5
 4008 10a4 7802     		.2byte	0x278
 4009 10a6 E0000000 		.4byte	0xe0
 4010 10aa 00       		.byte	0
 4011 10ab 16       		.uleb128 0x16
 4012 10ac 40060000 		.4byte	.LASF265
 4013 10b0 05       		.byte	0x5
 4014 10b1 7902     		.2byte	0x279
 4015 10b3 E0000000 		.4byte	0xe0
 4016 10b7 04       		.byte	0x4
 4017 10b8 16       		.uleb128 0x16
 4018 10b9 7E0B0000 		.4byte	.LASF266
 4019 10bd 05       		.byte	0x5
 4020 10be 7B02     		.2byte	0x27b
 4021 10c0 500F0000 		.4byte	0xf50
 4022 10c4 08       		.byte	0x8
 4023 10c5 16       		.uleb128 0x16
 4024 10c6 63020000 		.4byte	.LASF267
 4025 10ca 05       		.byte	0x5
 4026 10cb 7C02     		.2byte	0x27c
 4027 10cd CE000000 		.4byte	0xce
 4028 10d1 0C       		.byte	0xc
 4029 10d2 16       		.uleb128 0x16
 4030 10d3 740A0000 		.4byte	.LASF268
 4031 10d7 05       		.byte	0x5
 4032 10d8 7D02     		.2byte	0x27d
 4033 10da E0000000 		.4byte	0xe0
 4034 10de 10       		.byte	0x10
 4035 10df 16       		.uleb128 0x16
 4036 10e0 5C080000 		.4byte	.LASF269
 4037 10e4 05       		.byte	0x5
 4038 10e5 7E02     		.2byte	0x27e
 4039 10e7 E0000000 		.4byte	0xe0
 4040 10eb 14       		.byte	0x14
 4041 10ec 16       		.uleb128 0x16
 4042 10ed 49060000 		.4byte	.LASF270
 4043 10f1 05       		.byte	0x5
 4044 10f2 8002     		.2byte	0x280
 4045 10f4 500F0000 		.4byte	0xf50
 4046 10f8 18       		.byte	0x18
 4047 10f9 16       		.uleb128 0x16
 4048 10fa DF120000 		.4byte	.LASF271
 4049 10fe 05       		.byte	0x5
 4050 10ff 8102     		.2byte	0x281
 4051 1101 CE000000 		.4byte	0xce
ARM GAS  C:\Users\Angel\AppData\Local\Temp\ccvqOPgy.s 			page 142


 4052 1105 1C       		.byte	0x1c
 4053 1106 16       		.uleb128 0x16
 4054 1107 D0080000 		.4byte	.LASF272
 4055 110b 05       		.byte	0x5
 4056 110c 8202     		.2byte	0x282
 4057 110e E0000000 		.4byte	0xe0
 4058 1112 20       		.byte	0x20
 4059 1113 16       		.uleb128 0x16
 4060 1114 270B0000 		.4byte	.LASF273
 4061 1118 05       		.byte	0x5
 4062 1119 8402     		.2byte	0x284
 4063 111b 500F0000 		.4byte	0xf50
 4064 111f 24       		.byte	0x24
 4065 1120 16       		.uleb128 0x16
 4066 1121 C70A0000 		.4byte	.LASF274
 4067 1125 05       		.byte	0x5
 4068 1126 8502     		.2byte	0x285
 4069 1128 CE000000 		.4byte	0xce
 4070 112c 28       		.byte	0x28
 4071 112d 16       		.uleb128 0x16
 4072 112e E40D0000 		.4byte	.LASF275
 4073 1132 05       		.byte	0x5
 4074 1133 8602     		.2byte	0x286
 4075 1135 E0000000 		.4byte	0xe0
 4076 1139 2C       		.byte	0x2c
 4077 113a 16       		.uleb128 0x16
 4078 113b B1060000 		.4byte	.LASF276
 4079 113f 05       		.byte	0x5
 4080 1140 8B02     		.2byte	0x28b
 4081 1142 85100000 		.4byte	0x1085
 4082 1146 30       		.byte	0x30
 4083 1147 16       		.uleb128 0x16
 4084 1148 E9080000 		.4byte	.LASF277
 4085 114c 05       		.byte	0x5
 4086 114d 8E02     		.2byte	0x28e
 4087 114f CE000000 		.4byte	0xce
 4088 1153 34       		.byte	0x34
 4089 1154 00       		.byte	0
 4090 1155 0F       		.uleb128 0xf
 4091 1156 6E120000 		.4byte	.LASF278
 4092 115a 05       		.byte	0x5
 4093 115b 9102     		.2byte	0x291
 4094 115d 91100000 		.4byte	0x1091
 4095 1161 09       		.uleb128 0x9
 4096 1162 14       		.byte	0x14
 4097 1163 04       		.byte	0x4
 4098 1164 3B       		.byte	0x3b
 4099 1165 A6110000 		.4byte	0x11a6
 4100 1169 0B       		.uleb128 0xb
 4101 116a EE120000 		.4byte	.LASF279
 4102 116e 04       		.byte	0x4
 4103 116f 3D       		.byte	0x3d
 4104 1170 CE000000 		.4byte	0xce
 4105 1174 00       		.byte	0
 4106 1175 0B       		.uleb128 0xb
 4107 1176 3A050000 		.4byte	.LASF280
 4108 117a 04       		.byte	0x4
ARM GAS  C:\Users\Angel\AppData\Local\Temp\ccvqOPgy.s 			page 143


 4109 117b 3E       		.byte	0x3e
 4110 117c CE000000 		.4byte	0xce
 4111 1180 04       		.byte	0x4
 4112 1181 0B       		.uleb128 0xb
 4113 1182 0D020000 		.4byte	.LASF281
 4114 1186 04       		.byte	0x4
 4115 1187 3F       		.byte	0x3f
 4116 1188 A6110000 		.4byte	0x11a6
 4117 118c 08       		.byte	0x8
 4118 118d 0B       		.uleb128 0xb
 4119 118e 2C0E0000 		.4byte	.LASF282
 4120 1192 04       		.byte	0x4
 4121 1193 40       		.byte	0x40
 4122 1194 CE000000 		.4byte	0xce
 4123 1198 0C       		.byte	0xc
 4124 1199 0B       		.uleb128 0xb
 4125 119a 75100000 		.4byte	.LASF283
 4126 119e 04       		.byte	0x4
 4127 119f 45       		.byte	0x45
 4128 11a0 CE000000 		.4byte	0xce
 4129 11a4 10       		.byte	0x10
 4130 11a5 00       		.byte	0
 4131 11a6 10       		.uleb128 0x10
 4132 11a7 04       		.byte	0x4
 4133 11a8 AC110000 		.4byte	0x11ac
 4134 11ac 06       		.uleb128 0x6
 4135 11ad 68100000 		.4byte	0x1068
 4136 11b1 03       		.uleb128 0x3
 4137 11b2 6E060000 		.4byte	.LASF284
 4138 11b6 04       		.byte	0x4
 4139 11b7 48       		.byte	0x48
 4140 11b8 61110000 		.4byte	0x1161
 4141 11bc 10       		.uleb128 0x10
 4142 11bd 04       		.byte	0x4
 4143 11be 3B0F0000 		.4byte	0xf3b
 4144 11c2 03       		.uleb128 0x3
 4145 11c3 950F0000 		.4byte	.LASF285
 4146 11c7 0F       		.byte	0xf
 4147 11c8 07       		.byte	0x7
 4148 11c9 280F0000 		.4byte	0xf28
 4149 11cd 1A       		.uleb128 0x1a
 4150 11ce A9110000 		.4byte	.LASF287
 4151 11d2 0C       		.byte	0xc
 4152 11d3 0F       		.byte	0xf
 4153 11d4 09       		.byte	0x9
 4154 11d5 FE110000 		.4byte	0x11fe
 4155 11d9 0B       		.uleb128 0xb
 4156 11da 440E0000 		.4byte	.LASF288
 4157 11de 0F       		.byte	0xf
 4158 11df 0A       		.byte	0xa
 4159 11e0 BC110000 		.4byte	0x11bc
 4160 11e4 00       		.byte	0
 4161 11e5 0B       		.uleb128 0xb
 4162 11e6 BB020000 		.4byte	.LASF289
 4163 11ea 0F       		.byte	0xf
 4164 11eb 0B       		.byte	0xb
 4165 11ec C2110000 		.4byte	0x11c2
ARM GAS  C:\Users\Angel\AppData\Local\Temp\ccvqOPgy.s 			page 144


 4166 11f0 04       		.byte	0x4
 4167 11f1 0B       		.uleb128 0xb
 4168 11f2 D1090000 		.4byte	.LASF290
 4169 11f6 0F       		.byte	0xf
 4170 11f7 0C       		.byte	0xc
 4171 11f8 BC110000 		.4byte	0x11bc
 4172 11fc 08       		.byte	0x8
 4173 11fd 00       		.byte	0
 4174 11fe 03       		.uleb128 0x3
 4175 11ff 89070000 		.4byte	.LASF291
 4176 1203 0F       		.byte	0xf
 4177 1204 0D       		.byte	0xd
 4178 1205 CD110000 		.4byte	0x11cd
 4179 1209 1B       		.uleb128 0x1b
 4180 120a 86050000 		.4byte	.LASF297
 4181 120e 02       		.byte	0x2
 4182 120f 2503     		.2byte	0x325
 4183 1211 03       		.byte	0x3
 4184 1212 3B120000 		.4byte	0x123b
 4185 1216 1C       		.uleb128 0x1c
 4186 1217 E0040000 		.4byte	.LASF292
 4187 121b 02       		.byte	0x2
 4188 121c 2503     		.2byte	0x325
 4189 121e 3B120000 		.4byte	0x123b
 4190 1222 1C       		.uleb128 0x1c
 4191 1223 C4100000 		.4byte	.LASF293
 4192 1227 02       		.byte	0x2
 4193 1228 2503     		.2byte	0x325
 4194 122a CE000000 		.4byte	0xce
 4195 122e 1C       		.uleb128 0x1c
 4196 122f 32060000 		.4byte	.LASF294
 4197 1233 02       		.byte	0x2
 4198 1234 2503     		.2byte	0x325
 4199 1236 CE000000 		.4byte	0xce
 4200 123a 00       		.byte	0
 4201 123b 10       		.uleb128 0x10
 4202 123c 04       		.byte	0x4
 4203 123d D50A0000 		.4byte	0xad5
 4204 1241 1D       		.uleb128 0x1d
 4205 1242 D7070000 		.4byte	.LASF295
 4206 1246 02       		.byte	0x2
 4207 1247 4903     		.2byte	0x349
 4208 1249 CE000000 		.4byte	0xce
 4209 124d 03       		.byte	0x3
 4210 124e 6B120000 		.4byte	0x126b
 4211 1252 1C       		.uleb128 0x1c
 4212 1253 E0040000 		.4byte	.LASF292
 4213 1257 02       		.byte	0x2
 4214 1258 4903     		.2byte	0x349
 4215 125a 3B120000 		.4byte	0x123b
 4216 125e 1C       		.uleb128 0x1c
 4217 125f C4100000 		.4byte	.LASF293
 4218 1263 02       		.byte	0x2
 4219 1264 4903     		.2byte	0x349
 4220 1266 CE000000 		.4byte	0xce
 4221 126a 00       		.byte	0
 4222 126b 1E       		.uleb128 0x1e
ARM GAS  C:\Users\Angel\AppData\Local\Temp\ccvqOPgy.s 			page 145


 4223 126c 7E110000 		.4byte	.LASF351
 4224 1270 03       		.byte	0x3
 4225 1271 81       		.byte	0x81
 4226 1272 03       		.byte	0x3
 4227 1273 1D       		.uleb128 0x1d
 4228 1274 33010000 		.4byte	.LASF296
 4229 1278 02       		.byte	0x2
 4230 1279 0703     		.2byte	0x307
 4231 127b CE000000 		.4byte	0xce
 4232 127f 03       		.byte	0x3
 4233 1280 9D120000 		.4byte	0x129d
 4234 1284 1C       		.uleb128 0x1c
 4235 1285 E0040000 		.4byte	.LASF292
 4236 1289 02       		.byte	0x2
 4237 128a 0703     		.2byte	0x307
 4238 128c 3B120000 		.4byte	0x123b
 4239 1290 1C       		.uleb128 0x1c
 4240 1291 C4100000 		.4byte	.LASF293
 4241 1295 02       		.byte	0x2
 4242 1296 0703     		.2byte	0x307
 4243 1298 CE000000 		.4byte	0xce
 4244 129c 00       		.byte	0
 4245 129d 1B       		.uleb128 0x1b
 4246 129e B2070000 		.4byte	.LASF298
 4247 12a2 10       		.byte	0x10
 4248 12a3 BA01     		.2byte	0x1ba
 4249 12a5 03       		.byte	0x3
 4250 12a6 B7120000 		.4byte	0x12b7
 4251 12aa 1C       		.uleb128 0x1c
 4252 12ab 53070000 		.4byte	.LASF299
 4253 12af 10       		.byte	0x10
 4254 12b0 BA01     		.2byte	0x1ba
 4255 12b2 B7120000 		.4byte	0x12b7
 4256 12b6 00       		.byte	0
 4257 12b7 10       		.uleb128 0x10
 4258 12b8 04       		.byte	0x4
 4259 12b9 BD120000 		.4byte	0x12bd
 4260 12bd 06       		.uleb128 0x6
 4261 12be 2F0F0000 		.4byte	0xf2f
 4262 12c2 1F       		.uleb128 0x1f
 4263 12c3 260A0000 		.4byte	.LASF300
 4264 12c7 01       		.byte	0x1
 4265 12c8 7901     		.2byte	0x179
 4266 12ca 00000000 		.4byte	.LFB534
 4267 12ce 08000000 		.4byte	.LFE534-.LFB534
 4268 12d2 01       		.uleb128 0x1
 4269 12d3 9C       		.byte	0x9c
 4270 12d4 E2120000 		.4byte	0x12e2
 4271 12d8 20       		.uleb128 0x20
 4272 12d9 06000000 		.4byte	.LVL0
 4273 12dd E4320000 		.4byte	0x32e4
 4274 12e1 00       		.byte	0
 4275 12e2 1F       		.uleb128 0x1f
 4276 12e3 140B0000 		.4byte	.LASF301
 4277 12e7 01       		.byte	0x1
 4278 12e8 7401     		.2byte	0x174
 4279 12ea 00000000 		.4byte	.LFB533
ARM GAS  C:\Users\Angel\AppData\Local\Temp\ccvqOPgy.s 			page 146


 4280 12ee 10000000 		.4byte	.LFE533-.LFB533
 4281 12f2 01       		.uleb128 0x1
 4282 12f3 9C       		.byte	0x9c
 4283 12f4 0C130000 		.4byte	0x130c
 4284 12f8 21       		.uleb128 0x21
 4285 12f9 08000000 		.4byte	.LVL1
 4286 12fd EF320000 		.4byte	0x32ef
 4287 1301 22       		.uleb128 0x22
 4288 1302 01       		.uleb128 0x1
 4289 1303 50       		.byte	0x50
 4290 1304 05       		.uleb128 0x5
 4291 1305 03       		.byte	0x3
 4292 1306 00000000 		.4byte	.LANCHOR0
 4293 130a 00       		.byte	0
 4294 130b 00       		.byte	0
 4295 130c 1F       		.uleb128 0x1f
 4296 130d E4100000 		.4byte	.LASF302
 4297 1311 01       		.byte	0x1
 4298 1312 9B01     		.2byte	0x19b
 4299 1314 00000000 		.4byte	.LFB539
 4300 1318 24000000 		.4byte	.LFE539-.LFB539
 4301 131c 01       		.uleb128 0x1
 4302 131d 9C       		.byte	0x9c
 4303 131e 62130000 		.4byte	0x1362
 4304 1322 23       		.uleb128 0x23
 4305 1323 62756600 		.ascii	"buf\000"
 4306 1327 01       		.byte	0x1
 4307 1328 9D01     		.2byte	0x19d
 4308 132a 62130000 		.4byte	0x1362
 4309 132e 03       		.uleb128 0x3
 4310 132f 91       		.byte	0x91
 4311 1330 A47F     		.sleb128 -92
 4312 1332 24       		.uleb128 0x24
 4313 1333 0E000000 		.4byte	.LVL2
 4314 1337 FA320000 		.4byte	0x32fa
 4315 133b 50130000 		.4byte	0x1350
 4316 133f 22       		.uleb128 0x22
 4317 1340 01       		.uleb128 0x1
 4318 1341 51       		.byte	0x51
 4319 1342 05       		.uleb128 0x5
 4320 1343 03       		.byte	0x3
 4321 1344 00000000 		.4byte	.LC0
 4322 1348 22       		.uleb128 0x22
 4323 1349 01       		.uleb128 0x1
 4324 134a 52       		.byte	0x52
 4325 134b 03       		.uleb128 0x3
 4326 134c 91       		.byte	0x91
 4327 134d A47F     		.sleb128 -92
 4328 134f 00       		.byte	0
 4329 1350 21       		.uleb128 0x21
 4330 1351 14000000 		.4byte	.LVL3
 4331 1355 05330000 		.4byte	0x3305
 4332 1359 22       		.uleb128 0x22
 4333 135a 01       		.uleb128 0x1
 4334 135b 50       		.byte	0x50
 4335 135c 03       		.uleb128 0x3
 4336 135d 91       		.byte	0x91
ARM GAS  C:\Users\Angel\AppData\Local\Temp\ccvqOPgy.s 			page 147


 4337 135e A47F     		.sleb128 -92
 4338 1360 00       		.byte	0
 4339 1361 00       		.byte	0
 4340 1362 07       		.uleb128 0x7
 4341 1363 3B0F0000 		.4byte	0xf3b
 4342 1367 72130000 		.4byte	0x1372
 4343 136b 08       		.uleb128 0x8
 4344 136c D9000000 		.4byte	0xd9
 4345 1370 50       		.byte	0x50
 4346 1371 00       		.byte	0
 4347 1372 1F       		.uleb128 0x1f
 4348 1373 E00F0000 		.4byte	.LASF303
 4349 1377 01       		.byte	0x1
 4350 1378 7E01     		.2byte	0x17e
 4351 137a 00000000 		.4byte	.LFB535
 4352 137e 24000000 		.4byte	.LFE535-.LFB535
 4353 1382 01       		.uleb128 0x1
 4354 1383 9C       		.byte	0x9c
 4355 1384 BC130000 		.4byte	0x13bc
 4356 1388 23       		.uleb128 0x23
 4357 1389 6300     		.ascii	"c\000"
 4358 138b 01       		.byte	0x1
 4359 138c 8001     		.2byte	0x180
 4360 138e 94000000 		.4byte	0x94
 4361 1392 02       		.uleb128 0x2
 4362 1393 91       		.byte	0x91
 4363 1394 74       		.sleb128 -12
 4364 1395 24       		.uleb128 0x24
 4365 1396 0E000000 		.4byte	.LVL4
 4366 139a FA320000 		.4byte	0x32fa
 4367 139e B2130000 		.4byte	0x13b2
 4368 13a2 22       		.uleb128 0x22
 4369 13a3 01       		.uleb128 0x1
 4370 13a4 51       		.byte	0x51
 4371 13a5 05       		.uleb128 0x5
 4372 13a6 03       		.byte	0x3
 4373 13a7 08000000 		.4byte	.LC1
 4374 13ab 22       		.uleb128 0x22
 4375 13ac 01       		.uleb128 0x1
 4376 13ad 52       		.byte	0x52
 4377 13ae 02       		.uleb128 0x2
 4378 13af 91       		.byte	0x91
 4379 13b0 74       		.sleb128 -12
 4380 13b1 00       		.byte	0
 4381 13b2 20       		.uleb128 0x20
 4382 13b3 16000000 		.4byte	.LVL5
 4383 13b7 10330000 		.4byte	0x3310
 4384 13bb 00       		.byte	0
 4385 13bc 1F       		.uleb128 0x1f
 4386 13bd 7B070000 		.4byte	.LASF304
 4387 13c1 01       		.byte	0x1
 4388 13c2 8501     		.2byte	0x185
 4389 13c4 00000000 		.4byte	.LFB536
 4390 13c8 24000000 		.4byte	.LFE536-.LFB536
 4391 13cc 01       		.uleb128 0x1
 4392 13cd 9C       		.byte	0x9c
 4393 13ce 08140000 		.4byte	0x1408
ARM GAS  C:\Users\Angel\AppData\Local\Temp\ccvqOPgy.s 			page 148


 4394 13d2 25       		.uleb128 0x25
 4395 13d3 80100000 		.4byte	.LASF305
 4396 13d7 01       		.byte	0x1
 4397 13d8 8701     		.2byte	0x187
 4398 13da 94000000 		.4byte	0x94
 4399 13de 02       		.uleb128 0x2
 4400 13df 91       		.byte	0x91
 4401 13e0 74       		.sleb128 -12
 4402 13e1 24       		.uleb128 0x24
 4403 13e2 0E000000 		.4byte	.LVL6
 4404 13e6 FA320000 		.4byte	0x32fa
 4405 13ea FE130000 		.4byte	0x13fe
 4406 13ee 22       		.uleb128 0x22
 4407 13ef 01       		.uleb128 0x1
 4408 13f0 51       		.byte	0x51
 4409 13f1 05       		.uleb128 0x5
 4410 13f2 03       		.byte	0x3
 4411 13f3 08000000 		.4byte	.LC1
 4412 13f7 22       		.uleb128 0x22
 4413 13f8 01       		.uleb128 0x1
 4414 13f9 52       		.byte	0x52
 4415 13fa 02       		.uleb128 0x2
 4416 13fb 91       		.byte	0x91
 4417 13fc 74       		.sleb128 -12
 4418 13fd 00       		.byte	0
 4419 13fe 20       		.uleb128 0x20
 4420 13ff 16000000 		.4byte	.LVL7
 4421 1403 1B330000 		.4byte	0x331b
 4422 1407 00       		.byte	0
 4423 1408 1F       		.uleb128 0x1f
 4424 1409 58000000 		.4byte	.LASF306
 4425 140d 01       		.byte	0x1
 4426 140e A201     		.2byte	0x1a2
 4427 1410 00000000 		.4byte	.LFB540
 4428 1414 58000000 		.4byte	.LFE540-.LFB540
 4429 1418 01       		.uleb128 0x1
 4430 1419 9C       		.byte	0x9c
 4431 141a 79140000 		.4byte	0x1479
 4432 141e 25       		.uleb128 0x25
 4433 141f DB0F0000 		.4byte	.LASF307
 4434 1423 01       		.byte	0x1
 4435 1424 A401     		.2byte	0x1a4
 4436 1426 94000000 		.4byte	0x94
 4437 142a 02       		.uleb128 0x2
 4438 142b 91       		.byte	0x91
 4439 142c 74       		.sleb128 -12
 4440 142d 23       		.uleb128 0x23
 4441 142e 636F6C00 		.ascii	"col\000"
 4442 1432 01       		.byte	0x1
 4443 1433 A401     		.2byte	0x1a4
 4444 1435 94000000 		.4byte	0x94
 4445 1439 02       		.uleb128 0x2
 4446 143a 91       		.byte	0x91
 4447 143b 70       		.sleb128 -16
 4448 143c 26       		.uleb128 0x26
 4449 143d 80100000 		.4byte	.LASF305
 4450 1441 01       		.byte	0x1
ARM GAS  C:\Users\Angel\AppData\Local\Temp\ccvqOPgy.s 			page 149


 4451 1442 A501     		.2byte	0x1a5
 4452 1444 94000000 		.4byte	0x94
 4453 1448 00000000 		.4byte	.LLST0
 4454 144c 24       		.uleb128 0x24
 4455 144d 10000000 		.4byte	.LVL8
 4456 1451 FA320000 		.4byte	0x32fa
 4457 1455 6F140000 		.4byte	0x146f
 4458 1459 22       		.uleb128 0x22
 4459 145a 01       		.uleb128 0x1
 4460 145b 51       		.byte	0x51
 4461 145c 05       		.uleb128 0x5
 4462 145d 03       		.byte	0x3
 4463 145e 10000000 		.4byte	.LC2
 4464 1462 22       		.uleb128 0x22
 4465 1463 01       		.uleb128 0x1
 4466 1464 52       		.byte	0x52
 4467 1465 02       		.uleb128 0x2
 4468 1466 91       		.byte	0x91
 4469 1467 74       		.sleb128 -12
 4470 1468 22       		.uleb128 0x22
 4471 1469 01       		.uleb128 0x1
 4472 146a 53       		.byte	0x53
 4473 146b 02       		.uleb128 0x2
 4474 146c 7D       		.byte	0x7d
 4475 146d 00       		.sleb128 0
 4476 146e 00       		.byte	0
 4477 146f 20       		.uleb128 0x20
 4478 1470 4A000000 		.4byte	.LVL11
 4479 1474 1B330000 		.4byte	0x331b
 4480 1478 00       		.byte	0
 4481 1479 1F       		.uleb128 0x1f
 4482 147a EB060000 		.4byte	.LASF308
 4483 147e 01       		.byte	0x1
 4484 147f 8C01     		.2byte	0x18c
 4485 1481 00000000 		.4byte	.LFB537
 4486 1485 24000000 		.4byte	.LFE537-.LFB537
 4487 1489 01       		.uleb128 0x1
 4488 148a 9C       		.byte	0x9c
 4489 148b C5140000 		.4byte	0x14c5
 4490 148f 25       		.uleb128 0x25
 4491 1490 80100000 		.4byte	.LASF305
 4492 1494 01       		.byte	0x1
 4493 1495 8E01     		.2byte	0x18e
 4494 1497 94000000 		.4byte	0x94
 4495 149b 02       		.uleb128 0x2
 4496 149c 91       		.byte	0x91
 4497 149d 74       		.sleb128 -12
 4498 149e 24       		.uleb128 0x24
 4499 149f 0E000000 		.4byte	.LVL12
 4500 14a3 FA320000 		.4byte	0x32fa
 4501 14a7 BB140000 		.4byte	0x14bb
 4502 14ab 22       		.uleb128 0x22
 4503 14ac 01       		.uleb128 0x1
 4504 14ad 51       		.byte	0x51
 4505 14ae 05       		.uleb128 0x5
 4506 14af 03       		.byte	0x3
 4507 14b0 08000000 		.4byte	.LC1
ARM GAS  C:\Users\Angel\AppData\Local\Temp\ccvqOPgy.s 			page 150


 4508 14b4 22       		.uleb128 0x22
 4509 14b5 01       		.uleb128 0x1
 4510 14b6 52       		.byte	0x52
 4511 14b7 02       		.uleb128 0x2
 4512 14b8 91       		.byte	0x91
 4513 14b9 74       		.sleb128 -12
 4514 14ba 00       		.byte	0
 4515 14bb 20       		.uleb128 0x20
 4516 14bc 16000000 		.4byte	.LVL13
 4517 14c0 26330000 		.4byte	0x3326
 4518 14c4 00       		.byte	0
 4519 14c5 1F       		.uleb128 0x1f
 4520 14c6 820A0000 		.4byte	.LASF309
 4521 14ca 01       		.byte	0x1
 4522 14cb 9301     		.2byte	0x193
 4523 14cd 00000000 		.4byte	.LFB538
 4524 14d1 24000000 		.4byte	.LFE538-.LFB538
 4525 14d5 01       		.uleb128 0x1
 4526 14d6 9C       		.byte	0x9c
 4527 14d7 11150000 		.4byte	0x1511
 4528 14db 23       		.uleb128 0x23
 4529 14dc 636D6400 		.ascii	"cmd\000"
 4530 14e0 01       		.byte	0x1
 4531 14e1 9501     		.2byte	0x195
 4532 14e3 94000000 		.4byte	0x94
 4533 14e7 02       		.uleb128 0x2
 4534 14e8 91       		.byte	0x91
 4535 14e9 74       		.sleb128 -12
 4536 14ea 24       		.uleb128 0x24
 4537 14eb 0E000000 		.4byte	.LVL14
 4538 14ef FA320000 		.4byte	0x32fa
 4539 14f3 07150000 		.4byte	0x1507
 4540 14f7 22       		.uleb128 0x22
 4541 14f8 01       		.uleb128 0x1
 4542 14f9 51       		.byte	0x51
 4543 14fa 05       		.uleb128 0x5
 4544 14fb 03       		.byte	0x3
 4545 14fc 08000000 		.4byte	.LC1
 4546 1500 22       		.uleb128 0x22
 4547 1501 01       		.uleb128 0x1
 4548 1502 52       		.byte	0x52
 4549 1503 02       		.uleb128 0x2
 4550 1504 91       		.byte	0x91
 4551 1505 74       		.sleb128 -12
 4552 1506 00       		.byte	0
 4553 1507 20       		.uleb128 0x20
 4554 1508 16000000 		.4byte	.LVL15
 4555 150c 31330000 		.4byte	0x3331
 4556 1510 00       		.byte	0
 4557 1511 27       		.uleb128 0x27
 4558 1512 8B0F0000 		.4byte	.LASF310
 4559 1516 01       		.byte	0x1
 4560 1517 1E       		.byte	0x1e
 4561 1518 00000000 		.4byte	.LFB529
 4562 151c 60010000 		.4byte	.LFE529-.LFB529
 4563 1520 01       		.uleb128 0x1
 4564 1521 9C       		.byte	0x9c
ARM GAS  C:\Users\Angel\AppData\Local\Temp\ccvqOPgy.s 			page 151


 4565 1522 EF200000 		.4byte	0x20ef
 4566 1526 28       		.uleb128 0x28
 4567 1527 696E00   		.ascii	"in\000"
 4568 152a 01       		.byte	0x1
 4569 152b 1E       		.byte	0x1e
 4570 152c 94000000 		.4byte	0x94
 4571 1530 01       		.uleb128 0x1
 4572 1531 50       		.byte	0x50
 4573 1532 29       		.uleb128 0x29
 4574 1533 09120000 		.4byte	0x1209
 4575 1537 1A000000 		.4byte	.LBB290
 4576 153b 06000000 		.4byte	.LBE290-.LBB290
 4577 153f 01       		.byte	0x1
 4578 1540 22       		.byte	0x22
 4579 1541 61150000 		.4byte	0x1561
 4580 1545 2A       		.uleb128 0x2a
 4581 1546 2E120000 		.4byte	0x122e
 4582 154a 28000000 		.4byte	.LLST1
 4583 154e 2A       		.uleb128 0x2a
 4584 154f 22120000 		.4byte	0x1222
 4585 1553 28000000 		.4byte	.LLST1
 4586 1557 2A       		.uleb128 0x2a
 4587 1558 16120000 		.4byte	0x1216
 4588 155c 3C000000 		.4byte	.LLST3
 4589 1560 00       		.byte	0
 4590 1561 29       		.uleb128 0x29
 4591 1562 09120000 		.4byte	0x1209
 4592 1566 20000000 		.4byte	.LBB292
 4593 156a 04000000 		.4byte	.LBE292-.LBB292
 4594 156e 01       		.byte	0x1
 4595 156f 23       		.byte	0x23
 4596 1570 90150000 		.4byte	0x1590
 4597 1574 2A       		.uleb128 0x2a
 4598 1575 2E120000 		.4byte	0x122e
 4599 1579 54000000 		.4byte	.LLST4
 4600 157d 2A       		.uleb128 0x2a
 4601 157e 22120000 		.4byte	0x1222
 4602 1582 68000000 		.4byte	.LLST5
 4603 1586 2A       		.uleb128 0x2a
 4604 1587 16120000 		.4byte	0x1216
 4605 158b 7C000000 		.4byte	.LLST6
 4606 158f 00       		.byte	0
 4607 1590 29       		.uleb128 0x29
 4608 1591 09120000 		.4byte	0x1209
 4609 1595 24000000 		.4byte	.LBB294
 4610 1599 04000000 		.4byte	.LBE294-.LBB294
 4611 159d 01       		.byte	0x1
 4612 159e 24       		.byte	0x24
 4613 159f BF150000 		.4byte	0x15bf
 4614 15a3 2A       		.uleb128 0x2a
 4615 15a4 2E120000 		.4byte	0x122e
 4616 15a8 94000000 		.4byte	.LLST7
 4617 15ac 2A       		.uleb128 0x2a
 4618 15ad 22120000 		.4byte	0x1222
 4619 15b1 A8000000 		.4byte	.LLST8
 4620 15b5 2A       		.uleb128 0x2a
 4621 15b6 16120000 		.4byte	0x1216
ARM GAS  C:\Users\Angel\AppData\Local\Temp\ccvqOPgy.s 			page 152


 4622 15ba BC000000 		.4byte	.LLST9
 4623 15be 00       		.byte	0
 4624 15bf 29       		.uleb128 0x29
 4625 15c0 09120000 		.4byte	0x1209
 4626 15c4 28000000 		.4byte	.LBB296
 4627 15c8 06000000 		.4byte	.LBE296-.LBB296
 4628 15cc 01       		.byte	0x1
 4629 15cd 25       		.byte	0x25
 4630 15ce EE150000 		.4byte	0x15ee
 4631 15d2 2A       		.uleb128 0x2a
 4632 15d3 2E120000 		.4byte	0x122e
 4633 15d7 D4000000 		.4byte	.LLST10
 4634 15db 2A       		.uleb128 0x2a
 4635 15dc 22120000 		.4byte	0x1222
 4636 15e0 E8000000 		.4byte	.LLST11
 4637 15e4 2A       		.uleb128 0x2a
 4638 15e5 16120000 		.4byte	0x1216
 4639 15e9 FC000000 		.4byte	.LLST12
 4640 15ed 00       		.byte	0
 4641 15ee 29       		.uleb128 0x29
 4642 15ef 09120000 		.4byte	0x1209
 4643 15f3 2E000000 		.4byte	.LBB298
 4644 15f7 06000000 		.4byte	.LBE298-.LBB298
 4645 15fb 01       		.byte	0x1
 4646 15fc 29       		.byte	0x29
 4647 15fd 1D160000 		.4byte	0x161d
 4648 1601 2A       		.uleb128 0x2a
 4649 1602 2E120000 		.4byte	0x122e
 4650 1606 14010000 		.4byte	.LLST13
 4651 160a 2A       		.uleb128 0x2a
 4652 160b 22120000 		.4byte	0x1222
 4653 160f 28010000 		.4byte	.LLST14
 4654 1613 2A       		.uleb128 0x2a
 4655 1614 16120000 		.4byte	0x1216
 4656 1618 3C010000 		.4byte	.LLST15
 4657 161c 00       		.byte	0
 4658 161d 29       		.uleb128 0x29
 4659 161e 09120000 		.4byte	0x1209
 4660 1622 34000000 		.4byte	.LBB300
 4661 1626 04000000 		.4byte	.LBE300-.LBB300
 4662 162a 01       		.byte	0x1
 4663 162b 2A       		.byte	0x2a
 4664 162c 4C160000 		.4byte	0x164c
 4665 1630 2A       		.uleb128 0x2a
 4666 1631 2E120000 		.4byte	0x122e
 4667 1635 54010000 		.4byte	.LLST16
 4668 1639 2A       		.uleb128 0x2a
 4669 163a 22120000 		.4byte	0x1222
 4670 163e 68010000 		.4byte	.LLST17
 4671 1642 2A       		.uleb128 0x2a
 4672 1643 16120000 		.4byte	0x1216
 4673 1647 7C010000 		.4byte	.LLST18
 4674 164b 00       		.byte	0
 4675 164c 29       		.uleb128 0x29
 4676 164d 09120000 		.4byte	0x1209
 4677 1651 38000000 		.4byte	.LBB302
 4678 1655 04000000 		.4byte	.LBE302-.LBB302
ARM GAS  C:\Users\Angel\AppData\Local\Temp\ccvqOPgy.s 			page 153


 4679 1659 01       		.byte	0x1
 4680 165a 2B       		.byte	0x2b
 4681 165b 7B160000 		.4byte	0x167b
 4682 165f 2A       		.uleb128 0x2a
 4683 1660 2E120000 		.4byte	0x122e
 4684 1664 94010000 		.4byte	.LLST19
 4685 1668 2A       		.uleb128 0x2a
 4686 1669 22120000 		.4byte	0x1222
 4687 166d A8010000 		.4byte	.LLST20
 4688 1671 2A       		.uleb128 0x2a
 4689 1672 16120000 		.4byte	0x1216
 4690 1676 BC010000 		.4byte	.LLST21
 4691 167a 00       		.byte	0
 4692 167b 29       		.uleb128 0x29
 4693 167c 09120000 		.4byte	0x1209
 4694 1680 3C000000 		.4byte	.LBB304
 4695 1684 06000000 		.4byte	.LBE304-.LBB304
 4696 1688 01       		.byte	0x1
 4697 1689 2C       		.byte	0x2c
 4698 168a AA160000 		.4byte	0x16aa
 4699 168e 2A       		.uleb128 0x2a
 4700 168f 2E120000 		.4byte	0x122e
 4701 1693 D4010000 		.4byte	.LLST22
 4702 1697 2A       		.uleb128 0x2a
 4703 1698 22120000 		.4byte	0x1222
 4704 169c E8010000 		.4byte	.LLST23
 4705 16a0 2A       		.uleb128 0x2a
 4706 16a1 16120000 		.4byte	0x1216
 4707 16a5 FC010000 		.4byte	.LLST24
 4708 16a9 00       		.byte	0
 4709 16aa 29       		.uleb128 0x29
 4710 16ab 09120000 		.4byte	0x1209
 4711 16af 42000000 		.4byte	.LBB306
 4712 16b3 06000000 		.4byte	.LBE306-.LBB306
 4713 16b7 01       		.byte	0x1
 4714 16b8 30       		.byte	0x30
 4715 16b9 D9160000 		.4byte	0x16d9
 4716 16bd 2A       		.uleb128 0x2a
 4717 16be 2E120000 		.4byte	0x122e
 4718 16c2 14020000 		.4byte	.LLST25
 4719 16c6 2A       		.uleb128 0x2a
 4720 16c7 22120000 		.4byte	0x1222
 4721 16cb 14020000 		.4byte	.LLST25
 4722 16cf 2A       		.uleb128 0x2a
 4723 16d0 16120000 		.4byte	0x1216
 4724 16d4 28020000 		.4byte	.LLST27
 4725 16d8 00       		.byte	0
 4726 16d9 29       		.uleb128 0x29
 4727 16da 09120000 		.4byte	0x1209
 4728 16de 48000000 		.4byte	.LBB308
 4729 16e2 04000000 		.4byte	.LBE308-.LBB308
 4730 16e6 01       		.byte	0x1
 4731 16e7 31       		.byte	0x31
 4732 16e8 08170000 		.4byte	0x1708
 4733 16ec 2A       		.uleb128 0x2a
 4734 16ed 2E120000 		.4byte	0x122e
 4735 16f1 40020000 		.4byte	.LLST28
ARM GAS  C:\Users\Angel\AppData\Local\Temp\ccvqOPgy.s 			page 154


 4736 16f5 2A       		.uleb128 0x2a
 4737 16f6 22120000 		.4byte	0x1222
 4738 16fa 40020000 		.4byte	.LLST28
 4739 16fe 2A       		.uleb128 0x2a
 4740 16ff 16120000 		.4byte	0x1216
 4741 1703 54020000 		.4byte	.LLST30
 4742 1707 00       		.byte	0
 4743 1708 29       		.uleb128 0x29
 4744 1709 09120000 		.4byte	0x1209
 4745 170d 4C000000 		.4byte	.LBB310
 4746 1711 04000000 		.4byte	.LBE310-.LBB310
 4747 1715 01       		.byte	0x1
 4748 1716 32       		.byte	0x32
 4749 1717 37170000 		.4byte	0x1737
 4750 171b 2A       		.uleb128 0x2a
 4751 171c 2E120000 		.4byte	0x122e
 4752 1720 6C020000 		.4byte	.LLST31
 4753 1724 2A       		.uleb128 0x2a
 4754 1725 22120000 		.4byte	0x1222
 4755 1729 80020000 		.4byte	.LLST32
 4756 172d 2A       		.uleb128 0x2a
 4757 172e 16120000 		.4byte	0x1216
 4758 1732 94020000 		.4byte	.LLST33
 4759 1736 00       		.byte	0
 4760 1737 29       		.uleb128 0x29
 4761 1738 09120000 		.4byte	0x1209
 4762 173c 50000000 		.4byte	.LBB312
 4763 1740 06000000 		.4byte	.LBE312-.LBB312
 4764 1744 01       		.byte	0x1
 4765 1745 33       		.byte	0x33
 4766 1746 66170000 		.4byte	0x1766
 4767 174a 2A       		.uleb128 0x2a
 4768 174b 2E120000 		.4byte	0x122e
 4769 174f AC020000 		.4byte	.LLST34
 4770 1753 2A       		.uleb128 0x2a
 4771 1754 22120000 		.4byte	0x1222
 4772 1758 C0020000 		.4byte	.LLST35
 4773 175c 2A       		.uleb128 0x2a
 4774 175d 16120000 		.4byte	0x1216
 4775 1761 D4020000 		.4byte	.LLST36
 4776 1765 00       		.byte	0
 4777 1766 29       		.uleb128 0x29
 4778 1767 09120000 		.4byte	0x1209
 4779 176b 56000000 		.4byte	.LBB314
 4780 176f 06000000 		.4byte	.LBE314-.LBB314
 4781 1773 01       		.byte	0x1
 4782 1774 37       		.byte	0x37
 4783 1775 95170000 		.4byte	0x1795
 4784 1779 2A       		.uleb128 0x2a
 4785 177a 2E120000 		.4byte	0x122e
 4786 177e EC020000 		.4byte	.LLST37
 4787 1782 2A       		.uleb128 0x2a
 4788 1783 22120000 		.4byte	0x1222
 4789 1787 00030000 		.4byte	.LLST38
 4790 178b 2A       		.uleb128 0x2a
 4791 178c 16120000 		.4byte	0x1216
 4792 1790 14030000 		.4byte	.LLST39
ARM GAS  C:\Users\Angel\AppData\Local\Temp\ccvqOPgy.s 			page 155


 4793 1794 00       		.byte	0
 4794 1795 29       		.uleb128 0x29
 4795 1796 09120000 		.4byte	0x1209
 4796 179a 5C000000 		.4byte	.LBB316
 4797 179e 04000000 		.4byte	.LBE316-.LBB316
 4798 17a2 01       		.byte	0x1
 4799 17a3 38       		.byte	0x38
 4800 17a4 C4170000 		.4byte	0x17c4
 4801 17a8 2A       		.uleb128 0x2a
 4802 17a9 2E120000 		.4byte	0x122e
 4803 17ad 2C030000 		.4byte	.LLST40
 4804 17b1 2A       		.uleb128 0x2a
 4805 17b2 22120000 		.4byte	0x1222
 4806 17b6 2C030000 		.4byte	.LLST40
 4807 17ba 2A       		.uleb128 0x2a
 4808 17bb 16120000 		.4byte	0x1216
 4809 17bf 40030000 		.4byte	.LLST42
 4810 17c3 00       		.byte	0
 4811 17c4 29       		.uleb128 0x29
 4812 17c5 09120000 		.4byte	0x1209
 4813 17c9 60000000 		.4byte	.LBB318
 4814 17cd 04000000 		.4byte	.LBE318-.LBB318
 4815 17d1 01       		.byte	0x1
 4816 17d2 39       		.byte	0x39
 4817 17d3 F3170000 		.4byte	0x17f3
 4818 17d7 2A       		.uleb128 0x2a
 4819 17d8 2E120000 		.4byte	0x122e
 4820 17dc 58030000 		.4byte	.LLST43
 4821 17e0 2A       		.uleb128 0x2a
 4822 17e1 22120000 		.4byte	0x1222
 4823 17e5 6C030000 		.4byte	.LLST44
 4824 17e9 2A       		.uleb128 0x2a
 4825 17ea 16120000 		.4byte	0x1216
 4826 17ee 80030000 		.4byte	.LLST45
 4827 17f2 00       		.byte	0
 4828 17f3 29       		.uleb128 0x29
 4829 17f4 09120000 		.4byte	0x1209
 4830 17f8 64000000 		.4byte	.LBB320
 4831 17fc 06000000 		.4byte	.LBE320-.LBB320
 4832 1800 01       		.byte	0x1
 4833 1801 3A       		.byte	0x3a
 4834 1802 22180000 		.4byte	0x1822
 4835 1806 2A       		.uleb128 0x2a
 4836 1807 2E120000 		.4byte	0x122e
 4837 180b 98030000 		.4byte	.LLST46
 4838 180f 2A       		.uleb128 0x2a
 4839 1810 22120000 		.4byte	0x1222
 4840 1814 AC030000 		.4byte	.LLST47
 4841 1818 2A       		.uleb128 0x2a
 4842 1819 16120000 		.4byte	0x1216
 4843 181d C0030000 		.4byte	.LLST48
 4844 1821 00       		.byte	0
 4845 1822 29       		.uleb128 0x29
 4846 1823 09120000 		.4byte	0x1209
 4847 1827 6A000000 		.4byte	.LBB322
 4848 182b 06000000 		.4byte	.LBE322-.LBB322
 4849 182f 01       		.byte	0x1
ARM GAS  C:\Users\Angel\AppData\Local\Temp\ccvqOPgy.s 			page 156


 4850 1830 3E       		.byte	0x3e
 4851 1831 51180000 		.4byte	0x1851
 4852 1835 2A       		.uleb128 0x2a
 4853 1836 2E120000 		.4byte	0x122e
 4854 183a D8030000 		.4byte	.LLST49
 4855 183e 2A       		.uleb128 0x2a
 4856 183f 22120000 		.4byte	0x1222
 4857 1843 D8030000 		.4byte	.LLST49
 4858 1847 2A       		.uleb128 0x2a
 4859 1848 16120000 		.4byte	0x1216
 4860 184c EC030000 		.4byte	.LLST51
 4861 1850 00       		.byte	0
 4862 1851 29       		.uleb128 0x29
 4863 1852 09120000 		.4byte	0x1209
 4864 1856 70000000 		.4byte	.LBB324
 4865 185a 04000000 		.4byte	.LBE324-.LBB324
 4866 185e 01       		.byte	0x1
 4867 185f 3F       		.byte	0x3f
 4868 1860 80180000 		.4byte	0x1880
 4869 1864 2A       		.uleb128 0x2a
 4870 1865 2E120000 		.4byte	0x122e
 4871 1869 04040000 		.4byte	.LLST52
 4872 186d 2A       		.uleb128 0x2a
 4873 186e 22120000 		.4byte	0x1222
 4874 1872 18040000 		.4byte	.LLST53
 4875 1876 2A       		.uleb128 0x2a
 4876 1877 16120000 		.4byte	0x1216
 4877 187b 2C040000 		.4byte	.LLST54
 4878 187f 00       		.byte	0
 4879 1880 29       		.uleb128 0x29
 4880 1881 09120000 		.4byte	0x1209
 4881 1885 74000000 		.4byte	.LBB326
 4882 1889 04000000 		.4byte	.LBE326-.LBB326
 4883 188d 01       		.byte	0x1
 4884 188e 40       		.byte	0x40
 4885 188f AF180000 		.4byte	0x18af
 4886 1893 2A       		.uleb128 0x2a
 4887 1894 2E120000 		.4byte	0x122e
 4888 1898 44040000 		.4byte	.LLST55
 4889 189c 2A       		.uleb128 0x2a
 4890 189d 22120000 		.4byte	0x1222
 4891 18a1 58040000 		.4byte	.LLST56
 4892 18a5 2A       		.uleb128 0x2a
 4893 18a6 16120000 		.4byte	0x1216
 4894 18aa 6C040000 		.4byte	.LLST57
 4895 18ae 00       		.byte	0
 4896 18af 29       		.uleb128 0x29
 4897 18b0 09120000 		.4byte	0x1209
 4898 18b4 78000000 		.4byte	.LBB328
 4899 18b8 06000000 		.4byte	.LBE328-.LBB328
 4900 18bc 01       		.byte	0x1
 4901 18bd 41       		.byte	0x41
 4902 18be DE180000 		.4byte	0x18de
 4903 18c2 2A       		.uleb128 0x2a
 4904 18c3 2E120000 		.4byte	0x122e
 4905 18c7 84040000 		.4byte	.LLST58
 4906 18cb 2A       		.uleb128 0x2a
ARM GAS  C:\Users\Angel\AppData\Local\Temp\ccvqOPgy.s 			page 157


 4907 18cc 22120000 		.4byte	0x1222
 4908 18d0 98040000 		.4byte	.LLST59
 4909 18d4 2A       		.uleb128 0x2a
 4910 18d5 16120000 		.4byte	0x1216
 4911 18d9 AC040000 		.4byte	.LLST60
 4912 18dd 00       		.byte	0
 4913 18de 29       		.uleb128 0x29
 4914 18df 09120000 		.4byte	0x1209
 4915 18e3 7E000000 		.4byte	.LBB330
 4916 18e7 06000000 		.4byte	.LBE330-.LBB330
 4917 18eb 01       		.byte	0x1
 4918 18ec 44       		.byte	0x44
 4919 18ed 0D190000 		.4byte	0x190d
 4920 18f1 2A       		.uleb128 0x2a
 4921 18f2 2E120000 		.4byte	0x122e
 4922 18f6 C4040000 		.4byte	.LLST61
 4923 18fa 2A       		.uleb128 0x2a
 4924 18fb 22120000 		.4byte	0x1222
 4925 18ff D8040000 		.4byte	.LLST62
 4926 1903 2A       		.uleb128 0x2a
 4927 1904 16120000 		.4byte	0x1216
 4928 1908 EC040000 		.4byte	.LLST63
 4929 190c 00       		.byte	0
 4930 190d 29       		.uleb128 0x29
 4931 190e 09120000 		.4byte	0x1209
 4932 1912 84000000 		.4byte	.LBB332
 4933 1916 04000000 		.4byte	.LBE332-.LBB332
 4934 191a 01       		.byte	0x1
 4935 191b 45       		.byte	0x45
 4936 191c 3C190000 		.4byte	0x193c
 4937 1920 2A       		.uleb128 0x2a
 4938 1921 2E120000 		.4byte	0x122e
 4939 1925 04050000 		.4byte	.LLST64
 4940 1929 2A       		.uleb128 0x2a
 4941 192a 22120000 		.4byte	0x1222
 4942 192e 18050000 		.4byte	.LLST65
 4943 1932 2A       		.uleb128 0x2a
 4944 1933 16120000 		.4byte	0x1216
 4945 1937 2C050000 		.4byte	.LLST66
 4946 193b 00       		.byte	0
 4947 193c 29       		.uleb128 0x29
 4948 193d 09120000 		.4byte	0x1209
 4949 1941 88000000 		.4byte	.LBB334
 4950 1945 04000000 		.4byte	.LBE334-.LBB334
 4951 1949 01       		.byte	0x1
 4952 194a 46       		.byte	0x46
 4953 194b 6B190000 		.4byte	0x196b
 4954 194f 2A       		.uleb128 0x2a
 4955 1950 2E120000 		.4byte	0x122e
 4956 1954 44050000 		.4byte	.LLST67
 4957 1958 2A       		.uleb128 0x2a
 4958 1959 22120000 		.4byte	0x1222
 4959 195d 58050000 		.4byte	.LLST68
 4960 1961 2A       		.uleb128 0x2a
 4961 1962 16120000 		.4byte	0x1216
 4962 1966 6C050000 		.4byte	.LLST69
 4963 196a 00       		.byte	0
ARM GAS  C:\Users\Angel\AppData\Local\Temp\ccvqOPgy.s 			page 158


 4964 196b 29       		.uleb128 0x29
 4965 196c 09120000 		.4byte	0x1209
 4966 1970 8C000000 		.4byte	.LBB336
 4967 1974 06000000 		.4byte	.LBE336-.LBB336
 4968 1978 01       		.byte	0x1
 4969 1979 47       		.byte	0x47
 4970 197a 9A190000 		.4byte	0x199a
 4971 197e 2A       		.uleb128 0x2a
 4972 197f 2E120000 		.4byte	0x122e
 4973 1983 84050000 		.4byte	.LLST70
 4974 1987 2A       		.uleb128 0x2a
 4975 1988 22120000 		.4byte	0x1222
 4976 198c 98050000 		.4byte	.LLST71
 4977 1990 2A       		.uleb128 0x2a
 4978 1991 16120000 		.4byte	0x1216
 4979 1995 AC050000 		.4byte	.LLST72
 4980 1999 00       		.byte	0
 4981 199a 29       		.uleb128 0x29
 4982 199b 09120000 		.4byte	0x1209
 4983 199f 92000000 		.4byte	.LBB338
 4984 19a3 06000000 		.4byte	.LBE338-.LBB338
 4985 19a7 01       		.byte	0x1
 4986 19a8 4B       		.byte	0x4b
 4987 19a9 C9190000 		.4byte	0x19c9
 4988 19ad 2A       		.uleb128 0x2a
 4989 19ae 2E120000 		.4byte	0x122e
 4990 19b2 C4050000 		.4byte	.LLST73
 4991 19b6 2A       		.uleb128 0x2a
 4992 19b7 22120000 		.4byte	0x1222
 4993 19bb C4050000 		.4byte	.LLST73
 4994 19bf 2A       		.uleb128 0x2a
 4995 19c0 16120000 		.4byte	0x1216
 4996 19c4 D8050000 		.4byte	.LLST75
 4997 19c8 00       		.byte	0
 4998 19c9 29       		.uleb128 0x29
 4999 19ca 09120000 		.4byte	0x1209
 5000 19ce 98000000 		.4byte	.LBB340
 5001 19d2 04000000 		.4byte	.LBE340-.LBB340
 5002 19d6 01       		.byte	0x1
 5003 19d7 4C       		.byte	0x4c
 5004 19d8 F8190000 		.4byte	0x19f8
 5005 19dc 2A       		.uleb128 0x2a
 5006 19dd 2E120000 		.4byte	0x122e
 5007 19e1 F0050000 		.4byte	.LLST76
 5008 19e5 2A       		.uleb128 0x2a
 5009 19e6 22120000 		.4byte	0x1222
 5010 19ea F0050000 		.4byte	.LLST76
 5011 19ee 2A       		.uleb128 0x2a
 5012 19ef 16120000 		.4byte	0x1216
 5013 19f3 04060000 		.4byte	.LLST78
 5014 19f7 00       		.byte	0
 5015 19f8 29       		.uleb128 0x29
 5016 19f9 09120000 		.4byte	0x1209
 5017 19fd 9C000000 		.4byte	.LBB342
 5018 1a01 04000000 		.4byte	.LBE342-.LBB342
 5019 1a05 01       		.byte	0x1
 5020 1a06 4D       		.byte	0x4d
ARM GAS  C:\Users\Angel\AppData\Local\Temp\ccvqOPgy.s 			page 159


 5021 1a07 271A0000 		.4byte	0x1a27
 5022 1a0b 2A       		.uleb128 0x2a
 5023 1a0c 2E120000 		.4byte	0x122e
 5024 1a10 1C060000 		.4byte	.LLST79
 5025 1a14 2A       		.uleb128 0x2a
 5026 1a15 22120000 		.4byte	0x1222
 5027 1a19 30060000 		.4byte	.LLST80
 5028 1a1d 2A       		.uleb128 0x2a
 5029 1a1e 16120000 		.4byte	0x1216
 5030 1a22 44060000 		.4byte	.LLST81
 5031 1a26 00       		.byte	0
 5032 1a27 29       		.uleb128 0x29
 5033 1a28 09120000 		.4byte	0x1209
 5034 1a2c A0000000 		.4byte	.LBB344
 5035 1a30 06000000 		.4byte	.LBE344-.LBB344
 5036 1a34 01       		.byte	0x1
 5037 1a35 4E       		.byte	0x4e
 5038 1a36 561A0000 		.4byte	0x1a56
 5039 1a3a 2A       		.uleb128 0x2a
 5040 1a3b 2E120000 		.4byte	0x122e
 5041 1a3f 5C060000 		.4byte	.LLST82
 5042 1a43 2A       		.uleb128 0x2a
 5043 1a44 22120000 		.4byte	0x1222
 5044 1a48 70060000 		.4byte	.LLST83
 5045 1a4c 2A       		.uleb128 0x2a
 5046 1a4d 16120000 		.4byte	0x1216
 5047 1a51 84060000 		.4byte	.LLST84
 5048 1a55 00       		.byte	0
 5049 1a56 29       		.uleb128 0x29
 5050 1a57 09120000 		.4byte	0x1209
 5051 1a5b A6000000 		.4byte	.LBB346
 5052 1a5f 06000000 		.4byte	.LBE346-.LBB346
 5053 1a63 01       		.byte	0x1
 5054 1a64 52       		.byte	0x52
 5055 1a65 851A0000 		.4byte	0x1a85
 5056 1a69 2A       		.uleb128 0x2a
 5057 1a6a 2E120000 		.4byte	0x122e
 5058 1a6e 9C060000 		.4byte	.LLST85
 5059 1a72 2A       		.uleb128 0x2a
 5060 1a73 22120000 		.4byte	0x1222
 5061 1a77 B0060000 		.4byte	.LLST86
 5062 1a7b 2A       		.uleb128 0x2a
 5063 1a7c 16120000 		.4byte	0x1216
 5064 1a80 C4060000 		.4byte	.LLST87
 5065 1a84 00       		.byte	0
 5066 1a85 29       		.uleb128 0x29
 5067 1a86 09120000 		.4byte	0x1209
 5068 1a8a AC000000 		.4byte	.LBB348
 5069 1a8e 04000000 		.4byte	.LBE348-.LBB348
 5070 1a92 01       		.byte	0x1
 5071 1a93 53       		.byte	0x53
 5072 1a94 B41A0000 		.4byte	0x1ab4
 5073 1a98 2A       		.uleb128 0x2a
 5074 1a99 2E120000 		.4byte	0x122e
 5075 1a9d DC060000 		.4byte	.LLST88
 5076 1aa1 2A       		.uleb128 0x2a
 5077 1aa2 22120000 		.4byte	0x1222
ARM GAS  C:\Users\Angel\AppData\Local\Temp\ccvqOPgy.s 			page 160


 5078 1aa6 DC060000 		.4byte	.LLST88
 5079 1aaa 2A       		.uleb128 0x2a
 5080 1aab 16120000 		.4byte	0x1216
 5081 1aaf F0060000 		.4byte	.LLST90
 5082 1ab3 00       		.byte	0
 5083 1ab4 29       		.uleb128 0x29
 5084 1ab5 09120000 		.4byte	0x1209
 5085 1ab9 B0000000 		.4byte	.LBB350
 5086 1abd 04000000 		.4byte	.LBE350-.LBB350
 5087 1ac1 01       		.byte	0x1
 5088 1ac2 54       		.byte	0x54
 5089 1ac3 E31A0000 		.4byte	0x1ae3
 5090 1ac7 2A       		.uleb128 0x2a
 5091 1ac8 2E120000 		.4byte	0x122e
 5092 1acc 08070000 		.4byte	.LLST91
 5093 1ad0 2A       		.uleb128 0x2a
 5094 1ad1 22120000 		.4byte	0x1222
 5095 1ad5 1C070000 		.4byte	.LLST92
 5096 1ad9 2A       		.uleb128 0x2a
 5097 1ada 16120000 		.4byte	0x1216
 5098 1ade 30070000 		.4byte	.LLST93
 5099 1ae2 00       		.byte	0
 5100 1ae3 29       		.uleb128 0x29
 5101 1ae4 09120000 		.4byte	0x1209
 5102 1ae8 B4000000 		.4byte	.LBB352
 5103 1aec 06000000 		.4byte	.LBE352-.LBB352
 5104 1af0 01       		.byte	0x1
 5105 1af1 55       		.byte	0x55
 5106 1af2 121B0000 		.4byte	0x1b12
 5107 1af6 2A       		.uleb128 0x2a
 5108 1af7 2E120000 		.4byte	0x122e
 5109 1afb 48070000 		.4byte	.LLST94
 5110 1aff 2A       		.uleb128 0x2a
 5111 1b00 22120000 		.4byte	0x1222
 5112 1b04 5C070000 		.4byte	.LLST95
 5113 1b08 2A       		.uleb128 0x2a
 5114 1b09 16120000 		.4byte	0x1216
 5115 1b0d 70070000 		.4byte	.LLST96
 5116 1b11 00       		.byte	0
 5117 1b12 29       		.uleb128 0x29
 5118 1b13 09120000 		.4byte	0x1209
 5119 1b17 BA000000 		.4byte	.LBB354
 5120 1b1b 06000000 		.4byte	.LBE354-.LBB354
 5121 1b1f 01       		.byte	0x1
 5122 1b20 59       		.byte	0x59
 5123 1b21 411B0000 		.4byte	0x1b41
 5124 1b25 2A       		.uleb128 0x2a
 5125 1b26 2E120000 		.4byte	0x122e
 5126 1b2a 88070000 		.4byte	.LLST97
 5127 1b2e 2A       		.uleb128 0x2a
 5128 1b2f 22120000 		.4byte	0x1222
 5129 1b33 88070000 		.4byte	.LLST97
 5130 1b37 2A       		.uleb128 0x2a
 5131 1b38 16120000 		.4byte	0x1216
 5132 1b3c 9C070000 		.4byte	.LLST99
 5133 1b40 00       		.byte	0
 5134 1b41 29       		.uleb128 0x29
ARM GAS  C:\Users\Angel\AppData\Local\Temp\ccvqOPgy.s 			page 161


 5135 1b42 09120000 		.4byte	0x1209
 5136 1b46 C0000000 		.4byte	.LBB356
 5137 1b4a 04000000 		.4byte	.LBE356-.LBB356
 5138 1b4e 01       		.byte	0x1
 5139 1b4f 5A       		.byte	0x5a
 5140 1b50 701B0000 		.4byte	0x1b70
 5141 1b54 2A       		.uleb128 0x2a
 5142 1b55 2E120000 		.4byte	0x122e
 5143 1b59 B4070000 		.4byte	.LLST100
 5144 1b5d 2A       		.uleb128 0x2a
 5145 1b5e 22120000 		.4byte	0x1222
 5146 1b62 C8070000 		.4byte	.LLST101
 5147 1b66 2A       		.uleb128 0x2a
 5148 1b67 16120000 		.4byte	0x1216
 5149 1b6b DC070000 		.4byte	.LLST102
 5150 1b6f 00       		.byte	0
 5151 1b70 29       		.uleb128 0x29
 5152 1b71 09120000 		.4byte	0x1209
 5153 1b75 C4000000 		.4byte	.LBB358
 5154 1b79 04000000 		.4byte	.LBE358-.LBB358
 5155 1b7d 01       		.byte	0x1
 5156 1b7e 5B       		.byte	0x5b
 5157 1b7f 9F1B0000 		.4byte	0x1b9f
 5158 1b83 2A       		.uleb128 0x2a
 5159 1b84 2E120000 		.4byte	0x122e
 5160 1b88 F4070000 		.4byte	.LLST103
 5161 1b8c 2A       		.uleb128 0x2a
 5162 1b8d 22120000 		.4byte	0x1222
 5163 1b91 08080000 		.4byte	.LLST104
 5164 1b95 2A       		.uleb128 0x2a
 5165 1b96 16120000 		.4byte	0x1216
 5166 1b9a 1C080000 		.4byte	.LLST105
 5167 1b9e 00       		.byte	0
 5168 1b9f 29       		.uleb128 0x29
 5169 1ba0 09120000 		.4byte	0x1209
 5170 1ba4 C8000000 		.4byte	.LBB360
 5171 1ba8 06000000 		.4byte	.LBE360-.LBB360
 5172 1bac 01       		.byte	0x1
 5173 1bad 5C       		.byte	0x5c
 5174 1bae CE1B0000 		.4byte	0x1bce
 5175 1bb2 2A       		.uleb128 0x2a
 5176 1bb3 2E120000 		.4byte	0x122e
 5177 1bb7 34080000 		.4byte	.LLST106
 5178 1bbb 2A       		.uleb128 0x2a
 5179 1bbc 22120000 		.4byte	0x1222
 5180 1bc0 48080000 		.4byte	.LLST107
 5181 1bc4 2A       		.uleb128 0x2a
 5182 1bc5 16120000 		.4byte	0x1216
 5183 1bc9 5C080000 		.4byte	.LLST108
 5184 1bcd 00       		.byte	0
 5185 1bce 29       		.uleb128 0x29
 5186 1bcf 09120000 		.4byte	0x1209
 5187 1bd3 CE000000 		.4byte	.LBB362
 5188 1bd7 06000000 		.4byte	.LBE362-.LBB362
 5189 1bdb 01       		.byte	0x1
 5190 1bdc 60       		.byte	0x60
 5191 1bdd FD1B0000 		.4byte	0x1bfd
ARM GAS  C:\Users\Angel\AppData\Local\Temp\ccvqOPgy.s 			page 162


 5192 1be1 2A       		.uleb128 0x2a
 5193 1be2 2E120000 		.4byte	0x122e
 5194 1be6 74080000 		.4byte	.LLST109
 5195 1bea 2A       		.uleb128 0x2a
 5196 1beb 22120000 		.4byte	0x1222
 5197 1bef 88080000 		.4byte	.LLST110
 5198 1bf3 2A       		.uleb128 0x2a
 5199 1bf4 16120000 		.4byte	0x1216
 5200 1bf8 9C080000 		.4byte	.LLST111
 5201 1bfc 00       		.byte	0
 5202 1bfd 29       		.uleb128 0x29
 5203 1bfe 09120000 		.4byte	0x1209
 5204 1c02 D4000000 		.4byte	.LBB364
 5205 1c06 04000000 		.4byte	.LBE364-.LBB364
 5206 1c0a 01       		.byte	0x1
 5207 1c0b 61       		.byte	0x61
 5208 1c0c 2C1C0000 		.4byte	0x1c2c
 5209 1c10 2A       		.uleb128 0x2a
 5210 1c11 2E120000 		.4byte	0x122e
 5211 1c15 B4080000 		.4byte	.LLST112
 5212 1c19 2A       		.uleb128 0x2a
 5213 1c1a 22120000 		.4byte	0x1222
 5214 1c1e C8080000 		.4byte	.LLST113
 5215 1c22 2A       		.uleb128 0x2a
 5216 1c23 16120000 		.4byte	0x1216
 5217 1c27 DC080000 		.4byte	.LLST114
 5218 1c2b 00       		.byte	0
 5219 1c2c 29       		.uleb128 0x29
 5220 1c2d 09120000 		.4byte	0x1209
 5221 1c31 D8000000 		.4byte	.LBB366
 5222 1c35 04000000 		.4byte	.LBE366-.LBB366
 5223 1c39 01       		.byte	0x1
 5224 1c3a 62       		.byte	0x62
 5225 1c3b 5B1C0000 		.4byte	0x1c5b
 5226 1c3f 2A       		.uleb128 0x2a
 5227 1c40 2E120000 		.4byte	0x122e
 5228 1c44 F4080000 		.4byte	.LLST115
 5229 1c48 2A       		.uleb128 0x2a
 5230 1c49 22120000 		.4byte	0x1222
 5231 1c4d 08090000 		.4byte	.LLST116
 5232 1c51 2A       		.uleb128 0x2a
 5233 1c52 16120000 		.4byte	0x1216
 5234 1c56 1C090000 		.4byte	.LLST117
 5235 1c5a 00       		.byte	0
 5236 1c5b 29       		.uleb128 0x29
 5237 1c5c 09120000 		.4byte	0x1209
 5238 1c60 DC000000 		.4byte	.LBB368
 5239 1c64 06000000 		.4byte	.LBE368-.LBB368
 5240 1c68 01       		.byte	0x1
 5241 1c69 63       		.byte	0x63
 5242 1c6a 8A1C0000 		.4byte	0x1c8a
 5243 1c6e 2A       		.uleb128 0x2a
 5244 1c6f 2E120000 		.4byte	0x122e
 5245 1c73 34090000 		.4byte	.LLST118
 5246 1c77 2A       		.uleb128 0x2a
 5247 1c78 22120000 		.4byte	0x1222
 5248 1c7c 48090000 		.4byte	.LLST119
ARM GAS  C:\Users\Angel\AppData\Local\Temp\ccvqOPgy.s 			page 163


 5249 1c80 2A       		.uleb128 0x2a
 5250 1c81 16120000 		.4byte	0x1216
 5251 1c85 5C090000 		.4byte	.LLST120
 5252 1c89 00       		.byte	0
 5253 1c8a 29       		.uleb128 0x29
 5254 1c8b 09120000 		.4byte	0x1209
 5255 1c8f E2000000 		.4byte	.LBB370
 5256 1c93 06000000 		.4byte	.LBE370-.LBB370
 5257 1c97 01       		.byte	0x1
 5258 1c98 67       		.byte	0x67
 5259 1c99 B91C0000 		.4byte	0x1cb9
 5260 1c9d 2A       		.uleb128 0x2a
 5261 1c9e 2E120000 		.4byte	0x122e
 5262 1ca2 74090000 		.4byte	.LLST121
 5263 1ca6 2A       		.uleb128 0x2a
 5264 1ca7 22120000 		.4byte	0x1222
 5265 1cab 74090000 		.4byte	.LLST121
 5266 1caf 2A       		.uleb128 0x2a
 5267 1cb0 16120000 		.4byte	0x1216
 5268 1cb4 88090000 		.4byte	.LLST123
 5269 1cb8 00       		.byte	0
 5270 1cb9 29       		.uleb128 0x29
 5271 1cba 09120000 		.4byte	0x1209
 5272 1cbe E8000000 		.4byte	.LBB372
 5273 1cc2 04000000 		.4byte	.LBE372-.LBB372
 5274 1cc6 01       		.byte	0x1
 5275 1cc7 68       		.byte	0x68
 5276 1cc8 E81C0000 		.4byte	0x1ce8
 5277 1ccc 2A       		.uleb128 0x2a
 5278 1ccd 2E120000 		.4byte	0x122e
 5279 1cd1 A0090000 		.4byte	.LLST124
 5280 1cd5 2A       		.uleb128 0x2a
 5281 1cd6 22120000 		.4byte	0x1222
 5282 1cda A0090000 		.4byte	.LLST124
 5283 1cde 2A       		.uleb128 0x2a
 5284 1cdf 16120000 		.4byte	0x1216
 5285 1ce3 B4090000 		.4byte	.LLST126
 5286 1ce7 00       		.byte	0
 5287 1ce8 29       		.uleb128 0x29
 5288 1ce9 09120000 		.4byte	0x1209
 5289 1ced EC000000 		.4byte	.LBB374
 5290 1cf1 04000000 		.4byte	.LBE374-.LBB374
 5291 1cf5 01       		.byte	0x1
 5292 1cf6 69       		.byte	0x69
 5293 1cf7 171D0000 		.4byte	0x1d17
 5294 1cfb 2A       		.uleb128 0x2a
 5295 1cfc 2E120000 		.4byte	0x122e
 5296 1d00 CC090000 		.4byte	.LLST127
 5297 1d04 2A       		.uleb128 0x2a
 5298 1d05 22120000 		.4byte	0x1222
 5299 1d09 E0090000 		.4byte	.LLST128
 5300 1d0d 2A       		.uleb128 0x2a
 5301 1d0e 16120000 		.4byte	0x1216
 5302 1d12 F4090000 		.4byte	.LLST129
 5303 1d16 00       		.byte	0
 5304 1d17 29       		.uleb128 0x29
 5305 1d18 09120000 		.4byte	0x1209
ARM GAS  C:\Users\Angel\AppData\Local\Temp\ccvqOPgy.s 			page 164


 5306 1d1c F0000000 		.4byte	.LBB376
 5307 1d20 06000000 		.4byte	.LBE376-.LBB376
 5308 1d24 01       		.byte	0x1
 5309 1d25 6A       		.byte	0x6a
 5310 1d26 461D0000 		.4byte	0x1d46
 5311 1d2a 2A       		.uleb128 0x2a
 5312 1d2b 2E120000 		.4byte	0x122e
 5313 1d2f 0C0A0000 		.4byte	.LLST130
 5314 1d33 2A       		.uleb128 0x2a
 5315 1d34 22120000 		.4byte	0x1222
 5316 1d38 200A0000 		.4byte	.LLST131
 5317 1d3c 2A       		.uleb128 0x2a
 5318 1d3d 16120000 		.4byte	0x1216
 5319 1d41 340A0000 		.4byte	.LLST132
 5320 1d45 00       		.byte	0
 5321 1d46 29       		.uleb128 0x29
 5322 1d47 09120000 		.4byte	0x1209
 5323 1d4b F6000000 		.4byte	.LBB378
 5324 1d4f 06000000 		.4byte	.LBE378-.LBB378
 5325 1d53 01       		.byte	0x1
 5326 1d54 6E       		.byte	0x6e
 5327 1d55 751D0000 		.4byte	0x1d75
 5328 1d59 2A       		.uleb128 0x2a
 5329 1d5a 2E120000 		.4byte	0x122e
 5330 1d5e 4C0A0000 		.4byte	.LLST133
 5331 1d62 2A       		.uleb128 0x2a
 5332 1d63 22120000 		.4byte	0x1222
 5333 1d67 600A0000 		.4byte	.LLST134
 5334 1d6b 2A       		.uleb128 0x2a
 5335 1d6c 16120000 		.4byte	0x1216
 5336 1d70 740A0000 		.4byte	.LLST135
 5337 1d74 00       		.byte	0
 5338 1d75 29       		.uleb128 0x29
 5339 1d76 09120000 		.4byte	0x1209
 5340 1d7a FC000000 		.4byte	.LBB380
 5341 1d7e 04000000 		.4byte	.LBE380-.LBB380
 5342 1d82 01       		.byte	0x1
 5343 1d83 6F       		.byte	0x6f
 5344 1d84 A41D0000 		.4byte	0x1da4
 5345 1d88 2A       		.uleb128 0x2a
 5346 1d89 2E120000 		.4byte	0x122e
 5347 1d8d 8C0A0000 		.4byte	.LLST136
 5348 1d91 2A       		.uleb128 0x2a
 5349 1d92 22120000 		.4byte	0x1222
 5350 1d96 8C0A0000 		.4byte	.LLST136
 5351 1d9a 2A       		.uleb128 0x2a
 5352 1d9b 16120000 		.4byte	0x1216
 5353 1d9f A00A0000 		.4byte	.LLST138
 5354 1da3 00       		.byte	0
 5355 1da4 29       		.uleb128 0x29
 5356 1da5 09120000 		.4byte	0x1209
 5357 1da9 00010000 		.4byte	.LBB382
 5358 1dad 04000000 		.4byte	.LBE382-.LBB382
 5359 1db1 01       		.byte	0x1
 5360 1db2 70       		.byte	0x70
 5361 1db3 D31D0000 		.4byte	0x1dd3
 5362 1db7 2A       		.uleb128 0x2a
ARM GAS  C:\Users\Angel\AppData\Local\Temp\ccvqOPgy.s 			page 165


 5363 1db8 2E120000 		.4byte	0x122e
 5364 1dbc B80A0000 		.4byte	.LLST139
 5365 1dc0 2A       		.uleb128 0x2a
 5366 1dc1 22120000 		.4byte	0x1222
 5367 1dc5 CC0A0000 		.4byte	.LLST140
 5368 1dc9 2A       		.uleb128 0x2a
 5369 1dca 16120000 		.4byte	0x1216
 5370 1dce E00A0000 		.4byte	.LLST141
 5371 1dd2 00       		.byte	0
 5372 1dd3 29       		.uleb128 0x29
 5373 1dd4 09120000 		.4byte	0x1209
 5374 1dd8 04010000 		.4byte	.LBB384
 5375 1ddc 06000000 		.4byte	.LBE384-.LBB384
 5376 1de0 01       		.byte	0x1
 5377 1de1 71       		.byte	0x71
 5378 1de2 021E0000 		.4byte	0x1e02
 5379 1de6 2A       		.uleb128 0x2a
 5380 1de7 2E120000 		.4byte	0x122e
 5381 1deb F80A0000 		.4byte	.LLST142
 5382 1def 2A       		.uleb128 0x2a
 5383 1df0 22120000 		.4byte	0x1222
 5384 1df4 0C0B0000 		.4byte	.LLST143
 5385 1df8 2A       		.uleb128 0x2a
 5386 1df9 16120000 		.4byte	0x1216
 5387 1dfd 200B0000 		.4byte	.LLST144
 5388 1e01 00       		.byte	0
 5389 1e02 29       		.uleb128 0x29
 5390 1e03 09120000 		.4byte	0x1209
 5391 1e07 0A010000 		.4byte	.LBB386
 5392 1e0b 06000000 		.4byte	.LBE386-.LBB386
 5393 1e0f 01       		.byte	0x1
 5394 1e10 75       		.byte	0x75
 5395 1e11 311E0000 		.4byte	0x1e31
 5396 1e15 2A       		.uleb128 0x2a
 5397 1e16 2E120000 		.4byte	0x122e
 5398 1e1a 380B0000 		.4byte	.LLST145
 5399 1e1e 2A       		.uleb128 0x2a
 5400 1e1f 22120000 		.4byte	0x1222
 5401 1e23 380B0000 		.4byte	.LLST145
 5402 1e27 2A       		.uleb128 0x2a
 5403 1e28 16120000 		.4byte	0x1216
 5404 1e2c 4C0B0000 		.4byte	.LLST147
 5405 1e30 00       		.byte	0
 5406 1e31 29       		.uleb128 0x29
 5407 1e32 09120000 		.4byte	0x1209
 5408 1e36 10010000 		.4byte	.LBB388
 5409 1e3a 04000000 		.4byte	.LBE388-.LBB388
 5410 1e3e 01       		.byte	0x1
 5411 1e3f 76       		.byte	0x76
 5412 1e40 601E0000 		.4byte	0x1e60
 5413 1e44 2A       		.uleb128 0x2a
 5414 1e45 2E120000 		.4byte	0x122e
 5415 1e49 640B0000 		.4byte	.LLST148
 5416 1e4d 2A       		.uleb128 0x2a
 5417 1e4e 22120000 		.4byte	0x1222
 5418 1e52 780B0000 		.4byte	.LLST149
 5419 1e56 2A       		.uleb128 0x2a
ARM GAS  C:\Users\Angel\AppData\Local\Temp\ccvqOPgy.s 			page 166


 5420 1e57 16120000 		.4byte	0x1216
 5421 1e5b 8C0B0000 		.4byte	.LLST150
 5422 1e5f 00       		.byte	0
 5423 1e60 29       		.uleb128 0x29
 5424 1e61 09120000 		.4byte	0x1209
 5425 1e65 14010000 		.4byte	.LBB390
 5426 1e69 04000000 		.4byte	.LBE390-.LBB390
 5427 1e6d 01       		.byte	0x1
 5428 1e6e 77       		.byte	0x77
 5429 1e6f 8F1E0000 		.4byte	0x1e8f
 5430 1e73 2A       		.uleb128 0x2a
 5431 1e74 2E120000 		.4byte	0x122e
 5432 1e78 A40B0000 		.4byte	.LLST151
 5433 1e7c 2A       		.uleb128 0x2a
 5434 1e7d 22120000 		.4byte	0x1222
 5435 1e81 B80B0000 		.4byte	.LLST152
 5436 1e85 2A       		.uleb128 0x2a
 5437 1e86 16120000 		.4byte	0x1216
 5438 1e8a CC0B0000 		.4byte	.LLST153
 5439 1e8e 00       		.byte	0
 5440 1e8f 29       		.uleb128 0x29
 5441 1e90 09120000 		.4byte	0x1209
 5442 1e94 18010000 		.4byte	.LBB392
 5443 1e98 06000000 		.4byte	.LBE392-.LBB392
 5444 1e9c 01       		.byte	0x1
 5445 1e9d 78       		.byte	0x78
 5446 1e9e BE1E0000 		.4byte	0x1ebe
 5447 1ea2 2A       		.uleb128 0x2a
 5448 1ea3 2E120000 		.4byte	0x122e
 5449 1ea7 E40B0000 		.4byte	.LLST154
 5450 1eab 2A       		.uleb128 0x2a
 5451 1eac 22120000 		.4byte	0x1222
 5452 1eb0 F80B0000 		.4byte	.LLST155
 5453 1eb4 2A       		.uleb128 0x2a
 5454 1eb5 16120000 		.4byte	0x1216
 5455 1eb9 0C0C0000 		.4byte	.LLST156
 5456 1ebd 00       		.byte	0
 5457 1ebe 29       		.uleb128 0x29
 5458 1ebf 09120000 		.4byte	0x1209
 5459 1ec3 1E010000 		.4byte	.LBB394
 5460 1ec7 06000000 		.4byte	.LBE394-.LBB394
 5461 1ecb 01       		.byte	0x1
 5462 1ecc 7C       		.byte	0x7c
 5463 1ecd ED1E0000 		.4byte	0x1eed
 5464 1ed1 2A       		.uleb128 0x2a
 5465 1ed2 2E120000 		.4byte	0x122e
 5466 1ed6 240C0000 		.4byte	.LLST157
 5467 1eda 2A       		.uleb128 0x2a
 5468 1edb 22120000 		.4byte	0x1222
 5469 1edf 380C0000 		.4byte	.LLST158
 5470 1ee3 2A       		.uleb128 0x2a
 5471 1ee4 16120000 		.4byte	0x1216
 5472 1ee8 4C0C0000 		.4byte	.LLST159
 5473 1eec 00       		.byte	0
 5474 1eed 29       		.uleb128 0x29
 5475 1eee 09120000 		.4byte	0x1209
 5476 1ef2 24010000 		.4byte	.LBB396
ARM GAS  C:\Users\Angel\AppData\Local\Temp\ccvqOPgy.s 			page 167


 5477 1ef6 04000000 		.4byte	.LBE396-.LBB396
 5478 1efa 01       		.byte	0x1
 5479 1efb 7D       		.byte	0x7d
 5480 1efc 1C1F0000 		.4byte	0x1f1c
 5481 1f00 2A       		.uleb128 0x2a
 5482 1f01 2E120000 		.4byte	0x122e
 5483 1f05 640C0000 		.4byte	.LLST160
 5484 1f09 2A       		.uleb128 0x2a
 5485 1f0a 22120000 		.4byte	0x1222
 5486 1f0e 780C0000 		.4byte	.LLST161
 5487 1f12 2A       		.uleb128 0x2a
 5488 1f13 16120000 		.4byte	0x1216
 5489 1f17 8C0C0000 		.4byte	.LLST162
 5490 1f1b 00       		.byte	0
 5491 1f1c 29       		.uleb128 0x29
 5492 1f1d 09120000 		.4byte	0x1209
 5493 1f21 28010000 		.4byte	.LBB398
 5494 1f25 04000000 		.4byte	.LBE398-.LBB398
 5495 1f29 01       		.byte	0x1
 5496 1f2a 7E       		.byte	0x7e
 5497 1f2b 4B1F0000 		.4byte	0x1f4b
 5498 1f2f 2A       		.uleb128 0x2a
 5499 1f30 2E120000 		.4byte	0x122e
 5500 1f34 A40C0000 		.4byte	.LLST163
 5501 1f38 2A       		.uleb128 0x2a
 5502 1f39 22120000 		.4byte	0x1222
 5503 1f3d B80C0000 		.4byte	.LLST164
 5504 1f41 2A       		.uleb128 0x2a
 5505 1f42 16120000 		.4byte	0x1216
 5506 1f46 CC0C0000 		.4byte	.LLST165
 5507 1f4a 00       		.byte	0
 5508 1f4b 29       		.uleb128 0x29
 5509 1f4c 09120000 		.4byte	0x1209
 5510 1f50 2C010000 		.4byte	.LBB400
 5511 1f54 06000000 		.4byte	.LBE400-.LBB400
 5512 1f58 01       		.byte	0x1
 5513 1f59 7F       		.byte	0x7f
 5514 1f5a 7A1F0000 		.4byte	0x1f7a
 5515 1f5e 2A       		.uleb128 0x2a
 5516 1f5f 2E120000 		.4byte	0x122e
 5517 1f63 E40C0000 		.4byte	.LLST166
 5518 1f67 2A       		.uleb128 0x2a
 5519 1f68 22120000 		.4byte	0x1222
 5520 1f6c F80C0000 		.4byte	.LLST167
 5521 1f70 2A       		.uleb128 0x2a
 5522 1f71 16120000 		.4byte	0x1216
 5523 1f75 0C0D0000 		.4byte	.LLST168
 5524 1f79 00       		.byte	0
 5525 1f7a 29       		.uleb128 0x29
 5526 1f7b 09120000 		.4byte	0x1209
 5527 1f7f 32010000 		.4byte	.LBB402
 5528 1f83 06000000 		.4byte	.LBE402-.LBB402
 5529 1f87 01       		.byte	0x1
 5530 1f88 83       		.byte	0x83
 5531 1f89 A91F0000 		.4byte	0x1fa9
 5532 1f8d 2A       		.uleb128 0x2a
 5533 1f8e 2E120000 		.4byte	0x122e
ARM GAS  C:\Users\Angel\AppData\Local\Temp\ccvqOPgy.s 			page 168


 5534 1f92 240D0000 		.4byte	.LLST169
 5535 1f96 2A       		.uleb128 0x2a
 5536 1f97 22120000 		.4byte	0x1222
 5537 1f9b 240D0000 		.4byte	.LLST169
 5538 1f9f 2A       		.uleb128 0x2a
 5539 1fa0 16120000 		.4byte	0x1216
 5540 1fa4 380D0000 		.4byte	.LLST171
 5541 1fa8 00       		.byte	0
 5542 1fa9 29       		.uleb128 0x29
 5543 1faa 09120000 		.4byte	0x1209
 5544 1fae 38010000 		.4byte	.LBB404
 5545 1fb2 04000000 		.4byte	.LBE404-.LBB404
 5546 1fb6 01       		.byte	0x1
 5547 1fb7 84       		.byte	0x84
 5548 1fb8 D81F0000 		.4byte	0x1fd8
 5549 1fbc 2A       		.uleb128 0x2a
 5550 1fbd 2E120000 		.4byte	0x122e
 5551 1fc1 500D0000 		.4byte	.LLST172
 5552 1fc5 2A       		.uleb128 0x2a
 5553 1fc6 22120000 		.4byte	0x1222
 5554 1fca 500D0000 		.4byte	.LLST172
 5555 1fce 2A       		.uleb128 0x2a
 5556 1fcf 16120000 		.4byte	0x1216
 5557 1fd3 640D0000 		.4byte	.LLST174
 5558 1fd7 00       		.byte	0
 5559 1fd8 29       		.uleb128 0x29
 5560 1fd9 09120000 		.4byte	0x1209
 5561 1fdd 3C010000 		.4byte	.LBB406
 5562 1fe1 04000000 		.4byte	.LBE406-.LBB406
 5563 1fe5 01       		.byte	0x1
 5564 1fe6 85       		.byte	0x85
 5565 1fe7 07200000 		.4byte	0x2007
 5566 1feb 2A       		.uleb128 0x2a
 5567 1fec 2E120000 		.4byte	0x122e
 5568 1ff0 7C0D0000 		.4byte	.LLST175
 5569 1ff4 2A       		.uleb128 0x2a
 5570 1ff5 22120000 		.4byte	0x1222
 5571 1ff9 900D0000 		.4byte	.LLST176
 5572 1ffd 2A       		.uleb128 0x2a
 5573 1ffe 16120000 		.4byte	0x1216
 5574 2002 A40D0000 		.4byte	.LLST177
 5575 2006 00       		.byte	0
 5576 2007 29       		.uleb128 0x29
 5577 2008 09120000 		.4byte	0x1209
 5578 200c 40010000 		.4byte	.LBB408
 5579 2010 06000000 		.4byte	.LBE408-.LBB408
 5580 2014 01       		.byte	0x1
 5581 2015 86       		.byte	0x86
 5582 2016 36200000 		.4byte	0x2036
 5583 201a 2A       		.uleb128 0x2a
 5584 201b 2E120000 		.4byte	0x122e
 5585 201f BC0D0000 		.4byte	.LLST178
 5586 2023 2A       		.uleb128 0x2a
 5587 2024 22120000 		.4byte	0x1222
 5588 2028 D00D0000 		.4byte	.LLST179
 5589 202c 2A       		.uleb128 0x2a
 5590 202d 16120000 		.4byte	0x1216
ARM GAS  C:\Users\Angel\AppData\Local\Temp\ccvqOPgy.s 			page 169


 5591 2031 E40D0000 		.4byte	.LLST180
 5592 2035 00       		.byte	0
 5593 2036 29       		.uleb128 0x29
 5594 2037 09120000 		.4byte	0x1209
 5595 203b 46010000 		.4byte	.LBB410
 5596 203f 06000000 		.4byte	.LBE410-.LBB410
 5597 2043 01       		.byte	0x1
 5598 2044 8A       		.byte	0x8a
 5599 2045 65200000 		.4byte	0x2065
 5600 2049 2A       		.uleb128 0x2a
 5601 204a 2E120000 		.4byte	0x122e
 5602 204e FC0D0000 		.4byte	.LLST181
 5603 2052 2A       		.uleb128 0x2a
 5604 2053 22120000 		.4byte	0x1222
 5605 2057 100E0000 		.4byte	.LLST182
 5606 205b 2A       		.uleb128 0x2a
 5607 205c 16120000 		.4byte	0x1216
 5608 2060 240E0000 		.4byte	.LLST183
 5609 2064 00       		.byte	0
 5610 2065 29       		.uleb128 0x29
 5611 2066 09120000 		.4byte	0x1209
 5612 206a 4C010000 		.4byte	.LBB412
 5613 206e 04000000 		.4byte	.LBE412-.LBB412
 5614 2072 01       		.byte	0x1
 5615 2073 8B       		.byte	0x8b
 5616 2074 94200000 		.4byte	0x2094
 5617 2078 2A       		.uleb128 0x2a
 5618 2079 2E120000 		.4byte	0x122e
 5619 207d 3C0E0000 		.4byte	.LLST184
 5620 2081 2A       		.uleb128 0x2a
 5621 2082 22120000 		.4byte	0x1222
 5622 2086 3C0E0000 		.4byte	.LLST184
 5623 208a 2A       		.uleb128 0x2a
 5624 208b 16120000 		.4byte	0x1216
 5625 208f 500E0000 		.4byte	.LLST186
 5626 2093 00       		.byte	0
 5627 2094 29       		.uleb128 0x29
 5628 2095 09120000 		.4byte	0x1209
 5629 2099 50010000 		.4byte	.LBB414
 5630 209d 04000000 		.4byte	.LBE414-.LBB414
 5631 20a1 01       		.byte	0x1
 5632 20a2 8C       		.byte	0x8c
 5633 20a3 C3200000 		.4byte	0x20c3
 5634 20a7 2A       		.uleb128 0x2a
 5635 20a8 2E120000 		.4byte	0x122e
 5636 20ac 680E0000 		.4byte	.LLST187
 5637 20b0 2A       		.uleb128 0x2a
 5638 20b1 22120000 		.4byte	0x1222
 5639 20b5 7C0E0000 		.4byte	.LLST188
 5640 20b9 2A       		.uleb128 0x2a
 5641 20ba 16120000 		.4byte	0x1216
 5642 20be 900E0000 		.4byte	.LLST189
 5643 20c2 00       		.byte	0
 5644 20c3 2B       		.uleb128 0x2b
 5645 20c4 09120000 		.4byte	0x1209
 5646 20c8 54010000 		.4byte	.LBB416
 5647 20cc 0C000000 		.4byte	.LBE416-.LBB416
ARM GAS  C:\Users\Angel\AppData\Local\Temp\ccvqOPgy.s 			page 170


 5648 20d0 01       		.byte	0x1
 5649 20d1 8D       		.byte	0x8d
 5650 20d2 2A       		.uleb128 0x2a
 5651 20d3 2E120000 		.4byte	0x122e
 5652 20d7 A80E0000 		.4byte	.LLST190
 5653 20db 2A       		.uleb128 0x2a
 5654 20dc 22120000 		.4byte	0x1222
 5655 20e0 BC0E0000 		.4byte	.LLST191
 5656 20e4 2A       		.uleb128 0x2a
 5657 20e5 16120000 		.4byte	0x1216
 5658 20e9 D00E0000 		.4byte	.LLST192
 5659 20ed 00       		.byte	0
 5660 20ee 00       		.byte	0
 5661 20ef 27       		.uleb128 0x27
 5662 20f0 53040000 		.4byte	.LASF311
 5663 20f4 01       		.byte	0x1
 5664 20f5 93       		.byte	0x93
 5665 20f6 00000000 		.4byte	.LFB530
 5666 20fa B0010000 		.4byte	.LFE530-.LFB530
 5667 20fe 01       		.uleb128 0x1
 5668 20ff 9C       		.byte	0x9c
 5669 2100 CF2C0000 		.4byte	0x2ccf
 5670 2104 28       		.uleb128 0x28
 5671 2105 696E00   		.ascii	"in\000"
 5672 2108 01       		.byte	0x1
 5673 2109 93       		.byte	0x93
 5674 210a 94000000 		.4byte	0x94
 5675 210e 01       		.uleb128 0x1
 5676 210f 50       		.byte	0x50
 5677 2110 29       		.uleb128 0x29
 5678 2111 09120000 		.4byte	0x1209
 5679 2115 2A000000 		.4byte	.LBB418
 5680 2119 06000000 		.4byte	.LBE418-.LBB418
 5681 211d 01       		.byte	0x1
 5682 211e 97       		.byte	0x97
 5683 211f 3F210000 		.4byte	0x213f
 5684 2123 2A       		.uleb128 0x2a
 5685 2124 2E120000 		.4byte	0x122e
 5686 2128 E80E0000 		.4byte	.LLST193
 5687 212c 2A       		.uleb128 0x2a
 5688 212d 22120000 		.4byte	0x1222
 5689 2131 FC0E0000 		.4byte	.LLST194
 5690 2135 2A       		.uleb128 0x2a
 5691 2136 16120000 		.4byte	0x1216
 5692 213a 100F0000 		.4byte	.LLST195
 5693 213e 00       		.byte	0
 5694 213f 29       		.uleb128 0x29
 5695 2140 09120000 		.4byte	0x1209
 5696 2144 30000000 		.4byte	.LBB420
 5697 2148 04000000 		.4byte	.LBE420-.LBB420
 5698 214c 01       		.byte	0x1
 5699 214d 98       		.byte	0x98
 5700 214e 6E210000 		.4byte	0x216e
 5701 2152 2A       		.uleb128 0x2a
 5702 2153 2E120000 		.4byte	0x122e
 5703 2157 280F0000 		.4byte	.LLST196
 5704 215b 2A       		.uleb128 0x2a
ARM GAS  C:\Users\Angel\AppData\Local\Temp\ccvqOPgy.s 			page 171


 5705 215c 22120000 		.4byte	0x1222
 5706 2160 3C0F0000 		.4byte	.LLST197
 5707 2164 2A       		.uleb128 0x2a
 5708 2165 16120000 		.4byte	0x1216
 5709 2169 500F0000 		.4byte	.LLST198
 5710 216d 00       		.byte	0
 5711 216e 29       		.uleb128 0x29
 5712 216f 09120000 		.4byte	0x1209
 5713 2173 34000000 		.4byte	.LBB422
 5714 2177 08000000 		.4byte	.LBE422-.LBB422
 5715 217b 01       		.byte	0x1
 5716 217c 99       		.byte	0x99
 5717 217d 9D210000 		.4byte	0x219d
 5718 2181 2A       		.uleb128 0x2a
 5719 2182 2E120000 		.4byte	0x122e
 5720 2186 680F0000 		.4byte	.LLST199
 5721 218a 2A       		.uleb128 0x2a
 5722 218b 22120000 		.4byte	0x1222
 5723 218f 7C0F0000 		.4byte	.LLST200
 5724 2193 2A       		.uleb128 0x2a
 5725 2194 16120000 		.4byte	0x1216
 5726 2198 900F0000 		.4byte	.LLST201
 5727 219c 00       		.byte	0
 5728 219d 29       		.uleb128 0x29
 5729 219e 09120000 		.4byte	0x1209
 5730 21a2 3C000000 		.4byte	.LBB424
 5731 21a6 06000000 		.4byte	.LBE424-.LBB424
 5732 21aa 01       		.byte	0x1
 5733 21ab 9A       		.byte	0x9a
 5734 21ac CC210000 		.4byte	0x21cc
 5735 21b0 2A       		.uleb128 0x2a
 5736 21b1 2E120000 		.4byte	0x122e
 5737 21b5 A80F0000 		.4byte	.LLST202
 5738 21b9 2A       		.uleb128 0x2a
 5739 21ba 22120000 		.4byte	0x1222
 5740 21be BC0F0000 		.4byte	.LLST203
 5741 21c2 2A       		.uleb128 0x2a
 5742 21c3 16120000 		.4byte	0x1216
 5743 21c7 D00F0000 		.4byte	.LLST204
 5744 21cb 00       		.byte	0
 5745 21cc 29       		.uleb128 0x29
 5746 21cd 09120000 		.4byte	0x1209
 5747 21d1 42000000 		.4byte	.LBB426
 5748 21d5 06000000 		.4byte	.LBE426-.LBB426
 5749 21d9 01       		.byte	0x1
 5750 21da 9E       		.byte	0x9e
 5751 21db FB210000 		.4byte	0x21fb
 5752 21df 2A       		.uleb128 0x2a
 5753 21e0 2E120000 		.4byte	0x122e
 5754 21e4 E80F0000 		.4byte	.LLST205
 5755 21e8 2A       		.uleb128 0x2a
 5756 21e9 22120000 		.4byte	0x1222
 5757 21ed FC0F0000 		.4byte	.LLST206
 5758 21f1 2A       		.uleb128 0x2a
 5759 21f2 16120000 		.4byte	0x1216
 5760 21f6 10100000 		.4byte	.LLST207
 5761 21fa 00       		.byte	0
ARM GAS  C:\Users\Angel\AppData\Local\Temp\ccvqOPgy.s 			page 172


 5762 21fb 29       		.uleb128 0x29
 5763 21fc 09120000 		.4byte	0x1209
 5764 2200 48000000 		.4byte	.LBB428
 5765 2204 04000000 		.4byte	.LBE428-.LBB428
 5766 2208 01       		.byte	0x1
 5767 2209 9F       		.byte	0x9f
 5768 220a 2A220000 		.4byte	0x222a
 5769 220e 2A       		.uleb128 0x2a
 5770 220f 2E120000 		.4byte	0x122e
 5771 2213 28100000 		.4byte	.LLST208
 5772 2217 2A       		.uleb128 0x2a
 5773 2218 22120000 		.4byte	0x1222
 5774 221c 3C100000 		.4byte	.LLST209
 5775 2220 2A       		.uleb128 0x2a
 5776 2221 16120000 		.4byte	0x1216
 5777 2225 50100000 		.4byte	.LLST210
 5778 2229 00       		.byte	0
 5779 222a 29       		.uleb128 0x29
 5780 222b 09120000 		.4byte	0x1209
 5781 222f 4C000000 		.4byte	.LBB430
 5782 2233 08000000 		.4byte	.LBE430-.LBB430
 5783 2237 01       		.byte	0x1
 5784 2238 A0       		.byte	0xa0
 5785 2239 59220000 		.4byte	0x2259
 5786 223d 2A       		.uleb128 0x2a
 5787 223e 2E120000 		.4byte	0x122e
 5788 2242 68100000 		.4byte	.LLST211
 5789 2246 2A       		.uleb128 0x2a
 5790 2247 22120000 		.4byte	0x1222
 5791 224b 7C100000 		.4byte	.LLST212
 5792 224f 2A       		.uleb128 0x2a
 5793 2250 16120000 		.4byte	0x1216
 5794 2254 90100000 		.4byte	.LLST213
 5795 2258 00       		.byte	0
 5796 2259 29       		.uleb128 0x29
 5797 225a 09120000 		.4byte	0x1209
 5798 225e 54000000 		.4byte	.LBB432
 5799 2262 06000000 		.4byte	.LBE432-.LBB432
 5800 2266 01       		.byte	0x1
 5801 2267 A1       		.byte	0xa1
 5802 2268 88220000 		.4byte	0x2288
 5803 226c 2A       		.uleb128 0x2a
 5804 226d 2E120000 		.4byte	0x122e
 5805 2271 A8100000 		.4byte	.LLST214
 5806 2275 2A       		.uleb128 0x2a
 5807 2276 22120000 		.4byte	0x1222
 5808 227a BC100000 		.4byte	.LLST215
 5809 227e 2A       		.uleb128 0x2a
 5810 227f 16120000 		.4byte	0x1216
 5811 2283 D0100000 		.4byte	.LLST216
 5812 2287 00       		.byte	0
 5813 2288 29       		.uleb128 0x29
 5814 2289 09120000 		.4byte	0x1209
 5815 228d 5A000000 		.4byte	.LBB434
 5816 2291 06000000 		.4byte	.LBE434-.LBB434
 5817 2295 01       		.byte	0x1
 5818 2296 A5       		.byte	0xa5
ARM GAS  C:\Users\Angel\AppData\Local\Temp\ccvqOPgy.s 			page 173


 5819 2297 B7220000 		.4byte	0x22b7
 5820 229b 2A       		.uleb128 0x2a
 5821 229c 2E120000 		.4byte	0x122e
 5822 22a0 E8100000 		.4byte	.LLST217
 5823 22a4 2A       		.uleb128 0x2a
 5824 22a5 22120000 		.4byte	0x1222
 5825 22a9 FC100000 		.4byte	.LLST218
 5826 22ad 2A       		.uleb128 0x2a
 5827 22ae 16120000 		.4byte	0x1216
 5828 22b2 10110000 		.4byte	.LLST219
 5829 22b6 00       		.byte	0
 5830 22b7 29       		.uleb128 0x29
 5831 22b8 09120000 		.4byte	0x1209
 5832 22bc 60000000 		.4byte	.LBB436
 5833 22c0 04000000 		.4byte	.LBE436-.LBB436
 5834 22c4 01       		.byte	0x1
 5835 22c5 A6       		.byte	0xa6
 5836 22c6 E6220000 		.4byte	0x22e6
 5837 22ca 2A       		.uleb128 0x2a
 5838 22cb 2E120000 		.4byte	0x122e
 5839 22cf 28110000 		.4byte	.LLST220
 5840 22d3 2A       		.uleb128 0x2a
 5841 22d4 22120000 		.4byte	0x1222
 5842 22d8 3C110000 		.4byte	.LLST221
 5843 22dc 2A       		.uleb128 0x2a
 5844 22dd 16120000 		.4byte	0x1216
 5845 22e1 50110000 		.4byte	.LLST222
 5846 22e5 00       		.byte	0
 5847 22e6 29       		.uleb128 0x29
 5848 22e7 09120000 		.4byte	0x1209
 5849 22eb 64000000 		.4byte	.LBB438
 5850 22ef 08000000 		.4byte	.LBE438-.LBB438
 5851 22f3 01       		.byte	0x1
 5852 22f4 A7       		.byte	0xa7
 5853 22f5 15230000 		.4byte	0x2315
 5854 22f9 2A       		.uleb128 0x2a
 5855 22fa 2E120000 		.4byte	0x122e
 5856 22fe 68110000 		.4byte	.LLST223
 5857 2302 2A       		.uleb128 0x2a
 5858 2303 22120000 		.4byte	0x1222
 5859 2307 7C110000 		.4byte	.LLST224
 5860 230b 2A       		.uleb128 0x2a
 5861 230c 16120000 		.4byte	0x1216
 5862 2310 90110000 		.4byte	.LLST225
 5863 2314 00       		.byte	0
 5864 2315 29       		.uleb128 0x29
 5865 2316 09120000 		.4byte	0x1209
 5866 231a 6C000000 		.4byte	.LBB440
 5867 231e 06000000 		.4byte	.LBE440-.LBB440
 5868 2322 01       		.byte	0x1
 5869 2323 A8       		.byte	0xa8
 5870 2324 44230000 		.4byte	0x2344
 5871 2328 2A       		.uleb128 0x2a
 5872 2329 2E120000 		.4byte	0x122e
 5873 232d A8110000 		.4byte	.LLST226
 5874 2331 2A       		.uleb128 0x2a
 5875 2332 22120000 		.4byte	0x1222
ARM GAS  C:\Users\Angel\AppData\Local\Temp\ccvqOPgy.s 			page 174


 5876 2336 BC110000 		.4byte	.LLST227
 5877 233a 2A       		.uleb128 0x2a
 5878 233b 16120000 		.4byte	0x1216
 5879 233f D0110000 		.4byte	.LLST228
 5880 2343 00       		.byte	0
 5881 2344 29       		.uleb128 0x29
 5882 2345 09120000 		.4byte	0x1209
 5883 2349 72000000 		.4byte	.LBB442
 5884 234d 06000000 		.4byte	.LBE442-.LBB442
 5885 2351 01       		.byte	0x1
 5886 2352 AC       		.byte	0xac
 5887 2353 73230000 		.4byte	0x2373
 5888 2357 2A       		.uleb128 0x2a
 5889 2358 2E120000 		.4byte	0x122e
 5890 235c E8110000 		.4byte	.LLST229
 5891 2360 2A       		.uleb128 0x2a
 5892 2361 22120000 		.4byte	0x1222
 5893 2365 FC110000 		.4byte	.LLST230
 5894 2369 2A       		.uleb128 0x2a
 5895 236a 16120000 		.4byte	0x1216
 5896 236e 10120000 		.4byte	.LLST231
 5897 2372 00       		.byte	0
 5898 2373 29       		.uleb128 0x29
 5899 2374 09120000 		.4byte	0x1209
 5900 2378 78000000 		.4byte	.LBB444
 5901 237c 04000000 		.4byte	.LBE444-.LBB444
 5902 2380 01       		.byte	0x1
 5903 2381 AD       		.byte	0xad
 5904 2382 A2230000 		.4byte	0x23a2
 5905 2386 2A       		.uleb128 0x2a
 5906 2387 2E120000 		.4byte	0x122e
 5907 238b 28120000 		.4byte	.LLST232
 5908 238f 2A       		.uleb128 0x2a
 5909 2390 22120000 		.4byte	0x1222
 5910 2394 3C120000 		.4byte	.LLST233
 5911 2398 2A       		.uleb128 0x2a
 5912 2399 16120000 		.4byte	0x1216
 5913 239d 50120000 		.4byte	.LLST234
 5914 23a1 00       		.byte	0
 5915 23a2 29       		.uleb128 0x29
 5916 23a3 09120000 		.4byte	0x1209
 5917 23a7 7C000000 		.4byte	.LBB446
 5918 23ab 08000000 		.4byte	.LBE446-.LBB446
 5919 23af 01       		.byte	0x1
 5920 23b0 AE       		.byte	0xae
 5921 23b1 D1230000 		.4byte	0x23d1
 5922 23b5 2A       		.uleb128 0x2a
 5923 23b6 2E120000 		.4byte	0x122e
 5924 23ba 68120000 		.4byte	.LLST235
 5925 23be 2A       		.uleb128 0x2a
 5926 23bf 22120000 		.4byte	0x1222
 5927 23c3 7C120000 		.4byte	.LLST236
 5928 23c7 2A       		.uleb128 0x2a
 5929 23c8 16120000 		.4byte	0x1216
 5930 23cc 90120000 		.4byte	.LLST237
 5931 23d0 00       		.byte	0
 5932 23d1 29       		.uleb128 0x29
ARM GAS  C:\Users\Angel\AppData\Local\Temp\ccvqOPgy.s 			page 175


 5933 23d2 09120000 		.4byte	0x1209
 5934 23d6 84000000 		.4byte	.LBB448
 5935 23da 06000000 		.4byte	.LBE448-.LBB448
 5936 23de 01       		.byte	0x1
 5937 23df AF       		.byte	0xaf
 5938 23e0 00240000 		.4byte	0x2400
 5939 23e4 2A       		.uleb128 0x2a
 5940 23e5 2E120000 		.4byte	0x122e
 5941 23e9 A8120000 		.4byte	.LLST238
 5942 23ed 2A       		.uleb128 0x2a
 5943 23ee 22120000 		.4byte	0x1222
 5944 23f2 BC120000 		.4byte	.LLST239
 5945 23f6 2A       		.uleb128 0x2a
 5946 23f7 16120000 		.4byte	0x1216
 5947 23fb D0120000 		.4byte	.LLST240
 5948 23ff 00       		.byte	0
 5949 2400 29       		.uleb128 0x29
 5950 2401 09120000 		.4byte	0x1209
 5951 2405 8A000000 		.4byte	.LBB450
 5952 2409 06000000 		.4byte	.LBE450-.LBB450
 5953 240d 01       		.byte	0x1
 5954 240e B3       		.byte	0xb3
 5955 240f 2F240000 		.4byte	0x242f
 5956 2413 2A       		.uleb128 0x2a
 5957 2414 2E120000 		.4byte	0x122e
 5958 2418 E8120000 		.4byte	.LLST241
 5959 241c 2A       		.uleb128 0x2a
 5960 241d 22120000 		.4byte	0x1222
 5961 2421 FC120000 		.4byte	.LLST242
 5962 2425 2A       		.uleb128 0x2a
 5963 2426 16120000 		.4byte	0x1216
 5964 242a 10130000 		.4byte	.LLST243
 5965 242e 00       		.byte	0
 5966 242f 29       		.uleb128 0x29
 5967 2430 09120000 		.4byte	0x1209
 5968 2434 90000000 		.4byte	.LBB452
 5969 2438 04000000 		.4byte	.LBE452-.LBB452
 5970 243c 01       		.byte	0x1
 5971 243d B4       		.byte	0xb4
 5972 243e 5E240000 		.4byte	0x245e
 5973 2442 2A       		.uleb128 0x2a
 5974 2443 2E120000 		.4byte	0x122e
 5975 2447 28130000 		.4byte	.LLST244
 5976 244b 2A       		.uleb128 0x2a
 5977 244c 22120000 		.4byte	0x1222
 5978 2450 3C130000 		.4byte	.LLST245
 5979 2454 2A       		.uleb128 0x2a
 5980 2455 16120000 		.4byte	0x1216
 5981 2459 50130000 		.4byte	.LLST246
 5982 245d 00       		.byte	0
 5983 245e 29       		.uleb128 0x29
 5984 245f 09120000 		.4byte	0x1209
 5985 2463 94000000 		.4byte	.LBB454
 5986 2467 08000000 		.4byte	.LBE454-.LBB454
 5987 246b 01       		.byte	0x1
 5988 246c B5       		.byte	0xb5
 5989 246d 8D240000 		.4byte	0x248d
ARM GAS  C:\Users\Angel\AppData\Local\Temp\ccvqOPgy.s 			page 176


 5990 2471 2A       		.uleb128 0x2a
 5991 2472 2E120000 		.4byte	0x122e
 5992 2476 68130000 		.4byte	.LLST247
 5993 247a 2A       		.uleb128 0x2a
 5994 247b 22120000 		.4byte	0x1222
 5995 247f 7C130000 		.4byte	.LLST248
 5996 2483 2A       		.uleb128 0x2a
 5997 2484 16120000 		.4byte	0x1216
 5998 2488 90130000 		.4byte	.LLST249
 5999 248c 00       		.byte	0
 6000 248d 29       		.uleb128 0x29
 6001 248e 09120000 		.4byte	0x1209
 6002 2492 9C000000 		.4byte	.LBB456
 6003 2496 06000000 		.4byte	.LBE456-.LBB456
 6004 249a 01       		.byte	0x1
 6005 249b B6       		.byte	0xb6
 6006 249c BC240000 		.4byte	0x24bc
 6007 24a0 2A       		.uleb128 0x2a
 6008 24a1 2E120000 		.4byte	0x122e
 6009 24a5 A8130000 		.4byte	.LLST250
 6010 24a9 2A       		.uleb128 0x2a
 6011 24aa 22120000 		.4byte	0x1222
 6012 24ae BC130000 		.4byte	.LLST251
 6013 24b2 2A       		.uleb128 0x2a
 6014 24b3 16120000 		.4byte	0x1216
 6015 24b7 D0130000 		.4byte	.LLST252
 6016 24bb 00       		.byte	0
 6017 24bc 29       		.uleb128 0x29
 6018 24bd 09120000 		.4byte	0x1209
 6019 24c1 A2000000 		.4byte	.LBB458
 6020 24c5 06000000 		.4byte	.LBE458-.LBB458
 6021 24c9 01       		.byte	0x1
 6022 24ca BA       		.byte	0xba
 6023 24cb EB240000 		.4byte	0x24eb
 6024 24cf 2A       		.uleb128 0x2a
 6025 24d0 2E120000 		.4byte	0x122e
 6026 24d4 E8130000 		.4byte	.LLST253
 6027 24d8 2A       		.uleb128 0x2a
 6028 24d9 22120000 		.4byte	0x1222
 6029 24dd FC130000 		.4byte	.LLST254
 6030 24e1 2A       		.uleb128 0x2a
 6031 24e2 16120000 		.4byte	0x1216
 6032 24e6 10140000 		.4byte	.LLST255
 6033 24ea 00       		.byte	0
 6034 24eb 29       		.uleb128 0x29
 6035 24ec 09120000 		.4byte	0x1209
 6036 24f0 A8000000 		.4byte	.LBB460
 6037 24f4 04000000 		.4byte	.LBE460-.LBB460
 6038 24f8 01       		.byte	0x1
 6039 24f9 BB       		.byte	0xbb
 6040 24fa 1A250000 		.4byte	0x251a
 6041 24fe 2A       		.uleb128 0x2a
 6042 24ff 2E120000 		.4byte	0x122e
 6043 2503 28140000 		.4byte	.LLST256
 6044 2507 2A       		.uleb128 0x2a
 6045 2508 22120000 		.4byte	0x1222
 6046 250c 3C140000 		.4byte	.LLST257
ARM GAS  C:\Users\Angel\AppData\Local\Temp\ccvqOPgy.s 			page 177


 6047 2510 2A       		.uleb128 0x2a
 6048 2511 16120000 		.4byte	0x1216
 6049 2515 50140000 		.4byte	.LLST258
 6050 2519 00       		.byte	0
 6051 251a 29       		.uleb128 0x29
 6052 251b 09120000 		.4byte	0x1209
 6053 251f AC000000 		.4byte	.LBB462
 6054 2523 08000000 		.4byte	.LBE462-.LBB462
 6055 2527 01       		.byte	0x1
 6056 2528 BC       		.byte	0xbc
 6057 2529 49250000 		.4byte	0x2549
 6058 252d 2A       		.uleb128 0x2a
 6059 252e 2E120000 		.4byte	0x122e
 6060 2532 68140000 		.4byte	.LLST259
 6061 2536 2A       		.uleb128 0x2a
 6062 2537 22120000 		.4byte	0x1222
 6063 253b 7C140000 		.4byte	.LLST260
 6064 253f 2A       		.uleb128 0x2a
 6065 2540 16120000 		.4byte	0x1216
 6066 2544 90140000 		.4byte	.LLST261
 6067 2548 00       		.byte	0
 6068 2549 29       		.uleb128 0x29
 6069 254a 09120000 		.4byte	0x1209
 6070 254e B4000000 		.4byte	.LBB464
 6071 2552 06000000 		.4byte	.LBE464-.LBB464
 6072 2556 01       		.byte	0x1
 6073 2557 BD       		.byte	0xbd
 6074 2558 78250000 		.4byte	0x2578
 6075 255c 2A       		.uleb128 0x2a
 6076 255d 2E120000 		.4byte	0x122e
 6077 2561 A8140000 		.4byte	.LLST262
 6078 2565 2A       		.uleb128 0x2a
 6079 2566 22120000 		.4byte	0x1222
 6080 256a BC140000 		.4byte	.LLST263
 6081 256e 2A       		.uleb128 0x2a
 6082 256f 16120000 		.4byte	0x1216
 6083 2573 D0140000 		.4byte	.LLST264
 6084 2577 00       		.byte	0
 6085 2578 29       		.uleb128 0x29
 6086 2579 09120000 		.4byte	0x1209
 6087 257d BA000000 		.4byte	.LBB466
 6088 2581 06000000 		.4byte	.LBE466-.LBB466
 6089 2585 01       		.byte	0x1
 6090 2586 C1       		.byte	0xc1
 6091 2587 A7250000 		.4byte	0x25a7
 6092 258b 2A       		.uleb128 0x2a
 6093 258c 2E120000 		.4byte	0x122e
 6094 2590 E8140000 		.4byte	.LLST265
 6095 2594 2A       		.uleb128 0x2a
 6096 2595 22120000 		.4byte	0x1222
 6097 2599 FC140000 		.4byte	.LLST266
 6098 259d 2A       		.uleb128 0x2a
 6099 259e 16120000 		.4byte	0x1216
 6100 25a2 10150000 		.4byte	.LLST267
 6101 25a6 00       		.byte	0
 6102 25a7 29       		.uleb128 0x29
 6103 25a8 09120000 		.4byte	0x1209
ARM GAS  C:\Users\Angel\AppData\Local\Temp\ccvqOPgy.s 			page 178


 6104 25ac C0000000 		.4byte	.LBB468
 6105 25b0 04000000 		.4byte	.LBE468-.LBB468
 6106 25b4 01       		.byte	0x1
 6107 25b5 C2       		.byte	0xc2
 6108 25b6 D6250000 		.4byte	0x25d6
 6109 25ba 2A       		.uleb128 0x2a
 6110 25bb 2E120000 		.4byte	0x122e
 6111 25bf 28150000 		.4byte	.LLST268
 6112 25c3 2A       		.uleb128 0x2a
 6113 25c4 22120000 		.4byte	0x1222
 6114 25c8 3C150000 		.4byte	.LLST269
 6115 25cc 2A       		.uleb128 0x2a
 6116 25cd 16120000 		.4byte	0x1216
 6117 25d1 50150000 		.4byte	.LLST270
 6118 25d5 00       		.byte	0
 6119 25d6 29       		.uleb128 0x29
 6120 25d7 09120000 		.4byte	0x1209
 6121 25db C4000000 		.4byte	.LBB470
 6122 25df 08000000 		.4byte	.LBE470-.LBB470
 6123 25e3 01       		.byte	0x1
 6124 25e4 C3       		.byte	0xc3
 6125 25e5 05260000 		.4byte	0x2605
 6126 25e9 2A       		.uleb128 0x2a
 6127 25ea 2E120000 		.4byte	0x122e
 6128 25ee 68150000 		.4byte	.LLST271
 6129 25f2 2A       		.uleb128 0x2a
 6130 25f3 22120000 		.4byte	0x1222
 6131 25f7 7C150000 		.4byte	.LLST272
 6132 25fb 2A       		.uleb128 0x2a
 6133 25fc 16120000 		.4byte	0x1216
 6134 2600 90150000 		.4byte	.LLST273
 6135 2604 00       		.byte	0
 6136 2605 29       		.uleb128 0x29
 6137 2606 09120000 		.4byte	0x1209
 6138 260a CC000000 		.4byte	.LBB472
 6139 260e 06000000 		.4byte	.LBE472-.LBB472
 6140 2612 01       		.byte	0x1
 6141 2613 C4       		.byte	0xc4
 6142 2614 34260000 		.4byte	0x2634
 6143 2618 2A       		.uleb128 0x2a
 6144 2619 2E120000 		.4byte	0x122e
 6145 261d A8150000 		.4byte	.LLST274
 6146 2621 2A       		.uleb128 0x2a
 6147 2622 22120000 		.4byte	0x1222
 6148 2626 BC150000 		.4byte	.LLST275
 6149 262a 2A       		.uleb128 0x2a
 6150 262b 16120000 		.4byte	0x1216
 6151 262f D0150000 		.4byte	.LLST276
 6152 2633 00       		.byte	0
 6153 2634 29       		.uleb128 0x29
 6154 2635 09120000 		.4byte	0x1209
 6155 2639 D2000000 		.4byte	.LBB474
 6156 263d 06000000 		.4byte	.LBE474-.LBB474
 6157 2641 01       		.byte	0x1
 6158 2642 C8       		.byte	0xc8
 6159 2643 63260000 		.4byte	0x2663
 6160 2647 2A       		.uleb128 0x2a
ARM GAS  C:\Users\Angel\AppData\Local\Temp\ccvqOPgy.s 			page 179


 6161 2648 2E120000 		.4byte	0x122e
 6162 264c E8150000 		.4byte	.LLST277
 6163 2650 2A       		.uleb128 0x2a
 6164 2651 22120000 		.4byte	0x1222
 6165 2655 FC150000 		.4byte	.LLST278
 6166 2659 2A       		.uleb128 0x2a
 6167 265a 16120000 		.4byte	0x1216
 6168 265e 10160000 		.4byte	.LLST279
 6169 2662 00       		.byte	0
 6170 2663 29       		.uleb128 0x29
 6171 2664 09120000 		.4byte	0x1209
 6172 2668 D8000000 		.4byte	.LBB476
 6173 266c 04000000 		.4byte	.LBE476-.LBB476
 6174 2670 01       		.byte	0x1
 6175 2671 C9       		.byte	0xc9
 6176 2672 92260000 		.4byte	0x2692
 6177 2676 2A       		.uleb128 0x2a
 6178 2677 2E120000 		.4byte	0x122e
 6179 267b 28160000 		.4byte	.LLST280
 6180 267f 2A       		.uleb128 0x2a
 6181 2680 22120000 		.4byte	0x1222
 6182 2684 3C160000 		.4byte	.LLST281
 6183 2688 2A       		.uleb128 0x2a
 6184 2689 16120000 		.4byte	0x1216
 6185 268d 50160000 		.4byte	.LLST282
 6186 2691 00       		.byte	0
 6187 2692 29       		.uleb128 0x29
 6188 2693 09120000 		.4byte	0x1209
 6189 2697 DC000000 		.4byte	.LBB478
 6190 269b 08000000 		.4byte	.LBE478-.LBB478
 6191 269f 01       		.byte	0x1
 6192 26a0 CA       		.byte	0xca
 6193 26a1 C1260000 		.4byte	0x26c1
 6194 26a5 2A       		.uleb128 0x2a
 6195 26a6 2E120000 		.4byte	0x122e
 6196 26aa 68160000 		.4byte	.LLST283
 6197 26ae 2A       		.uleb128 0x2a
 6198 26af 22120000 		.4byte	0x1222
 6199 26b3 7C160000 		.4byte	.LLST284
 6200 26b7 2A       		.uleb128 0x2a
 6201 26b8 16120000 		.4byte	0x1216
 6202 26bc 90160000 		.4byte	.LLST285
 6203 26c0 00       		.byte	0
 6204 26c1 29       		.uleb128 0x29
 6205 26c2 09120000 		.4byte	0x1209
 6206 26c6 E4000000 		.4byte	.LBB480
 6207 26ca 06000000 		.4byte	.LBE480-.LBB480
 6208 26ce 01       		.byte	0x1
 6209 26cf CB       		.byte	0xcb
 6210 26d0 F0260000 		.4byte	0x26f0
 6211 26d4 2A       		.uleb128 0x2a
 6212 26d5 2E120000 		.4byte	0x122e
 6213 26d9 A8160000 		.4byte	.LLST286
 6214 26dd 2A       		.uleb128 0x2a
 6215 26de 22120000 		.4byte	0x1222
 6216 26e2 BC160000 		.4byte	.LLST287
 6217 26e6 2A       		.uleb128 0x2a
ARM GAS  C:\Users\Angel\AppData\Local\Temp\ccvqOPgy.s 			page 180


 6218 26e7 16120000 		.4byte	0x1216
 6219 26eb D0160000 		.4byte	.LLST288
 6220 26ef 00       		.byte	0
 6221 26f0 29       		.uleb128 0x29
 6222 26f1 09120000 		.4byte	0x1209
 6223 26f5 EA000000 		.4byte	.LBB482
 6224 26f9 06000000 		.4byte	.LBE482-.LBB482
 6225 26fd 01       		.byte	0x1
 6226 26fe CF       		.byte	0xcf
 6227 26ff 1F270000 		.4byte	0x271f
 6228 2703 2A       		.uleb128 0x2a
 6229 2704 2E120000 		.4byte	0x122e
 6230 2708 E8160000 		.4byte	.LLST289
 6231 270c 2A       		.uleb128 0x2a
 6232 270d 22120000 		.4byte	0x1222
 6233 2711 FC160000 		.4byte	.LLST290
 6234 2715 2A       		.uleb128 0x2a
 6235 2716 16120000 		.4byte	0x1216
 6236 271a 10170000 		.4byte	.LLST291
 6237 271e 00       		.byte	0
 6238 271f 29       		.uleb128 0x29
 6239 2720 09120000 		.4byte	0x1209
 6240 2724 F0000000 		.4byte	.LBB484
 6241 2728 04000000 		.4byte	.LBE484-.LBB484
 6242 272c 01       		.byte	0x1
 6243 272d D0       		.byte	0xd0
 6244 272e 4E270000 		.4byte	0x274e
 6245 2732 2A       		.uleb128 0x2a
 6246 2733 2E120000 		.4byte	0x122e
 6247 2737 28170000 		.4byte	.LLST292
 6248 273b 2A       		.uleb128 0x2a
 6249 273c 22120000 		.4byte	0x1222
 6250 2740 3C170000 		.4byte	.LLST293
 6251 2744 2A       		.uleb128 0x2a
 6252 2745 16120000 		.4byte	0x1216
 6253 2749 50170000 		.4byte	.LLST294
 6254 274d 00       		.byte	0
 6255 274e 29       		.uleb128 0x29
 6256 274f 09120000 		.4byte	0x1209
 6257 2753 F4000000 		.4byte	.LBB486
 6258 2757 08000000 		.4byte	.LBE486-.LBB486
 6259 275b 01       		.byte	0x1
 6260 275c D1       		.byte	0xd1
 6261 275d 7D270000 		.4byte	0x277d
 6262 2761 2A       		.uleb128 0x2a
 6263 2762 2E120000 		.4byte	0x122e
 6264 2766 68170000 		.4byte	.LLST295
 6265 276a 2A       		.uleb128 0x2a
 6266 276b 22120000 		.4byte	0x1222
 6267 276f 7C170000 		.4byte	.LLST296
 6268 2773 2A       		.uleb128 0x2a
 6269 2774 16120000 		.4byte	0x1216
 6270 2778 90170000 		.4byte	.LLST297
 6271 277c 00       		.byte	0
 6272 277d 29       		.uleb128 0x29
 6273 277e 09120000 		.4byte	0x1209
 6274 2782 FC000000 		.4byte	.LBB488
ARM GAS  C:\Users\Angel\AppData\Local\Temp\ccvqOPgy.s 			page 181


 6275 2786 06000000 		.4byte	.LBE488-.LBB488
 6276 278a 01       		.byte	0x1
 6277 278b D2       		.byte	0xd2
 6278 278c AC270000 		.4byte	0x27ac
 6279 2790 2A       		.uleb128 0x2a
 6280 2791 2E120000 		.4byte	0x122e
 6281 2795 A8170000 		.4byte	.LLST298
 6282 2799 2A       		.uleb128 0x2a
 6283 279a 22120000 		.4byte	0x1222
 6284 279e BC170000 		.4byte	.LLST299
 6285 27a2 2A       		.uleb128 0x2a
 6286 27a3 16120000 		.4byte	0x1216
 6287 27a7 D0170000 		.4byte	.LLST300
 6288 27ab 00       		.byte	0
 6289 27ac 29       		.uleb128 0x29
 6290 27ad 09120000 		.4byte	0x1209
 6291 27b1 02010000 		.4byte	.LBB490
 6292 27b5 06000000 		.4byte	.LBE490-.LBB490
 6293 27b9 01       		.byte	0x1
 6294 27ba D6       		.byte	0xd6
 6295 27bb DB270000 		.4byte	0x27db
 6296 27bf 2A       		.uleb128 0x2a
 6297 27c0 2E120000 		.4byte	0x122e
 6298 27c4 E8170000 		.4byte	.LLST301
 6299 27c8 2A       		.uleb128 0x2a
 6300 27c9 22120000 		.4byte	0x1222
 6301 27cd FC170000 		.4byte	.LLST302
 6302 27d1 2A       		.uleb128 0x2a
 6303 27d2 16120000 		.4byte	0x1216
 6304 27d6 10180000 		.4byte	.LLST303
 6305 27da 00       		.byte	0
 6306 27db 29       		.uleb128 0x29
 6307 27dc 09120000 		.4byte	0x1209
 6308 27e0 08010000 		.4byte	.LBB492
 6309 27e4 04000000 		.4byte	.LBE492-.LBB492
 6310 27e8 01       		.byte	0x1
 6311 27e9 D7       		.byte	0xd7
 6312 27ea 0A280000 		.4byte	0x280a
 6313 27ee 2A       		.uleb128 0x2a
 6314 27ef 2E120000 		.4byte	0x122e
 6315 27f3 28180000 		.4byte	.LLST304
 6316 27f7 2A       		.uleb128 0x2a
 6317 27f8 22120000 		.4byte	0x1222
 6318 27fc 3C180000 		.4byte	.LLST305
 6319 2800 2A       		.uleb128 0x2a
 6320 2801 16120000 		.4byte	0x1216
 6321 2805 50180000 		.4byte	.LLST306
 6322 2809 00       		.byte	0
 6323 280a 29       		.uleb128 0x29
 6324 280b 09120000 		.4byte	0x1209
 6325 280f 0C010000 		.4byte	.LBB494
 6326 2813 08000000 		.4byte	.LBE494-.LBB494
 6327 2817 01       		.byte	0x1
 6328 2818 D8       		.byte	0xd8
 6329 2819 39280000 		.4byte	0x2839
 6330 281d 2A       		.uleb128 0x2a
 6331 281e 2E120000 		.4byte	0x122e
ARM GAS  C:\Users\Angel\AppData\Local\Temp\ccvqOPgy.s 			page 182


 6332 2822 68180000 		.4byte	.LLST307
 6333 2826 2A       		.uleb128 0x2a
 6334 2827 22120000 		.4byte	0x1222
 6335 282b 7C180000 		.4byte	.LLST308
 6336 282f 2A       		.uleb128 0x2a
 6337 2830 16120000 		.4byte	0x1216
 6338 2834 90180000 		.4byte	.LLST309
 6339 2838 00       		.byte	0
 6340 2839 29       		.uleb128 0x29
 6341 283a 09120000 		.4byte	0x1209
 6342 283e 14010000 		.4byte	.LBB496
 6343 2842 06000000 		.4byte	.LBE496-.LBB496
 6344 2846 01       		.byte	0x1
 6345 2847 D9       		.byte	0xd9
 6346 2848 68280000 		.4byte	0x2868
 6347 284c 2A       		.uleb128 0x2a
 6348 284d 2E120000 		.4byte	0x122e
 6349 2851 A8180000 		.4byte	.LLST310
 6350 2855 2A       		.uleb128 0x2a
 6351 2856 22120000 		.4byte	0x1222
 6352 285a BC180000 		.4byte	.LLST311
 6353 285e 2A       		.uleb128 0x2a
 6354 285f 16120000 		.4byte	0x1216
 6355 2863 D0180000 		.4byte	.LLST312
 6356 2867 00       		.byte	0
 6357 2868 29       		.uleb128 0x29
 6358 2869 09120000 		.4byte	0x1209
 6359 286d 1A010000 		.4byte	.LBB498
 6360 2871 06000000 		.4byte	.LBE498-.LBB498
 6361 2875 01       		.byte	0x1
 6362 2876 DD       		.byte	0xdd
 6363 2877 97280000 		.4byte	0x2897
 6364 287b 2A       		.uleb128 0x2a
 6365 287c 2E120000 		.4byte	0x122e
 6366 2880 E8180000 		.4byte	.LLST313
 6367 2884 2A       		.uleb128 0x2a
 6368 2885 22120000 		.4byte	0x1222
 6369 2889 FC180000 		.4byte	.LLST314
 6370 288d 2A       		.uleb128 0x2a
 6371 288e 16120000 		.4byte	0x1216
 6372 2892 10190000 		.4byte	.LLST315
 6373 2896 00       		.byte	0
 6374 2897 29       		.uleb128 0x29
 6375 2898 09120000 		.4byte	0x1209
 6376 289c 20010000 		.4byte	.LBB500
 6377 28a0 04000000 		.4byte	.LBE500-.LBB500
 6378 28a4 01       		.byte	0x1
 6379 28a5 DE       		.byte	0xde
 6380 28a6 C6280000 		.4byte	0x28c6
 6381 28aa 2A       		.uleb128 0x2a
 6382 28ab 2E120000 		.4byte	0x122e
 6383 28af 28190000 		.4byte	.LLST316
 6384 28b3 2A       		.uleb128 0x2a
 6385 28b4 22120000 		.4byte	0x1222
 6386 28b8 3C190000 		.4byte	.LLST317
 6387 28bc 2A       		.uleb128 0x2a
 6388 28bd 16120000 		.4byte	0x1216
ARM GAS  C:\Users\Angel\AppData\Local\Temp\ccvqOPgy.s 			page 183


 6389 28c1 50190000 		.4byte	.LLST318
 6390 28c5 00       		.byte	0
 6391 28c6 29       		.uleb128 0x29
 6392 28c7 09120000 		.4byte	0x1209
 6393 28cb 24010000 		.4byte	.LBB502
 6394 28cf 08000000 		.4byte	.LBE502-.LBB502
 6395 28d3 01       		.byte	0x1
 6396 28d4 DF       		.byte	0xdf
 6397 28d5 F5280000 		.4byte	0x28f5
 6398 28d9 2A       		.uleb128 0x2a
 6399 28da 2E120000 		.4byte	0x122e
 6400 28de 68190000 		.4byte	.LLST319
 6401 28e2 2A       		.uleb128 0x2a
 6402 28e3 22120000 		.4byte	0x1222
 6403 28e7 7C190000 		.4byte	.LLST320
 6404 28eb 2A       		.uleb128 0x2a
 6405 28ec 16120000 		.4byte	0x1216
 6406 28f0 90190000 		.4byte	.LLST321
 6407 28f4 00       		.byte	0
 6408 28f5 29       		.uleb128 0x29
 6409 28f6 09120000 		.4byte	0x1209
 6410 28fa 2C010000 		.4byte	.LBB504
 6411 28fe 06000000 		.4byte	.LBE504-.LBB504
 6412 2902 01       		.byte	0x1
 6413 2903 E0       		.byte	0xe0
 6414 2904 24290000 		.4byte	0x2924
 6415 2908 2A       		.uleb128 0x2a
 6416 2909 2E120000 		.4byte	0x122e
 6417 290d A8190000 		.4byte	.LLST322
 6418 2911 2A       		.uleb128 0x2a
 6419 2912 22120000 		.4byte	0x1222
 6420 2916 BC190000 		.4byte	.LLST323
 6421 291a 2A       		.uleb128 0x2a
 6422 291b 16120000 		.4byte	0x1216
 6423 291f D0190000 		.4byte	.LLST324
 6424 2923 00       		.byte	0
 6425 2924 29       		.uleb128 0x29
 6426 2925 09120000 		.4byte	0x1209
 6427 2929 32010000 		.4byte	.LBB506
 6428 292d 06000000 		.4byte	.LBE506-.LBB506
 6429 2931 01       		.byte	0x1
 6430 2932 E4       		.byte	0xe4
 6431 2933 53290000 		.4byte	0x2953
 6432 2937 2A       		.uleb128 0x2a
 6433 2938 2E120000 		.4byte	0x122e
 6434 293c E8190000 		.4byte	.LLST325
 6435 2940 2A       		.uleb128 0x2a
 6436 2941 22120000 		.4byte	0x1222
 6437 2945 FC190000 		.4byte	.LLST326
 6438 2949 2A       		.uleb128 0x2a
 6439 294a 16120000 		.4byte	0x1216
 6440 294e 101A0000 		.4byte	.LLST327
 6441 2952 00       		.byte	0
 6442 2953 29       		.uleb128 0x29
 6443 2954 09120000 		.4byte	0x1209
 6444 2958 38010000 		.4byte	.LBB508
 6445 295c 04000000 		.4byte	.LBE508-.LBB508
ARM GAS  C:\Users\Angel\AppData\Local\Temp\ccvqOPgy.s 			page 184


 6446 2960 01       		.byte	0x1
 6447 2961 E5       		.byte	0xe5
 6448 2962 82290000 		.4byte	0x2982
 6449 2966 2A       		.uleb128 0x2a
 6450 2967 2E120000 		.4byte	0x122e
 6451 296b 281A0000 		.4byte	.LLST328
 6452 296f 2A       		.uleb128 0x2a
 6453 2970 22120000 		.4byte	0x1222
 6454 2974 3C1A0000 		.4byte	.LLST329
 6455 2978 2A       		.uleb128 0x2a
 6456 2979 16120000 		.4byte	0x1216
 6457 297d 501A0000 		.4byte	.LLST330
 6458 2981 00       		.byte	0
 6459 2982 29       		.uleb128 0x29
 6460 2983 09120000 		.4byte	0x1209
 6461 2987 3C010000 		.4byte	.LBB510
 6462 298b 08000000 		.4byte	.LBE510-.LBB510
 6463 298f 01       		.byte	0x1
 6464 2990 E6       		.byte	0xe6
 6465 2991 B1290000 		.4byte	0x29b1
 6466 2995 2A       		.uleb128 0x2a
 6467 2996 2E120000 		.4byte	0x122e
 6468 299a 681A0000 		.4byte	.LLST331
 6469 299e 2A       		.uleb128 0x2a
 6470 299f 22120000 		.4byte	0x1222
 6471 29a3 7C1A0000 		.4byte	.LLST332
 6472 29a7 2A       		.uleb128 0x2a
 6473 29a8 16120000 		.4byte	0x1216
 6474 29ac 901A0000 		.4byte	.LLST333
 6475 29b0 00       		.byte	0
 6476 29b1 29       		.uleb128 0x29
 6477 29b2 09120000 		.4byte	0x1209
 6478 29b6 44010000 		.4byte	.LBB512
 6479 29ba 06000000 		.4byte	.LBE512-.LBB512
 6480 29be 01       		.byte	0x1
 6481 29bf E7       		.byte	0xe7
 6482 29c0 E0290000 		.4byte	0x29e0
 6483 29c4 2A       		.uleb128 0x2a
 6484 29c5 2E120000 		.4byte	0x122e
 6485 29c9 A81A0000 		.4byte	.LLST334
 6486 29cd 2A       		.uleb128 0x2a
 6487 29ce 22120000 		.4byte	0x1222
 6488 29d2 BC1A0000 		.4byte	.LLST335
 6489 29d6 2A       		.uleb128 0x2a
 6490 29d7 16120000 		.4byte	0x1216
 6491 29db D01A0000 		.4byte	.LLST336
 6492 29df 00       		.byte	0
 6493 29e0 29       		.uleb128 0x29
 6494 29e1 09120000 		.4byte	0x1209
 6495 29e5 4A010000 		.4byte	.LBB514
 6496 29e9 06000000 		.4byte	.LBE514-.LBB514
 6497 29ed 01       		.byte	0x1
 6498 29ee EA       		.byte	0xea
 6499 29ef 0F2A0000 		.4byte	0x2a0f
 6500 29f3 2A       		.uleb128 0x2a
 6501 29f4 2E120000 		.4byte	0x122e
 6502 29f8 E81A0000 		.4byte	.LLST337
ARM GAS  C:\Users\Angel\AppData\Local\Temp\ccvqOPgy.s 			page 185


 6503 29fc 2A       		.uleb128 0x2a
 6504 29fd 22120000 		.4byte	0x1222
 6505 2a01 FC1A0000 		.4byte	.LLST338
 6506 2a05 2A       		.uleb128 0x2a
 6507 2a06 16120000 		.4byte	0x1216
 6508 2a0a 101B0000 		.4byte	.LLST339
 6509 2a0e 00       		.byte	0
 6510 2a0f 29       		.uleb128 0x29
 6511 2a10 09120000 		.4byte	0x1209
 6512 2a14 50010000 		.4byte	.LBB516
 6513 2a18 04000000 		.4byte	.LBE516-.LBB516
 6514 2a1c 01       		.byte	0x1
 6515 2a1d EB       		.byte	0xeb
 6516 2a1e 3E2A0000 		.4byte	0x2a3e
 6517 2a22 2A       		.uleb128 0x2a
 6518 2a23 2E120000 		.4byte	0x122e
 6519 2a27 281B0000 		.4byte	.LLST340
 6520 2a2b 2A       		.uleb128 0x2a
 6521 2a2c 22120000 		.4byte	0x1222
 6522 2a30 3C1B0000 		.4byte	.LLST341
 6523 2a34 2A       		.uleb128 0x2a
 6524 2a35 16120000 		.4byte	0x1216
 6525 2a39 501B0000 		.4byte	.LLST342
 6526 2a3d 00       		.byte	0
 6527 2a3e 29       		.uleb128 0x29
 6528 2a3f 09120000 		.4byte	0x1209
 6529 2a43 54010000 		.4byte	.LBB518
 6530 2a47 08000000 		.4byte	.LBE518-.LBB518
 6531 2a4b 01       		.byte	0x1
 6532 2a4c EC       		.byte	0xec
 6533 2a4d 6D2A0000 		.4byte	0x2a6d
 6534 2a51 2A       		.uleb128 0x2a
 6535 2a52 2E120000 		.4byte	0x122e
 6536 2a56 681B0000 		.4byte	.LLST343
 6537 2a5a 2A       		.uleb128 0x2a
 6538 2a5b 22120000 		.4byte	0x1222
 6539 2a5f 7C1B0000 		.4byte	.LLST344
 6540 2a63 2A       		.uleb128 0x2a
 6541 2a64 16120000 		.4byte	0x1216
 6542 2a68 901B0000 		.4byte	.LLST345
 6543 2a6c 00       		.byte	0
 6544 2a6d 29       		.uleb128 0x29
 6545 2a6e 09120000 		.4byte	0x1209
 6546 2a72 5C010000 		.4byte	.LBB520
 6547 2a76 06000000 		.4byte	.LBE520-.LBB520
 6548 2a7a 01       		.byte	0x1
 6549 2a7b ED       		.byte	0xed
 6550 2a7c 9C2A0000 		.4byte	0x2a9c
 6551 2a80 2A       		.uleb128 0x2a
 6552 2a81 2E120000 		.4byte	0x122e
 6553 2a85 A81B0000 		.4byte	.LLST346
 6554 2a89 2A       		.uleb128 0x2a
 6555 2a8a 22120000 		.4byte	0x1222
 6556 2a8e BC1B0000 		.4byte	.LLST347
 6557 2a92 2A       		.uleb128 0x2a
 6558 2a93 16120000 		.4byte	0x1216
 6559 2a97 D01B0000 		.4byte	.LLST348
ARM GAS  C:\Users\Angel\AppData\Local\Temp\ccvqOPgy.s 			page 186


 6560 2a9b 00       		.byte	0
 6561 2a9c 29       		.uleb128 0x29
 6562 2a9d 09120000 		.4byte	0x1209
 6563 2aa1 62010000 		.4byte	.LBB522
 6564 2aa5 06000000 		.4byte	.LBE522-.LBB522
 6565 2aa9 01       		.byte	0x1
 6566 2aaa F0       		.byte	0xf0
 6567 2aab CB2A0000 		.4byte	0x2acb
 6568 2aaf 2A       		.uleb128 0x2a
 6569 2ab0 2E120000 		.4byte	0x122e
 6570 2ab4 E81B0000 		.4byte	.LLST349
 6571 2ab8 2A       		.uleb128 0x2a
 6572 2ab9 22120000 		.4byte	0x1222
 6573 2abd FC1B0000 		.4byte	.LLST350
 6574 2ac1 2A       		.uleb128 0x2a
 6575 2ac2 16120000 		.4byte	0x1216
 6576 2ac6 101C0000 		.4byte	.LLST351
 6577 2aca 00       		.byte	0
 6578 2acb 29       		.uleb128 0x29
 6579 2acc 09120000 		.4byte	0x1209
 6580 2ad0 68010000 		.4byte	.LBB524
 6581 2ad4 04000000 		.4byte	.LBE524-.LBB524
 6582 2ad8 01       		.byte	0x1
 6583 2ad9 F1       		.byte	0xf1
 6584 2ada FA2A0000 		.4byte	0x2afa
 6585 2ade 2A       		.uleb128 0x2a
 6586 2adf 2E120000 		.4byte	0x122e
 6587 2ae3 281C0000 		.4byte	.LLST352
 6588 2ae7 2A       		.uleb128 0x2a
 6589 2ae8 22120000 		.4byte	0x1222
 6590 2aec 3C1C0000 		.4byte	.LLST353
 6591 2af0 2A       		.uleb128 0x2a
 6592 2af1 16120000 		.4byte	0x1216
 6593 2af5 501C0000 		.4byte	.LLST354
 6594 2af9 00       		.byte	0
 6595 2afa 29       		.uleb128 0x29
 6596 2afb 09120000 		.4byte	0x1209
 6597 2aff 6C010000 		.4byte	.LBB526
 6598 2b03 08000000 		.4byte	.LBE526-.LBB526
 6599 2b07 01       		.byte	0x1
 6600 2b08 F2       		.byte	0xf2
 6601 2b09 292B0000 		.4byte	0x2b29
 6602 2b0d 2A       		.uleb128 0x2a
 6603 2b0e 2E120000 		.4byte	0x122e
 6604 2b12 681C0000 		.4byte	.LLST355
 6605 2b16 2A       		.uleb128 0x2a
 6606 2b17 22120000 		.4byte	0x1222
 6607 2b1b 7C1C0000 		.4byte	.LLST356
 6608 2b1f 2A       		.uleb128 0x2a
 6609 2b20 16120000 		.4byte	0x1216
 6610 2b24 901C0000 		.4byte	.LLST357
 6611 2b28 00       		.byte	0
 6612 2b29 29       		.uleb128 0x29
 6613 2b2a 09120000 		.4byte	0x1209
 6614 2b2e 74010000 		.4byte	.LBB528
 6615 2b32 06000000 		.4byte	.LBE528-.LBB528
 6616 2b36 01       		.byte	0x1
ARM GAS  C:\Users\Angel\AppData\Local\Temp\ccvqOPgy.s 			page 187


 6617 2b37 F3       		.byte	0xf3
 6618 2b38 582B0000 		.4byte	0x2b58
 6619 2b3c 2A       		.uleb128 0x2a
 6620 2b3d 2E120000 		.4byte	0x122e
 6621 2b41 A81C0000 		.4byte	.LLST358
 6622 2b45 2A       		.uleb128 0x2a
 6623 2b46 22120000 		.4byte	0x1222
 6624 2b4a BC1C0000 		.4byte	.LLST359
 6625 2b4e 2A       		.uleb128 0x2a
 6626 2b4f 16120000 		.4byte	0x1216
 6627 2b53 D01C0000 		.4byte	.LLST360
 6628 2b57 00       		.byte	0
 6629 2b58 29       		.uleb128 0x29
 6630 2b59 09120000 		.4byte	0x1209
 6631 2b5d 7A010000 		.4byte	.LBB530
 6632 2b61 06000000 		.4byte	.LBE530-.LBB530
 6633 2b65 01       		.byte	0x1
 6634 2b66 F7       		.byte	0xf7
 6635 2b67 872B0000 		.4byte	0x2b87
 6636 2b6b 2A       		.uleb128 0x2a
 6637 2b6c 2E120000 		.4byte	0x122e
 6638 2b70 E81C0000 		.4byte	.LLST361
 6639 2b74 2A       		.uleb128 0x2a
 6640 2b75 22120000 		.4byte	0x1222
 6641 2b79 FC1C0000 		.4byte	.LLST362
 6642 2b7d 2A       		.uleb128 0x2a
 6643 2b7e 16120000 		.4byte	0x1216
 6644 2b82 101D0000 		.4byte	.LLST363
 6645 2b86 00       		.byte	0
 6646 2b87 29       		.uleb128 0x29
 6647 2b88 09120000 		.4byte	0x1209
 6648 2b8c 80010000 		.4byte	.LBB532
 6649 2b90 04000000 		.4byte	.LBE532-.LBB532
 6650 2b94 01       		.byte	0x1
 6651 2b95 F8       		.byte	0xf8
 6652 2b96 B62B0000 		.4byte	0x2bb6
 6653 2b9a 2A       		.uleb128 0x2a
 6654 2b9b 2E120000 		.4byte	0x122e
 6655 2b9f 281D0000 		.4byte	.LLST364
 6656 2ba3 2A       		.uleb128 0x2a
 6657 2ba4 22120000 		.4byte	0x1222
 6658 2ba8 3C1D0000 		.4byte	.LLST365
 6659 2bac 2A       		.uleb128 0x2a
 6660 2bad 16120000 		.4byte	0x1216
 6661 2bb1 501D0000 		.4byte	.LLST366
 6662 2bb5 00       		.byte	0
 6663 2bb6 29       		.uleb128 0x29
 6664 2bb7 09120000 		.4byte	0x1209
 6665 2bbb 84010000 		.4byte	.LBB534
 6666 2bbf 08000000 		.4byte	.LBE534-.LBB534
 6667 2bc3 01       		.byte	0x1
 6668 2bc4 F9       		.byte	0xf9
 6669 2bc5 E52B0000 		.4byte	0x2be5
 6670 2bc9 2A       		.uleb128 0x2a
 6671 2bca 2E120000 		.4byte	0x122e
 6672 2bce 681D0000 		.4byte	.LLST367
 6673 2bd2 2A       		.uleb128 0x2a
ARM GAS  C:\Users\Angel\AppData\Local\Temp\ccvqOPgy.s 			page 188


 6674 2bd3 22120000 		.4byte	0x1222
 6675 2bd7 7C1D0000 		.4byte	.LLST368
 6676 2bdb 2A       		.uleb128 0x2a
 6677 2bdc 16120000 		.4byte	0x1216
 6678 2be0 901D0000 		.4byte	.LLST369
 6679 2be4 00       		.byte	0
 6680 2be5 29       		.uleb128 0x29
 6681 2be6 09120000 		.4byte	0x1209
 6682 2bea 8C010000 		.4byte	.LBB536
 6683 2bee 06000000 		.4byte	.LBE536-.LBB536
 6684 2bf2 01       		.byte	0x1
 6685 2bf3 FA       		.byte	0xfa
 6686 2bf4 142C0000 		.4byte	0x2c14
 6687 2bf8 2A       		.uleb128 0x2a
 6688 2bf9 2E120000 		.4byte	0x122e
 6689 2bfd A81D0000 		.4byte	.LLST370
 6690 2c01 2A       		.uleb128 0x2a
 6691 2c02 22120000 		.4byte	0x1222
 6692 2c06 BC1D0000 		.4byte	.LLST371
 6693 2c0a 2A       		.uleb128 0x2a
 6694 2c0b 16120000 		.4byte	0x1216
 6695 2c0f D01D0000 		.4byte	.LLST372
 6696 2c13 00       		.byte	0
 6697 2c14 29       		.uleb128 0x29
 6698 2c15 09120000 		.4byte	0x1209
 6699 2c19 92010000 		.4byte	.LBB538
 6700 2c1d 06000000 		.4byte	.LBE538-.LBB538
 6701 2c21 01       		.byte	0x1
 6702 2c22 FE       		.byte	0xfe
 6703 2c23 432C0000 		.4byte	0x2c43
 6704 2c27 2A       		.uleb128 0x2a
 6705 2c28 2E120000 		.4byte	0x122e
 6706 2c2c E81D0000 		.4byte	.LLST373
 6707 2c30 2A       		.uleb128 0x2a
 6708 2c31 22120000 		.4byte	0x1222
 6709 2c35 FC1D0000 		.4byte	.LLST374
 6710 2c39 2A       		.uleb128 0x2a
 6711 2c3a 16120000 		.4byte	0x1216
 6712 2c3e 101E0000 		.4byte	.LLST375
 6713 2c42 00       		.byte	0
 6714 2c43 29       		.uleb128 0x29
 6715 2c44 09120000 		.4byte	0x1209
 6716 2c48 98010000 		.4byte	.LBB540
 6717 2c4c 04000000 		.4byte	.LBE540-.LBB540
 6718 2c50 01       		.byte	0x1
 6719 2c51 FF       		.byte	0xff
 6720 2c52 722C0000 		.4byte	0x2c72
 6721 2c56 2A       		.uleb128 0x2a
 6722 2c57 2E120000 		.4byte	0x122e
 6723 2c5b 281E0000 		.4byte	.LLST376
 6724 2c5f 2A       		.uleb128 0x2a
 6725 2c60 22120000 		.4byte	0x1222
 6726 2c64 3C1E0000 		.4byte	.LLST377
 6727 2c68 2A       		.uleb128 0x2a
 6728 2c69 16120000 		.4byte	0x1216
 6729 2c6d 501E0000 		.4byte	.LLST378
 6730 2c71 00       		.byte	0
ARM GAS  C:\Users\Angel\AppData\Local\Temp\ccvqOPgy.s 			page 189


 6731 2c72 2C       		.uleb128 0x2c
 6732 2c73 09120000 		.4byte	0x1209
 6733 2c77 9C010000 		.4byte	.LBB542
 6734 2c7b 08000000 		.4byte	.LBE542-.LBB542
 6735 2c7f 01       		.byte	0x1
 6736 2c80 0001     		.2byte	0x100
 6737 2c82 A22C0000 		.4byte	0x2ca2
 6738 2c86 2A       		.uleb128 0x2a
 6739 2c87 2E120000 		.4byte	0x122e
 6740 2c8b 681E0000 		.4byte	.LLST379
 6741 2c8f 2A       		.uleb128 0x2a
 6742 2c90 22120000 		.4byte	0x1222
 6743 2c94 7C1E0000 		.4byte	.LLST380
 6744 2c98 2A       		.uleb128 0x2a
 6745 2c99 16120000 		.4byte	0x1216
 6746 2c9d 901E0000 		.4byte	.LLST381
 6747 2ca1 00       		.byte	0
 6748 2ca2 2D       		.uleb128 0x2d
 6749 2ca3 09120000 		.4byte	0x1209
 6750 2ca7 A4010000 		.4byte	.LBB544
 6751 2cab 0C000000 		.4byte	.LBE544-.LBB544
 6752 2caf 01       		.byte	0x1
 6753 2cb0 0101     		.2byte	0x101
 6754 2cb2 2A       		.uleb128 0x2a
 6755 2cb3 2E120000 		.4byte	0x122e
 6756 2cb7 A81E0000 		.4byte	.LLST382
 6757 2cbb 2A       		.uleb128 0x2a
 6758 2cbc 22120000 		.4byte	0x1222
 6759 2cc0 BC1E0000 		.4byte	.LLST383
 6760 2cc4 2A       		.uleb128 0x2a
 6761 2cc5 16120000 		.4byte	0x1216
 6762 2cc9 D01E0000 		.4byte	.LLST384
 6763 2ccd 00       		.byte	0
 6764 2cce 00       		.byte	0
 6765 2ccf 2E       		.uleb128 0x2e
 6766 2cd0 FC070000 		.4byte	.LASF352
 6767 2cd4 01       		.byte	0x1
 6768 2cd5 0701     		.2byte	0x107
 6769 2cd7 00000000 		.4byte	.LFB531
 6770 2cdb 5C000000 		.4byte	.LFE531-.LFB531
 6771 2cdf 01       		.uleb128 0x1
 6772 2ce0 9C       		.byte	0x9c
 6773 2ce1 1A2E0000 		.4byte	0x2e1a
 6774 2ce5 2C       		.uleb128 0x2c
 6775 2ce6 41120000 		.4byte	0x1241
 6776 2cea 00000000 		.4byte	.LBB546
 6777 2cee 08000000 		.4byte	.LBE546-.LBB546
 6778 2cf2 01       		.byte	0x1
 6779 2cf3 0801     		.2byte	0x108
 6780 2cf5 0C2D0000 		.4byte	0x2d0c
 6781 2cf9 2A       		.uleb128 0x2a
 6782 2cfa 5E120000 		.4byte	0x125e
 6783 2cfe E81E0000 		.4byte	.LLST385
 6784 2d02 2A       		.uleb128 0x2a
 6785 2d03 52120000 		.4byte	0x1252
 6786 2d07 FC1E0000 		.4byte	.LLST386
 6787 2d0b 00       		.byte	0
ARM GAS  C:\Users\Angel\AppData\Local\Temp\ccvqOPgy.s 			page 190


 6788 2d0c 2C       		.uleb128 0x2c
 6789 2d0d 41120000 		.4byte	0x1241
 6790 2d11 0C000000 		.4byte	.LBB548
 6791 2d15 06000000 		.4byte	.LBE548-.LBB548
 6792 2d19 01       		.byte	0x1
 6793 2d1a 0901     		.2byte	0x109
 6794 2d1c 332D0000 		.4byte	0x2d33
 6795 2d20 2A       		.uleb128 0x2a
 6796 2d21 5E120000 		.4byte	0x125e
 6797 2d25 141F0000 		.4byte	.LLST387
 6798 2d29 2A       		.uleb128 0x2a
 6799 2d2a 52120000 		.4byte	0x1252
 6800 2d2e 281F0000 		.4byte	.LLST388
 6801 2d32 00       		.byte	0
 6802 2d33 2C       		.uleb128 0x2c
 6803 2d34 41120000 		.4byte	0x1241
 6804 2d38 14000000 		.4byte	.LBB550
 6805 2d3c 06000000 		.4byte	.LBE550-.LBB550
 6806 2d40 01       		.byte	0x1
 6807 2d41 0A01     		.2byte	0x10a
 6808 2d43 5A2D0000 		.4byte	0x2d5a
 6809 2d47 2A       		.uleb128 0x2a
 6810 2d48 5E120000 		.4byte	0x125e
 6811 2d4c 401F0000 		.4byte	.LLST389
 6812 2d50 2A       		.uleb128 0x2a
 6813 2d51 52120000 		.4byte	0x1252
 6814 2d55 541F0000 		.4byte	.LLST390
 6815 2d59 00       		.byte	0
 6816 2d5a 2C       		.uleb128 0x2c
 6817 2d5b 41120000 		.4byte	0x1241
 6818 2d5f 1C000000 		.4byte	.LBB552
 6819 2d63 06000000 		.4byte	.LBE552-.LBB552
 6820 2d67 01       		.byte	0x1
 6821 2d68 0B01     		.2byte	0x10b
 6822 2d6a 812D0000 		.4byte	0x2d81
 6823 2d6e 2A       		.uleb128 0x2a
 6824 2d6f 5E120000 		.4byte	0x125e
 6825 2d73 6C1F0000 		.4byte	.LLST391
 6826 2d77 2A       		.uleb128 0x2a
 6827 2d78 52120000 		.4byte	0x1252
 6828 2d7c 801F0000 		.4byte	.LLST392
 6829 2d80 00       		.byte	0
 6830 2d81 2C       		.uleb128 0x2c
 6831 2d82 41120000 		.4byte	0x1241
 6832 2d86 24000000 		.4byte	.LBB554
 6833 2d8a 06000000 		.4byte	.LBE554-.LBB554
 6834 2d8e 01       		.byte	0x1
 6835 2d8f 0C01     		.2byte	0x10c
 6836 2d91 A82D0000 		.4byte	0x2da8
 6837 2d95 2A       		.uleb128 0x2a
 6838 2d96 5E120000 		.4byte	0x125e
 6839 2d9a 981F0000 		.4byte	.LLST393
 6840 2d9e 2A       		.uleb128 0x2a
 6841 2d9f 52120000 		.4byte	0x1252
 6842 2da3 AC1F0000 		.4byte	.LLST394
 6843 2da7 00       		.byte	0
 6844 2da8 2C       		.uleb128 0x2c
ARM GAS  C:\Users\Angel\AppData\Local\Temp\ccvqOPgy.s 			page 191


 6845 2da9 41120000 		.4byte	0x1241
 6846 2dad 2E000000 		.4byte	.LBB556
 6847 2db1 06000000 		.4byte	.LBE556-.LBB556
 6848 2db5 01       		.byte	0x1
 6849 2db6 0D01     		.2byte	0x10d
 6850 2db8 CF2D0000 		.4byte	0x2dcf
 6851 2dbc 2A       		.uleb128 0x2a
 6852 2dbd 5E120000 		.4byte	0x125e
 6853 2dc1 C41F0000 		.4byte	.LLST395
 6854 2dc5 2A       		.uleb128 0x2a
 6855 2dc6 52120000 		.4byte	0x1252
 6856 2dca D81F0000 		.4byte	.LLST396
 6857 2dce 00       		.byte	0
 6858 2dcf 2C       		.uleb128 0x2c
 6859 2dd0 41120000 		.4byte	0x1241
 6860 2dd4 36000000 		.4byte	.LBB558
 6861 2dd8 08000000 		.4byte	.LBE558-.LBB558
 6862 2ddc 01       		.byte	0x1
 6863 2ddd 0E01     		.2byte	0x10e
 6864 2ddf F62D0000 		.4byte	0x2df6
 6865 2de3 2A       		.uleb128 0x2a
 6866 2de4 5E120000 		.4byte	0x125e
 6867 2de8 F01F0000 		.4byte	.LLST397
 6868 2dec 2A       		.uleb128 0x2a
 6869 2ded 52120000 		.4byte	0x1252
 6870 2df1 04200000 		.4byte	.LLST398
 6871 2df5 00       		.byte	0
 6872 2df6 2D       		.uleb128 0x2d
 6873 2df7 41120000 		.4byte	0x1241
 6874 2dfb 40000000 		.4byte	.LBB560
 6875 2dff 06000000 		.4byte	.LBE560-.LBB560
 6876 2e03 01       		.byte	0x1
 6877 2e04 0F01     		.2byte	0x10f
 6878 2e06 2A       		.uleb128 0x2a
 6879 2e07 5E120000 		.4byte	0x125e
 6880 2e0b 1C200000 		.4byte	.LLST399
 6881 2e0f 2A       		.uleb128 0x2a
 6882 2e10 52120000 		.4byte	0x1252
 6883 2e14 30200000 		.4byte	.LLST400
 6884 2e18 00       		.byte	0
 6885 2e19 00       		.byte	0
 6886 2e1a 1B       		.uleb128 0x1b
 6887 2e1b 2B120000 		.4byte	.LASF312
 6888 2e1f 05       		.byte	0x5
 6889 2e20 A305     		.2byte	0x5a3
 6890 2e22 03       		.byte	0x3
 6891 2e23 402E0000 		.4byte	0x2e40
 6892 2e27 1C       		.uleb128 0x1c
 6893 2e28 E0040000 		.4byte	.LASF292
 6894 2e2c 05       		.byte	0x5
 6895 2e2d A305     		.2byte	0x5a3
 6896 2e2f 402E0000 		.4byte	0x2e40
 6897 2e33 1C       		.uleb128 0x1c
 6898 2e34 53070000 		.4byte	.LASF299
 6899 2e38 05       		.byte	0x5
 6900 2e39 A305     		.2byte	0x5a3
 6901 2e3b B7120000 		.4byte	0x12b7
ARM GAS  C:\Users\Angel\AppData\Local\Temp\ccvqOPgy.s 			page 192


 6902 2e3f 00       		.byte	0
 6903 2e40 10       		.uleb128 0x10
 6904 2e41 04       		.byte	0x4
 6905 2e42 ED0A0000 		.4byte	0xaed
 6906 2e46 1D       		.uleb128 0x1d
 6907 2e47 4A080000 		.4byte	.LASF313
 6908 2e4b 04       		.byte	0x4
 6909 2e4c D503     		.2byte	0x3d5
 6910 2e4e AD000000 		.4byte	0xad
 6911 2e52 03       		.byte	0x3
 6912 2e53 642E0000 		.4byte	0x2e64
 6913 2e57 1C       		.uleb128 0x1c
 6914 2e58 86000000 		.4byte	.LASF314
 6915 2e5c 04       		.byte	0x4
 6916 2e5d D503     		.2byte	0x3d5
 6917 2e5f CE000000 		.4byte	0xce
 6918 2e63 00       		.byte	0
 6919 2e64 2F       		.uleb128 0x2f
 6920 2e65 4D110000 		.4byte	.LASF353
 6921 2e69 01       		.byte	0x1
 6922 2e6a 1F01     		.2byte	0x11f
 6923 2e6c 94000000 		.4byte	0x94
 6924 2e70 00000000 		.4byte	.LFB532
 6925 2e74 04010000 		.4byte	.LFE532-.LFB532
 6926 2e78 01       		.uleb128 0x1
 6927 2e79 9C       		.byte	0x9c
 6928 2e7a F6310000 		.4byte	0x31f6
 6929 2e7e 30       		.uleb128 0x30
 6930 2e7f BB020000 		.4byte	.LASF289
 6931 2e83 01       		.byte	0x1
 6932 2e84 2201     		.2byte	0x122
 6933 2e86 C2110000 		.4byte	0x11c2
 6934 2e8a 30       		.uleb128 0x30
 6935 2e8b CB080000 		.4byte	.LASF315
 6936 2e8f 01       		.byte	0x1
 6937 2e90 2301     		.2byte	0x123
 6938 2e92 A2000000 		.4byte	0xa2
 6939 2e96 31       		.uleb128 0x31
 6940 2e97 636D6400 		.ascii	"cmd\000"
 6941 2e9b 01       		.byte	0x1
 6942 2e9c 2401     		.2byte	0x124
 6943 2e9e F6310000 		.4byte	0x31f6
 6944 2ea2 32       		.uleb128 0x32
 6945 2ea3 C20A0000 		.4byte	.LASF316
 6946 2ea7 01       		.byte	0x1
 6947 2ea8 2601     		.2byte	0x126
 6948 2eaa 94000000 		.4byte	0x94
 6949 2eae 08       		.byte	0x8
 6950 2eaf 33       		.uleb128 0x33
 6951 2eb0 AF080000 		.4byte	.LASF317
 6952 2eb4 01       		.byte	0x1
 6953 2eb5 3201     		.2byte	0x132
 6954 2eb7 402E0000 		.4byte	0x2e40
 6955 2ebb 00006640 		.4byte	0x40660000
 6956 2ebf 30       		.uleb128 0x30
 6957 2ec0 5D0D0000 		.4byte	.LASF318
 6958 2ec4 01       		.byte	0x1
ARM GAS  C:\Users\Angel\AppData\Local\Temp\ccvqOPgy.s 			page 193


 6959 2ec5 3301     		.2byte	0x133
 6960 2ec7 420F0000 		.4byte	0xf42
 6961 2ecb 26       		.uleb128 0x26
 6962 2ecc 17030000 		.4byte	.LASF319
 6963 2ed0 01       		.byte	0x1
 6964 2ed1 3401     		.2byte	0x134
 6965 2ed3 94000000 		.4byte	0x94
 6966 2ed7 48200000 		.4byte	.LLST401
 6967 2edb 34       		.uleb128 0x34
 6968 2edc 6B120000 		.4byte	0x126b
 6969 2ee0 04000000 		.4byte	.LBB582
 6970 2ee4 02000000 		.4byte	.LBE582-.LBB582
 6971 2ee8 01       		.byte	0x1
 6972 2ee9 2901     		.2byte	0x129
 6973 2eeb 2C       		.uleb128 0x2c
 6974 2eec 73120000 		.4byte	0x1273
 6975 2ef0 1C000000 		.4byte	.LBB584
 6976 2ef4 04000000 		.4byte	.LBE584-.LBB584
 6977 2ef8 01       		.byte	0x1
 6978 2ef9 4701     		.2byte	0x147
 6979 2efb 122F0000 		.4byte	0x2f12
 6980 2eff 2A       		.uleb128 0x2a
 6981 2f00 90120000 		.4byte	0x1290
 6982 2f04 66200000 		.4byte	.LLST402
 6983 2f08 2A       		.uleb128 0x2a
 6984 2f09 84120000 		.4byte	0x1284
 6985 2f0d 7A200000 		.4byte	.LLST403
 6986 2f11 00       		.byte	0
 6987 2f12 35       		.uleb128 0x35
 6988 2f13 2E000000 		.4byte	.LBB586
 6989 2f17 D6000000 		.4byte	.LBE586-.LBB586
 6990 2f1b AB310000 		.4byte	0x31ab
 6991 2f1f 36       		.uleb128 0x36
 6992 2f20 6900     		.ascii	"i\000"
 6993 2f22 01       		.byte	0x1
 6994 2f23 4F01     		.2byte	0x14f
 6995 2f25 94000000 		.4byte	0x94
 6996 2f29 92200000 		.4byte	.LLST404
 6997 2f2d 36       		.uleb128 0x36
 6998 2f2e 6A00     		.ascii	"j\000"
 6999 2f30 01       		.byte	0x1
 7000 2f31 4F01     		.2byte	0x14f
 7001 2f33 94000000 		.4byte	0x94
 7002 2f37 B1200000 		.4byte	.LLST405
 7003 2f3b 35       		.uleb128 0x35
 7004 2f3c 4C000000 		.4byte	.LBB587
 7005 2f40 5E000000 		.4byte	.LBE587-.LBB587
 7006 2f44 D6300000 		.4byte	0x30d6
 7007 2f48 25       		.uleb128 0x25
 7008 2f49 0B010000 		.4byte	.LASF320
 7009 2f4d 01       		.byte	0x1
 7010 2f4e 5B01     		.2byte	0x15b
 7011 2f50 06320000 		.4byte	0x3206
 7012 2f54 02       		.uleb128 0x2
 7013 2f55 91       		.byte	0x91
 7014 2f56 60       		.sleb128 -32
 7015 2f57 2C       		.uleb128 0x2c
ARM GAS  C:\Users\Angel\AppData\Local\Temp\ccvqOPgy.s 			page 194


 7016 2f58 462E0000 		.4byte	0x2e46
 7017 2f5c 62000000 		.4byte	.LBB588
 7018 2f60 24000000 		.4byte	.LBE588-.LBB588
 7019 2f64 01       		.byte	0x1
 7020 2f65 6101     		.2byte	0x161
 7021 2f67 AB2F0000 		.4byte	0x2fab
 7022 2f6b 2A       		.uleb128 0x2a
 7023 2f6c 572E0000 		.4byte	0x2e57
 7024 2f70 D0200000 		.4byte	.LLST406
 7025 2f74 24       		.uleb128 0x24
 7026 2f75 7E000000 		.4byte	.LVL182
 7027 2f79 3C330000 		.4byte	0x333c
 7028 2f7d 922F0000 		.4byte	0x2f92
 7029 2f81 22       		.uleb128 0x22
 7030 2f82 01       		.uleb128 0x1
 7031 2f83 50       		.byte	0x50
 7032 2f84 05       		.uleb128 0x5
 7033 2f85 03       		.byte	0x3
 7034 2f86 44000000 		.4byte	.LC5
 7035 2f8a 22       		.uleb128 0x22
 7036 2f8b 01       		.uleb128 0x1
 7037 2f8c 51       		.byte	0x51
 7038 2f8d 03       		.uleb128 0x3
 7039 2f8e 0A       		.byte	0xa
 7040 2f8f D803     		.2byte	0x3d8
 7041 2f91 00       		.byte	0
 7042 2f92 21       		.uleb128 0x21
 7043 2f93 86000000 		.4byte	.LVL183
 7044 2f97 48330000 		.4byte	0x3348
 7045 2f9b 22       		.uleb128 0x22
 7046 2f9c 01       		.uleb128 0x1
 7047 2f9d 50       		.byte	0x50
 7048 2f9e 05       		.uleb128 0x5
 7049 2f9f 0C       		.byte	0xc
 7050 2fa0 00001D41 		.4byte	0x411d0000
 7051 2fa4 22       		.uleb128 0x22
 7052 2fa5 01       		.uleb128 0x1
 7053 2fa6 51       		.byte	0x51
 7054 2fa7 01       		.uleb128 0x1
 7055 2fa8 30       		.byte	0x30
 7056 2fa9 00       		.byte	0
 7057 2faa 00       		.byte	0
 7058 2fab 2C       		.uleb128 0x2c
 7059 2fac 9D120000 		.4byte	0x129d
 7060 2fb0 98000000 		.4byte	.LBB590
 7061 2fb4 0A000000 		.4byte	.LBE590-.LBB590
 7062 2fb8 01       		.byte	0x1
 7063 2fb9 6501     		.2byte	0x165
 7064 2fbb 02300000 		.4byte	0x3002
 7065 2fbf 2A       		.uleb128 0x2a
 7066 2fc0 AA120000 		.4byte	0x12aa
 7067 2fc4 E4200000 		.4byte	.LLST407
 7068 2fc8 2D       		.uleb128 0x2d
 7069 2fc9 1A2E0000 		.4byte	0x2e1a
 7070 2fcd 98000000 		.4byte	.LBB591
 7071 2fd1 0A000000 		.4byte	.LBE591-.LBB591
 7072 2fd5 10       		.byte	0x10
ARM GAS  C:\Users\Angel\AppData\Local\Temp\ccvqOPgy.s 			page 195


 7073 2fd6 BC01     		.2byte	0x1bc
 7074 2fd8 2A       		.uleb128 0x2a
 7075 2fd9 332E0000 		.4byte	0x2e33
 7076 2fdd E4200000 		.4byte	.LLST407
 7077 2fe1 2A       		.uleb128 0x2a
 7078 2fe2 272E0000 		.4byte	0x2e27
 7079 2fe6 F7200000 		.4byte	.LLST409
 7080 2fea 21       		.uleb128 0x21
 7081 2feb A2000000 		.4byte	.LVL187
 7082 2fef 54330000 		.4byte	0x3354
 7083 2ff3 22       		.uleb128 0x22
 7084 2ff4 01       		.uleb128 0x1
 7085 2ff5 50       		.byte	0x50
 7086 2ff6 02       		.uleb128 0x2
 7087 2ff7 75       		.byte	0x75
 7088 2ff8 00       		.sleb128 0
 7089 2ff9 22       		.uleb128 0x22
 7090 2ffa 01       		.uleb128 0x1
 7091 2ffb 51       		.byte	0x51
 7092 2ffc 02       		.uleb128 0x2
 7093 2ffd 7D       		.byte	0x7d
 7094 2ffe 00       		.sleb128 0
 7095 2fff 00       		.byte	0
 7096 3000 00       		.byte	0
 7097 3001 00       		.byte	0
 7098 3002 2C       		.uleb128 0x2c
 7099 3003 9D120000 		.4byte	0x129d
 7100 3007 A2000000 		.4byte	.LBB593
 7101 300b 08000000 		.4byte	.LBE593-.LBB593
 7102 300f 01       		.byte	0x1
 7103 3010 6601     		.2byte	0x166
 7104 3012 5C300000 		.4byte	0x305c
 7105 3016 2A       		.uleb128 0x2a
 7106 3017 AA120000 		.4byte	0x12aa
 7107 301b 0F210000 		.4byte	.LLST410
 7108 301f 2D       		.uleb128 0x2d
 7109 3020 1A2E0000 		.4byte	0x2e1a
 7110 3024 A2000000 		.4byte	.LBB594
 7111 3028 08000000 		.4byte	.LBE594-.LBB594
 7112 302c 10       		.byte	0x10
 7113 302d BC01     		.2byte	0x1bc
 7114 302f 2A       		.uleb128 0x2a
 7115 3030 332E0000 		.4byte	0x2e33
 7116 3034 0F210000 		.4byte	.LLST410
 7117 3038 2A       		.uleb128 0x2a
 7118 3039 272E0000 		.4byte	0x2e27
 7119 303d 27210000 		.4byte	.LLST412
 7120 3041 21       		.uleb128 0x21
 7121 3042 AA000000 		.4byte	.LVL188
 7122 3046 54330000 		.4byte	0x3354
 7123 304a 22       		.uleb128 0x22
 7124 304b 01       		.uleb128 0x1
 7125 304c 50       		.byte	0x50
 7126 304d 02       		.uleb128 0x2
 7127 304e 75       		.byte	0x75
 7128 304f 00       		.sleb128 0
 7129 3050 22       		.uleb128 0x22
ARM GAS  C:\Users\Angel\AppData\Local\Temp\ccvqOPgy.s 			page 196


 7130 3051 01       		.uleb128 0x1
 7131 3052 51       		.byte	0x51
 7132 3053 05       		.uleb128 0x5
 7133 3054 03       		.byte	0x3
 7134 3055 6C000000 		.4byte	.LC8
 7135 3059 00       		.byte	0
 7136 305a 00       		.byte	0
 7137 305b 00       		.byte	0
 7138 305c 24       		.uleb128 0x24
 7139 305d 52000000 		.4byte	.LVL178
 7140 3061 EF200000 		.4byte	0x20ef
 7141 3065 70300000 		.4byte	0x3070
 7142 3069 22       		.uleb128 0x22
 7143 306a 01       		.uleb128 0x1
 7144 306b 50       		.byte	0x50
 7145 306c 02       		.uleb128 0x2
 7146 306d 74       		.byte	0x74
 7147 306e 00       		.sleb128 0
 7148 306f 00       		.byte	0
 7149 3070 24       		.uleb128 0x24
 7150 3071 58000000 		.4byte	.LVL179
 7151 3075 5F330000 		.4byte	0x335f
 7152 3079 83300000 		.4byte	0x3083
 7153 307d 22       		.uleb128 0x22
 7154 307e 01       		.uleb128 0x1
 7155 307f 50       		.byte	0x50
 7156 3080 01       		.uleb128 0x1
 7157 3081 31       		.byte	0x31
 7158 3082 00       		.byte	0
 7159 3083 20       		.uleb128 0x20
 7160 3084 5C000000 		.4byte	.LVL180
 7161 3088 6B330000 		.4byte	0x336b
 7162 308c 24       		.uleb128 0x24
 7163 308d 62000000 		.4byte	.LVL181
 7164 3091 76330000 		.4byte	0x3376
 7165 3095 9F300000 		.4byte	0x309f
 7166 3099 22       		.uleb128 0x22
 7167 309a 01       		.uleb128 0x1
 7168 309b 50       		.byte	0x50
 7169 309c 01       		.uleb128 0x1
 7170 309d 31       		.byte	0x31
 7171 309e 00       		.byte	0
 7172 309f 24       		.uleb128 0x24
 7173 30a0 90000000 		.4byte	.LVL185
 7174 30a4 81330000 		.4byte	0x3381
 7175 30a8 BC300000 		.4byte	0x30bc
 7176 30ac 22       		.uleb128 0x22
 7177 30ad 01       		.uleb128 0x1
 7178 30ae 50       		.byte	0x50
 7179 30af 02       		.uleb128 0x2
 7180 30b0 7D       		.byte	0x7d
 7181 30b1 00       		.sleb128 0
 7182 30b2 22       		.uleb128 0x22
 7183 30b3 01       		.uleb128 0x1
 7184 30b4 51       		.byte	0x51
 7185 30b5 05       		.uleb128 0x5
 7186 30b6 03       		.byte	0x3
ARM GAS  C:\Users\Angel\AppData\Local\Temp\ccvqOPgy.s 			page 197


 7187 30b7 64000000 		.4byte	.LC6
 7188 30bb 00       		.byte	0
 7189 30bc 21       		.uleb128 0x21
 7190 30bd 98000000 		.4byte	.LVL186
 7191 30c1 8C330000 		.4byte	0x338c
 7192 30c5 22       		.uleb128 0x22
 7193 30c6 01       		.uleb128 0x1
 7194 30c7 50       		.byte	0x50
 7195 30c8 05       		.uleb128 0x5
 7196 30c9 03       		.byte	0x3
 7197 30ca 68000000 		.4byte	.LC7
 7198 30ce 22       		.uleb128 0x22
 7199 30cf 01       		.uleb128 0x1
 7200 30d0 51       		.byte	0x51
 7201 30d1 02       		.uleb128 0x2
 7202 30d2 7D       		.byte	0x7d
 7203 30d3 00       		.sleb128 0
 7204 30d4 00       		.byte	0
 7205 30d5 00       		.byte	0
 7206 30d6 2C       		.uleb128 0x2c
 7207 30d7 9D120000 		.4byte	0x129d
 7208 30db B6000000 		.4byte	.LBB596
 7209 30df 08000000 		.4byte	.LBE596-.LBB596
 7210 30e3 01       		.byte	0x1
 7211 30e4 6A01     		.2byte	0x16a
 7212 30e6 33310000 		.4byte	0x3133
 7213 30ea 2A       		.uleb128 0x2a
 7214 30eb AA120000 		.4byte	0x12aa
 7215 30ef 3F210000 		.4byte	.LLST413
 7216 30f3 2D       		.uleb128 0x2d
 7217 30f4 1A2E0000 		.4byte	0x2e1a
 7218 30f8 B6000000 		.4byte	.LBB597
 7219 30fc 08000000 		.4byte	.LBE597-.LBB597
 7220 3100 10       		.byte	0x10
 7221 3101 BC01     		.2byte	0x1bc
 7222 3103 2A       		.uleb128 0x2a
 7223 3104 332E0000 		.4byte	0x2e33
 7224 3108 3F210000 		.4byte	.LLST413
 7225 310c 2A       		.uleb128 0x2a
 7226 310d 272E0000 		.4byte	0x2e27
 7227 3111 57210000 		.4byte	.LLST415
 7228 3115 21       		.uleb128 0x21
 7229 3116 BE000000 		.4byte	.LVL192
 7230 311a 54330000 		.4byte	0x3354
 7231 311e 22       		.uleb128 0x22
 7232 311f 01       		.uleb128 0x1
 7233 3120 50       		.byte	0x50
 7234 3121 05       		.uleb128 0x5
 7235 3122 0C       		.byte	0xc
 7236 3123 00006640 		.4byte	0x40660000
 7237 3127 22       		.uleb128 0x22
 7238 3128 01       		.uleb128 0x1
 7239 3129 51       		.byte	0x51
 7240 312a 05       		.uleb128 0x5
 7241 312b 03       		.byte	0x3
 7242 312c 70000000 		.4byte	.LC9
 7243 3130 00       		.byte	0
ARM GAS  C:\Users\Angel\AppData\Local\Temp\ccvqOPgy.s 			page 198


 7244 3131 00       		.byte	0
 7245 3132 00       		.byte	0
 7246 3133 20       		.uleb128 0x20
 7247 3134 32000000 		.4byte	.LVL172
 7248 3138 E4320000 		.4byte	0x32e4
 7249 313c 24       		.uleb128 0x24
 7250 313d 38000000 		.4byte	.LVL173
 7251 3141 05330000 		.4byte	0x3305
 7252 3145 53310000 		.4byte	0x3153
 7253 3149 22       		.uleb128 0x22
 7254 314a 01       		.uleb128 0x1
 7255 314b 50       		.byte	0x50
 7256 314c 05       		.uleb128 0x5
 7257 314d 03       		.byte	0x3
 7258 314e 30000000 		.4byte	.LC4
 7259 3152 00       		.byte	0
 7260 3153 24       		.uleb128 0x24
 7261 3154 42000000 		.4byte	.LVL175
 7262 3158 11150000 		.4byte	0x1511
 7263 315c 67310000 		.4byte	0x3167
 7264 3160 22       		.uleb128 0x22
 7265 3161 01       		.uleb128 0x1
 7266 3162 50       		.byte	0x50
 7267 3163 02       		.uleb128 0x2
 7268 3164 76       		.byte	0x76
 7269 3165 00       		.sleb128 0
 7270 3166 00       		.byte	0
 7271 3167 24       		.uleb128 0x24
 7272 3168 48000000 		.4byte	.LVL176
 7273 316c 5F330000 		.4byte	0x335f
 7274 3170 7A310000 		.4byte	0x317a
 7275 3174 22       		.uleb128 0x22
 7276 3175 01       		.uleb128 0x1
 7277 3176 50       		.byte	0x50
 7278 3177 01       		.uleb128 0x1
 7279 3178 31       		.byte	0x31
 7280 3179 00       		.byte	0
 7281 317a 20       		.uleb128 0x20
 7282 317b C2000000 		.4byte	.LVL193
 7283 317f E4320000 		.4byte	0x32e4
 7284 3183 24       		.uleb128 0x24
 7285 3184 C8000000 		.4byte	.LVL194
 7286 3188 05330000 		.4byte	0x3305
 7287 318c 9A310000 		.4byte	0x319a
 7288 3190 22       		.uleb128 0x22
 7289 3191 01       		.uleb128 0x1
 7290 3192 50       		.byte	0x50
 7291 3193 05       		.uleb128 0x5
 7292 3194 03       		.byte	0x3
 7293 3195 74000000 		.4byte	.LC10
 7294 3199 00       		.byte	0
 7295 319a 21       		.uleb128 0x21
 7296 319b CE000000 		.4byte	.LVL195
 7297 319f 5F330000 		.4byte	0x335f
 7298 31a3 22       		.uleb128 0x22
 7299 31a4 01       		.uleb128 0x1
 7300 31a5 50       		.byte	0x50
ARM GAS  C:\Users\Angel\AppData\Local\Temp\ccvqOPgy.s 			page 199


 7301 31a6 02       		.uleb128 0x2
 7302 31a7 08       		.byte	0x8
 7303 31a8 64       		.byte	0x64
 7304 31a9 00       		.byte	0
 7305 31aa 00       		.byte	0
 7306 31ab 24       		.uleb128 0x24
 7307 31ac 0C000000 		.4byte	.LVL165
 7308 31b0 97330000 		.4byte	0x3397
 7309 31b4 BE310000 		.4byte	0x31be
 7310 31b8 22       		.uleb128 0x22
 7311 31b9 01       		.uleb128 0x1
 7312 31ba 50       		.byte	0x50
 7313 31bb 01       		.uleb128 0x1
 7314 31bc 32       		.byte	0x32
 7315 31bd 00       		.byte	0
 7316 31be 20       		.uleb128 0x20
 7317 31bf 10000000 		.4byte	.LVL166
 7318 31c3 A2330000 		.4byte	0x33a2
 7319 31c7 20       		.uleb128 0x20
 7320 31c8 14000000 		.4byte	.LVL167
 7321 31cc AD330000 		.4byte	0x33ad
 7322 31d0 20       		.uleb128 0x20
 7323 31d1 18000000 		.4byte	.LVL168
 7324 31d5 B8330000 		.4byte	0x33b8
 7325 31d9 20       		.uleb128 0x20
 7326 31da 1C000000 		.4byte	.LVL169
 7327 31de 6B330000 		.4byte	0x336b
 7328 31e2 21       		.uleb128 0x21
 7329 31e3 2C000000 		.4byte	.LVL171
 7330 31e7 05330000 		.4byte	0x3305
 7331 31eb 22       		.uleb128 0x22
 7332 31ec 01       		.uleb128 0x1
 7333 31ed 50       		.byte	0x50
 7334 31ee 05       		.uleb128 0x5
 7335 31ef 03       		.byte	0x3
 7336 31f0 1C000000 		.4byte	.LC3
 7337 31f4 00       		.byte	0
 7338 31f5 00       		.byte	0
 7339 31f6 07       		.uleb128 0x7
 7340 31f7 3B0F0000 		.4byte	0xf3b
 7341 31fb 06320000 		.4byte	0x3206
 7342 31ff 08       		.uleb128 0x8
 7343 3200 D9000000 		.4byte	0xd9
 7344 3204 1F       		.byte	0x1f
 7345 3205 00       		.byte	0
 7346 3206 07       		.uleb128 0x7
 7347 3207 3B0F0000 		.4byte	0xf3b
 7348 320b 16320000 		.4byte	0x3216
 7349 320f 08       		.uleb128 0x8
 7350 3210 D9000000 		.4byte	0xd9
 7351 3214 0F       		.byte	0xf
 7352 3215 00       		.byte	0
 7353 3216 37       		.uleb128 0x37
 7354 3217 23070000 		.4byte	.LASF321
 7355 321b 11       		.byte	0x11
 7356 321c F907     		.2byte	0x7f9
 7357 321e 22320000 		.4byte	0x3222
ARM GAS  C:\Users\Angel\AppData\Local\Temp\ccvqOPgy.s 			page 200


 7358 3222 05       		.uleb128 0x5
 7359 3223 C3000000 		.4byte	0xc3
 7360 3227 38       		.uleb128 0x38
 7361 3228 7C000000 		.4byte	.LASF322
 7362 322c 0C       		.byte	0xc
 7363 322d A7       		.byte	0xa7
 7364 322e 32320000 		.4byte	0x3232
 7365 3232 10       		.uleb128 0x10
 7366 3233 04       		.byte	0x4
 7367 3234 38320000 		.4byte	0x3238
 7368 3238 06       		.uleb128 0x6
 7369 3239 1D0F0000 		.4byte	0xf1d
 7370 323d 38       		.uleb128 0x38
 7371 323e D7100000 		.4byte	.LASF323
 7372 3242 10       		.byte	0x10
 7373 3243 87       		.byte	0x87
 7374 3244 55110000 		.4byte	0x1155
 7375 3248 37       		.uleb128 0x37
 7376 3249 950D0000 		.4byte	.LASF324
 7377 324d 04       		.byte	0x4
 7378 324e 6001     		.2byte	0x160
 7379 3250 CE000000 		.4byte	0xce
 7380 3254 07       		.uleb128 0x7
 7381 3255 64320000 		.4byte	0x3264
 7382 3259 64320000 		.4byte	0x3264
 7383 325d 08       		.uleb128 0x8
 7384 325e D9000000 		.4byte	0xd9
 7385 3262 00       		.byte	0
 7386 3263 00       		.byte	0
 7387 3264 06       		.uleb128 0x6
 7388 3265 B1110000 		.4byte	0x11b1
 7389 3269 37       		.uleb128 0x37
 7390 326a 500B0000 		.4byte	.LASF325
 7391 326e 04       		.byte	0x4
 7392 326f 6401     		.2byte	0x164
 7393 3271 75320000 		.4byte	0x3275
 7394 3275 06       		.uleb128 0x6
 7395 3276 54320000 		.4byte	0x3254
 7396 327a 07       		.uleb128 0x7
 7397 327b 3B0F0000 		.4byte	0xf3b
 7398 327f 85320000 		.4byte	0x3285
 7399 3283 39       		.uleb128 0x39
 7400 3284 00       		.byte	0
 7401 3285 3A       		.uleb128 0x3a
 7402 3286 73747200 		.ascii	"str\000"
 7403 328a 12       		.byte	0x12
 7404 328b 3D       		.byte	0x3d
 7405 328c 7A320000 		.4byte	0x327a
 7406 3290 07       		.uleb128 0x7
 7407 3291 94000000 		.4byte	0x94
 7408 3295 A0320000 		.4byte	0x32a0
 7409 3299 08       		.uleb128 0x8
 7410 329a D9000000 		.4byte	0xd9
 7411 329e 03       		.byte	0x3
 7412 329f 00       		.byte	0
 7413 32a0 3B       		.uleb128 0x3b
 7414 32a1 726F7700 		.ascii	"row\000"
ARM GAS  C:\Users\Angel\AppData\Local\Temp\ccvqOPgy.s 			page 201


 7415 32a5 01       		.byte	0x1
 7416 32a6 1B       		.byte	0x1b
 7417 32a7 90320000 		.4byte	0x3290
 7418 32ab 05       		.uleb128 0x5
 7419 32ac 03       		.byte	0x3
 7420 32ad 00000000 		.4byte	row
 7421 32b1 3C       		.uleb128 0x3c
 7422 32b2 C60D0000 		.4byte	.LASF326
 7423 32b6 01       		.byte	0x1
 7424 32b7 1C       		.byte	0x1c
 7425 32b8 90320000 		.4byte	0x3290
 7426 32bc 05       		.uleb128 0x5
 7427 32bd 03       		.byte	0x3
 7428 32be 00000000 		.4byte	column
 7429 32c2 07       		.uleb128 0x7
 7430 32c3 FE110000 		.4byte	0x11fe
 7431 32c7 D2320000 		.4byte	0x32d2
 7432 32cb 08       		.uleb128 0x8
 7433 32cc D9000000 		.4byte	0xd9
 7434 32d0 08       		.byte	0x8
 7435 32d1 00       		.byte	0
 7436 32d2 3D       		.uleb128 0x3d
 7437 32d3 25040000 		.4byte	.LASF327
 7438 32d7 01       		.byte	0x1
 7439 32d8 1201     		.2byte	0x112
 7440 32da C2320000 		.4byte	0x32c2
 7441 32de 05       		.uleb128 0x5
 7442 32df 03       		.byte	0x3
 7443 32e0 00000000 		.4byte	main_func_list
 7444 32e4 3E       		.uleb128 0x3e
 7445 32e5 4F060000 		.4byte	.LASF328
 7446 32e9 4F060000 		.4byte	.LASF328
 7447 32ed 13       		.byte	0x13
 7448 32ee 1A       		.byte	0x1a
 7449 32ef 3E       		.uleb128 0x3e
 7450 32f0 B2100000 		.4byte	.LASF329
 7451 32f4 B2100000 		.4byte	.LASF329
 7452 32f8 0F       		.byte	0xf
 7453 32f9 11       		.byte	0x11
 7454 32fa 3E       		.uleb128 0x3e
 7455 32fb EC110000 		.4byte	.LASF330
 7456 32ff EC110000 		.4byte	.LASF330
 7457 3303 14       		.byte	0x14
 7458 3304 BF       		.byte	0xbf
 7459 3305 3E       		.uleb128 0x3e
 7460 3306 CC0B0000 		.4byte	.LASF331
 7461 330a CC0B0000 		.4byte	.LASF331
 7462 330e 13       		.byte	0x13
 7463 330f 22       		.byte	0x22
 7464 3310 3E       		.uleb128 0x3e
 7465 3311 D3060000 		.4byte	.LASF332
 7466 3315 D3060000 		.4byte	.LASF332
 7467 3319 13       		.byte	0x13
 7468 331a 18       		.byte	0x18
 7469 331b 3E       		.uleb128 0x3e
 7470 331c BF090000 		.4byte	.LASF333
 7471 3320 BF090000 		.4byte	.LASF333
ARM GAS  C:\Users\Angel\AppData\Local\Temp\ccvqOPgy.s 			page 202


 7472 3324 13       		.byte	0x13
 7473 3325 1F       		.byte	0x1f
 7474 3326 3E       		.uleb128 0x3e
 7475 3327 CC050000 		.4byte	.LASF334
 7476 332b CC050000 		.4byte	.LASF334
 7477 332f 13       		.byte	0x13
 7478 3330 1E       		.byte	0x1e
 7479 3331 3E       		.uleb128 0x3e
 7480 3332 DC0C0000 		.4byte	.LASF335
 7481 3336 DC0C0000 		.4byte	.LASF335
 7482 333a 13       		.byte	0x13
 7483 333b 17       		.byte	0x17
 7484 333c 3F       		.uleb128 0x3f
 7485 333d 25080000 		.4byte	.LASF336
 7486 3341 25080000 		.4byte	.LASF336
 7487 3345 0D       		.byte	0xd
 7488 3346 9203     		.2byte	0x392
 7489 3348 3F       		.uleb128 0x3f
 7490 3349 0D0F0000 		.4byte	.LASF337
 7491 334d 0D0F0000 		.4byte	.LASF337
 7492 3351 0E       		.byte	0xe
 7493 3352 3605     		.2byte	0x536
 7494 3354 3E       		.uleb128 0x3e
 7495 3355 990A0000 		.4byte	.LASF338
 7496 3359 990A0000 		.4byte	.LASF338
 7497 335d 15       		.byte	0x15
 7498 335e EF       		.byte	0xef
 7499 335f 3F       		.uleb128 0x3f
 7500 3360 E5040000 		.4byte	.LASF339
 7501 3364 E5040000 		.4byte	.LASF339
 7502 3368 0D       		.byte	0xd
 7503 3369 8903     		.2byte	0x389
 7504 336b 3E       		.uleb128 0x3e
 7505 336c 46020000 		.4byte	.LASF340
 7506 3370 46020000 		.4byte	.LASF340
 7507 3374 04       		.byte	0x4
 7508 3375 5A       		.byte	0x5a
 7509 3376 3E       		.uleb128 0x3e
 7510 3377 E1010000 		.4byte	.LASF341
 7511 337b E1010000 		.4byte	.LASF341
 7512 337f 04       		.byte	0x4
 7513 3380 5E       		.byte	0x5e
 7514 3381 3E       		.uleb128 0x3e
 7515 3382 940B0000 		.4byte	.LASF342
 7516 3386 940B0000 		.4byte	.LASF342
 7517 338a 14       		.byte	0x14
 7518 338b E7       		.byte	0xe7
 7519 338c 3E       		.uleb128 0x3e
 7520 338d B8090000 		.4byte	.LASF343
 7521 3391 B8090000 		.4byte	.LASF343
 7522 3395 14       		.byte	0x14
 7523 3396 BB       		.byte	0xbb
 7524 3397 3E       		.uleb128 0x3e
 7525 3398 05100000 		.4byte	.LASF344
 7526 339c 05100000 		.4byte	.LASF344
 7527 33a0 12       		.byte	0x12
 7528 33a1 0F       		.byte	0xf
ARM GAS  C:\Users\Angel\AppData\Local\Temp\ccvqOPgy.s 			page 203


 7529 33a2 3E       		.uleb128 0x3e
 7530 33a3 C1070000 		.4byte	.LASF345
 7531 33a7 C1070000 		.4byte	.LASF345
 7532 33ab 13       		.byte	0x13
 7533 33ac 13       		.byte	0x13
 7534 33ad 3E       		.uleb128 0x3e
 7535 33ae 40010000 		.4byte	.LASF346
 7536 33b2 40010000 		.4byte	.LASF346
 7537 33b6 04       		.byte	0x4
 7538 33b7 50       		.byte	0x50
 7539 33b8 3E       		.uleb128 0x3e
 7540 33b9 C1060000 		.4byte	.LASF347
 7541 33bd C1060000 		.4byte	.LASF347
 7542 33c1 04       		.byte	0x4
 7543 33c2 57       		.byte	0x57
 7544 33c3 00       		.byte	0
 7545              		.section	.debug_abbrev,"",%progbits
 7546              	.Ldebug_abbrev0:
 7547 0000 01       		.uleb128 0x1
 7548 0001 11       		.uleb128 0x11
 7549 0002 01       		.byte	0x1
 7550 0003 25       		.uleb128 0x25
 7551 0004 0E       		.uleb128 0xe
 7552 0005 13       		.uleb128 0x13
 7553 0006 0B       		.uleb128 0xb
 7554 0007 03       		.uleb128 0x3
 7555 0008 0E       		.uleb128 0xe
 7556 0009 1B       		.uleb128 0x1b
 7557 000a 0E       		.uleb128 0xe
 7558 000b 55       		.uleb128 0x55
 7559 000c 17       		.uleb128 0x17
 7560 000d 11       		.uleb128 0x11
 7561 000e 01       		.uleb128 0x1
 7562 000f 10       		.uleb128 0x10
 7563 0010 17       		.uleb128 0x17
 7564 0011 00       		.byte	0
 7565 0012 00       		.byte	0
 7566 0013 02       		.uleb128 0x2
 7567 0014 24       		.uleb128 0x24
 7568 0015 00       		.byte	0
 7569 0016 0B       		.uleb128 0xb
 7570 0017 0B       		.uleb128 0xb
 7571 0018 3E       		.uleb128 0x3e
 7572 0019 0B       		.uleb128 0xb
 7573 001a 03       		.uleb128 0x3
 7574 001b 0E       		.uleb128 0xe
 7575 001c 00       		.byte	0
 7576 001d 00       		.byte	0
 7577 001e 03       		.uleb128 0x3
 7578 001f 16       		.uleb128 0x16
 7579 0020 00       		.byte	0
 7580 0021 03       		.uleb128 0x3
 7581 0022 0E       		.uleb128 0xe
 7582 0023 3A       		.uleb128 0x3a
 7583 0024 0B       		.uleb128 0xb
 7584 0025 3B       		.uleb128 0x3b
 7585 0026 0B       		.uleb128 0xb
ARM GAS  C:\Users\Angel\AppData\Local\Temp\ccvqOPgy.s 			page 204


 7586 0027 49       		.uleb128 0x49
 7587 0028 13       		.uleb128 0x13
 7588 0029 00       		.byte	0
 7589 002a 00       		.byte	0
 7590 002b 04       		.uleb128 0x4
 7591 002c 24       		.uleb128 0x24
 7592 002d 00       		.byte	0
 7593 002e 0B       		.uleb128 0xb
 7594 002f 0B       		.uleb128 0xb
 7595 0030 3E       		.uleb128 0x3e
 7596 0031 0B       		.uleb128 0xb
 7597 0032 03       		.uleb128 0x3
 7598 0033 08       		.uleb128 0x8
 7599 0034 00       		.byte	0
 7600 0035 00       		.byte	0
 7601 0036 05       		.uleb128 0x5
 7602 0037 35       		.uleb128 0x35
 7603 0038 00       		.byte	0
 7604 0039 49       		.uleb128 0x49
 7605 003a 13       		.uleb128 0x13
 7606 003b 00       		.byte	0
 7607 003c 00       		.byte	0
 7608 003d 06       		.uleb128 0x6
 7609 003e 26       		.uleb128 0x26
 7610 003f 00       		.byte	0
 7611 0040 49       		.uleb128 0x49
 7612 0041 13       		.uleb128 0x13
 7613 0042 00       		.byte	0
 7614 0043 00       		.byte	0
 7615 0044 07       		.uleb128 0x7
 7616 0045 01       		.uleb128 0x1
 7617 0046 01       		.byte	0x1
 7618 0047 49       		.uleb128 0x49
 7619 0048 13       		.uleb128 0x13
 7620 0049 01       		.uleb128 0x1
 7621 004a 13       		.uleb128 0x13
 7622 004b 00       		.byte	0
 7623 004c 00       		.byte	0
 7624 004d 08       		.uleb128 0x8
 7625 004e 21       		.uleb128 0x21
 7626 004f 00       		.byte	0
 7627 0050 49       		.uleb128 0x49
 7628 0051 13       		.uleb128 0x13
 7629 0052 2F       		.uleb128 0x2f
 7630 0053 0B       		.uleb128 0xb
 7631 0054 00       		.byte	0
 7632 0055 00       		.byte	0
 7633 0056 09       		.uleb128 0x9
 7634 0057 13       		.uleb128 0x13
 7635 0058 01       		.byte	0x1
 7636 0059 0B       		.uleb128 0xb
 7637 005a 0B       		.uleb128 0xb
 7638 005b 3A       		.uleb128 0x3a
 7639 005c 0B       		.uleb128 0xb
 7640 005d 3B       		.uleb128 0x3b
 7641 005e 0B       		.uleb128 0xb
 7642 005f 01       		.uleb128 0x1
ARM GAS  C:\Users\Angel\AppData\Local\Temp\ccvqOPgy.s 			page 205


 7643 0060 13       		.uleb128 0x13
 7644 0061 00       		.byte	0
 7645 0062 00       		.byte	0
 7646 0063 0A       		.uleb128 0xa
 7647 0064 0D       		.uleb128 0xd
 7648 0065 00       		.byte	0
 7649 0066 03       		.uleb128 0x3
 7650 0067 08       		.uleb128 0x8
 7651 0068 3A       		.uleb128 0x3a
 7652 0069 0B       		.uleb128 0xb
 7653 006a 3B       		.uleb128 0x3b
 7654 006b 0B       		.uleb128 0xb
 7655 006c 49       		.uleb128 0x49
 7656 006d 13       		.uleb128 0x13
 7657 006e 38       		.uleb128 0x38
 7658 006f 0B       		.uleb128 0xb
 7659 0070 00       		.byte	0
 7660 0071 00       		.byte	0
 7661 0072 0B       		.uleb128 0xb
 7662 0073 0D       		.uleb128 0xd
 7663 0074 00       		.byte	0
 7664 0075 03       		.uleb128 0x3
 7665 0076 0E       		.uleb128 0xe
 7666 0077 3A       		.uleb128 0x3a
 7667 0078 0B       		.uleb128 0xb
 7668 0079 3B       		.uleb128 0x3b
 7669 007a 0B       		.uleb128 0xb
 7670 007b 49       		.uleb128 0x49
 7671 007c 13       		.uleb128 0x13
 7672 007d 38       		.uleb128 0x38
 7673 007e 0B       		.uleb128 0xb
 7674 007f 00       		.byte	0
 7675 0080 00       		.byte	0
 7676 0081 0C       		.uleb128 0xc
 7677 0082 13       		.uleb128 0x13
 7678 0083 01       		.byte	0x1
 7679 0084 0B       		.uleb128 0xb
 7680 0085 05       		.uleb128 0x5
 7681 0086 3A       		.uleb128 0x3a
 7682 0087 0B       		.uleb128 0xb
 7683 0088 3B       		.uleb128 0x3b
 7684 0089 0B       		.uleb128 0xb
 7685 008a 01       		.uleb128 0x1
 7686 008b 13       		.uleb128 0x13
 7687 008c 00       		.byte	0
 7688 008d 00       		.byte	0
 7689 008e 0D       		.uleb128 0xd
 7690 008f 0D       		.uleb128 0xd
 7691 0090 00       		.byte	0
 7692 0091 03       		.uleb128 0x3
 7693 0092 0E       		.uleb128 0xe
 7694 0093 3A       		.uleb128 0x3a
 7695 0094 0B       		.uleb128 0xb
 7696 0095 3B       		.uleb128 0x3b
 7697 0096 0B       		.uleb128 0xb
 7698 0097 49       		.uleb128 0x49
 7699 0098 13       		.uleb128 0x13
ARM GAS  C:\Users\Angel\AppData\Local\Temp\ccvqOPgy.s 			page 206


 7700 0099 38       		.uleb128 0x38
 7701 009a 05       		.uleb128 0x5
 7702 009b 00       		.byte	0
 7703 009c 00       		.byte	0
 7704 009d 0E       		.uleb128 0xe
 7705 009e 21       		.uleb128 0x21
 7706 009f 00       		.byte	0
 7707 00a0 49       		.uleb128 0x49
 7708 00a1 13       		.uleb128 0x13
 7709 00a2 2F       		.uleb128 0x2f
 7710 00a3 05       		.uleb128 0x5
 7711 00a4 00       		.byte	0
 7712 00a5 00       		.byte	0
 7713 00a6 0F       		.uleb128 0xf
 7714 00a7 16       		.uleb128 0x16
 7715 00a8 00       		.byte	0
 7716 00a9 03       		.uleb128 0x3
 7717 00aa 0E       		.uleb128 0xe
 7718 00ab 3A       		.uleb128 0x3a
 7719 00ac 0B       		.uleb128 0xb
 7720 00ad 3B       		.uleb128 0x3b
 7721 00ae 05       		.uleb128 0x5
 7722 00af 49       		.uleb128 0x49
 7723 00b0 13       		.uleb128 0x13
 7724 00b1 00       		.byte	0
 7725 00b2 00       		.byte	0
 7726 00b3 10       		.uleb128 0x10
 7727 00b4 0F       		.uleb128 0xf
 7728 00b5 00       		.byte	0
 7729 00b6 0B       		.uleb128 0xb
 7730 00b7 0B       		.uleb128 0xb
 7731 00b8 49       		.uleb128 0x49
 7732 00b9 13       		.uleb128 0x13
 7733 00ba 00       		.byte	0
 7734 00bb 00       		.byte	0
 7735 00bc 11       		.uleb128 0x11
 7736 00bd 15       		.uleb128 0x15
 7737 00be 00       		.byte	0
 7738 00bf 27       		.uleb128 0x27
 7739 00c0 19       		.uleb128 0x19
 7740 00c1 00       		.byte	0
 7741 00c2 00       		.byte	0
 7742 00c3 12       		.uleb128 0x12
 7743 00c4 0F       		.uleb128 0xf
 7744 00c5 00       		.byte	0
 7745 00c6 0B       		.uleb128 0xb
 7746 00c7 0B       		.uleb128 0xb
 7747 00c8 00       		.byte	0
 7748 00c9 00       		.byte	0
 7749 00ca 13       		.uleb128 0x13
 7750 00cb 04       		.uleb128 0x4
 7751 00cc 01       		.byte	0x1
 7752 00cd 0B       		.uleb128 0xb
 7753 00ce 0B       		.uleb128 0xb
 7754 00cf 49       		.uleb128 0x49
 7755 00d0 13       		.uleb128 0x13
 7756 00d1 3A       		.uleb128 0x3a
ARM GAS  C:\Users\Angel\AppData\Local\Temp\ccvqOPgy.s 			page 207


 7757 00d2 0B       		.uleb128 0xb
 7758 00d3 3B       		.uleb128 0x3b
 7759 00d4 05       		.uleb128 0x5
 7760 00d5 01       		.uleb128 0x1
 7761 00d6 13       		.uleb128 0x13
 7762 00d7 00       		.byte	0
 7763 00d8 00       		.byte	0
 7764 00d9 14       		.uleb128 0x14
 7765 00da 28       		.uleb128 0x28
 7766 00db 00       		.byte	0
 7767 00dc 03       		.uleb128 0x3
 7768 00dd 0E       		.uleb128 0xe
 7769 00de 1C       		.uleb128 0x1c
 7770 00df 0B       		.uleb128 0xb
 7771 00e0 00       		.byte	0
 7772 00e1 00       		.byte	0
 7773 00e2 15       		.uleb128 0x15
 7774 00e3 13       		.uleb128 0x13
 7775 00e4 01       		.byte	0x1
 7776 00e5 0B       		.uleb128 0xb
 7777 00e6 0B       		.uleb128 0xb
 7778 00e7 3A       		.uleb128 0x3a
 7779 00e8 0B       		.uleb128 0xb
 7780 00e9 3B       		.uleb128 0x3b
 7781 00ea 05       		.uleb128 0x5
 7782 00eb 01       		.uleb128 0x1
 7783 00ec 13       		.uleb128 0x13
 7784 00ed 00       		.byte	0
 7785 00ee 00       		.byte	0
 7786 00ef 16       		.uleb128 0x16
 7787 00f0 0D       		.uleb128 0xd
 7788 00f1 00       		.byte	0
 7789 00f2 03       		.uleb128 0x3
 7790 00f3 0E       		.uleb128 0xe
 7791 00f4 3A       		.uleb128 0x3a
 7792 00f5 0B       		.uleb128 0xb
 7793 00f6 3B       		.uleb128 0x3b
 7794 00f7 05       		.uleb128 0x5
 7795 00f8 49       		.uleb128 0x49
 7796 00f9 13       		.uleb128 0x13
 7797 00fa 38       		.uleb128 0x38
 7798 00fb 0B       		.uleb128 0xb
 7799 00fc 00       		.byte	0
 7800 00fd 00       		.byte	0
 7801 00fe 17       		.uleb128 0x17
 7802 00ff 15       		.uleb128 0x15
 7803 0100 01       		.byte	0x1
 7804 0101 27       		.uleb128 0x27
 7805 0102 19       		.uleb128 0x19
 7806 0103 01       		.uleb128 0x1
 7807 0104 13       		.uleb128 0x13
 7808 0105 00       		.byte	0
 7809 0106 00       		.byte	0
 7810 0107 18       		.uleb128 0x18
 7811 0108 05       		.uleb128 0x5
 7812 0109 00       		.byte	0
 7813 010a 49       		.uleb128 0x49
ARM GAS  C:\Users\Angel\AppData\Local\Temp\ccvqOPgy.s 			page 208


 7814 010b 13       		.uleb128 0x13
 7815 010c 00       		.byte	0
 7816 010d 00       		.byte	0
 7817 010e 19       		.uleb128 0x19
 7818 010f 13       		.uleb128 0x13
 7819 0110 01       		.byte	0x1
 7820 0111 03       		.uleb128 0x3
 7821 0112 0E       		.uleb128 0xe
 7822 0113 0B       		.uleb128 0xb
 7823 0114 0B       		.uleb128 0xb
 7824 0115 3A       		.uleb128 0x3a
 7825 0116 0B       		.uleb128 0xb
 7826 0117 3B       		.uleb128 0x3b
 7827 0118 05       		.uleb128 0x5
 7828 0119 01       		.uleb128 0x1
 7829 011a 13       		.uleb128 0x13
 7830 011b 00       		.byte	0
 7831 011c 00       		.byte	0
 7832 011d 1A       		.uleb128 0x1a
 7833 011e 13       		.uleb128 0x13
 7834 011f 01       		.byte	0x1
 7835 0120 03       		.uleb128 0x3
 7836 0121 0E       		.uleb128 0xe
 7837 0122 0B       		.uleb128 0xb
 7838 0123 0B       		.uleb128 0xb
 7839 0124 3A       		.uleb128 0x3a
 7840 0125 0B       		.uleb128 0xb
 7841 0126 3B       		.uleb128 0x3b
 7842 0127 0B       		.uleb128 0xb
 7843 0128 01       		.uleb128 0x1
 7844 0129 13       		.uleb128 0x13
 7845 012a 00       		.byte	0
 7846 012b 00       		.byte	0
 7847 012c 1B       		.uleb128 0x1b
 7848 012d 2E       		.uleb128 0x2e
 7849 012e 01       		.byte	0x1
 7850 012f 03       		.uleb128 0x3
 7851 0130 0E       		.uleb128 0xe
 7852 0131 3A       		.uleb128 0x3a
 7853 0132 0B       		.uleb128 0xb
 7854 0133 3B       		.uleb128 0x3b
 7855 0134 05       		.uleb128 0x5
 7856 0135 27       		.uleb128 0x27
 7857 0136 19       		.uleb128 0x19
 7858 0137 20       		.uleb128 0x20
 7859 0138 0B       		.uleb128 0xb
 7860 0139 01       		.uleb128 0x1
 7861 013a 13       		.uleb128 0x13
 7862 013b 00       		.byte	0
 7863 013c 00       		.byte	0
 7864 013d 1C       		.uleb128 0x1c
 7865 013e 05       		.uleb128 0x5
 7866 013f 00       		.byte	0
 7867 0140 03       		.uleb128 0x3
 7868 0141 0E       		.uleb128 0xe
 7869 0142 3A       		.uleb128 0x3a
 7870 0143 0B       		.uleb128 0xb
ARM GAS  C:\Users\Angel\AppData\Local\Temp\ccvqOPgy.s 			page 209


 7871 0144 3B       		.uleb128 0x3b
 7872 0145 05       		.uleb128 0x5
 7873 0146 49       		.uleb128 0x49
 7874 0147 13       		.uleb128 0x13
 7875 0148 00       		.byte	0
 7876 0149 00       		.byte	0
 7877 014a 1D       		.uleb128 0x1d
 7878 014b 2E       		.uleb128 0x2e
 7879 014c 01       		.byte	0x1
 7880 014d 03       		.uleb128 0x3
 7881 014e 0E       		.uleb128 0xe
 7882 014f 3A       		.uleb128 0x3a
 7883 0150 0B       		.uleb128 0xb
 7884 0151 3B       		.uleb128 0x3b
 7885 0152 05       		.uleb128 0x5
 7886 0153 27       		.uleb128 0x27
 7887 0154 19       		.uleb128 0x19
 7888 0155 49       		.uleb128 0x49
 7889 0156 13       		.uleb128 0x13
 7890 0157 20       		.uleb128 0x20
 7891 0158 0B       		.uleb128 0xb
 7892 0159 01       		.uleb128 0x1
 7893 015a 13       		.uleb128 0x13
 7894 015b 00       		.byte	0
 7895 015c 00       		.byte	0
 7896 015d 1E       		.uleb128 0x1e
 7897 015e 2E       		.uleb128 0x2e
 7898 015f 00       		.byte	0
 7899 0160 03       		.uleb128 0x3
 7900 0161 0E       		.uleb128 0xe
 7901 0162 3A       		.uleb128 0x3a
 7902 0163 0B       		.uleb128 0xb
 7903 0164 3B       		.uleb128 0x3b
 7904 0165 0B       		.uleb128 0xb
 7905 0166 27       		.uleb128 0x27
 7906 0167 19       		.uleb128 0x19
 7907 0168 20       		.uleb128 0x20
 7908 0169 0B       		.uleb128 0xb
 7909 016a 00       		.byte	0
 7910 016b 00       		.byte	0
 7911 016c 1F       		.uleb128 0x1f
 7912 016d 2E       		.uleb128 0x2e
 7913 016e 01       		.byte	0x1
 7914 016f 3F       		.uleb128 0x3f
 7915 0170 19       		.uleb128 0x19
 7916 0171 03       		.uleb128 0x3
 7917 0172 0E       		.uleb128 0xe
 7918 0173 3A       		.uleb128 0x3a
 7919 0174 0B       		.uleb128 0xb
 7920 0175 3B       		.uleb128 0x3b
 7921 0176 05       		.uleb128 0x5
 7922 0177 27       		.uleb128 0x27
 7923 0178 19       		.uleb128 0x19
 7924 0179 11       		.uleb128 0x11
 7925 017a 01       		.uleb128 0x1
 7926 017b 12       		.uleb128 0x12
 7927 017c 06       		.uleb128 0x6
ARM GAS  C:\Users\Angel\AppData\Local\Temp\ccvqOPgy.s 			page 210


 7928 017d 40       		.uleb128 0x40
 7929 017e 18       		.uleb128 0x18
 7930 017f 9742     		.uleb128 0x2117
 7931 0181 19       		.uleb128 0x19
 7932 0182 01       		.uleb128 0x1
 7933 0183 13       		.uleb128 0x13
 7934 0184 00       		.byte	0
 7935 0185 00       		.byte	0
 7936 0186 20       		.uleb128 0x20
 7937 0187 898201   		.uleb128 0x4109
 7938 018a 00       		.byte	0
 7939 018b 11       		.uleb128 0x11
 7940 018c 01       		.uleb128 0x1
 7941 018d 31       		.uleb128 0x31
 7942 018e 13       		.uleb128 0x13
 7943 018f 00       		.byte	0
 7944 0190 00       		.byte	0
 7945 0191 21       		.uleb128 0x21
 7946 0192 898201   		.uleb128 0x4109
 7947 0195 01       		.byte	0x1
 7948 0196 11       		.uleb128 0x11
 7949 0197 01       		.uleb128 0x1
 7950 0198 31       		.uleb128 0x31
 7951 0199 13       		.uleb128 0x13
 7952 019a 00       		.byte	0
 7953 019b 00       		.byte	0
 7954 019c 22       		.uleb128 0x22
 7955 019d 8A8201   		.uleb128 0x410a
 7956 01a0 00       		.byte	0
 7957 01a1 02       		.uleb128 0x2
 7958 01a2 18       		.uleb128 0x18
 7959 01a3 9142     		.uleb128 0x2111
 7960 01a5 18       		.uleb128 0x18
 7961 01a6 00       		.byte	0
 7962 01a7 00       		.byte	0
 7963 01a8 23       		.uleb128 0x23
 7964 01a9 34       		.uleb128 0x34
 7965 01aa 00       		.byte	0
 7966 01ab 03       		.uleb128 0x3
 7967 01ac 08       		.uleb128 0x8
 7968 01ad 3A       		.uleb128 0x3a
 7969 01ae 0B       		.uleb128 0xb
 7970 01af 3B       		.uleb128 0x3b
 7971 01b0 05       		.uleb128 0x5
 7972 01b1 49       		.uleb128 0x49
 7973 01b2 13       		.uleb128 0x13
 7974 01b3 02       		.uleb128 0x2
 7975 01b4 18       		.uleb128 0x18
 7976 01b5 00       		.byte	0
 7977 01b6 00       		.byte	0
 7978 01b7 24       		.uleb128 0x24
 7979 01b8 898201   		.uleb128 0x4109
 7980 01bb 01       		.byte	0x1
 7981 01bc 11       		.uleb128 0x11
 7982 01bd 01       		.uleb128 0x1
 7983 01be 31       		.uleb128 0x31
 7984 01bf 13       		.uleb128 0x13
ARM GAS  C:\Users\Angel\AppData\Local\Temp\ccvqOPgy.s 			page 211


 7985 01c0 01       		.uleb128 0x1
 7986 01c1 13       		.uleb128 0x13
 7987 01c2 00       		.byte	0
 7988 01c3 00       		.byte	0
 7989 01c4 25       		.uleb128 0x25
 7990 01c5 34       		.uleb128 0x34
 7991 01c6 00       		.byte	0
 7992 01c7 03       		.uleb128 0x3
 7993 01c8 0E       		.uleb128 0xe
 7994 01c9 3A       		.uleb128 0x3a
 7995 01ca 0B       		.uleb128 0xb
 7996 01cb 3B       		.uleb128 0x3b
 7997 01cc 05       		.uleb128 0x5
 7998 01cd 49       		.uleb128 0x49
 7999 01ce 13       		.uleb128 0x13
 8000 01cf 02       		.uleb128 0x2
 8001 01d0 18       		.uleb128 0x18
 8002 01d1 00       		.byte	0
 8003 01d2 00       		.byte	0
 8004 01d3 26       		.uleb128 0x26
 8005 01d4 34       		.uleb128 0x34
 8006 01d5 00       		.byte	0
 8007 01d6 03       		.uleb128 0x3
 8008 01d7 0E       		.uleb128 0xe
 8009 01d8 3A       		.uleb128 0x3a
 8010 01d9 0B       		.uleb128 0xb
 8011 01da 3B       		.uleb128 0x3b
 8012 01db 05       		.uleb128 0x5
 8013 01dc 49       		.uleb128 0x49
 8014 01dd 13       		.uleb128 0x13
 8015 01de 02       		.uleb128 0x2
 8016 01df 17       		.uleb128 0x17
 8017 01e0 00       		.byte	0
 8018 01e1 00       		.byte	0
 8019 01e2 27       		.uleb128 0x27
 8020 01e3 2E       		.uleb128 0x2e
 8021 01e4 01       		.byte	0x1
 8022 01e5 3F       		.uleb128 0x3f
 8023 01e6 19       		.uleb128 0x19
 8024 01e7 03       		.uleb128 0x3
 8025 01e8 0E       		.uleb128 0xe
 8026 01e9 3A       		.uleb128 0x3a
 8027 01ea 0B       		.uleb128 0xb
 8028 01eb 3B       		.uleb128 0x3b
 8029 01ec 0B       		.uleb128 0xb
 8030 01ed 27       		.uleb128 0x27
 8031 01ee 19       		.uleb128 0x19
 8032 01ef 11       		.uleb128 0x11
 8033 01f0 01       		.uleb128 0x1
 8034 01f1 12       		.uleb128 0x12
 8035 01f2 06       		.uleb128 0x6
 8036 01f3 40       		.uleb128 0x40
 8037 01f4 18       		.uleb128 0x18
 8038 01f5 9742     		.uleb128 0x2117
 8039 01f7 19       		.uleb128 0x19
 8040 01f8 01       		.uleb128 0x1
 8041 01f9 13       		.uleb128 0x13
ARM GAS  C:\Users\Angel\AppData\Local\Temp\ccvqOPgy.s 			page 212


 8042 01fa 00       		.byte	0
 8043 01fb 00       		.byte	0
 8044 01fc 28       		.uleb128 0x28
 8045 01fd 05       		.uleb128 0x5
 8046 01fe 00       		.byte	0
 8047 01ff 03       		.uleb128 0x3
 8048 0200 08       		.uleb128 0x8
 8049 0201 3A       		.uleb128 0x3a
 8050 0202 0B       		.uleb128 0xb
 8051 0203 3B       		.uleb128 0x3b
 8052 0204 0B       		.uleb128 0xb
 8053 0205 49       		.uleb128 0x49
 8054 0206 13       		.uleb128 0x13
 8055 0207 02       		.uleb128 0x2
 8056 0208 18       		.uleb128 0x18
 8057 0209 00       		.byte	0
 8058 020a 00       		.byte	0
 8059 020b 29       		.uleb128 0x29
 8060 020c 1D       		.uleb128 0x1d
 8061 020d 01       		.byte	0x1
 8062 020e 31       		.uleb128 0x31
 8063 020f 13       		.uleb128 0x13
 8064 0210 11       		.uleb128 0x11
 8065 0211 01       		.uleb128 0x1
 8066 0212 12       		.uleb128 0x12
 8067 0213 06       		.uleb128 0x6
 8068 0214 58       		.uleb128 0x58
 8069 0215 0B       		.uleb128 0xb
 8070 0216 59       		.uleb128 0x59
 8071 0217 0B       		.uleb128 0xb
 8072 0218 01       		.uleb128 0x1
 8073 0219 13       		.uleb128 0x13
 8074 021a 00       		.byte	0
 8075 021b 00       		.byte	0
 8076 021c 2A       		.uleb128 0x2a
 8077 021d 05       		.uleb128 0x5
 8078 021e 00       		.byte	0
 8079 021f 31       		.uleb128 0x31
 8080 0220 13       		.uleb128 0x13
 8081 0221 02       		.uleb128 0x2
 8082 0222 17       		.uleb128 0x17
 8083 0223 00       		.byte	0
 8084 0224 00       		.byte	0
 8085 0225 2B       		.uleb128 0x2b
 8086 0226 1D       		.uleb128 0x1d
 8087 0227 01       		.byte	0x1
 8088 0228 31       		.uleb128 0x31
 8089 0229 13       		.uleb128 0x13
 8090 022a 11       		.uleb128 0x11
 8091 022b 01       		.uleb128 0x1
 8092 022c 12       		.uleb128 0x12
 8093 022d 06       		.uleb128 0x6
 8094 022e 58       		.uleb128 0x58
 8095 022f 0B       		.uleb128 0xb
 8096 0230 59       		.uleb128 0x59
 8097 0231 0B       		.uleb128 0xb
 8098 0232 00       		.byte	0
ARM GAS  C:\Users\Angel\AppData\Local\Temp\ccvqOPgy.s 			page 213


 8099 0233 00       		.byte	0
 8100 0234 2C       		.uleb128 0x2c
 8101 0235 1D       		.uleb128 0x1d
 8102 0236 01       		.byte	0x1
 8103 0237 31       		.uleb128 0x31
 8104 0238 13       		.uleb128 0x13
 8105 0239 11       		.uleb128 0x11
 8106 023a 01       		.uleb128 0x1
 8107 023b 12       		.uleb128 0x12
 8108 023c 06       		.uleb128 0x6
 8109 023d 58       		.uleb128 0x58
 8110 023e 0B       		.uleb128 0xb
 8111 023f 59       		.uleb128 0x59
 8112 0240 05       		.uleb128 0x5
 8113 0241 01       		.uleb128 0x1
 8114 0242 13       		.uleb128 0x13
 8115 0243 00       		.byte	0
 8116 0244 00       		.byte	0
 8117 0245 2D       		.uleb128 0x2d
 8118 0246 1D       		.uleb128 0x1d
 8119 0247 01       		.byte	0x1
 8120 0248 31       		.uleb128 0x31
 8121 0249 13       		.uleb128 0x13
 8122 024a 11       		.uleb128 0x11
 8123 024b 01       		.uleb128 0x1
 8124 024c 12       		.uleb128 0x12
 8125 024d 06       		.uleb128 0x6
 8126 024e 58       		.uleb128 0x58
 8127 024f 0B       		.uleb128 0xb
 8128 0250 59       		.uleb128 0x59
 8129 0251 05       		.uleb128 0x5
 8130 0252 00       		.byte	0
 8131 0253 00       		.byte	0
 8132 0254 2E       		.uleb128 0x2e
 8133 0255 2E       		.uleb128 0x2e
 8134 0256 01       		.byte	0x1
 8135 0257 3F       		.uleb128 0x3f
 8136 0258 19       		.uleb128 0x19
 8137 0259 03       		.uleb128 0x3
 8138 025a 0E       		.uleb128 0xe
 8139 025b 3A       		.uleb128 0x3a
 8140 025c 0B       		.uleb128 0xb
 8141 025d 3B       		.uleb128 0x3b
 8142 025e 05       		.uleb128 0x5
 8143 025f 11       		.uleb128 0x11
 8144 0260 01       		.uleb128 0x1
 8145 0261 12       		.uleb128 0x12
 8146 0262 06       		.uleb128 0x6
 8147 0263 40       		.uleb128 0x40
 8148 0264 18       		.uleb128 0x18
 8149 0265 9742     		.uleb128 0x2117
 8150 0267 19       		.uleb128 0x19
 8151 0268 01       		.uleb128 0x1
 8152 0269 13       		.uleb128 0x13
 8153 026a 00       		.byte	0
 8154 026b 00       		.byte	0
 8155 026c 2F       		.uleb128 0x2f
ARM GAS  C:\Users\Angel\AppData\Local\Temp\ccvqOPgy.s 			page 214


 8156 026d 2E       		.uleb128 0x2e
 8157 026e 01       		.byte	0x1
 8158 026f 3F       		.uleb128 0x3f
 8159 0270 19       		.uleb128 0x19
 8160 0271 03       		.uleb128 0x3
 8161 0272 0E       		.uleb128 0xe
 8162 0273 3A       		.uleb128 0x3a
 8163 0274 0B       		.uleb128 0xb
 8164 0275 3B       		.uleb128 0x3b
 8165 0276 05       		.uleb128 0x5
 8166 0277 27       		.uleb128 0x27
 8167 0278 19       		.uleb128 0x19
 8168 0279 49       		.uleb128 0x49
 8169 027a 13       		.uleb128 0x13
 8170 027b 8701     		.uleb128 0x87
 8171 027d 19       		.uleb128 0x19
 8172 027e 11       		.uleb128 0x11
 8173 027f 01       		.uleb128 0x1
 8174 0280 12       		.uleb128 0x12
 8175 0281 06       		.uleb128 0x6
 8176 0282 40       		.uleb128 0x40
 8177 0283 18       		.uleb128 0x18
 8178 0284 9742     		.uleb128 0x2117
 8179 0286 19       		.uleb128 0x19
 8180 0287 01       		.uleb128 0x1
 8181 0288 13       		.uleb128 0x13
 8182 0289 00       		.byte	0
 8183 028a 00       		.byte	0
 8184 028b 30       		.uleb128 0x30
 8185 028c 34       		.uleb128 0x34
 8186 028d 00       		.byte	0
 8187 028e 03       		.uleb128 0x3
 8188 028f 0E       		.uleb128 0xe
 8189 0290 3A       		.uleb128 0x3a
 8190 0291 0B       		.uleb128 0xb
 8191 0292 3B       		.uleb128 0x3b
 8192 0293 05       		.uleb128 0x5
 8193 0294 49       		.uleb128 0x49
 8194 0295 13       		.uleb128 0x13
 8195 0296 00       		.byte	0
 8196 0297 00       		.byte	0
 8197 0298 31       		.uleb128 0x31
 8198 0299 34       		.uleb128 0x34
 8199 029a 00       		.byte	0
 8200 029b 03       		.uleb128 0x3
 8201 029c 08       		.uleb128 0x8
 8202 029d 3A       		.uleb128 0x3a
 8203 029e 0B       		.uleb128 0xb
 8204 029f 3B       		.uleb128 0x3b
 8205 02a0 05       		.uleb128 0x5
 8206 02a1 49       		.uleb128 0x49
 8207 02a2 13       		.uleb128 0x13
 8208 02a3 00       		.byte	0
 8209 02a4 00       		.byte	0
 8210 02a5 32       		.uleb128 0x32
 8211 02a6 34       		.uleb128 0x34
 8212 02a7 00       		.byte	0
ARM GAS  C:\Users\Angel\AppData\Local\Temp\ccvqOPgy.s 			page 215


 8213 02a8 03       		.uleb128 0x3
 8214 02a9 0E       		.uleb128 0xe
 8215 02aa 3A       		.uleb128 0x3a
 8216 02ab 0B       		.uleb128 0xb
 8217 02ac 3B       		.uleb128 0x3b
 8218 02ad 05       		.uleb128 0x5
 8219 02ae 49       		.uleb128 0x49
 8220 02af 13       		.uleb128 0x13
 8221 02b0 1C       		.uleb128 0x1c
 8222 02b1 0B       		.uleb128 0xb
 8223 02b2 00       		.byte	0
 8224 02b3 00       		.byte	0
 8225 02b4 33       		.uleb128 0x33
 8226 02b5 34       		.uleb128 0x34
 8227 02b6 00       		.byte	0
 8228 02b7 03       		.uleb128 0x3
 8229 02b8 0E       		.uleb128 0xe
 8230 02b9 3A       		.uleb128 0x3a
 8231 02ba 0B       		.uleb128 0xb
 8232 02bb 3B       		.uleb128 0x3b
 8233 02bc 05       		.uleb128 0x5
 8234 02bd 49       		.uleb128 0x49
 8235 02be 13       		.uleb128 0x13
 8236 02bf 1C       		.uleb128 0x1c
 8237 02c0 06       		.uleb128 0x6
 8238 02c1 00       		.byte	0
 8239 02c2 00       		.byte	0
 8240 02c3 34       		.uleb128 0x34
 8241 02c4 1D       		.uleb128 0x1d
 8242 02c5 00       		.byte	0
 8243 02c6 31       		.uleb128 0x31
 8244 02c7 13       		.uleb128 0x13
 8245 02c8 11       		.uleb128 0x11
 8246 02c9 01       		.uleb128 0x1
 8247 02ca 12       		.uleb128 0x12
 8248 02cb 06       		.uleb128 0x6
 8249 02cc 58       		.uleb128 0x58
 8250 02cd 0B       		.uleb128 0xb
 8251 02ce 59       		.uleb128 0x59
 8252 02cf 05       		.uleb128 0x5
 8253 02d0 00       		.byte	0
 8254 02d1 00       		.byte	0
 8255 02d2 35       		.uleb128 0x35
 8256 02d3 0B       		.uleb128 0xb
 8257 02d4 01       		.byte	0x1
 8258 02d5 11       		.uleb128 0x11
 8259 02d6 01       		.uleb128 0x1
 8260 02d7 12       		.uleb128 0x12
 8261 02d8 06       		.uleb128 0x6
 8262 02d9 01       		.uleb128 0x1
 8263 02da 13       		.uleb128 0x13
 8264 02db 00       		.byte	0
 8265 02dc 00       		.byte	0
 8266 02dd 36       		.uleb128 0x36
 8267 02de 34       		.uleb128 0x34
 8268 02df 00       		.byte	0
 8269 02e0 03       		.uleb128 0x3
ARM GAS  C:\Users\Angel\AppData\Local\Temp\ccvqOPgy.s 			page 216


 8270 02e1 08       		.uleb128 0x8
 8271 02e2 3A       		.uleb128 0x3a
 8272 02e3 0B       		.uleb128 0xb
 8273 02e4 3B       		.uleb128 0x3b
 8274 02e5 05       		.uleb128 0x5
 8275 02e6 49       		.uleb128 0x49
 8276 02e7 13       		.uleb128 0x13
 8277 02e8 02       		.uleb128 0x2
 8278 02e9 17       		.uleb128 0x17
 8279 02ea 00       		.byte	0
 8280 02eb 00       		.byte	0
 8281 02ec 37       		.uleb128 0x37
 8282 02ed 34       		.uleb128 0x34
 8283 02ee 00       		.byte	0
 8284 02ef 03       		.uleb128 0x3
 8285 02f0 0E       		.uleb128 0xe
 8286 02f1 3A       		.uleb128 0x3a
 8287 02f2 0B       		.uleb128 0xb
 8288 02f3 3B       		.uleb128 0x3b
 8289 02f4 05       		.uleb128 0x5
 8290 02f5 49       		.uleb128 0x49
 8291 02f6 13       		.uleb128 0x13
 8292 02f7 3F       		.uleb128 0x3f
 8293 02f8 19       		.uleb128 0x19
 8294 02f9 3C       		.uleb128 0x3c
 8295 02fa 19       		.uleb128 0x19
 8296 02fb 00       		.byte	0
 8297 02fc 00       		.byte	0
 8298 02fd 38       		.uleb128 0x38
 8299 02fe 34       		.uleb128 0x34
 8300 02ff 00       		.byte	0
 8301 0300 03       		.uleb128 0x3
 8302 0301 0E       		.uleb128 0xe
 8303 0302 3A       		.uleb128 0x3a
 8304 0303 0B       		.uleb128 0xb
 8305 0304 3B       		.uleb128 0x3b
 8306 0305 0B       		.uleb128 0xb
 8307 0306 49       		.uleb128 0x49
 8308 0307 13       		.uleb128 0x13
 8309 0308 3F       		.uleb128 0x3f
 8310 0309 19       		.uleb128 0x19
 8311 030a 3C       		.uleb128 0x3c
 8312 030b 19       		.uleb128 0x19
 8313 030c 00       		.byte	0
 8314 030d 00       		.byte	0
 8315 030e 39       		.uleb128 0x39
 8316 030f 21       		.uleb128 0x21
 8317 0310 00       		.byte	0
 8318 0311 00       		.byte	0
 8319 0312 00       		.byte	0
 8320 0313 3A       		.uleb128 0x3a
 8321 0314 34       		.uleb128 0x34
 8322 0315 00       		.byte	0
 8323 0316 03       		.uleb128 0x3
 8324 0317 08       		.uleb128 0x8
 8325 0318 3A       		.uleb128 0x3a
 8326 0319 0B       		.uleb128 0xb
ARM GAS  C:\Users\Angel\AppData\Local\Temp\ccvqOPgy.s 			page 217


 8327 031a 3B       		.uleb128 0x3b
 8328 031b 0B       		.uleb128 0xb
 8329 031c 49       		.uleb128 0x49
 8330 031d 13       		.uleb128 0x13
 8331 031e 3F       		.uleb128 0x3f
 8332 031f 19       		.uleb128 0x19
 8333 0320 3C       		.uleb128 0x3c
 8334 0321 19       		.uleb128 0x19
 8335 0322 00       		.byte	0
 8336 0323 00       		.byte	0
 8337 0324 3B       		.uleb128 0x3b
 8338 0325 34       		.uleb128 0x34
 8339 0326 00       		.byte	0
 8340 0327 03       		.uleb128 0x3
 8341 0328 08       		.uleb128 0x8
 8342 0329 3A       		.uleb128 0x3a
 8343 032a 0B       		.uleb128 0xb
 8344 032b 3B       		.uleb128 0x3b
 8345 032c 0B       		.uleb128 0xb
 8346 032d 49       		.uleb128 0x49
 8347 032e 13       		.uleb128 0x13
 8348 032f 3F       		.uleb128 0x3f
 8349 0330 19       		.uleb128 0x19
 8350 0331 02       		.uleb128 0x2
 8351 0332 18       		.uleb128 0x18
 8352 0333 00       		.byte	0
 8353 0334 00       		.byte	0
 8354 0335 3C       		.uleb128 0x3c
 8355 0336 34       		.uleb128 0x34
 8356 0337 00       		.byte	0
 8357 0338 03       		.uleb128 0x3
 8358 0339 0E       		.uleb128 0xe
 8359 033a 3A       		.uleb128 0x3a
 8360 033b 0B       		.uleb128 0xb
 8361 033c 3B       		.uleb128 0x3b
 8362 033d 0B       		.uleb128 0xb
 8363 033e 49       		.uleb128 0x49
 8364 033f 13       		.uleb128 0x13
 8365 0340 3F       		.uleb128 0x3f
 8366 0341 19       		.uleb128 0x19
 8367 0342 02       		.uleb128 0x2
 8368 0343 18       		.uleb128 0x18
 8369 0344 00       		.byte	0
 8370 0345 00       		.byte	0
 8371 0346 3D       		.uleb128 0x3d
 8372 0347 34       		.uleb128 0x34
 8373 0348 00       		.byte	0
 8374 0349 03       		.uleb128 0x3
 8375 034a 0E       		.uleb128 0xe
 8376 034b 3A       		.uleb128 0x3a
 8377 034c 0B       		.uleb128 0xb
 8378 034d 3B       		.uleb128 0x3b
 8379 034e 05       		.uleb128 0x5
 8380 034f 49       		.uleb128 0x49
 8381 0350 13       		.uleb128 0x13
 8382 0351 3F       		.uleb128 0x3f
 8383 0352 19       		.uleb128 0x19
ARM GAS  C:\Users\Angel\AppData\Local\Temp\ccvqOPgy.s 			page 218


 8384 0353 02       		.uleb128 0x2
 8385 0354 18       		.uleb128 0x18
 8386 0355 00       		.byte	0
 8387 0356 00       		.byte	0
 8388 0357 3E       		.uleb128 0x3e
 8389 0358 2E       		.uleb128 0x2e
 8390 0359 00       		.byte	0
 8391 035a 3F       		.uleb128 0x3f
 8392 035b 19       		.uleb128 0x19
 8393 035c 3C       		.uleb128 0x3c
 8394 035d 19       		.uleb128 0x19
 8395 035e 6E       		.uleb128 0x6e
 8396 035f 0E       		.uleb128 0xe
 8397 0360 03       		.uleb128 0x3
 8398 0361 0E       		.uleb128 0xe
 8399 0362 3A       		.uleb128 0x3a
 8400 0363 0B       		.uleb128 0xb
 8401 0364 3B       		.uleb128 0x3b
 8402 0365 0B       		.uleb128 0xb
 8403 0366 00       		.byte	0
 8404 0367 00       		.byte	0
 8405 0368 3F       		.uleb128 0x3f
 8406 0369 2E       		.uleb128 0x2e
 8407 036a 00       		.byte	0
 8408 036b 3F       		.uleb128 0x3f
 8409 036c 19       		.uleb128 0x19
 8410 036d 3C       		.uleb128 0x3c
 8411 036e 19       		.uleb128 0x19
 8412 036f 6E       		.uleb128 0x6e
 8413 0370 0E       		.uleb128 0xe
 8414 0371 03       		.uleb128 0x3
 8415 0372 0E       		.uleb128 0xe
 8416 0373 3A       		.uleb128 0x3a
 8417 0374 0B       		.uleb128 0xb
 8418 0375 3B       		.uleb128 0x3b
 8419 0376 05       		.uleb128 0x5
 8420 0377 00       		.byte	0
 8421 0378 00       		.byte	0
 8422 0379 00       		.byte	0
 8423              		.section	.debug_loc,"",%progbits
 8424              	.Ldebug_loc0:
 8425              	.LLST0:
 8426 0000 44000000 		.4byte	.LVL9
 8427 0004 46000000 		.4byte	.LVL10
 8428 0008 0100     		.2byte	0x1
 8429 000a 50       		.byte	0x50
 8430 000b 46000000 		.4byte	.LVL10
 8431 000f 49000000 		.4byte	.LVL11-1
 8432 0013 0B00     		.2byte	0xb
 8433 0015 91       		.byte	0x91
 8434 0016 74       		.sleb128 -12
 8435 0017 06       		.byte	0x6
 8436 0018 31       		.byte	0x31
 8437 0019 1C       		.byte	0x1c
 8438 001a 36       		.byte	0x36
 8439 001b 24       		.byte	0x24
 8440 001c 73       		.byte	0x73
ARM GAS  C:\Users\Angel\AppData\Local\Temp\ccvqOPgy.s 			page 219


 8441 001d 00       		.sleb128 0
 8442 001e 22       		.byte	0x22
 8443 001f 9F       		.byte	0x9f
 8444 0020 00000000 		.4byte	0
 8445 0024 00000000 		.4byte	0
 8446              	.LLST1:
 8447 0028 1A000000 		.4byte	.LVL17
 8448 002c 20000000 		.4byte	.LVL18
 8449 0030 0200     		.2byte	0x2
 8450 0032 30       		.byte	0x30
 8451 0033 9F       		.byte	0x9f
 8452 0034 00000000 		.4byte	0
 8453 0038 00000000 		.4byte	0
 8454              	.LLST3:
 8455 003c 1A000000 		.4byte	.LVL17
 8456 0040 20000000 		.4byte	.LVL18
 8457 0044 0600     		.2byte	0x6
 8458 0046 0C       		.byte	0xc
 8459 0047 80043240 		.4byte	0x40320480
 8460 004b 9F       		.byte	0x9f
 8461 004c 00000000 		.4byte	0
 8462 0050 00000000 		.4byte	0
 8463              	.LLST4:
 8464 0054 20000000 		.4byte	.LVL18
 8465 0058 24000000 		.4byte	.LVL19
 8466 005c 0200     		.2byte	0x2
 8467 005e 30       		.byte	0x30
 8468 005f 9F       		.byte	0x9f
 8469 0060 00000000 		.4byte	0
 8470 0064 00000000 		.4byte	0
 8471              	.LLST5:
 8472 0068 20000000 		.4byte	.LVL18
 8473 006c 24000000 		.4byte	.LVL19
 8474 0070 0200     		.2byte	0x2
 8475 0072 31       		.byte	0x31
 8476 0073 9F       		.byte	0x9f
 8477 0074 00000000 		.4byte	0
 8478 0078 00000000 		.4byte	0
 8479              	.LLST6:
 8480 007c 20000000 		.4byte	.LVL18
 8481 0080 24000000 		.4byte	.LVL19
 8482 0084 0600     		.2byte	0x6
 8483 0086 0C       		.byte	0xc
 8484 0087 80043240 		.4byte	0x40320480
 8485 008b 9F       		.byte	0x9f
 8486 008c 00000000 		.4byte	0
 8487 0090 00000000 		.4byte	0
 8488              	.LLST7:
 8489 0094 24000000 		.4byte	.LVL19
 8490 0098 28000000 		.4byte	.LVL20
 8491 009c 0200     		.2byte	0x2
 8492 009e 30       		.byte	0x30
 8493 009f 9F       		.byte	0x9f
 8494 00a0 00000000 		.4byte	0
 8495 00a4 00000000 		.4byte	0
 8496              	.LLST8:
 8497 00a8 24000000 		.4byte	.LVL19
ARM GAS  C:\Users\Angel\AppData\Local\Temp\ccvqOPgy.s 			page 220


 8498 00ac 28000000 		.4byte	.LVL20
 8499 00b0 0200     		.2byte	0x2
 8500 00b2 32       		.byte	0x32
 8501 00b3 9F       		.byte	0x9f
 8502 00b4 00000000 		.4byte	0
 8503 00b8 00000000 		.4byte	0
 8504              	.LLST9:
 8505 00bc 24000000 		.4byte	.LVL19
 8506 00c0 28000000 		.4byte	.LVL20
 8507 00c4 0600     		.2byte	0x6
 8508 00c6 0C       		.byte	0xc
 8509 00c7 80043240 		.4byte	0x40320480
 8510 00cb 9F       		.byte	0x9f
 8511 00cc 00000000 		.4byte	0
 8512 00d0 00000000 		.4byte	0
 8513              	.LLST10:
 8514 00d4 28000000 		.4byte	.LVL20
 8515 00d8 2E000000 		.4byte	.LVL21
 8516 00dc 0200     		.2byte	0x2
 8517 00de 30       		.byte	0x30
 8518 00df 9F       		.byte	0x9f
 8519 00e0 00000000 		.4byte	0
 8520 00e4 00000000 		.4byte	0
 8521              	.LLST11:
 8522 00e8 28000000 		.4byte	.LVL20
 8523 00ec 2E000000 		.4byte	.LVL21
 8524 00f0 0200     		.2byte	0x2
 8525 00f2 33       		.byte	0x33
 8526 00f3 9F       		.byte	0x9f
 8527 00f4 00000000 		.4byte	0
 8528 00f8 00000000 		.4byte	0
 8529              	.LLST12:
 8530 00fc 28000000 		.4byte	.LVL20
 8531 0100 2E000000 		.4byte	.LVL21
 8532 0104 0600     		.2byte	0x6
 8533 0106 0C       		.byte	0xc
 8534 0107 80043240 		.4byte	0x40320480
 8535 010b 9F       		.byte	0x9f
 8536 010c 00000000 		.4byte	0
 8537 0110 00000000 		.4byte	0
 8538              	.LLST13:
 8539 0114 2E000000 		.4byte	.LVL21
 8540 0118 34000000 		.4byte	.LVL22
 8541 011c 0200     		.2byte	0x2
 8542 011e 31       		.byte	0x31
 8543 011f 9F       		.byte	0x9f
 8544 0120 00000000 		.4byte	0
 8545 0124 00000000 		.4byte	0
 8546              	.LLST14:
 8547 0128 2E000000 		.4byte	.LVL21
 8548 012c 34000000 		.4byte	.LVL22
 8549 0130 0200     		.2byte	0x2
 8550 0132 30       		.byte	0x30
 8551 0133 9F       		.byte	0x9f
 8552 0134 00000000 		.4byte	0
 8553 0138 00000000 		.4byte	0
 8554              	.LLST15:
ARM GAS  C:\Users\Angel\AppData\Local\Temp\ccvqOPgy.s 			page 221


 8555 013c 2E000000 		.4byte	.LVL21
 8556 0140 34000000 		.4byte	.LVL22
 8557 0144 0600     		.2byte	0x6
 8558 0146 0C       		.byte	0xc
 8559 0147 80043240 		.4byte	0x40320480
 8560 014b 9F       		.byte	0x9f
 8561 014c 00000000 		.4byte	0
 8562 0150 00000000 		.4byte	0
 8563              	.LLST16:
 8564 0154 34000000 		.4byte	.LVL22
 8565 0158 38000000 		.4byte	.LVL23
 8566 015c 0200     		.2byte	0x2
 8567 015e 30       		.byte	0x30
 8568 015f 9F       		.byte	0x9f
 8569 0160 00000000 		.4byte	0
 8570 0164 00000000 		.4byte	0
 8571              	.LLST17:
 8572 0168 34000000 		.4byte	.LVL22
 8573 016c 38000000 		.4byte	.LVL23
 8574 0170 0200     		.2byte	0x2
 8575 0172 31       		.byte	0x31
 8576 0173 9F       		.byte	0x9f
 8577 0174 00000000 		.4byte	0
 8578 0178 00000000 		.4byte	0
 8579              	.LLST18:
 8580 017c 34000000 		.4byte	.LVL22
 8581 0180 38000000 		.4byte	.LVL23
 8582 0184 0600     		.2byte	0x6
 8583 0186 0C       		.byte	0xc
 8584 0187 80043240 		.4byte	0x40320480
 8585 018b 9F       		.byte	0x9f
 8586 018c 00000000 		.4byte	0
 8587 0190 00000000 		.4byte	0
 8588              	.LLST19:
 8589 0194 38000000 		.4byte	.LVL23
 8590 0198 3C000000 		.4byte	.LVL24
 8591 019c 0200     		.2byte	0x2
 8592 019e 30       		.byte	0x30
 8593 019f 9F       		.byte	0x9f
 8594 01a0 00000000 		.4byte	0
 8595 01a4 00000000 		.4byte	0
 8596              	.LLST20:
 8597 01a8 38000000 		.4byte	.LVL23
 8598 01ac 3C000000 		.4byte	.LVL24
 8599 01b0 0200     		.2byte	0x2
 8600 01b2 32       		.byte	0x32
 8601 01b3 9F       		.byte	0x9f
 8602 01b4 00000000 		.4byte	0
 8603 01b8 00000000 		.4byte	0
 8604              	.LLST21:
 8605 01bc 38000000 		.4byte	.LVL23
 8606 01c0 3C000000 		.4byte	.LVL24
 8607 01c4 0600     		.2byte	0x6
 8608 01c6 0C       		.byte	0xc
 8609 01c7 80043240 		.4byte	0x40320480
 8610 01cb 9F       		.byte	0x9f
 8611 01cc 00000000 		.4byte	0
ARM GAS  C:\Users\Angel\AppData\Local\Temp\ccvqOPgy.s 			page 222


 8612 01d0 00000000 		.4byte	0
 8613              	.LLST22:
 8614 01d4 3C000000 		.4byte	.LVL24
 8615 01d8 42000000 		.4byte	.LVL25
 8616 01dc 0200     		.2byte	0x2
 8617 01de 30       		.byte	0x30
 8618 01df 9F       		.byte	0x9f
 8619 01e0 00000000 		.4byte	0
 8620 01e4 00000000 		.4byte	0
 8621              	.LLST23:
 8622 01e8 3C000000 		.4byte	.LVL24
 8623 01ec 42000000 		.4byte	.LVL25
 8624 01f0 0200     		.2byte	0x2
 8625 01f2 33       		.byte	0x33
 8626 01f3 9F       		.byte	0x9f
 8627 01f4 00000000 		.4byte	0
 8628 01f8 00000000 		.4byte	0
 8629              	.LLST24:
 8630 01fc 3C000000 		.4byte	.LVL24
 8631 0200 42000000 		.4byte	.LVL25
 8632 0204 0600     		.2byte	0x6
 8633 0206 0C       		.byte	0xc
 8634 0207 80043240 		.4byte	0x40320480
 8635 020b 9F       		.byte	0x9f
 8636 020c 00000000 		.4byte	0
 8637 0210 00000000 		.4byte	0
 8638              	.LLST25:
 8639 0214 42000000 		.4byte	.LVL25
 8640 0218 48000000 		.4byte	.LVL26
 8641 021c 0200     		.2byte	0x2
 8642 021e 30       		.byte	0x30
 8643 021f 9F       		.byte	0x9f
 8644 0220 00000000 		.4byte	0
 8645 0224 00000000 		.4byte	0
 8646              	.LLST27:
 8647 0228 42000000 		.4byte	.LVL25
 8648 022c 48000000 		.4byte	.LVL26
 8649 0230 0600     		.2byte	0x6
 8650 0232 0C       		.byte	0xc
 8651 0233 80043240 		.4byte	0x40320480
 8652 0237 9F       		.byte	0x9f
 8653 0238 00000000 		.4byte	0
 8654 023c 00000000 		.4byte	0
 8655              	.LLST28:
 8656 0240 48000000 		.4byte	.LVL26
 8657 0244 4C000000 		.4byte	.LVL27
 8658 0248 0200     		.2byte	0x2
 8659 024a 31       		.byte	0x31
 8660 024b 9F       		.byte	0x9f
 8661 024c 00000000 		.4byte	0
 8662 0250 00000000 		.4byte	0
 8663              	.LLST30:
 8664 0254 48000000 		.4byte	.LVL26
 8665 0258 4C000000 		.4byte	.LVL27
 8666 025c 0600     		.2byte	0x6
 8667 025e 0C       		.byte	0xc
 8668 025f 80043240 		.4byte	0x40320480
ARM GAS  C:\Users\Angel\AppData\Local\Temp\ccvqOPgy.s 			page 223


 8669 0263 9F       		.byte	0x9f
 8670 0264 00000000 		.4byte	0
 8671 0268 00000000 		.4byte	0
 8672              	.LLST31:
 8673 026c 4C000000 		.4byte	.LVL27
 8674 0270 50000000 		.4byte	.LVL28
 8675 0274 0200     		.2byte	0x2
 8676 0276 30       		.byte	0x30
 8677 0277 9F       		.byte	0x9f
 8678 0278 00000000 		.4byte	0
 8679 027c 00000000 		.4byte	0
 8680              	.LLST32:
 8681 0280 4C000000 		.4byte	.LVL27
 8682 0284 50000000 		.4byte	.LVL28
 8683 0288 0200     		.2byte	0x2
 8684 028a 32       		.byte	0x32
 8685 028b 9F       		.byte	0x9f
 8686 028c 00000000 		.4byte	0
 8687 0290 00000000 		.4byte	0
 8688              	.LLST33:
 8689 0294 4C000000 		.4byte	.LVL27
 8690 0298 50000000 		.4byte	.LVL28
 8691 029c 0600     		.2byte	0x6
 8692 029e 0C       		.byte	0xc
 8693 029f 80043240 		.4byte	0x40320480
 8694 02a3 9F       		.byte	0x9f
 8695 02a4 00000000 		.4byte	0
 8696 02a8 00000000 		.4byte	0
 8697              	.LLST34:
 8698 02ac 50000000 		.4byte	.LVL28
 8699 02b0 56000000 		.4byte	.LVL29
 8700 02b4 0200     		.2byte	0x2
 8701 02b6 30       		.byte	0x30
 8702 02b7 9F       		.byte	0x9f
 8703 02b8 00000000 		.4byte	0
 8704 02bc 00000000 		.4byte	0
 8705              	.LLST35:
 8706 02c0 50000000 		.4byte	.LVL28
 8707 02c4 56000000 		.4byte	.LVL29
 8708 02c8 0200     		.2byte	0x2
 8709 02ca 33       		.byte	0x33
 8710 02cb 9F       		.byte	0x9f
 8711 02cc 00000000 		.4byte	0
 8712 02d0 00000000 		.4byte	0
 8713              	.LLST36:
 8714 02d4 50000000 		.4byte	.LVL28
 8715 02d8 56000000 		.4byte	.LVL29
 8716 02dc 0600     		.2byte	0x6
 8717 02de 0C       		.byte	0xc
 8718 02df 80043240 		.4byte	0x40320480
 8719 02e3 9F       		.byte	0x9f
 8720 02e4 00000000 		.4byte	0
 8721 02e8 00000000 		.4byte	0
 8722              	.LLST37:
 8723 02ec 56000000 		.4byte	.LVL29
 8724 02f0 5C000000 		.4byte	.LVL30
 8725 02f4 0200     		.2byte	0x2
ARM GAS  C:\Users\Angel\AppData\Local\Temp\ccvqOPgy.s 			page 224


 8726 02f6 31       		.byte	0x31
 8727 02f7 9F       		.byte	0x9f
 8728 02f8 00000000 		.4byte	0
 8729 02fc 00000000 		.4byte	0
 8730              	.LLST38:
 8731 0300 56000000 		.4byte	.LVL29
 8732 0304 5C000000 		.4byte	.LVL30
 8733 0308 0200     		.2byte	0x2
 8734 030a 30       		.byte	0x30
 8735 030b 9F       		.byte	0x9f
 8736 030c 00000000 		.4byte	0
 8737 0310 00000000 		.4byte	0
 8738              	.LLST39:
 8739 0314 56000000 		.4byte	.LVL29
 8740 0318 5C000000 		.4byte	.LVL30
 8741 031c 0600     		.2byte	0x6
 8742 031e 0C       		.byte	0xc
 8743 031f 80043240 		.4byte	0x40320480
 8744 0323 9F       		.byte	0x9f
 8745 0324 00000000 		.4byte	0
 8746 0328 00000000 		.4byte	0
 8747              	.LLST40:
 8748 032c 5C000000 		.4byte	.LVL30
 8749 0330 60000000 		.4byte	.LVL31
 8750 0334 0200     		.2byte	0x2
 8751 0336 31       		.byte	0x31
 8752 0337 9F       		.byte	0x9f
 8753 0338 00000000 		.4byte	0
 8754 033c 00000000 		.4byte	0
 8755              	.LLST42:
 8756 0340 5C000000 		.4byte	.LVL30
 8757 0344 60000000 		.4byte	.LVL31
 8758 0348 0600     		.2byte	0x6
 8759 034a 0C       		.byte	0xc
 8760 034b 80043240 		.4byte	0x40320480
 8761 034f 9F       		.byte	0x9f
 8762 0350 00000000 		.4byte	0
 8763 0354 00000000 		.4byte	0
 8764              	.LLST43:
 8765 0358 60000000 		.4byte	.LVL31
 8766 035c 64000000 		.4byte	.LVL32
 8767 0360 0200     		.2byte	0x2
 8768 0362 30       		.byte	0x30
 8769 0363 9F       		.byte	0x9f
 8770 0364 00000000 		.4byte	0
 8771 0368 00000000 		.4byte	0
 8772              	.LLST44:
 8773 036c 60000000 		.4byte	.LVL31
 8774 0370 64000000 		.4byte	.LVL32
 8775 0374 0200     		.2byte	0x2
 8776 0376 32       		.byte	0x32
 8777 0377 9F       		.byte	0x9f
 8778 0378 00000000 		.4byte	0
 8779 037c 00000000 		.4byte	0
 8780              	.LLST45:
 8781 0380 60000000 		.4byte	.LVL31
 8782 0384 64000000 		.4byte	.LVL32
ARM GAS  C:\Users\Angel\AppData\Local\Temp\ccvqOPgy.s 			page 225


 8783 0388 0600     		.2byte	0x6
 8784 038a 0C       		.byte	0xc
 8785 038b 80043240 		.4byte	0x40320480
 8786 038f 9F       		.byte	0x9f
 8787 0390 00000000 		.4byte	0
 8788 0394 00000000 		.4byte	0
 8789              	.LLST46:
 8790 0398 64000000 		.4byte	.LVL32
 8791 039c 6A000000 		.4byte	.LVL33
 8792 03a0 0200     		.2byte	0x2
 8793 03a2 30       		.byte	0x30
 8794 03a3 9F       		.byte	0x9f
 8795 03a4 00000000 		.4byte	0
 8796 03a8 00000000 		.4byte	0
 8797              	.LLST47:
 8798 03ac 64000000 		.4byte	.LVL32
 8799 03b0 6A000000 		.4byte	.LVL33
 8800 03b4 0200     		.2byte	0x2
 8801 03b6 33       		.byte	0x33
 8802 03b7 9F       		.byte	0x9f
 8803 03b8 00000000 		.4byte	0
 8804 03bc 00000000 		.4byte	0
 8805              	.LLST48:
 8806 03c0 64000000 		.4byte	.LVL32
 8807 03c4 6A000000 		.4byte	.LVL33
 8808 03c8 0600     		.2byte	0x6
 8809 03ca 0C       		.byte	0xc
 8810 03cb 80043240 		.4byte	0x40320480
 8811 03cf 9F       		.byte	0x9f
 8812 03d0 00000000 		.4byte	0
 8813 03d4 00000000 		.4byte	0
 8814              	.LLST49:
 8815 03d8 6A000000 		.4byte	.LVL33
 8816 03dc 70000000 		.4byte	.LVL34
 8817 03e0 0200     		.2byte	0x2
 8818 03e2 30       		.byte	0x30
 8819 03e3 9F       		.byte	0x9f
 8820 03e4 00000000 		.4byte	0
 8821 03e8 00000000 		.4byte	0
 8822              	.LLST51:
 8823 03ec 6A000000 		.4byte	.LVL33
 8824 03f0 70000000 		.4byte	.LVL34
 8825 03f4 0600     		.2byte	0x6
 8826 03f6 0C       		.byte	0xc
 8827 03f7 80043240 		.4byte	0x40320480
 8828 03fb 9F       		.byte	0x9f
 8829 03fc 00000000 		.4byte	0
 8830 0400 00000000 		.4byte	0
 8831              	.LLST52:
 8832 0404 70000000 		.4byte	.LVL34
 8833 0408 74000000 		.4byte	.LVL35
 8834 040c 0200     		.2byte	0x2
 8835 040e 30       		.byte	0x30
 8836 040f 9F       		.byte	0x9f
 8837 0410 00000000 		.4byte	0
 8838 0414 00000000 		.4byte	0
 8839              	.LLST53:
ARM GAS  C:\Users\Angel\AppData\Local\Temp\ccvqOPgy.s 			page 226


 8840 0418 70000000 		.4byte	.LVL34
 8841 041c 74000000 		.4byte	.LVL35
 8842 0420 0200     		.2byte	0x2
 8843 0422 31       		.byte	0x31
 8844 0423 9F       		.byte	0x9f
 8845 0424 00000000 		.4byte	0
 8846 0428 00000000 		.4byte	0
 8847              	.LLST54:
 8848 042c 70000000 		.4byte	.LVL34
 8849 0430 74000000 		.4byte	.LVL35
 8850 0434 0600     		.2byte	0x6
 8851 0436 0C       		.byte	0xc
 8852 0437 80043240 		.4byte	0x40320480
 8853 043b 9F       		.byte	0x9f
 8854 043c 00000000 		.4byte	0
 8855 0440 00000000 		.4byte	0
 8856              	.LLST55:
 8857 0444 74000000 		.4byte	.LVL35
 8858 0448 78000000 		.4byte	.LVL36
 8859 044c 0200     		.2byte	0x2
 8860 044e 31       		.byte	0x31
 8861 044f 9F       		.byte	0x9f
 8862 0450 00000000 		.4byte	0
 8863 0454 00000000 		.4byte	0
 8864              	.LLST56:
 8865 0458 74000000 		.4byte	.LVL35
 8866 045c 78000000 		.4byte	.LVL36
 8867 0460 0200     		.2byte	0x2
 8868 0462 32       		.byte	0x32
 8869 0463 9F       		.byte	0x9f
 8870 0464 00000000 		.4byte	0
 8871 0468 00000000 		.4byte	0
 8872              	.LLST57:
 8873 046c 74000000 		.4byte	.LVL35
 8874 0470 78000000 		.4byte	.LVL36
 8875 0474 0600     		.2byte	0x6
 8876 0476 0C       		.byte	0xc
 8877 0477 80043240 		.4byte	0x40320480
 8878 047b 9F       		.byte	0x9f
 8879 047c 00000000 		.4byte	0
 8880 0480 00000000 		.4byte	0
 8881              	.LLST58:
 8882 0484 78000000 		.4byte	.LVL36
 8883 0488 7E000000 		.4byte	.LVL37
 8884 048c 0200     		.2byte	0x2
 8885 048e 30       		.byte	0x30
 8886 048f 9F       		.byte	0x9f
 8887 0490 00000000 		.4byte	0
 8888 0494 00000000 		.4byte	0
 8889              	.LLST59:
 8890 0498 78000000 		.4byte	.LVL36
 8891 049c 7E000000 		.4byte	.LVL37
 8892 04a0 0200     		.2byte	0x2
 8893 04a2 33       		.byte	0x33
 8894 04a3 9F       		.byte	0x9f
 8895 04a4 00000000 		.4byte	0
 8896 04a8 00000000 		.4byte	0
ARM GAS  C:\Users\Angel\AppData\Local\Temp\ccvqOPgy.s 			page 227


 8897              	.LLST60:
 8898 04ac 78000000 		.4byte	.LVL36
 8899 04b0 7E000000 		.4byte	.LVL37
 8900 04b4 0600     		.2byte	0x6
 8901 04b6 0C       		.byte	0xc
 8902 04b7 80043240 		.4byte	0x40320480
 8903 04bb 9F       		.byte	0x9f
 8904 04bc 00000000 		.4byte	0
 8905 04c0 00000000 		.4byte	0
 8906              	.LLST61:
 8907 04c4 7E000000 		.4byte	.LVL37
 8908 04c8 84000000 		.4byte	.LVL38
 8909 04cc 0200     		.2byte	0x2
 8910 04ce 31       		.byte	0x31
 8911 04cf 9F       		.byte	0x9f
 8912 04d0 00000000 		.4byte	0
 8913 04d4 00000000 		.4byte	0
 8914              	.LLST62:
 8915 04d8 7E000000 		.4byte	.LVL37
 8916 04dc 84000000 		.4byte	.LVL38
 8917 04e0 0200     		.2byte	0x2
 8918 04e2 30       		.byte	0x30
 8919 04e3 9F       		.byte	0x9f
 8920 04e4 00000000 		.4byte	0
 8921 04e8 00000000 		.4byte	0
 8922              	.LLST63:
 8923 04ec 7E000000 		.4byte	.LVL37
 8924 04f0 84000000 		.4byte	.LVL38
 8925 04f4 0600     		.2byte	0x6
 8926 04f6 0C       		.byte	0xc
 8927 04f7 80043240 		.4byte	0x40320480
 8928 04fb 9F       		.byte	0x9f
 8929 04fc 00000000 		.4byte	0
 8930 0500 00000000 		.4byte	0
 8931              	.LLST64:
 8932 0504 84000000 		.4byte	.LVL38
 8933 0508 88000000 		.4byte	.LVL39
 8934 050c 0200     		.2byte	0x2
 8935 050e 30       		.byte	0x30
 8936 050f 9F       		.byte	0x9f
 8937 0510 00000000 		.4byte	0
 8938 0514 00000000 		.4byte	0
 8939              	.LLST65:
 8940 0518 84000000 		.4byte	.LVL38
 8941 051c 88000000 		.4byte	.LVL39
 8942 0520 0200     		.2byte	0x2
 8943 0522 31       		.byte	0x31
 8944 0523 9F       		.byte	0x9f
 8945 0524 00000000 		.4byte	0
 8946 0528 00000000 		.4byte	0
 8947              	.LLST66:
 8948 052c 84000000 		.4byte	.LVL38
 8949 0530 88000000 		.4byte	.LVL39
 8950 0534 0600     		.2byte	0x6
 8951 0536 0C       		.byte	0xc
 8952 0537 80043240 		.4byte	0x40320480
 8953 053b 9F       		.byte	0x9f
ARM GAS  C:\Users\Angel\AppData\Local\Temp\ccvqOPgy.s 			page 228


 8954 053c 00000000 		.4byte	0
 8955 0540 00000000 		.4byte	0
 8956              	.LLST67:
 8957 0544 88000000 		.4byte	.LVL39
 8958 0548 8C000000 		.4byte	.LVL40
 8959 054c 0200     		.2byte	0x2
 8960 054e 31       		.byte	0x31
 8961 054f 9F       		.byte	0x9f
 8962 0550 00000000 		.4byte	0
 8963 0554 00000000 		.4byte	0
 8964              	.LLST68:
 8965 0558 88000000 		.4byte	.LVL39
 8966 055c 8C000000 		.4byte	.LVL40
 8967 0560 0200     		.2byte	0x2
 8968 0562 32       		.byte	0x32
 8969 0563 9F       		.byte	0x9f
 8970 0564 00000000 		.4byte	0
 8971 0568 00000000 		.4byte	0
 8972              	.LLST69:
 8973 056c 88000000 		.4byte	.LVL39
 8974 0570 8C000000 		.4byte	.LVL40
 8975 0574 0600     		.2byte	0x6
 8976 0576 0C       		.byte	0xc
 8977 0577 80043240 		.4byte	0x40320480
 8978 057b 9F       		.byte	0x9f
 8979 057c 00000000 		.4byte	0
 8980 0580 00000000 		.4byte	0
 8981              	.LLST70:
 8982 0584 8C000000 		.4byte	.LVL40
 8983 0588 92000000 		.4byte	.LVL41
 8984 058c 0200     		.2byte	0x2
 8985 058e 30       		.byte	0x30
 8986 058f 9F       		.byte	0x9f
 8987 0590 00000000 		.4byte	0
 8988 0594 00000000 		.4byte	0
 8989              	.LLST71:
 8990 0598 8C000000 		.4byte	.LVL40
 8991 059c 92000000 		.4byte	.LVL41
 8992 05a0 0200     		.2byte	0x2
 8993 05a2 33       		.byte	0x33
 8994 05a3 9F       		.byte	0x9f
 8995 05a4 00000000 		.4byte	0
 8996 05a8 00000000 		.4byte	0
 8997              	.LLST72:
 8998 05ac 8C000000 		.4byte	.LVL40
 8999 05b0 92000000 		.4byte	.LVL41
 9000 05b4 0600     		.2byte	0x6
 9001 05b6 0C       		.byte	0xc
 9002 05b7 80043240 		.4byte	0x40320480
 9003 05bb 9F       		.byte	0x9f
 9004 05bc 00000000 		.4byte	0
 9005 05c0 00000000 		.4byte	0
 9006              	.LLST73:
 9007 05c4 92000000 		.4byte	.LVL41
 9008 05c8 98000000 		.4byte	.LVL42
 9009 05cc 0200     		.2byte	0x2
 9010 05ce 30       		.byte	0x30
ARM GAS  C:\Users\Angel\AppData\Local\Temp\ccvqOPgy.s 			page 229


 9011 05cf 9F       		.byte	0x9f
 9012 05d0 00000000 		.4byte	0
 9013 05d4 00000000 		.4byte	0
 9014              	.LLST75:
 9015 05d8 92000000 		.4byte	.LVL41
 9016 05dc 98000000 		.4byte	.LVL42
 9017 05e0 0600     		.2byte	0x6
 9018 05e2 0C       		.byte	0xc
 9019 05e3 80043240 		.4byte	0x40320480
 9020 05e7 9F       		.byte	0x9f
 9021 05e8 00000000 		.4byte	0
 9022 05ec 00000000 		.4byte	0
 9023              	.LLST76:
 9024 05f0 98000000 		.4byte	.LVL42
 9025 05f4 9C000000 		.4byte	.LVL43
 9026 05f8 0200     		.2byte	0x2
 9027 05fa 31       		.byte	0x31
 9028 05fb 9F       		.byte	0x9f
 9029 05fc 00000000 		.4byte	0
 9030 0600 00000000 		.4byte	0
 9031              	.LLST78:
 9032 0604 98000000 		.4byte	.LVL42
 9033 0608 9C000000 		.4byte	.LVL43
 9034 060c 0600     		.2byte	0x6
 9035 060e 0C       		.byte	0xc
 9036 060f 80043240 		.4byte	0x40320480
 9037 0613 9F       		.byte	0x9f
 9038 0614 00000000 		.4byte	0
 9039 0618 00000000 		.4byte	0
 9040              	.LLST79:
 9041 061c 9C000000 		.4byte	.LVL43
 9042 0620 A0000000 		.4byte	.LVL44
 9043 0624 0200     		.2byte	0x2
 9044 0626 31       		.byte	0x31
 9045 0627 9F       		.byte	0x9f
 9046 0628 00000000 		.4byte	0
 9047 062c 00000000 		.4byte	0
 9048              	.LLST80:
 9049 0630 9C000000 		.4byte	.LVL43
 9050 0634 A0000000 		.4byte	.LVL44
 9051 0638 0200     		.2byte	0x2
 9052 063a 32       		.byte	0x32
 9053 063b 9F       		.byte	0x9f
 9054 063c 00000000 		.4byte	0
 9055 0640 00000000 		.4byte	0
 9056              	.LLST81:
 9057 0644 9C000000 		.4byte	.LVL43
 9058 0648 A0000000 		.4byte	.LVL44
 9059 064c 0600     		.2byte	0x6
 9060 064e 0C       		.byte	0xc
 9061 064f 80043240 		.4byte	0x40320480
 9062 0653 9F       		.byte	0x9f
 9063 0654 00000000 		.4byte	0
 9064 0658 00000000 		.4byte	0
 9065              	.LLST82:
 9066 065c A0000000 		.4byte	.LVL44
 9067 0660 A6000000 		.4byte	.LVL45
ARM GAS  C:\Users\Angel\AppData\Local\Temp\ccvqOPgy.s 			page 230


 9068 0664 0200     		.2byte	0x2
 9069 0666 30       		.byte	0x30
 9070 0667 9F       		.byte	0x9f
 9071 0668 00000000 		.4byte	0
 9072 066c 00000000 		.4byte	0
 9073              	.LLST83:
 9074 0670 A0000000 		.4byte	.LVL44
 9075 0674 A6000000 		.4byte	.LVL45
 9076 0678 0200     		.2byte	0x2
 9077 067a 33       		.byte	0x33
 9078 067b 9F       		.byte	0x9f
 9079 067c 00000000 		.4byte	0
 9080 0680 00000000 		.4byte	0
 9081              	.LLST84:
 9082 0684 A0000000 		.4byte	.LVL44
 9083 0688 A6000000 		.4byte	.LVL45
 9084 068c 0600     		.2byte	0x6
 9085 068e 0C       		.byte	0xc
 9086 068f 80043240 		.4byte	0x40320480
 9087 0693 9F       		.byte	0x9f
 9088 0694 00000000 		.4byte	0
 9089 0698 00000000 		.4byte	0
 9090              	.LLST85:
 9091 069c A6000000 		.4byte	.LVL45
 9092 06a0 AC000000 		.4byte	.LVL46
 9093 06a4 0200     		.2byte	0x2
 9094 06a6 31       		.byte	0x31
 9095 06a7 9F       		.byte	0x9f
 9096 06a8 00000000 		.4byte	0
 9097 06ac 00000000 		.4byte	0
 9098              	.LLST86:
 9099 06b0 A6000000 		.4byte	.LVL45
 9100 06b4 AC000000 		.4byte	.LVL46
 9101 06b8 0200     		.2byte	0x2
 9102 06ba 30       		.byte	0x30
 9103 06bb 9F       		.byte	0x9f
 9104 06bc 00000000 		.4byte	0
 9105 06c0 00000000 		.4byte	0
 9106              	.LLST87:
 9107 06c4 A6000000 		.4byte	.LVL45
 9108 06c8 AC000000 		.4byte	.LVL46
 9109 06cc 0600     		.2byte	0x6
 9110 06ce 0C       		.byte	0xc
 9111 06cf 80043240 		.4byte	0x40320480
 9112 06d3 9F       		.byte	0x9f
 9113 06d4 00000000 		.4byte	0
 9114 06d8 00000000 		.4byte	0
 9115              	.LLST88:
 9116 06dc AC000000 		.4byte	.LVL46
 9117 06e0 B0000000 		.4byte	.LVL47
 9118 06e4 0200     		.2byte	0x2
 9119 06e6 31       		.byte	0x31
 9120 06e7 9F       		.byte	0x9f
 9121 06e8 00000000 		.4byte	0
 9122 06ec 00000000 		.4byte	0
 9123              	.LLST90:
 9124 06f0 AC000000 		.4byte	.LVL46
ARM GAS  C:\Users\Angel\AppData\Local\Temp\ccvqOPgy.s 			page 231


 9125 06f4 B0000000 		.4byte	.LVL47
 9126 06f8 0600     		.2byte	0x6
 9127 06fa 0C       		.byte	0xc
 9128 06fb 80043240 		.4byte	0x40320480
 9129 06ff 9F       		.byte	0x9f
 9130 0700 00000000 		.4byte	0
 9131 0704 00000000 		.4byte	0
 9132              	.LLST91:
 9133 0708 B0000000 		.4byte	.LVL47
 9134 070c B4000000 		.4byte	.LVL48
 9135 0710 0200     		.2byte	0x2
 9136 0712 31       		.byte	0x31
 9137 0713 9F       		.byte	0x9f
 9138 0714 00000000 		.4byte	0
 9139 0718 00000000 		.4byte	0
 9140              	.LLST92:
 9141 071c B0000000 		.4byte	.LVL47
 9142 0720 B4000000 		.4byte	.LVL48
 9143 0724 0200     		.2byte	0x2
 9144 0726 32       		.byte	0x32
 9145 0727 9F       		.byte	0x9f
 9146 0728 00000000 		.4byte	0
 9147 072c 00000000 		.4byte	0
 9148              	.LLST93:
 9149 0730 B0000000 		.4byte	.LVL47
 9150 0734 B4000000 		.4byte	.LVL48
 9151 0738 0600     		.2byte	0x6
 9152 073a 0C       		.byte	0xc
 9153 073b 80043240 		.4byte	0x40320480
 9154 073f 9F       		.byte	0x9f
 9155 0740 00000000 		.4byte	0
 9156 0744 00000000 		.4byte	0
 9157              	.LLST94:
 9158 0748 B4000000 		.4byte	.LVL48
 9159 074c BA000000 		.4byte	.LVL49
 9160 0750 0200     		.2byte	0x2
 9161 0752 30       		.byte	0x30
 9162 0753 9F       		.byte	0x9f
 9163 0754 00000000 		.4byte	0
 9164 0758 00000000 		.4byte	0
 9165              	.LLST95:
 9166 075c B4000000 		.4byte	.LVL48
 9167 0760 BA000000 		.4byte	.LVL49
 9168 0764 0200     		.2byte	0x2
 9169 0766 33       		.byte	0x33
 9170 0767 9F       		.byte	0x9f
 9171 0768 00000000 		.4byte	0
 9172 076c 00000000 		.4byte	0
 9173              	.LLST96:
 9174 0770 B4000000 		.4byte	.LVL48
 9175 0774 BA000000 		.4byte	.LVL49
 9176 0778 0600     		.2byte	0x6
 9177 077a 0C       		.byte	0xc
 9178 077b 80043240 		.4byte	0x40320480
 9179 077f 9F       		.byte	0x9f
 9180 0780 00000000 		.4byte	0
 9181 0784 00000000 		.4byte	0
ARM GAS  C:\Users\Angel\AppData\Local\Temp\ccvqOPgy.s 			page 232


 9182              	.LLST97:
 9183 0788 BA000000 		.4byte	.LVL49
 9184 078c C0000000 		.4byte	.LVL50
 9185 0790 0200     		.2byte	0x2
 9186 0792 30       		.byte	0x30
 9187 0793 9F       		.byte	0x9f
 9188 0794 00000000 		.4byte	0
 9189 0798 00000000 		.4byte	0
 9190              	.LLST99:
 9191 079c BA000000 		.4byte	.LVL49
 9192 07a0 C0000000 		.4byte	.LVL50
 9193 07a4 0600     		.2byte	0x6
 9194 07a6 0C       		.byte	0xc
 9195 07a7 80043240 		.4byte	0x40320480
 9196 07ab 9F       		.byte	0x9f
 9197 07ac 00000000 		.4byte	0
 9198 07b0 00000000 		.4byte	0
 9199              	.LLST100:
 9200 07b4 C0000000 		.4byte	.LVL50
 9201 07b8 C4000000 		.4byte	.LVL51
 9202 07bc 0200     		.2byte	0x2
 9203 07be 30       		.byte	0x30
 9204 07bf 9F       		.byte	0x9f
 9205 07c0 00000000 		.4byte	0
 9206 07c4 00000000 		.4byte	0
 9207              	.LLST101:
 9208 07c8 C0000000 		.4byte	.LVL50
 9209 07cc C4000000 		.4byte	.LVL51
 9210 07d0 0200     		.2byte	0x2
 9211 07d2 31       		.byte	0x31
 9212 07d3 9F       		.byte	0x9f
 9213 07d4 00000000 		.4byte	0
 9214 07d8 00000000 		.4byte	0
 9215              	.LLST102:
 9216 07dc C0000000 		.4byte	.LVL50
 9217 07e0 C4000000 		.4byte	.LVL51
 9218 07e4 0600     		.2byte	0x6
 9219 07e6 0C       		.byte	0xc
 9220 07e7 80043240 		.4byte	0x40320480
 9221 07eb 9F       		.byte	0x9f
 9222 07ec 00000000 		.4byte	0
 9223 07f0 00000000 		.4byte	0
 9224              	.LLST103:
 9225 07f4 C4000000 		.4byte	.LVL51
 9226 07f8 C8000000 		.4byte	.LVL52
 9227 07fc 0200     		.2byte	0x2
 9228 07fe 30       		.byte	0x30
 9229 07ff 9F       		.byte	0x9f
 9230 0800 00000000 		.4byte	0
 9231 0804 00000000 		.4byte	0
 9232              	.LLST104:
 9233 0808 C4000000 		.4byte	.LVL51
 9234 080c C8000000 		.4byte	.LVL52
 9235 0810 0200     		.2byte	0x2
 9236 0812 32       		.byte	0x32
 9237 0813 9F       		.byte	0x9f
 9238 0814 00000000 		.4byte	0
ARM GAS  C:\Users\Angel\AppData\Local\Temp\ccvqOPgy.s 			page 233


 9239 0818 00000000 		.4byte	0
 9240              	.LLST105:
 9241 081c C4000000 		.4byte	.LVL51
 9242 0820 C8000000 		.4byte	.LVL52
 9243 0824 0600     		.2byte	0x6
 9244 0826 0C       		.byte	0xc
 9245 0827 80043240 		.4byte	0x40320480
 9246 082b 9F       		.byte	0x9f
 9247 082c 00000000 		.4byte	0
 9248 0830 00000000 		.4byte	0
 9249              	.LLST106:
 9250 0834 C8000000 		.4byte	.LVL52
 9251 0838 CE000000 		.4byte	.LVL53
 9252 083c 0200     		.2byte	0x2
 9253 083e 31       		.byte	0x31
 9254 083f 9F       		.byte	0x9f
 9255 0840 00000000 		.4byte	0
 9256 0844 00000000 		.4byte	0
 9257              	.LLST107:
 9258 0848 C8000000 		.4byte	.LVL52
 9259 084c CE000000 		.4byte	.LVL53
 9260 0850 0200     		.2byte	0x2
 9261 0852 33       		.byte	0x33
 9262 0853 9F       		.byte	0x9f
 9263 0854 00000000 		.4byte	0
 9264 0858 00000000 		.4byte	0
 9265              	.LLST108:
 9266 085c C8000000 		.4byte	.LVL52
 9267 0860 CE000000 		.4byte	.LVL53
 9268 0864 0600     		.2byte	0x6
 9269 0866 0C       		.byte	0xc
 9270 0867 80043240 		.4byte	0x40320480
 9271 086b 9F       		.byte	0x9f
 9272 086c 00000000 		.4byte	0
 9273 0870 00000000 		.4byte	0
 9274              	.LLST109:
 9275 0874 CE000000 		.4byte	.LVL53
 9276 0878 D4000000 		.4byte	.LVL54
 9277 087c 0200     		.2byte	0x2
 9278 087e 31       		.byte	0x31
 9279 087f 9F       		.byte	0x9f
 9280 0880 00000000 		.4byte	0
 9281 0884 00000000 		.4byte	0
 9282              	.LLST110:
 9283 0888 CE000000 		.4byte	.LVL53
 9284 088c D4000000 		.4byte	.LVL54
 9285 0890 0200     		.2byte	0x2
 9286 0892 30       		.byte	0x30
 9287 0893 9F       		.byte	0x9f
 9288 0894 00000000 		.4byte	0
 9289 0898 00000000 		.4byte	0
 9290              	.LLST111:
 9291 089c CE000000 		.4byte	.LVL53
 9292 08a0 D4000000 		.4byte	.LVL54
 9293 08a4 0600     		.2byte	0x6
 9294 08a6 0C       		.byte	0xc
 9295 08a7 80043240 		.4byte	0x40320480
ARM GAS  C:\Users\Angel\AppData\Local\Temp\ccvqOPgy.s 			page 234


 9296 08ab 9F       		.byte	0x9f
 9297 08ac 00000000 		.4byte	0
 9298 08b0 00000000 		.4byte	0
 9299              	.LLST112:
 9300 08b4 D4000000 		.4byte	.LVL54
 9301 08b8 D8000000 		.4byte	.LVL55
 9302 08bc 0200     		.2byte	0x2
 9303 08be 30       		.byte	0x30
 9304 08bf 9F       		.byte	0x9f
 9305 08c0 00000000 		.4byte	0
 9306 08c4 00000000 		.4byte	0
 9307              	.LLST113:
 9308 08c8 D4000000 		.4byte	.LVL54
 9309 08cc D8000000 		.4byte	.LVL55
 9310 08d0 0200     		.2byte	0x2
 9311 08d2 31       		.byte	0x31
 9312 08d3 9F       		.byte	0x9f
 9313 08d4 00000000 		.4byte	0
 9314 08d8 00000000 		.4byte	0
 9315              	.LLST114:
 9316 08dc D4000000 		.4byte	.LVL54
 9317 08e0 D8000000 		.4byte	.LVL55
 9318 08e4 0600     		.2byte	0x6
 9319 08e6 0C       		.byte	0xc
 9320 08e7 80043240 		.4byte	0x40320480
 9321 08eb 9F       		.byte	0x9f
 9322 08ec 00000000 		.4byte	0
 9323 08f0 00000000 		.4byte	0
 9324              	.LLST115:
 9325 08f4 D8000000 		.4byte	.LVL55
 9326 08f8 DC000000 		.4byte	.LVL56
 9327 08fc 0200     		.2byte	0x2
 9328 08fe 30       		.byte	0x30
 9329 08ff 9F       		.byte	0x9f
 9330 0900 00000000 		.4byte	0
 9331 0904 00000000 		.4byte	0
 9332              	.LLST116:
 9333 0908 D8000000 		.4byte	.LVL55
 9334 090c DC000000 		.4byte	.LVL56
 9335 0910 0200     		.2byte	0x2
 9336 0912 32       		.byte	0x32
 9337 0913 9F       		.byte	0x9f
 9338 0914 00000000 		.4byte	0
 9339 0918 00000000 		.4byte	0
 9340              	.LLST117:
 9341 091c D8000000 		.4byte	.LVL55
 9342 0920 DC000000 		.4byte	.LVL56
 9343 0924 0600     		.2byte	0x6
 9344 0926 0C       		.byte	0xc
 9345 0927 80043240 		.4byte	0x40320480
 9346 092b 9F       		.byte	0x9f
 9347 092c 00000000 		.4byte	0
 9348 0930 00000000 		.4byte	0
 9349              	.LLST118:
 9350 0934 DC000000 		.4byte	.LVL56
 9351 0938 E2000000 		.4byte	.LVL57
 9352 093c 0200     		.2byte	0x2
ARM GAS  C:\Users\Angel\AppData\Local\Temp\ccvqOPgy.s 			page 235


 9353 093e 31       		.byte	0x31
 9354 093f 9F       		.byte	0x9f
 9355 0940 00000000 		.4byte	0
 9356 0944 00000000 		.4byte	0
 9357              	.LLST119:
 9358 0948 DC000000 		.4byte	.LVL56
 9359 094c E2000000 		.4byte	.LVL57
 9360 0950 0200     		.2byte	0x2
 9361 0952 33       		.byte	0x33
 9362 0953 9F       		.byte	0x9f
 9363 0954 00000000 		.4byte	0
 9364 0958 00000000 		.4byte	0
 9365              	.LLST120:
 9366 095c DC000000 		.4byte	.LVL56
 9367 0960 E2000000 		.4byte	.LVL57
 9368 0964 0600     		.2byte	0x6
 9369 0966 0C       		.byte	0xc
 9370 0967 80043240 		.4byte	0x40320480
 9371 096b 9F       		.byte	0x9f
 9372 096c 00000000 		.4byte	0
 9373 0970 00000000 		.4byte	0
 9374              	.LLST121:
 9375 0974 E2000000 		.4byte	.LVL57
 9376 0978 E8000000 		.4byte	.LVL58
 9377 097c 0200     		.2byte	0x2
 9378 097e 30       		.byte	0x30
 9379 097f 9F       		.byte	0x9f
 9380 0980 00000000 		.4byte	0
 9381 0984 00000000 		.4byte	0
 9382              	.LLST123:
 9383 0988 E2000000 		.4byte	.LVL57
 9384 098c E8000000 		.4byte	.LVL58
 9385 0990 0600     		.2byte	0x6
 9386 0992 0C       		.byte	0xc
 9387 0993 80043240 		.4byte	0x40320480
 9388 0997 9F       		.byte	0x9f
 9389 0998 00000000 		.4byte	0
 9390 099c 00000000 		.4byte	0
 9391              	.LLST124:
 9392 09a0 E8000000 		.4byte	.LVL58
 9393 09a4 EC000000 		.4byte	.LVL59
 9394 09a8 0200     		.2byte	0x2
 9395 09aa 31       		.byte	0x31
 9396 09ab 9F       		.byte	0x9f
 9397 09ac 00000000 		.4byte	0
 9398 09b0 00000000 		.4byte	0
 9399              	.LLST126:
 9400 09b4 E8000000 		.4byte	.LVL58
 9401 09b8 EC000000 		.4byte	.LVL59
 9402 09bc 0600     		.2byte	0x6
 9403 09be 0C       		.byte	0xc
 9404 09bf 80043240 		.4byte	0x40320480
 9405 09c3 9F       		.byte	0x9f
 9406 09c4 00000000 		.4byte	0
 9407 09c8 00000000 		.4byte	0
 9408              	.LLST127:
 9409 09cc EC000000 		.4byte	.LVL59
ARM GAS  C:\Users\Angel\AppData\Local\Temp\ccvqOPgy.s 			page 236


 9410 09d0 F0000000 		.4byte	.LVL60
 9411 09d4 0200     		.2byte	0x2
 9412 09d6 30       		.byte	0x30
 9413 09d7 9F       		.byte	0x9f
 9414 09d8 00000000 		.4byte	0
 9415 09dc 00000000 		.4byte	0
 9416              	.LLST128:
 9417 09e0 EC000000 		.4byte	.LVL59
 9418 09e4 F0000000 		.4byte	.LVL60
 9419 09e8 0200     		.2byte	0x2
 9420 09ea 32       		.byte	0x32
 9421 09eb 9F       		.byte	0x9f
 9422 09ec 00000000 		.4byte	0
 9423 09f0 00000000 		.4byte	0
 9424              	.LLST129:
 9425 09f4 EC000000 		.4byte	.LVL59
 9426 09f8 F0000000 		.4byte	.LVL60
 9427 09fc 0600     		.2byte	0x6
 9428 09fe 0C       		.byte	0xc
 9429 09ff 80043240 		.4byte	0x40320480
 9430 0a03 9F       		.byte	0x9f
 9431 0a04 00000000 		.4byte	0
 9432 0a08 00000000 		.4byte	0
 9433              	.LLST130:
 9434 0a0c F0000000 		.4byte	.LVL60
 9435 0a10 F6000000 		.4byte	.LVL61
 9436 0a14 0200     		.2byte	0x2
 9437 0a16 31       		.byte	0x31
 9438 0a17 9F       		.byte	0x9f
 9439 0a18 00000000 		.4byte	0
 9440 0a1c 00000000 		.4byte	0
 9441              	.LLST131:
 9442 0a20 F0000000 		.4byte	.LVL60
 9443 0a24 F6000000 		.4byte	.LVL61
 9444 0a28 0200     		.2byte	0x2
 9445 0a2a 33       		.byte	0x33
 9446 0a2b 9F       		.byte	0x9f
 9447 0a2c 00000000 		.4byte	0
 9448 0a30 00000000 		.4byte	0
 9449              	.LLST132:
 9450 0a34 F0000000 		.4byte	.LVL60
 9451 0a38 F6000000 		.4byte	.LVL61
 9452 0a3c 0600     		.2byte	0x6
 9453 0a3e 0C       		.byte	0xc
 9454 0a3f 80043240 		.4byte	0x40320480
 9455 0a43 9F       		.byte	0x9f
 9456 0a44 00000000 		.4byte	0
 9457 0a48 00000000 		.4byte	0
 9458              	.LLST133:
 9459 0a4c F6000000 		.4byte	.LVL61
 9460 0a50 FC000000 		.4byte	.LVL62
 9461 0a54 0200     		.2byte	0x2
 9462 0a56 31       		.byte	0x31
 9463 0a57 9F       		.byte	0x9f
 9464 0a58 00000000 		.4byte	0
 9465 0a5c 00000000 		.4byte	0
 9466              	.LLST134:
ARM GAS  C:\Users\Angel\AppData\Local\Temp\ccvqOPgy.s 			page 237


 9467 0a60 F6000000 		.4byte	.LVL61
 9468 0a64 FC000000 		.4byte	.LVL62
 9469 0a68 0200     		.2byte	0x2
 9470 0a6a 30       		.byte	0x30
 9471 0a6b 9F       		.byte	0x9f
 9472 0a6c 00000000 		.4byte	0
 9473 0a70 00000000 		.4byte	0
 9474              	.LLST135:
 9475 0a74 F6000000 		.4byte	.LVL61
 9476 0a78 FC000000 		.4byte	.LVL62
 9477 0a7c 0600     		.2byte	0x6
 9478 0a7e 0C       		.byte	0xc
 9479 0a7f 80043240 		.4byte	0x40320480
 9480 0a83 9F       		.byte	0x9f
 9481 0a84 00000000 		.4byte	0
 9482 0a88 00000000 		.4byte	0
 9483              	.LLST136:
 9484 0a8c FC000000 		.4byte	.LVL62
 9485 0a90 00010000 		.4byte	.LVL63
 9486 0a94 0200     		.2byte	0x2
 9487 0a96 31       		.byte	0x31
 9488 0a97 9F       		.byte	0x9f
 9489 0a98 00000000 		.4byte	0
 9490 0a9c 00000000 		.4byte	0
 9491              	.LLST138:
 9492 0aa0 FC000000 		.4byte	.LVL62
 9493 0aa4 00010000 		.4byte	.LVL63
 9494 0aa8 0600     		.2byte	0x6
 9495 0aaa 0C       		.byte	0xc
 9496 0aab 80043240 		.4byte	0x40320480
 9497 0aaf 9F       		.byte	0x9f
 9498 0ab0 00000000 		.4byte	0
 9499 0ab4 00000000 		.4byte	0
 9500              	.LLST139:
 9501 0ab8 00010000 		.4byte	.LVL63
 9502 0abc 04010000 		.4byte	.LVL64
 9503 0ac0 0200     		.2byte	0x2
 9504 0ac2 30       		.byte	0x30
 9505 0ac3 9F       		.byte	0x9f
 9506 0ac4 00000000 		.4byte	0
 9507 0ac8 00000000 		.4byte	0
 9508              	.LLST140:
 9509 0acc 00010000 		.4byte	.LVL63
 9510 0ad0 04010000 		.4byte	.LVL64
 9511 0ad4 0200     		.2byte	0x2
 9512 0ad6 32       		.byte	0x32
 9513 0ad7 9F       		.byte	0x9f
 9514 0ad8 00000000 		.4byte	0
 9515 0adc 00000000 		.4byte	0
 9516              	.LLST141:
 9517 0ae0 00010000 		.4byte	.LVL63
 9518 0ae4 04010000 		.4byte	.LVL64
 9519 0ae8 0600     		.2byte	0x6
 9520 0aea 0C       		.byte	0xc
 9521 0aeb 80043240 		.4byte	0x40320480
 9522 0aef 9F       		.byte	0x9f
 9523 0af0 00000000 		.4byte	0
ARM GAS  C:\Users\Angel\AppData\Local\Temp\ccvqOPgy.s 			page 238


 9524 0af4 00000000 		.4byte	0
 9525              	.LLST142:
 9526 0af8 04010000 		.4byte	.LVL64
 9527 0afc 0A010000 		.4byte	.LVL65
 9528 0b00 0200     		.2byte	0x2
 9529 0b02 31       		.byte	0x31
 9530 0b03 9F       		.byte	0x9f
 9531 0b04 00000000 		.4byte	0
 9532 0b08 00000000 		.4byte	0
 9533              	.LLST143:
 9534 0b0c 04010000 		.4byte	.LVL64
 9535 0b10 0A010000 		.4byte	.LVL65
 9536 0b14 0200     		.2byte	0x2
 9537 0b16 33       		.byte	0x33
 9538 0b17 9F       		.byte	0x9f
 9539 0b18 00000000 		.4byte	0
 9540 0b1c 00000000 		.4byte	0
 9541              	.LLST144:
 9542 0b20 04010000 		.4byte	.LVL64
 9543 0b24 0A010000 		.4byte	.LVL65
 9544 0b28 0600     		.2byte	0x6
 9545 0b2a 0C       		.byte	0xc
 9546 0b2b 80043240 		.4byte	0x40320480
 9547 0b2f 9F       		.byte	0x9f
 9548 0b30 00000000 		.4byte	0
 9549 0b34 00000000 		.4byte	0
 9550              	.LLST145:
 9551 0b38 0A010000 		.4byte	.LVL65
 9552 0b3c 10010000 		.4byte	.LVL66
 9553 0b40 0200     		.2byte	0x2
 9554 0b42 30       		.byte	0x30
 9555 0b43 9F       		.byte	0x9f
 9556 0b44 00000000 		.4byte	0
 9557 0b48 00000000 		.4byte	0
 9558              	.LLST147:
 9559 0b4c 0A010000 		.4byte	.LVL65
 9560 0b50 10010000 		.4byte	.LVL66
 9561 0b54 0600     		.2byte	0x6
 9562 0b56 0C       		.byte	0xc
 9563 0b57 80043240 		.4byte	0x40320480
 9564 0b5b 9F       		.byte	0x9f
 9565 0b5c 00000000 		.4byte	0
 9566 0b60 00000000 		.4byte	0
 9567              	.LLST148:
 9568 0b64 10010000 		.4byte	.LVL66
 9569 0b68 14010000 		.4byte	.LVL67
 9570 0b6c 0200     		.2byte	0x2
 9571 0b6e 30       		.byte	0x30
 9572 0b6f 9F       		.byte	0x9f
 9573 0b70 00000000 		.4byte	0
 9574 0b74 00000000 		.4byte	0
 9575              	.LLST149:
 9576 0b78 10010000 		.4byte	.LVL66
 9577 0b7c 14010000 		.4byte	.LVL67
 9578 0b80 0200     		.2byte	0x2
 9579 0b82 31       		.byte	0x31
 9580 0b83 9F       		.byte	0x9f
ARM GAS  C:\Users\Angel\AppData\Local\Temp\ccvqOPgy.s 			page 239


 9581 0b84 00000000 		.4byte	0
 9582 0b88 00000000 		.4byte	0
 9583              	.LLST150:
 9584 0b8c 10010000 		.4byte	.LVL66
 9585 0b90 14010000 		.4byte	.LVL67
 9586 0b94 0600     		.2byte	0x6
 9587 0b96 0C       		.byte	0xc
 9588 0b97 80043240 		.4byte	0x40320480
 9589 0b9b 9F       		.byte	0x9f
 9590 0b9c 00000000 		.4byte	0
 9591 0ba0 00000000 		.4byte	0
 9592              	.LLST151:
 9593 0ba4 14010000 		.4byte	.LVL67
 9594 0ba8 18010000 		.4byte	.LVL68
 9595 0bac 0200     		.2byte	0x2
 9596 0bae 31       		.byte	0x31
 9597 0baf 9F       		.byte	0x9f
 9598 0bb0 00000000 		.4byte	0
 9599 0bb4 00000000 		.4byte	0
 9600              	.LLST152:
 9601 0bb8 14010000 		.4byte	.LVL67
 9602 0bbc 18010000 		.4byte	.LVL68
 9603 0bc0 0200     		.2byte	0x2
 9604 0bc2 32       		.byte	0x32
 9605 0bc3 9F       		.byte	0x9f
 9606 0bc4 00000000 		.4byte	0
 9607 0bc8 00000000 		.4byte	0
 9608              	.LLST153:
 9609 0bcc 14010000 		.4byte	.LVL67
 9610 0bd0 18010000 		.4byte	.LVL68
 9611 0bd4 0600     		.2byte	0x6
 9612 0bd6 0C       		.byte	0xc
 9613 0bd7 80043240 		.4byte	0x40320480
 9614 0bdb 9F       		.byte	0x9f
 9615 0bdc 00000000 		.4byte	0
 9616 0be0 00000000 		.4byte	0
 9617              	.LLST154:
 9618 0be4 18010000 		.4byte	.LVL68
 9619 0be8 1E010000 		.4byte	.LVL69
 9620 0bec 0200     		.2byte	0x2
 9621 0bee 31       		.byte	0x31
 9622 0bef 9F       		.byte	0x9f
 9623 0bf0 00000000 		.4byte	0
 9624 0bf4 00000000 		.4byte	0
 9625              	.LLST155:
 9626 0bf8 18010000 		.4byte	.LVL68
 9627 0bfc 1E010000 		.4byte	.LVL69
 9628 0c00 0200     		.2byte	0x2
 9629 0c02 33       		.byte	0x33
 9630 0c03 9F       		.byte	0x9f
 9631 0c04 00000000 		.4byte	0
 9632 0c08 00000000 		.4byte	0
 9633              	.LLST156:
 9634 0c0c 18010000 		.4byte	.LVL68
 9635 0c10 1E010000 		.4byte	.LVL69
 9636 0c14 0600     		.2byte	0x6
 9637 0c16 0C       		.byte	0xc
ARM GAS  C:\Users\Angel\AppData\Local\Temp\ccvqOPgy.s 			page 240


 9638 0c17 80043240 		.4byte	0x40320480
 9639 0c1b 9F       		.byte	0x9f
 9640 0c1c 00000000 		.4byte	0
 9641 0c20 00000000 		.4byte	0
 9642              	.LLST157:
 9643 0c24 1E010000 		.4byte	.LVL69
 9644 0c28 24010000 		.4byte	.LVL70
 9645 0c2c 0200     		.2byte	0x2
 9646 0c2e 31       		.byte	0x31
 9647 0c2f 9F       		.byte	0x9f
 9648 0c30 00000000 		.4byte	0
 9649 0c34 00000000 		.4byte	0
 9650              	.LLST158:
 9651 0c38 1E010000 		.4byte	.LVL69
 9652 0c3c 24010000 		.4byte	.LVL70
 9653 0c40 0200     		.2byte	0x2
 9654 0c42 30       		.byte	0x30
 9655 0c43 9F       		.byte	0x9f
 9656 0c44 00000000 		.4byte	0
 9657 0c48 00000000 		.4byte	0
 9658              	.LLST159:
 9659 0c4c 1E010000 		.4byte	.LVL69
 9660 0c50 24010000 		.4byte	.LVL70
 9661 0c54 0600     		.2byte	0x6
 9662 0c56 0C       		.byte	0xc
 9663 0c57 80043240 		.4byte	0x40320480
 9664 0c5b 9F       		.byte	0x9f
 9665 0c5c 00000000 		.4byte	0
 9666 0c60 00000000 		.4byte	0
 9667              	.LLST160:
 9668 0c64 24010000 		.4byte	.LVL70
 9669 0c68 28010000 		.4byte	.LVL71
 9670 0c6c 0200     		.2byte	0x2
 9671 0c6e 30       		.byte	0x30
 9672 0c6f 9F       		.byte	0x9f
 9673 0c70 00000000 		.4byte	0
 9674 0c74 00000000 		.4byte	0
 9675              	.LLST161:
 9676 0c78 24010000 		.4byte	.LVL70
 9677 0c7c 28010000 		.4byte	.LVL71
 9678 0c80 0200     		.2byte	0x2
 9679 0c82 31       		.byte	0x31
 9680 0c83 9F       		.byte	0x9f
 9681 0c84 00000000 		.4byte	0
 9682 0c88 00000000 		.4byte	0
 9683              	.LLST162:
 9684 0c8c 24010000 		.4byte	.LVL70
 9685 0c90 28010000 		.4byte	.LVL71
 9686 0c94 0600     		.2byte	0x6
 9687 0c96 0C       		.byte	0xc
 9688 0c97 80043240 		.4byte	0x40320480
 9689 0c9b 9F       		.byte	0x9f
 9690 0c9c 00000000 		.4byte	0
 9691 0ca0 00000000 		.4byte	0
 9692              	.LLST163:
 9693 0ca4 28010000 		.4byte	.LVL71
 9694 0ca8 2C010000 		.4byte	.LVL72
ARM GAS  C:\Users\Angel\AppData\Local\Temp\ccvqOPgy.s 			page 241


 9695 0cac 0200     		.2byte	0x2
 9696 0cae 31       		.byte	0x31
 9697 0caf 9F       		.byte	0x9f
 9698 0cb0 00000000 		.4byte	0
 9699 0cb4 00000000 		.4byte	0
 9700              	.LLST164:
 9701 0cb8 28010000 		.4byte	.LVL71
 9702 0cbc 2C010000 		.4byte	.LVL72
 9703 0cc0 0200     		.2byte	0x2
 9704 0cc2 32       		.byte	0x32
 9705 0cc3 9F       		.byte	0x9f
 9706 0cc4 00000000 		.4byte	0
 9707 0cc8 00000000 		.4byte	0
 9708              	.LLST165:
 9709 0ccc 28010000 		.4byte	.LVL71
 9710 0cd0 2C010000 		.4byte	.LVL72
 9711 0cd4 0600     		.2byte	0x6
 9712 0cd6 0C       		.byte	0xc
 9713 0cd7 80043240 		.4byte	0x40320480
 9714 0cdb 9F       		.byte	0x9f
 9715 0cdc 00000000 		.4byte	0
 9716 0ce0 00000000 		.4byte	0
 9717              	.LLST166:
 9718 0ce4 2C010000 		.4byte	.LVL72
 9719 0ce8 32010000 		.4byte	.LVL73
 9720 0cec 0200     		.2byte	0x2
 9721 0cee 31       		.byte	0x31
 9722 0cef 9F       		.byte	0x9f
 9723 0cf0 00000000 		.4byte	0
 9724 0cf4 00000000 		.4byte	0
 9725              	.LLST167:
 9726 0cf8 2C010000 		.4byte	.LVL72
 9727 0cfc 32010000 		.4byte	.LVL73
 9728 0d00 0200     		.2byte	0x2
 9729 0d02 33       		.byte	0x33
 9730 0d03 9F       		.byte	0x9f
 9731 0d04 00000000 		.4byte	0
 9732 0d08 00000000 		.4byte	0
 9733              	.LLST168:
 9734 0d0c 2C010000 		.4byte	.LVL72
 9735 0d10 32010000 		.4byte	.LVL73
 9736 0d14 0600     		.2byte	0x6
 9737 0d16 0C       		.byte	0xc
 9738 0d17 80043240 		.4byte	0x40320480
 9739 0d1b 9F       		.byte	0x9f
 9740 0d1c 00000000 		.4byte	0
 9741 0d20 00000000 		.4byte	0
 9742              	.LLST169:
 9743 0d24 32010000 		.4byte	.LVL73
 9744 0d28 38010000 		.4byte	.LVL74
 9745 0d2c 0200     		.2byte	0x2
 9746 0d2e 30       		.byte	0x30
 9747 0d2f 9F       		.byte	0x9f
 9748 0d30 00000000 		.4byte	0
 9749 0d34 00000000 		.4byte	0
 9750              	.LLST171:
 9751 0d38 32010000 		.4byte	.LVL73
ARM GAS  C:\Users\Angel\AppData\Local\Temp\ccvqOPgy.s 			page 242


 9752 0d3c 38010000 		.4byte	.LVL74
 9753 0d40 0600     		.2byte	0x6
 9754 0d42 0C       		.byte	0xc
 9755 0d43 80043240 		.4byte	0x40320480
 9756 0d47 9F       		.byte	0x9f
 9757 0d48 00000000 		.4byte	0
 9758 0d4c 00000000 		.4byte	0
 9759              	.LLST172:
 9760 0d50 38010000 		.4byte	.LVL74
 9761 0d54 3C010000 		.4byte	.LVL75
 9762 0d58 0200     		.2byte	0x2
 9763 0d5a 31       		.byte	0x31
 9764 0d5b 9F       		.byte	0x9f
 9765 0d5c 00000000 		.4byte	0
 9766 0d60 00000000 		.4byte	0
 9767              	.LLST174:
 9768 0d64 38010000 		.4byte	.LVL74
 9769 0d68 3C010000 		.4byte	.LVL75
 9770 0d6c 0600     		.2byte	0x6
 9771 0d6e 0C       		.byte	0xc
 9772 0d6f 80043240 		.4byte	0x40320480
 9773 0d73 9F       		.byte	0x9f
 9774 0d74 00000000 		.4byte	0
 9775 0d78 00000000 		.4byte	0
 9776              	.LLST175:
 9777 0d7c 3C010000 		.4byte	.LVL75
 9778 0d80 40010000 		.4byte	.LVL76
 9779 0d84 0200     		.2byte	0x2
 9780 0d86 31       		.byte	0x31
 9781 0d87 9F       		.byte	0x9f
 9782 0d88 00000000 		.4byte	0
 9783 0d8c 00000000 		.4byte	0
 9784              	.LLST176:
 9785 0d90 3C010000 		.4byte	.LVL75
 9786 0d94 40010000 		.4byte	.LVL76
 9787 0d98 0200     		.2byte	0x2
 9788 0d9a 32       		.byte	0x32
 9789 0d9b 9F       		.byte	0x9f
 9790 0d9c 00000000 		.4byte	0
 9791 0da0 00000000 		.4byte	0
 9792              	.LLST177:
 9793 0da4 3C010000 		.4byte	.LVL75
 9794 0da8 40010000 		.4byte	.LVL76
 9795 0dac 0600     		.2byte	0x6
 9796 0dae 0C       		.byte	0xc
 9797 0daf 80043240 		.4byte	0x40320480
 9798 0db3 9F       		.byte	0x9f
 9799 0db4 00000000 		.4byte	0
 9800 0db8 00000000 		.4byte	0
 9801              	.LLST178:
 9802 0dbc 40010000 		.4byte	.LVL76
 9803 0dc0 46010000 		.4byte	.LVL77
 9804 0dc4 0200     		.2byte	0x2
 9805 0dc6 31       		.byte	0x31
 9806 0dc7 9F       		.byte	0x9f
 9807 0dc8 00000000 		.4byte	0
 9808 0dcc 00000000 		.4byte	0
ARM GAS  C:\Users\Angel\AppData\Local\Temp\ccvqOPgy.s 			page 243


 9809              	.LLST179:
 9810 0dd0 40010000 		.4byte	.LVL76
 9811 0dd4 46010000 		.4byte	.LVL77
 9812 0dd8 0200     		.2byte	0x2
 9813 0dda 33       		.byte	0x33
 9814 0ddb 9F       		.byte	0x9f
 9815 0ddc 00000000 		.4byte	0
 9816 0de0 00000000 		.4byte	0
 9817              	.LLST180:
 9818 0de4 40010000 		.4byte	.LVL76
 9819 0de8 46010000 		.4byte	.LVL77
 9820 0dec 0600     		.2byte	0x6
 9821 0dee 0C       		.byte	0xc
 9822 0def 80043240 		.4byte	0x40320480
 9823 0df3 9F       		.byte	0x9f
 9824 0df4 00000000 		.4byte	0
 9825 0df8 00000000 		.4byte	0
 9826              	.LLST181:
 9827 0dfc 46010000 		.4byte	.LVL77
 9828 0e00 4C010000 		.4byte	.LVL78
 9829 0e04 0200     		.2byte	0x2
 9830 0e06 31       		.byte	0x31
 9831 0e07 9F       		.byte	0x9f
 9832 0e08 00000000 		.4byte	0
 9833 0e0c 00000000 		.4byte	0
 9834              	.LLST182:
 9835 0e10 46010000 		.4byte	.LVL77
 9836 0e14 4C010000 		.4byte	.LVL78
 9837 0e18 0200     		.2byte	0x2
 9838 0e1a 30       		.byte	0x30
 9839 0e1b 9F       		.byte	0x9f
 9840 0e1c 00000000 		.4byte	0
 9841 0e20 00000000 		.4byte	0
 9842              	.LLST183:
 9843 0e24 46010000 		.4byte	.LVL77
 9844 0e28 4C010000 		.4byte	.LVL78
 9845 0e2c 0600     		.2byte	0x6
 9846 0e2e 0C       		.byte	0xc
 9847 0e2f 80043240 		.4byte	0x40320480
 9848 0e33 9F       		.byte	0x9f
 9849 0e34 00000000 		.4byte	0
 9850 0e38 00000000 		.4byte	0
 9851              	.LLST184:
 9852 0e3c 4C010000 		.4byte	.LVL78
 9853 0e40 50010000 		.4byte	.LVL79
 9854 0e44 0200     		.2byte	0x2
 9855 0e46 31       		.byte	0x31
 9856 0e47 9F       		.byte	0x9f
 9857 0e48 00000000 		.4byte	0
 9858 0e4c 00000000 		.4byte	0
 9859              	.LLST186:
 9860 0e50 4C010000 		.4byte	.LVL78
 9861 0e54 50010000 		.4byte	.LVL79
 9862 0e58 0600     		.2byte	0x6
 9863 0e5a 0C       		.byte	0xc
 9864 0e5b 80043240 		.4byte	0x40320480
 9865 0e5f 9F       		.byte	0x9f
ARM GAS  C:\Users\Angel\AppData\Local\Temp\ccvqOPgy.s 			page 244


 9866 0e60 00000000 		.4byte	0
 9867 0e64 00000000 		.4byte	0
 9868              	.LLST187:
 9869 0e68 50010000 		.4byte	.LVL79
 9870 0e6c 54010000 		.4byte	.LVL80
 9871 0e70 0200     		.2byte	0x2
 9872 0e72 31       		.byte	0x31
 9873 0e73 9F       		.byte	0x9f
 9874 0e74 00000000 		.4byte	0
 9875 0e78 00000000 		.4byte	0
 9876              	.LLST188:
 9877 0e7c 50010000 		.4byte	.LVL79
 9878 0e80 54010000 		.4byte	.LVL80
 9879 0e84 0200     		.2byte	0x2
 9880 0e86 32       		.byte	0x32
 9881 0e87 9F       		.byte	0x9f
 9882 0e88 00000000 		.4byte	0
 9883 0e8c 00000000 		.4byte	0
 9884              	.LLST189:
 9885 0e90 50010000 		.4byte	.LVL79
 9886 0e94 54010000 		.4byte	.LVL80
 9887 0e98 0600     		.2byte	0x6
 9888 0e9a 0C       		.byte	0xc
 9889 0e9b 80043240 		.4byte	0x40320480
 9890 0e9f 9F       		.byte	0x9f
 9891 0ea0 00000000 		.4byte	0
 9892 0ea4 00000000 		.4byte	0
 9893              	.LLST190:
 9894 0ea8 54010000 		.4byte	.LVL80
 9895 0eac 58010000 		.4byte	.LVL81
 9896 0eb0 0200     		.2byte	0x2
 9897 0eb2 31       		.byte	0x31
 9898 0eb3 9F       		.byte	0x9f
 9899 0eb4 00000000 		.4byte	0
 9900 0eb8 00000000 		.4byte	0
 9901              	.LLST191:
 9902 0ebc 54010000 		.4byte	.LVL80
 9903 0ec0 58010000 		.4byte	.LVL81
 9904 0ec4 0200     		.2byte	0x2
 9905 0ec6 33       		.byte	0x33
 9906 0ec7 9F       		.byte	0x9f
 9907 0ec8 00000000 		.4byte	0
 9908 0ecc 00000000 		.4byte	0
 9909              	.LLST192:
 9910 0ed0 54010000 		.4byte	.LVL80
 9911 0ed4 58010000 		.4byte	.LVL81
 9912 0ed8 0600     		.2byte	0x6
 9913 0eda 0C       		.byte	0xc
 9914 0edb 80043240 		.4byte	0x40320480
 9915 0edf 9F       		.byte	0x9f
 9916 0ee0 00000000 		.4byte	0
 9917 0ee4 00000000 		.4byte	0
 9918              	.LLST193:
 9919 0ee8 2A000000 		.4byte	.LVL83
 9920 0eec 30000000 		.4byte	.LVL84
 9921 0ef0 0200     		.2byte	0x2
 9922 0ef2 30       		.byte	0x30
ARM GAS  C:\Users\Angel\AppData\Local\Temp\ccvqOPgy.s 			page 245


 9923 0ef3 9F       		.byte	0x9f
 9924 0ef4 00000000 		.4byte	0
 9925 0ef8 00000000 		.4byte	0
 9926              	.LLST194:
 9927 0efc 2A000000 		.4byte	.LVL83
 9928 0f00 30000000 		.4byte	.LVL84
 9929 0f04 0200     		.2byte	0x2
 9930 0f06 35       		.byte	0x35
 9931 0f07 9F       		.byte	0x9f
 9932 0f08 00000000 		.4byte	0
 9933 0f0c 00000000 		.4byte	0
 9934              	.LLST195:
 9935 0f10 2A000000 		.4byte	.LVL83
 9936 0f14 30000000 		.4byte	.LVL84
 9937 0f18 0600     		.2byte	0x6
 9938 0f1a 0C       		.byte	0xc
 9939 0f1b 80043240 		.4byte	0x40320480
 9940 0f1f 9F       		.byte	0x9f
 9941 0f20 00000000 		.4byte	0
 9942 0f24 00000000 		.4byte	0
 9943              	.LLST196:
 9944 0f28 30000000 		.4byte	.LVL84
 9945 0f2c 34000000 		.4byte	.LVL85
 9946 0f30 0200     		.2byte	0x2
 9947 0f32 30       		.byte	0x30
 9948 0f33 9F       		.byte	0x9f
 9949 0f34 00000000 		.4byte	0
 9950 0f38 00000000 		.4byte	0
 9951              	.LLST197:
 9952 0f3c 30000000 		.4byte	.LVL84
 9953 0f40 34000000 		.4byte	.LVL85
 9954 0f44 0200     		.2byte	0x2
 9955 0f46 36       		.byte	0x36
 9956 0f47 9F       		.byte	0x9f
 9957 0f48 00000000 		.4byte	0
 9958 0f4c 00000000 		.4byte	0
 9959              	.LLST198:
 9960 0f50 30000000 		.4byte	.LVL84
 9961 0f54 34000000 		.4byte	.LVL85
 9962 0f58 0600     		.2byte	0x6
 9963 0f5a 0C       		.byte	0xc
 9964 0f5b 80043240 		.4byte	0x40320480
 9965 0f5f 9F       		.byte	0x9f
 9966 0f60 00000000 		.4byte	0
 9967 0f64 00000000 		.4byte	0
 9968              	.LLST199:
 9969 0f68 34000000 		.4byte	.LVL85
 9970 0f6c 3C000000 		.4byte	.LVL86
 9971 0f70 0200     		.2byte	0x2
 9972 0f72 30       		.byte	0x30
 9973 0f73 9F       		.byte	0x9f
 9974 0f74 00000000 		.4byte	0
 9975 0f78 00000000 		.4byte	0
 9976              	.LLST200:
 9977 0f7c 34000000 		.4byte	.LVL85
 9978 0f80 3C000000 		.4byte	.LVL86
 9979 0f84 0200     		.2byte	0x2
ARM GAS  C:\Users\Angel\AppData\Local\Temp\ccvqOPgy.s 			page 246


 9980 0f86 32       		.byte	0x32
 9981 0f87 9F       		.byte	0x9f
 9982 0f88 00000000 		.4byte	0
 9983 0f8c 00000000 		.4byte	0
 9984              	.LLST201:
 9985 0f90 34000000 		.4byte	.LVL85
 9986 0f94 3C000000 		.4byte	.LVL86
 9987 0f98 0600     		.2byte	0x6
 9988 0f9a 0C       		.byte	0xc
 9989 0f9b 00033240 		.4byte	0x40320300
 9990 0f9f 9F       		.byte	0x9f
 9991 0fa0 00000000 		.4byte	0
 9992 0fa4 00000000 		.4byte	0
 9993              	.LLST202:
 9994 0fa8 3C000000 		.4byte	.LVL86
 9995 0fac 42000000 		.4byte	.LVL87
 9996 0fb0 0200     		.2byte	0x2
 9997 0fb2 30       		.byte	0x30
 9998 0fb3 9F       		.byte	0x9f
 9999 0fb4 00000000 		.4byte	0
 10000 0fb8 00000000 		.4byte	0
 10001              	.LLST203:
 10002 0fbc 3C000000 		.4byte	.LVL86
 10003 0fc0 42000000 		.4byte	.LVL87
 10004 0fc4 0200     		.2byte	0x2
 10005 0fc6 33       		.byte	0x33
 10006 0fc7 9F       		.byte	0x9f
 10007 0fc8 00000000 		.4byte	0
 10008 0fcc 00000000 		.4byte	0
 10009              	.LLST204:
 10010 0fd0 3C000000 		.4byte	.LVL86
 10011 0fd4 42000000 		.4byte	.LVL87
 10012 0fd8 0600     		.2byte	0x6
 10013 0fda 0C       		.byte	0xc
 10014 0fdb 00033240 		.4byte	0x40320300
 10015 0fdf 9F       		.byte	0x9f
 10016 0fe0 00000000 		.4byte	0
 10017 0fe4 00000000 		.4byte	0
 10018              	.LLST205:
 10019 0fe8 42000000 		.4byte	.LVL87
 10020 0fec 48000000 		.4byte	.LVL88
 10021 0ff0 0200     		.2byte	0x2
 10022 0ff2 31       		.byte	0x31
 10023 0ff3 9F       		.byte	0x9f
 10024 0ff4 00000000 		.4byte	0
 10025 0ff8 00000000 		.4byte	0
 10026              	.LLST206:
 10027 0ffc 42000000 		.4byte	.LVL87
 10028 1000 48000000 		.4byte	.LVL88
 10029 1004 0200     		.2byte	0x2
 10030 1006 35       		.byte	0x35
 10031 1007 9F       		.byte	0x9f
 10032 1008 00000000 		.4byte	0
 10033 100c 00000000 		.4byte	0
 10034              	.LLST207:
 10035 1010 42000000 		.4byte	.LVL87
 10036 1014 48000000 		.4byte	.LVL88
ARM GAS  C:\Users\Angel\AppData\Local\Temp\ccvqOPgy.s 			page 247


 10037 1018 0600     		.2byte	0x6
 10038 101a 0C       		.byte	0xc
 10039 101b 80043240 		.4byte	0x40320480
 10040 101f 9F       		.byte	0x9f
 10041 1020 00000000 		.4byte	0
 10042 1024 00000000 		.4byte	0
 10043              	.LLST208:
 10044 1028 48000000 		.4byte	.LVL88
 10045 102c 4C000000 		.4byte	.LVL89
 10046 1030 0200     		.2byte	0x2
 10047 1032 30       		.byte	0x30
 10048 1033 9F       		.byte	0x9f
 10049 1034 00000000 		.4byte	0
 10050 1038 00000000 		.4byte	0
 10051              	.LLST209:
 10052 103c 48000000 		.4byte	.LVL88
 10053 1040 4C000000 		.4byte	.LVL89
 10054 1044 0200     		.2byte	0x2
 10055 1046 36       		.byte	0x36
 10056 1047 9F       		.byte	0x9f
 10057 1048 00000000 		.4byte	0
 10058 104c 00000000 		.4byte	0
 10059              	.LLST210:
 10060 1050 48000000 		.4byte	.LVL88
 10061 1054 4C000000 		.4byte	.LVL89
 10062 1058 0600     		.2byte	0x6
 10063 105a 0C       		.byte	0xc
 10064 105b 80043240 		.4byte	0x40320480
 10065 105f 9F       		.byte	0x9f
 10066 1060 00000000 		.4byte	0
 10067 1064 00000000 		.4byte	0
 10068              	.LLST211:
 10069 1068 4C000000 		.4byte	.LVL89
 10070 106c 54000000 		.4byte	.LVL90
 10071 1070 0200     		.2byte	0x2
 10072 1072 30       		.byte	0x30
 10073 1073 9F       		.byte	0x9f
 10074 1074 00000000 		.4byte	0
 10075 1078 00000000 		.4byte	0
 10076              	.LLST212:
 10077 107c 4C000000 		.4byte	.LVL89
 10078 1080 54000000 		.4byte	.LVL90
 10079 1084 0200     		.2byte	0x2
 10080 1086 32       		.byte	0x32
 10081 1087 9F       		.byte	0x9f
 10082 1088 00000000 		.4byte	0
 10083 108c 00000000 		.4byte	0
 10084              	.LLST213:
 10085 1090 4C000000 		.4byte	.LVL89
 10086 1094 54000000 		.4byte	.LVL90
 10087 1098 0600     		.2byte	0x6
 10088 109a 0C       		.byte	0xc
 10089 109b 00033240 		.4byte	0x40320300
 10090 109f 9F       		.byte	0x9f
 10091 10a0 00000000 		.4byte	0
 10092 10a4 00000000 		.4byte	0
 10093              	.LLST214:
ARM GAS  C:\Users\Angel\AppData\Local\Temp\ccvqOPgy.s 			page 248


 10094 10a8 54000000 		.4byte	.LVL90
 10095 10ac 5A000000 		.4byte	.LVL91
 10096 10b0 0200     		.2byte	0x2
 10097 10b2 30       		.byte	0x30
 10098 10b3 9F       		.byte	0x9f
 10099 10b4 00000000 		.4byte	0
 10100 10b8 00000000 		.4byte	0
 10101              	.LLST215:
 10102 10bc 54000000 		.4byte	.LVL90
 10103 10c0 5A000000 		.4byte	.LVL91
 10104 10c4 0200     		.2byte	0x2
 10105 10c6 33       		.byte	0x33
 10106 10c7 9F       		.byte	0x9f
 10107 10c8 00000000 		.4byte	0
 10108 10cc 00000000 		.4byte	0
 10109              	.LLST216:
 10110 10d0 54000000 		.4byte	.LVL90
 10111 10d4 5A000000 		.4byte	.LVL91
 10112 10d8 0600     		.2byte	0x6
 10113 10da 0C       		.byte	0xc
 10114 10db 00033240 		.4byte	0x40320300
 10115 10df 9F       		.byte	0x9f
 10116 10e0 00000000 		.4byte	0
 10117 10e4 00000000 		.4byte	0
 10118              	.LLST217:
 10119 10e8 5A000000 		.4byte	.LVL91
 10120 10ec 60000000 		.4byte	.LVL92
 10121 10f0 0200     		.2byte	0x2
 10122 10f2 30       		.byte	0x30
 10123 10f3 9F       		.byte	0x9f
 10124 10f4 00000000 		.4byte	0
 10125 10f8 00000000 		.4byte	0
 10126              	.LLST218:
 10127 10fc 5A000000 		.4byte	.LVL91
 10128 1100 60000000 		.4byte	.LVL92
 10129 1104 0200     		.2byte	0x2
 10130 1106 35       		.byte	0x35
 10131 1107 9F       		.byte	0x9f
 10132 1108 00000000 		.4byte	0
 10133 110c 00000000 		.4byte	0
 10134              	.LLST219:
 10135 1110 5A000000 		.4byte	.LVL91
 10136 1114 60000000 		.4byte	.LVL92
 10137 1118 0600     		.2byte	0x6
 10138 111a 0C       		.byte	0xc
 10139 111b 80043240 		.4byte	0x40320480
 10140 111f 9F       		.byte	0x9f
 10141 1120 00000000 		.4byte	0
 10142 1124 00000000 		.4byte	0
 10143              	.LLST220:
 10144 1128 60000000 		.4byte	.LVL92
 10145 112c 64000000 		.4byte	.LVL93
 10146 1130 0200     		.2byte	0x2
 10147 1132 31       		.byte	0x31
 10148 1133 9F       		.byte	0x9f
 10149 1134 00000000 		.4byte	0
 10150 1138 00000000 		.4byte	0
ARM GAS  C:\Users\Angel\AppData\Local\Temp\ccvqOPgy.s 			page 249


 10151              	.LLST221:
 10152 113c 60000000 		.4byte	.LVL92
 10153 1140 64000000 		.4byte	.LVL93
 10154 1144 0200     		.2byte	0x2
 10155 1146 36       		.byte	0x36
 10156 1147 9F       		.byte	0x9f
 10157 1148 00000000 		.4byte	0
 10158 114c 00000000 		.4byte	0
 10159              	.LLST222:
 10160 1150 60000000 		.4byte	.LVL92
 10161 1154 64000000 		.4byte	.LVL93
 10162 1158 0600     		.2byte	0x6
 10163 115a 0C       		.byte	0xc
 10164 115b 80043240 		.4byte	0x40320480
 10165 115f 9F       		.byte	0x9f
 10166 1160 00000000 		.4byte	0
 10167 1164 00000000 		.4byte	0
 10168              	.LLST223:
 10169 1168 64000000 		.4byte	.LVL93
 10170 116c 6C000000 		.4byte	.LVL94
 10171 1170 0200     		.2byte	0x2
 10172 1172 30       		.byte	0x30
 10173 1173 9F       		.byte	0x9f
 10174 1174 00000000 		.4byte	0
 10175 1178 00000000 		.4byte	0
 10176              	.LLST224:
 10177 117c 64000000 		.4byte	.LVL93
 10178 1180 6C000000 		.4byte	.LVL94
 10179 1184 0200     		.2byte	0x2
 10180 1186 32       		.byte	0x32
 10181 1187 9F       		.byte	0x9f
 10182 1188 00000000 		.4byte	0
 10183 118c 00000000 		.4byte	0
 10184              	.LLST225:
 10185 1190 64000000 		.4byte	.LVL93
 10186 1194 6C000000 		.4byte	.LVL94
 10187 1198 0600     		.2byte	0x6
 10188 119a 0C       		.byte	0xc
 10189 119b 00033240 		.4byte	0x40320300
 10190 119f 9F       		.byte	0x9f
 10191 11a0 00000000 		.4byte	0
 10192 11a4 00000000 		.4byte	0
 10193              	.LLST226:
 10194 11a8 6C000000 		.4byte	.LVL94
 10195 11ac 72000000 		.4byte	.LVL95
 10196 11b0 0200     		.2byte	0x2
 10197 11b2 30       		.byte	0x30
 10198 11b3 9F       		.byte	0x9f
 10199 11b4 00000000 		.4byte	0
 10200 11b8 00000000 		.4byte	0
 10201              	.LLST227:
 10202 11bc 6C000000 		.4byte	.LVL94
 10203 11c0 72000000 		.4byte	.LVL95
 10204 11c4 0200     		.2byte	0x2
 10205 11c6 33       		.byte	0x33
 10206 11c7 9F       		.byte	0x9f
 10207 11c8 00000000 		.4byte	0
ARM GAS  C:\Users\Angel\AppData\Local\Temp\ccvqOPgy.s 			page 250


 10208 11cc 00000000 		.4byte	0
 10209              	.LLST228:
 10210 11d0 6C000000 		.4byte	.LVL94
 10211 11d4 72000000 		.4byte	.LVL95
 10212 11d8 0600     		.2byte	0x6
 10213 11da 0C       		.byte	0xc
 10214 11db 00033240 		.4byte	0x40320300
 10215 11df 9F       		.byte	0x9f
 10216 11e0 00000000 		.4byte	0
 10217 11e4 00000000 		.4byte	0
 10218              	.LLST229:
 10219 11e8 72000000 		.4byte	.LVL95
 10220 11ec 78000000 		.4byte	.LVL96
 10221 11f0 0200     		.2byte	0x2
 10222 11f2 31       		.byte	0x31
 10223 11f3 9F       		.byte	0x9f
 10224 11f4 00000000 		.4byte	0
 10225 11f8 00000000 		.4byte	0
 10226              	.LLST230:
 10227 11fc 72000000 		.4byte	.LVL95
 10228 1200 78000000 		.4byte	.LVL96
 10229 1204 0200     		.2byte	0x2
 10230 1206 35       		.byte	0x35
 10231 1207 9F       		.byte	0x9f
 10232 1208 00000000 		.4byte	0
 10233 120c 00000000 		.4byte	0
 10234              	.LLST231:
 10235 1210 72000000 		.4byte	.LVL95
 10236 1214 78000000 		.4byte	.LVL96
 10237 1218 0600     		.2byte	0x6
 10238 121a 0C       		.byte	0xc
 10239 121b 80043240 		.4byte	0x40320480
 10240 121f 9F       		.byte	0x9f
 10241 1220 00000000 		.4byte	0
 10242 1224 00000000 		.4byte	0
 10243              	.LLST232:
 10244 1228 78000000 		.4byte	.LVL96
 10245 122c 7C000000 		.4byte	.LVL97
 10246 1230 0200     		.2byte	0x2
 10247 1232 31       		.byte	0x31
 10248 1233 9F       		.byte	0x9f
 10249 1234 00000000 		.4byte	0
 10250 1238 00000000 		.4byte	0
 10251              	.LLST233:
 10252 123c 78000000 		.4byte	.LVL96
 10253 1240 7C000000 		.4byte	.LVL97
 10254 1244 0200     		.2byte	0x2
 10255 1246 36       		.byte	0x36
 10256 1247 9F       		.byte	0x9f
 10257 1248 00000000 		.4byte	0
 10258 124c 00000000 		.4byte	0
 10259              	.LLST234:
 10260 1250 78000000 		.4byte	.LVL96
 10261 1254 7C000000 		.4byte	.LVL97
 10262 1258 0600     		.2byte	0x6
 10263 125a 0C       		.byte	0xc
 10264 125b 80043240 		.4byte	0x40320480
ARM GAS  C:\Users\Angel\AppData\Local\Temp\ccvqOPgy.s 			page 251


 10265 125f 9F       		.byte	0x9f
 10266 1260 00000000 		.4byte	0
 10267 1264 00000000 		.4byte	0
 10268              	.LLST235:
 10269 1268 7C000000 		.4byte	.LVL97
 10270 126c 84000000 		.4byte	.LVL98
 10271 1270 0200     		.2byte	0x2
 10272 1272 30       		.byte	0x30
 10273 1273 9F       		.byte	0x9f
 10274 1274 00000000 		.4byte	0
 10275 1278 00000000 		.4byte	0
 10276              	.LLST236:
 10277 127c 7C000000 		.4byte	.LVL97
 10278 1280 84000000 		.4byte	.LVL98
 10279 1284 0200     		.2byte	0x2
 10280 1286 32       		.byte	0x32
 10281 1287 9F       		.byte	0x9f
 10282 1288 00000000 		.4byte	0
 10283 128c 00000000 		.4byte	0
 10284              	.LLST237:
 10285 1290 7C000000 		.4byte	.LVL97
 10286 1294 84000000 		.4byte	.LVL98
 10287 1298 0600     		.2byte	0x6
 10288 129a 0C       		.byte	0xc
 10289 129b 00033240 		.4byte	0x40320300
 10290 129f 9F       		.byte	0x9f
 10291 12a0 00000000 		.4byte	0
 10292 12a4 00000000 		.4byte	0
 10293              	.LLST238:
 10294 12a8 84000000 		.4byte	.LVL98
 10295 12ac 8A000000 		.4byte	.LVL99
 10296 12b0 0200     		.2byte	0x2
 10297 12b2 30       		.byte	0x30
 10298 12b3 9F       		.byte	0x9f
 10299 12b4 00000000 		.4byte	0
 10300 12b8 00000000 		.4byte	0
 10301              	.LLST239:
 10302 12bc 84000000 		.4byte	.LVL98
 10303 12c0 8A000000 		.4byte	.LVL99
 10304 12c4 0200     		.2byte	0x2
 10305 12c6 33       		.byte	0x33
 10306 12c7 9F       		.byte	0x9f
 10307 12c8 00000000 		.4byte	0
 10308 12cc 00000000 		.4byte	0
 10309              	.LLST240:
 10310 12d0 84000000 		.4byte	.LVL98
 10311 12d4 8A000000 		.4byte	.LVL99
 10312 12d8 0600     		.2byte	0x6
 10313 12da 0C       		.byte	0xc
 10314 12db 00033240 		.4byte	0x40320300
 10315 12df 9F       		.byte	0x9f
 10316 12e0 00000000 		.4byte	0
 10317 12e4 00000000 		.4byte	0
 10318              	.LLST241:
 10319 12e8 8A000000 		.4byte	.LVL99
 10320 12ec 90000000 		.4byte	.LVL100
 10321 12f0 0200     		.2byte	0x2
ARM GAS  C:\Users\Angel\AppData\Local\Temp\ccvqOPgy.s 			page 252


 10322 12f2 30       		.byte	0x30
 10323 12f3 9F       		.byte	0x9f
 10324 12f4 00000000 		.4byte	0
 10325 12f8 00000000 		.4byte	0
 10326              	.LLST242:
 10327 12fc 8A000000 		.4byte	.LVL99
 10328 1300 90000000 		.4byte	.LVL100
 10329 1304 0200     		.2byte	0x2
 10330 1306 35       		.byte	0x35
 10331 1307 9F       		.byte	0x9f
 10332 1308 00000000 		.4byte	0
 10333 130c 00000000 		.4byte	0
 10334              	.LLST243:
 10335 1310 8A000000 		.4byte	.LVL99
 10336 1314 90000000 		.4byte	.LVL100
 10337 1318 0600     		.2byte	0x6
 10338 131a 0C       		.byte	0xc
 10339 131b 80043240 		.4byte	0x40320480
 10340 131f 9F       		.byte	0x9f
 10341 1320 00000000 		.4byte	0
 10342 1324 00000000 		.4byte	0
 10343              	.LLST244:
 10344 1328 90000000 		.4byte	.LVL100
 10345 132c 94000000 		.4byte	.LVL101
 10346 1330 0200     		.2byte	0x2
 10347 1332 30       		.byte	0x30
 10348 1333 9F       		.byte	0x9f
 10349 1334 00000000 		.4byte	0
 10350 1338 00000000 		.4byte	0
 10351              	.LLST245:
 10352 133c 90000000 		.4byte	.LVL100
 10353 1340 94000000 		.4byte	.LVL101
 10354 1344 0200     		.2byte	0x2
 10355 1346 36       		.byte	0x36
 10356 1347 9F       		.byte	0x9f
 10357 1348 00000000 		.4byte	0
 10358 134c 00000000 		.4byte	0
 10359              	.LLST246:
 10360 1350 90000000 		.4byte	.LVL100
 10361 1354 94000000 		.4byte	.LVL101
 10362 1358 0600     		.2byte	0x6
 10363 135a 0C       		.byte	0xc
 10364 135b 80043240 		.4byte	0x40320480
 10365 135f 9F       		.byte	0x9f
 10366 1360 00000000 		.4byte	0
 10367 1364 00000000 		.4byte	0
 10368              	.LLST247:
 10369 1368 94000000 		.4byte	.LVL101
 10370 136c 9C000000 		.4byte	.LVL102
 10371 1370 0200     		.2byte	0x2
 10372 1372 31       		.byte	0x31
 10373 1373 9F       		.byte	0x9f
 10374 1374 00000000 		.4byte	0
 10375 1378 00000000 		.4byte	0
 10376              	.LLST248:
 10377 137c 94000000 		.4byte	.LVL101
 10378 1380 9C000000 		.4byte	.LVL102
ARM GAS  C:\Users\Angel\AppData\Local\Temp\ccvqOPgy.s 			page 253


 10379 1384 0200     		.2byte	0x2
 10380 1386 32       		.byte	0x32
 10381 1387 9F       		.byte	0x9f
 10382 1388 00000000 		.4byte	0
 10383 138c 00000000 		.4byte	0
 10384              	.LLST249:
 10385 1390 94000000 		.4byte	.LVL101
 10386 1394 9C000000 		.4byte	.LVL102
 10387 1398 0600     		.2byte	0x6
 10388 139a 0C       		.byte	0xc
 10389 139b 00033240 		.4byte	0x40320300
 10390 139f 9F       		.byte	0x9f
 10391 13a0 00000000 		.4byte	0
 10392 13a4 00000000 		.4byte	0
 10393              	.LLST250:
 10394 13a8 9C000000 		.4byte	.LVL102
 10395 13ac A2000000 		.4byte	.LVL103
 10396 13b0 0200     		.2byte	0x2
 10397 13b2 30       		.byte	0x30
 10398 13b3 9F       		.byte	0x9f
 10399 13b4 00000000 		.4byte	0
 10400 13b8 00000000 		.4byte	0
 10401              	.LLST251:
 10402 13bc 9C000000 		.4byte	.LVL102
 10403 13c0 A2000000 		.4byte	.LVL103
 10404 13c4 0200     		.2byte	0x2
 10405 13c6 33       		.byte	0x33
 10406 13c7 9F       		.byte	0x9f
 10407 13c8 00000000 		.4byte	0
 10408 13cc 00000000 		.4byte	0
 10409              	.LLST252:
 10410 13d0 9C000000 		.4byte	.LVL102
 10411 13d4 A2000000 		.4byte	.LVL103
 10412 13d8 0600     		.2byte	0x6
 10413 13da 0C       		.byte	0xc
 10414 13db 00033240 		.4byte	0x40320300
 10415 13df 9F       		.byte	0x9f
 10416 13e0 00000000 		.4byte	0
 10417 13e4 00000000 		.4byte	0
 10418              	.LLST253:
 10419 13e8 A2000000 		.4byte	.LVL103
 10420 13ec A8000000 		.4byte	.LVL104
 10421 13f0 0200     		.2byte	0x2
 10422 13f2 31       		.byte	0x31
 10423 13f3 9F       		.byte	0x9f
 10424 13f4 00000000 		.4byte	0
 10425 13f8 00000000 		.4byte	0
 10426              	.LLST254:
 10427 13fc A2000000 		.4byte	.LVL103
 10428 1400 A8000000 		.4byte	.LVL104
 10429 1404 0200     		.2byte	0x2
 10430 1406 35       		.byte	0x35
 10431 1407 9F       		.byte	0x9f
 10432 1408 00000000 		.4byte	0
 10433 140c 00000000 		.4byte	0
 10434              	.LLST255:
 10435 1410 A2000000 		.4byte	.LVL103
ARM GAS  C:\Users\Angel\AppData\Local\Temp\ccvqOPgy.s 			page 254


 10436 1414 A8000000 		.4byte	.LVL104
 10437 1418 0600     		.2byte	0x6
 10438 141a 0C       		.byte	0xc
 10439 141b 80043240 		.4byte	0x40320480
 10440 141f 9F       		.byte	0x9f
 10441 1420 00000000 		.4byte	0
 10442 1424 00000000 		.4byte	0
 10443              	.LLST256:
 10444 1428 A8000000 		.4byte	.LVL104
 10445 142c AC000000 		.4byte	.LVL105
 10446 1430 0200     		.2byte	0x2
 10447 1432 30       		.byte	0x30
 10448 1433 9F       		.byte	0x9f
 10449 1434 00000000 		.4byte	0
 10450 1438 00000000 		.4byte	0
 10451              	.LLST257:
 10452 143c A8000000 		.4byte	.LVL104
 10453 1440 AC000000 		.4byte	.LVL105
 10454 1444 0200     		.2byte	0x2
 10455 1446 36       		.byte	0x36
 10456 1447 9F       		.byte	0x9f
 10457 1448 00000000 		.4byte	0
 10458 144c 00000000 		.4byte	0
 10459              	.LLST258:
 10460 1450 A8000000 		.4byte	.LVL104
 10461 1454 AC000000 		.4byte	.LVL105
 10462 1458 0600     		.2byte	0x6
 10463 145a 0C       		.byte	0xc
 10464 145b 80043240 		.4byte	0x40320480
 10465 145f 9F       		.byte	0x9f
 10466 1460 00000000 		.4byte	0
 10467 1464 00000000 		.4byte	0
 10468              	.LLST259:
 10469 1468 AC000000 		.4byte	.LVL105
 10470 146c B4000000 		.4byte	.LVL106
 10471 1470 0200     		.2byte	0x2
 10472 1472 31       		.byte	0x31
 10473 1473 9F       		.byte	0x9f
 10474 1474 00000000 		.4byte	0
 10475 1478 00000000 		.4byte	0
 10476              	.LLST260:
 10477 147c AC000000 		.4byte	.LVL105
 10478 1480 B4000000 		.4byte	.LVL106
 10479 1484 0200     		.2byte	0x2
 10480 1486 32       		.byte	0x32
 10481 1487 9F       		.byte	0x9f
 10482 1488 00000000 		.4byte	0
 10483 148c 00000000 		.4byte	0
 10484              	.LLST261:
 10485 1490 AC000000 		.4byte	.LVL105
 10486 1494 B4000000 		.4byte	.LVL106
 10487 1498 0600     		.2byte	0x6
 10488 149a 0C       		.byte	0xc
 10489 149b 00033240 		.4byte	0x40320300
 10490 149f 9F       		.byte	0x9f
 10491 14a0 00000000 		.4byte	0
 10492 14a4 00000000 		.4byte	0
ARM GAS  C:\Users\Angel\AppData\Local\Temp\ccvqOPgy.s 			page 255


 10493              	.LLST262:
 10494 14a8 B4000000 		.4byte	.LVL106
 10495 14ac BA000000 		.4byte	.LVL107
 10496 14b0 0200     		.2byte	0x2
 10497 14b2 30       		.byte	0x30
 10498 14b3 9F       		.byte	0x9f
 10499 14b4 00000000 		.4byte	0
 10500 14b8 00000000 		.4byte	0
 10501              	.LLST263:
 10502 14bc B4000000 		.4byte	.LVL106
 10503 14c0 BA000000 		.4byte	.LVL107
 10504 14c4 0200     		.2byte	0x2
 10505 14c6 33       		.byte	0x33
 10506 14c7 9F       		.byte	0x9f
 10507 14c8 00000000 		.4byte	0
 10508 14cc 00000000 		.4byte	0
 10509              	.LLST264:
 10510 14d0 B4000000 		.4byte	.LVL106
 10511 14d4 BA000000 		.4byte	.LVL107
 10512 14d8 0600     		.2byte	0x6
 10513 14da 0C       		.byte	0xc
 10514 14db 00033240 		.4byte	0x40320300
 10515 14df 9F       		.byte	0x9f
 10516 14e0 00000000 		.4byte	0
 10517 14e4 00000000 		.4byte	0
 10518              	.LLST265:
 10519 14e8 BA000000 		.4byte	.LVL107
 10520 14ec C0000000 		.4byte	.LVL108
 10521 14f0 0200     		.2byte	0x2
 10522 14f2 30       		.byte	0x30
 10523 14f3 9F       		.byte	0x9f
 10524 14f4 00000000 		.4byte	0
 10525 14f8 00000000 		.4byte	0
 10526              	.LLST266:
 10527 14fc BA000000 		.4byte	.LVL107
 10528 1500 C0000000 		.4byte	.LVL108
 10529 1504 0200     		.2byte	0x2
 10530 1506 35       		.byte	0x35
 10531 1507 9F       		.byte	0x9f
 10532 1508 00000000 		.4byte	0
 10533 150c 00000000 		.4byte	0
 10534              	.LLST267:
 10535 1510 BA000000 		.4byte	.LVL107
 10536 1514 C0000000 		.4byte	.LVL108
 10537 1518 0600     		.2byte	0x6
 10538 151a 0C       		.byte	0xc
 10539 151b 80043240 		.4byte	0x40320480
 10540 151f 9F       		.byte	0x9f
 10541 1520 00000000 		.4byte	0
 10542 1524 00000000 		.4byte	0
 10543              	.LLST268:
 10544 1528 C0000000 		.4byte	.LVL108
 10545 152c C4000000 		.4byte	.LVL109
 10546 1530 0200     		.2byte	0x2
 10547 1532 31       		.byte	0x31
 10548 1533 9F       		.byte	0x9f
 10549 1534 00000000 		.4byte	0
ARM GAS  C:\Users\Angel\AppData\Local\Temp\ccvqOPgy.s 			page 256


 10550 1538 00000000 		.4byte	0
 10551              	.LLST269:
 10552 153c C0000000 		.4byte	.LVL108
 10553 1540 C4000000 		.4byte	.LVL109
 10554 1544 0200     		.2byte	0x2
 10555 1546 36       		.byte	0x36
 10556 1547 9F       		.byte	0x9f
 10557 1548 00000000 		.4byte	0
 10558 154c 00000000 		.4byte	0
 10559              	.LLST270:
 10560 1550 C0000000 		.4byte	.LVL108
 10561 1554 C4000000 		.4byte	.LVL109
 10562 1558 0600     		.2byte	0x6
 10563 155a 0C       		.byte	0xc
 10564 155b 80043240 		.4byte	0x40320480
 10565 155f 9F       		.byte	0x9f
 10566 1560 00000000 		.4byte	0
 10567 1564 00000000 		.4byte	0
 10568              	.LLST271:
 10569 1568 C4000000 		.4byte	.LVL109
 10570 156c CC000000 		.4byte	.LVL110
 10571 1570 0200     		.2byte	0x2
 10572 1572 31       		.byte	0x31
 10573 1573 9F       		.byte	0x9f
 10574 1574 00000000 		.4byte	0
 10575 1578 00000000 		.4byte	0
 10576              	.LLST272:
 10577 157c C4000000 		.4byte	.LVL109
 10578 1580 CC000000 		.4byte	.LVL110
 10579 1584 0200     		.2byte	0x2
 10580 1586 32       		.byte	0x32
 10581 1587 9F       		.byte	0x9f
 10582 1588 00000000 		.4byte	0
 10583 158c 00000000 		.4byte	0
 10584              	.LLST273:
 10585 1590 C4000000 		.4byte	.LVL109
 10586 1594 CC000000 		.4byte	.LVL110
 10587 1598 0600     		.2byte	0x6
 10588 159a 0C       		.byte	0xc
 10589 159b 00033240 		.4byte	0x40320300
 10590 159f 9F       		.byte	0x9f
 10591 15a0 00000000 		.4byte	0
 10592 15a4 00000000 		.4byte	0
 10593              	.LLST274:
 10594 15a8 CC000000 		.4byte	.LVL110
 10595 15ac D2000000 		.4byte	.LVL111
 10596 15b0 0200     		.2byte	0x2
 10597 15b2 30       		.byte	0x30
 10598 15b3 9F       		.byte	0x9f
 10599 15b4 00000000 		.4byte	0
 10600 15b8 00000000 		.4byte	0
 10601              	.LLST275:
 10602 15bc CC000000 		.4byte	.LVL110
 10603 15c0 D2000000 		.4byte	.LVL111
 10604 15c4 0200     		.2byte	0x2
 10605 15c6 33       		.byte	0x33
 10606 15c7 9F       		.byte	0x9f
ARM GAS  C:\Users\Angel\AppData\Local\Temp\ccvqOPgy.s 			page 257


 10607 15c8 00000000 		.4byte	0
 10608 15cc 00000000 		.4byte	0
 10609              	.LLST276:
 10610 15d0 CC000000 		.4byte	.LVL110
 10611 15d4 D2000000 		.4byte	.LVL111
 10612 15d8 0600     		.2byte	0x6
 10613 15da 0C       		.byte	0xc
 10614 15db 00033240 		.4byte	0x40320300
 10615 15df 9F       		.byte	0x9f
 10616 15e0 00000000 		.4byte	0
 10617 15e4 00000000 		.4byte	0
 10618              	.LLST277:
 10619 15e8 D2000000 		.4byte	.LVL111
 10620 15ec D8000000 		.4byte	.LVL112
 10621 15f0 0200     		.2byte	0x2
 10622 15f2 31       		.byte	0x31
 10623 15f3 9F       		.byte	0x9f
 10624 15f4 00000000 		.4byte	0
 10625 15f8 00000000 		.4byte	0
 10626              	.LLST278:
 10627 15fc D2000000 		.4byte	.LVL111
 10628 1600 D8000000 		.4byte	.LVL112
 10629 1604 0200     		.2byte	0x2
 10630 1606 35       		.byte	0x35
 10631 1607 9F       		.byte	0x9f
 10632 1608 00000000 		.4byte	0
 10633 160c 00000000 		.4byte	0
 10634              	.LLST279:
 10635 1610 D2000000 		.4byte	.LVL111
 10636 1614 D8000000 		.4byte	.LVL112
 10637 1618 0600     		.2byte	0x6
 10638 161a 0C       		.byte	0xc
 10639 161b 80043240 		.4byte	0x40320480
 10640 161f 9F       		.byte	0x9f
 10641 1620 00000000 		.4byte	0
 10642 1624 00000000 		.4byte	0
 10643              	.LLST280:
 10644 1628 D8000000 		.4byte	.LVL112
 10645 162c DC000000 		.4byte	.LVL113
 10646 1630 0200     		.2byte	0x2
 10647 1632 31       		.byte	0x31
 10648 1633 9F       		.byte	0x9f
 10649 1634 00000000 		.4byte	0
 10650 1638 00000000 		.4byte	0
 10651              	.LLST281:
 10652 163c D8000000 		.4byte	.LVL112
 10653 1640 DC000000 		.4byte	.LVL113
 10654 1644 0200     		.2byte	0x2
 10655 1646 36       		.byte	0x36
 10656 1647 9F       		.byte	0x9f
 10657 1648 00000000 		.4byte	0
 10658 164c 00000000 		.4byte	0
 10659              	.LLST282:
 10660 1650 D8000000 		.4byte	.LVL112
 10661 1654 DC000000 		.4byte	.LVL113
 10662 1658 0600     		.2byte	0x6
 10663 165a 0C       		.byte	0xc
ARM GAS  C:\Users\Angel\AppData\Local\Temp\ccvqOPgy.s 			page 258


 10664 165b 80043240 		.4byte	0x40320480
 10665 165f 9F       		.byte	0x9f
 10666 1660 00000000 		.4byte	0
 10667 1664 00000000 		.4byte	0
 10668              	.LLST283:
 10669 1668 DC000000 		.4byte	.LVL113
 10670 166c E4000000 		.4byte	.LVL114
 10671 1670 0200     		.2byte	0x2
 10672 1672 31       		.byte	0x31
 10673 1673 9F       		.byte	0x9f
 10674 1674 00000000 		.4byte	0
 10675 1678 00000000 		.4byte	0
 10676              	.LLST284:
 10677 167c DC000000 		.4byte	.LVL113
 10678 1680 E4000000 		.4byte	.LVL114
 10679 1684 0200     		.2byte	0x2
 10680 1686 32       		.byte	0x32
 10681 1687 9F       		.byte	0x9f
 10682 1688 00000000 		.4byte	0
 10683 168c 00000000 		.4byte	0
 10684              	.LLST285:
 10685 1690 DC000000 		.4byte	.LVL113
 10686 1694 E4000000 		.4byte	.LVL114
 10687 1698 0600     		.2byte	0x6
 10688 169a 0C       		.byte	0xc
 10689 169b 00033240 		.4byte	0x40320300
 10690 169f 9F       		.byte	0x9f
 10691 16a0 00000000 		.4byte	0
 10692 16a4 00000000 		.4byte	0
 10693              	.LLST286:
 10694 16a8 E4000000 		.4byte	.LVL114
 10695 16ac EA000000 		.4byte	.LVL115
 10696 16b0 0200     		.2byte	0x2
 10697 16b2 30       		.byte	0x30
 10698 16b3 9F       		.byte	0x9f
 10699 16b4 00000000 		.4byte	0
 10700 16b8 00000000 		.4byte	0
 10701              	.LLST287:
 10702 16bc E4000000 		.4byte	.LVL114
 10703 16c0 EA000000 		.4byte	.LVL115
 10704 16c4 0200     		.2byte	0x2
 10705 16c6 33       		.byte	0x33
 10706 16c7 9F       		.byte	0x9f
 10707 16c8 00000000 		.4byte	0
 10708 16cc 00000000 		.4byte	0
 10709              	.LLST288:
 10710 16d0 E4000000 		.4byte	.LVL114
 10711 16d4 EA000000 		.4byte	.LVL115
 10712 16d8 0600     		.2byte	0x6
 10713 16da 0C       		.byte	0xc
 10714 16db 00033240 		.4byte	0x40320300
 10715 16df 9F       		.byte	0x9f
 10716 16e0 00000000 		.4byte	0
 10717 16e4 00000000 		.4byte	0
 10718              	.LLST289:
 10719 16e8 EA000000 		.4byte	.LVL115
 10720 16ec F0000000 		.4byte	.LVL116
ARM GAS  C:\Users\Angel\AppData\Local\Temp\ccvqOPgy.s 			page 259


 10721 16f0 0200     		.2byte	0x2
 10722 16f2 30       		.byte	0x30
 10723 16f3 9F       		.byte	0x9f
 10724 16f4 00000000 		.4byte	0
 10725 16f8 00000000 		.4byte	0
 10726              	.LLST290:
 10727 16fc EA000000 		.4byte	.LVL115
 10728 1700 F0000000 		.4byte	.LVL116
 10729 1704 0200     		.2byte	0x2
 10730 1706 35       		.byte	0x35
 10731 1707 9F       		.byte	0x9f
 10732 1708 00000000 		.4byte	0
 10733 170c 00000000 		.4byte	0
 10734              	.LLST291:
 10735 1710 EA000000 		.4byte	.LVL115
 10736 1714 F0000000 		.4byte	.LVL116
 10737 1718 0600     		.2byte	0x6
 10738 171a 0C       		.byte	0xc
 10739 171b 80043240 		.4byte	0x40320480
 10740 171f 9F       		.byte	0x9f
 10741 1720 00000000 		.4byte	0
 10742 1724 00000000 		.4byte	0
 10743              	.LLST292:
 10744 1728 F0000000 		.4byte	.LVL116
 10745 172c F4000000 		.4byte	.LVL117
 10746 1730 0200     		.2byte	0x2
 10747 1732 30       		.byte	0x30
 10748 1733 9F       		.byte	0x9f
 10749 1734 00000000 		.4byte	0
 10750 1738 00000000 		.4byte	0
 10751              	.LLST293:
 10752 173c F0000000 		.4byte	.LVL116
 10753 1740 F4000000 		.4byte	.LVL117
 10754 1744 0200     		.2byte	0x2
 10755 1746 36       		.byte	0x36
 10756 1747 9F       		.byte	0x9f
 10757 1748 00000000 		.4byte	0
 10758 174c 00000000 		.4byte	0
 10759              	.LLST294:
 10760 1750 F0000000 		.4byte	.LVL116
 10761 1754 F4000000 		.4byte	.LVL117
 10762 1758 0600     		.2byte	0x6
 10763 175a 0C       		.byte	0xc
 10764 175b 80043240 		.4byte	0x40320480
 10765 175f 9F       		.byte	0x9f
 10766 1760 00000000 		.4byte	0
 10767 1764 00000000 		.4byte	0
 10768              	.LLST295:
 10769 1768 F4000000 		.4byte	.LVL117
 10770 176c FC000000 		.4byte	.LVL118
 10771 1770 0200     		.2byte	0x2
 10772 1772 30       		.byte	0x30
 10773 1773 9F       		.byte	0x9f
 10774 1774 00000000 		.4byte	0
 10775 1778 00000000 		.4byte	0
 10776              	.LLST296:
 10777 177c F4000000 		.4byte	.LVL117
ARM GAS  C:\Users\Angel\AppData\Local\Temp\ccvqOPgy.s 			page 260


 10778 1780 FC000000 		.4byte	.LVL118
 10779 1784 0200     		.2byte	0x2
 10780 1786 32       		.byte	0x32
 10781 1787 9F       		.byte	0x9f
 10782 1788 00000000 		.4byte	0
 10783 178c 00000000 		.4byte	0
 10784              	.LLST297:
 10785 1790 F4000000 		.4byte	.LVL117
 10786 1794 FC000000 		.4byte	.LVL118
 10787 1798 0600     		.2byte	0x6
 10788 179a 0C       		.byte	0xc
 10789 179b 00033240 		.4byte	0x40320300
 10790 179f 9F       		.byte	0x9f
 10791 17a0 00000000 		.4byte	0
 10792 17a4 00000000 		.4byte	0
 10793              	.LLST298:
 10794 17a8 FC000000 		.4byte	.LVL118
 10795 17ac 02010000 		.4byte	.LVL119
 10796 17b0 0200     		.2byte	0x2
 10797 17b2 31       		.byte	0x31
 10798 17b3 9F       		.byte	0x9f
 10799 17b4 00000000 		.4byte	0
 10800 17b8 00000000 		.4byte	0
 10801              	.LLST299:
 10802 17bc FC000000 		.4byte	.LVL118
 10803 17c0 02010000 		.4byte	.LVL119
 10804 17c4 0200     		.2byte	0x2
 10805 17c6 33       		.byte	0x33
 10806 17c7 9F       		.byte	0x9f
 10807 17c8 00000000 		.4byte	0
 10808 17cc 00000000 		.4byte	0
 10809              	.LLST300:
 10810 17d0 FC000000 		.4byte	.LVL118
 10811 17d4 02010000 		.4byte	.LVL119
 10812 17d8 0600     		.2byte	0x6
 10813 17da 0C       		.byte	0xc
 10814 17db 00033240 		.4byte	0x40320300
 10815 17df 9F       		.byte	0x9f
 10816 17e0 00000000 		.4byte	0
 10817 17e4 00000000 		.4byte	0
 10818              	.LLST301:
 10819 17e8 02010000 		.4byte	.LVL119
 10820 17ec 08010000 		.4byte	.LVL120
 10821 17f0 0200     		.2byte	0x2
 10822 17f2 31       		.byte	0x31
 10823 17f3 9F       		.byte	0x9f
 10824 17f4 00000000 		.4byte	0
 10825 17f8 00000000 		.4byte	0
 10826              	.LLST302:
 10827 17fc 02010000 		.4byte	.LVL119
 10828 1800 08010000 		.4byte	.LVL120
 10829 1804 0200     		.2byte	0x2
 10830 1806 35       		.byte	0x35
 10831 1807 9F       		.byte	0x9f
 10832 1808 00000000 		.4byte	0
 10833 180c 00000000 		.4byte	0
 10834              	.LLST303:
ARM GAS  C:\Users\Angel\AppData\Local\Temp\ccvqOPgy.s 			page 261


 10835 1810 02010000 		.4byte	.LVL119
 10836 1814 08010000 		.4byte	.LVL120
 10837 1818 0600     		.2byte	0x6
 10838 181a 0C       		.byte	0xc
 10839 181b 80043240 		.4byte	0x40320480
 10840 181f 9F       		.byte	0x9f
 10841 1820 00000000 		.4byte	0
 10842 1824 00000000 		.4byte	0
 10843              	.LLST304:
 10844 1828 08010000 		.4byte	.LVL120
 10845 182c 0C010000 		.4byte	.LVL121
 10846 1830 0200     		.2byte	0x2
 10847 1832 30       		.byte	0x30
 10848 1833 9F       		.byte	0x9f
 10849 1834 00000000 		.4byte	0
 10850 1838 00000000 		.4byte	0
 10851              	.LLST305:
 10852 183c 08010000 		.4byte	.LVL120
 10853 1840 0C010000 		.4byte	.LVL121
 10854 1844 0200     		.2byte	0x2
 10855 1846 36       		.byte	0x36
 10856 1847 9F       		.byte	0x9f
 10857 1848 00000000 		.4byte	0
 10858 184c 00000000 		.4byte	0
 10859              	.LLST306:
 10860 1850 08010000 		.4byte	.LVL120
 10861 1854 0C010000 		.4byte	.LVL121
 10862 1858 0600     		.2byte	0x6
 10863 185a 0C       		.byte	0xc
 10864 185b 80043240 		.4byte	0x40320480
 10865 185f 9F       		.byte	0x9f
 10866 1860 00000000 		.4byte	0
 10867 1864 00000000 		.4byte	0
 10868              	.LLST307:
 10869 1868 0C010000 		.4byte	.LVL121
 10870 186c 14010000 		.4byte	.LVL122
 10871 1870 0200     		.2byte	0x2
 10872 1872 30       		.byte	0x30
 10873 1873 9F       		.byte	0x9f
 10874 1874 00000000 		.4byte	0
 10875 1878 00000000 		.4byte	0
 10876              	.LLST308:
 10877 187c 0C010000 		.4byte	.LVL121
 10878 1880 14010000 		.4byte	.LVL122
 10879 1884 0200     		.2byte	0x2
 10880 1886 32       		.byte	0x32
 10881 1887 9F       		.byte	0x9f
 10882 1888 00000000 		.4byte	0
 10883 188c 00000000 		.4byte	0
 10884              	.LLST309:
 10885 1890 0C010000 		.4byte	.LVL121
 10886 1894 14010000 		.4byte	.LVL122
 10887 1898 0600     		.2byte	0x6
 10888 189a 0C       		.byte	0xc
 10889 189b 00033240 		.4byte	0x40320300
 10890 189f 9F       		.byte	0x9f
 10891 18a0 00000000 		.4byte	0
ARM GAS  C:\Users\Angel\AppData\Local\Temp\ccvqOPgy.s 			page 262


 10892 18a4 00000000 		.4byte	0
 10893              	.LLST310:
 10894 18a8 14010000 		.4byte	.LVL122
 10895 18ac 1A010000 		.4byte	.LVL123
 10896 18b0 0200     		.2byte	0x2
 10897 18b2 31       		.byte	0x31
 10898 18b3 9F       		.byte	0x9f
 10899 18b4 00000000 		.4byte	0
 10900 18b8 00000000 		.4byte	0
 10901              	.LLST311:
 10902 18bc 14010000 		.4byte	.LVL122
 10903 18c0 1A010000 		.4byte	.LVL123
 10904 18c4 0200     		.2byte	0x2
 10905 18c6 33       		.byte	0x33
 10906 18c7 9F       		.byte	0x9f
 10907 18c8 00000000 		.4byte	0
 10908 18cc 00000000 		.4byte	0
 10909              	.LLST312:
 10910 18d0 14010000 		.4byte	.LVL122
 10911 18d4 1A010000 		.4byte	.LVL123
 10912 18d8 0600     		.2byte	0x6
 10913 18da 0C       		.byte	0xc
 10914 18db 00033240 		.4byte	0x40320300
 10915 18df 9F       		.byte	0x9f
 10916 18e0 00000000 		.4byte	0
 10917 18e4 00000000 		.4byte	0
 10918              	.LLST313:
 10919 18e8 1A010000 		.4byte	.LVL123
 10920 18ec 20010000 		.4byte	.LVL124
 10921 18f0 0200     		.2byte	0x2
 10922 18f2 30       		.byte	0x30
 10923 18f3 9F       		.byte	0x9f
 10924 18f4 00000000 		.4byte	0
 10925 18f8 00000000 		.4byte	0
 10926              	.LLST314:
 10927 18fc 1A010000 		.4byte	.LVL123
 10928 1900 20010000 		.4byte	.LVL124
 10929 1904 0200     		.2byte	0x2
 10930 1906 35       		.byte	0x35
 10931 1907 9F       		.byte	0x9f
 10932 1908 00000000 		.4byte	0
 10933 190c 00000000 		.4byte	0
 10934              	.LLST315:
 10935 1910 1A010000 		.4byte	.LVL123
 10936 1914 20010000 		.4byte	.LVL124
 10937 1918 0600     		.2byte	0x6
 10938 191a 0C       		.byte	0xc
 10939 191b 80043240 		.4byte	0x40320480
 10940 191f 9F       		.byte	0x9f
 10941 1920 00000000 		.4byte	0
 10942 1924 00000000 		.4byte	0
 10943              	.LLST316:
 10944 1928 20010000 		.4byte	.LVL124
 10945 192c 24010000 		.4byte	.LVL125
 10946 1930 0200     		.2byte	0x2
 10947 1932 31       		.byte	0x31
 10948 1933 9F       		.byte	0x9f
ARM GAS  C:\Users\Angel\AppData\Local\Temp\ccvqOPgy.s 			page 263


 10949 1934 00000000 		.4byte	0
 10950 1938 00000000 		.4byte	0
 10951              	.LLST317:
 10952 193c 20010000 		.4byte	.LVL124
 10953 1940 24010000 		.4byte	.LVL125
 10954 1944 0200     		.2byte	0x2
 10955 1946 36       		.byte	0x36
 10956 1947 9F       		.byte	0x9f
 10957 1948 00000000 		.4byte	0
 10958 194c 00000000 		.4byte	0
 10959              	.LLST318:
 10960 1950 20010000 		.4byte	.LVL124
 10961 1954 24010000 		.4byte	.LVL125
 10962 1958 0600     		.2byte	0x6
 10963 195a 0C       		.byte	0xc
 10964 195b 80043240 		.4byte	0x40320480
 10965 195f 9F       		.byte	0x9f
 10966 1960 00000000 		.4byte	0
 10967 1964 00000000 		.4byte	0
 10968              	.LLST319:
 10969 1968 24010000 		.4byte	.LVL125
 10970 196c 2C010000 		.4byte	.LVL126
 10971 1970 0200     		.2byte	0x2
 10972 1972 30       		.byte	0x30
 10973 1973 9F       		.byte	0x9f
 10974 1974 00000000 		.4byte	0
 10975 1978 00000000 		.4byte	0
 10976              	.LLST320:
 10977 197c 24010000 		.4byte	.LVL125
 10978 1980 2C010000 		.4byte	.LVL126
 10979 1984 0200     		.2byte	0x2
 10980 1986 32       		.byte	0x32
 10981 1987 9F       		.byte	0x9f
 10982 1988 00000000 		.4byte	0
 10983 198c 00000000 		.4byte	0
 10984              	.LLST321:
 10985 1990 24010000 		.4byte	.LVL125
 10986 1994 2C010000 		.4byte	.LVL126
 10987 1998 0600     		.2byte	0x6
 10988 199a 0C       		.byte	0xc
 10989 199b 00033240 		.4byte	0x40320300
 10990 199f 9F       		.byte	0x9f
 10991 19a0 00000000 		.4byte	0
 10992 19a4 00000000 		.4byte	0
 10993              	.LLST322:
 10994 19a8 2C010000 		.4byte	.LVL126
 10995 19ac 32010000 		.4byte	.LVL127
 10996 19b0 0200     		.2byte	0x2
 10997 19b2 31       		.byte	0x31
 10998 19b3 9F       		.byte	0x9f
 10999 19b4 00000000 		.4byte	0
 11000 19b8 00000000 		.4byte	0
 11001              	.LLST323:
 11002 19bc 2C010000 		.4byte	.LVL126
 11003 19c0 32010000 		.4byte	.LVL127
 11004 19c4 0200     		.2byte	0x2
 11005 19c6 33       		.byte	0x33
ARM GAS  C:\Users\Angel\AppData\Local\Temp\ccvqOPgy.s 			page 264


 11006 19c7 9F       		.byte	0x9f
 11007 19c8 00000000 		.4byte	0
 11008 19cc 00000000 		.4byte	0
 11009              	.LLST324:
 11010 19d0 2C010000 		.4byte	.LVL126
 11011 19d4 32010000 		.4byte	.LVL127
 11012 19d8 0600     		.2byte	0x6
 11013 19da 0C       		.byte	0xc
 11014 19db 00033240 		.4byte	0x40320300
 11015 19df 9F       		.byte	0x9f
 11016 19e0 00000000 		.4byte	0
 11017 19e4 00000000 		.4byte	0
 11018              	.LLST325:
 11019 19e8 32010000 		.4byte	.LVL127
 11020 19ec 38010000 		.4byte	.LVL128
 11021 19f0 0200     		.2byte	0x2
 11022 19f2 31       		.byte	0x31
 11023 19f3 9F       		.byte	0x9f
 11024 19f4 00000000 		.4byte	0
 11025 19f8 00000000 		.4byte	0
 11026              	.LLST326:
 11027 19fc 32010000 		.4byte	.LVL127
 11028 1a00 38010000 		.4byte	.LVL128
 11029 1a04 0200     		.2byte	0x2
 11030 1a06 35       		.byte	0x35
 11031 1a07 9F       		.byte	0x9f
 11032 1a08 00000000 		.4byte	0
 11033 1a0c 00000000 		.4byte	0
 11034              	.LLST327:
 11035 1a10 32010000 		.4byte	.LVL127
 11036 1a14 38010000 		.4byte	.LVL128
 11037 1a18 0600     		.2byte	0x6
 11038 1a1a 0C       		.byte	0xc
 11039 1a1b 80043240 		.4byte	0x40320480
 11040 1a1f 9F       		.byte	0x9f
 11041 1a20 00000000 		.4byte	0
 11042 1a24 00000000 		.4byte	0
 11043              	.LLST328:
 11044 1a28 38010000 		.4byte	.LVL128
 11045 1a2c 3C010000 		.4byte	.LVL129
 11046 1a30 0200     		.2byte	0x2
 11047 1a32 31       		.byte	0x31
 11048 1a33 9F       		.byte	0x9f
 11049 1a34 00000000 		.4byte	0
 11050 1a38 00000000 		.4byte	0
 11051              	.LLST329:
 11052 1a3c 38010000 		.4byte	.LVL128
 11053 1a40 3C010000 		.4byte	.LVL129
 11054 1a44 0200     		.2byte	0x2
 11055 1a46 36       		.byte	0x36
 11056 1a47 9F       		.byte	0x9f
 11057 1a48 00000000 		.4byte	0
 11058 1a4c 00000000 		.4byte	0
 11059              	.LLST330:
 11060 1a50 38010000 		.4byte	.LVL128
 11061 1a54 3C010000 		.4byte	.LVL129
 11062 1a58 0600     		.2byte	0x6
ARM GAS  C:\Users\Angel\AppData\Local\Temp\ccvqOPgy.s 			page 265


 11063 1a5a 0C       		.byte	0xc
 11064 1a5b 80043240 		.4byte	0x40320480
 11065 1a5f 9F       		.byte	0x9f
 11066 1a60 00000000 		.4byte	0
 11067 1a64 00000000 		.4byte	0
 11068              	.LLST331:
 11069 1a68 3C010000 		.4byte	.LVL129
 11070 1a6c 44010000 		.4byte	.LVL130
 11071 1a70 0200     		.2byte	0x2
 11072 1a72 30       		.byte	0x30
 11073 1a73 9F       		.byte	0x9f
 11074 1a74 00000000 		.4byte	0
 11075 1a78 00000000 		.4byte	0
 11076              	.LLST332:
 11077 1a7c 3C010000 		.4byte	.LVL129
 11078 1a80 44010000 		.4byte	.LVL130
 11079 1a84 0200     		.2byte	0x2
 11080 1a86 32       		.byte	0x32
 11081 1a87 9F       		.byte	0x9f
 11082 1a88 00000000 		.4byte	0
 11083 1a8c 00000000 		.4byte	0
 11084              	.LLST333:
 11085 1a90 3C010000 		.4byte	.LVL129
 11086 1a94 44010000 		.4byte	.LVL130
 11087 1a98 0600     		.2byte	0x6
 11088 1a9a 0C       		.byte	0xc
 11089 1a9b 00033240 		.4byte	0x40320300
 11090 1a9f 9F       		.byte	0x9f
 11091 1aa0 00000000 		.4byte	0
 11092 1aa4 00000000 		.4byte	0
 11093              	.LLST334:
 11094 1aa8 44010000 		.4byte	.LVL130
 11095 1aac 4A010000 		.4byte	.LVL131
 11096 1ab0 0200     		.2byte	0x2
 11097 1ab2 31       		.byte	0x31
 11098 1ab3 9F       		.byte	0x9f
 11099 1ab4 00000000 		.4byte	0
 11100 1ab8 00000000 		.4byte	0
 11101              	.LLST335:
 11102 1abc 44010000 		.4byte	.LVL130
 11103 1ac0 4A010000 		.4byte	.LVL131
 11104 1ac4 0200     		.2byte	0x2
 11105 1ac6 33       		.byte	0x33
 11106 1ac7 9F       		.byte	0x9f
 11107 1ac8 00000000 		.4byte	0
 11108 1acc 00000000 		.4byte	0
 11109              	.LLST336:
 11110 1ad0 44010000 		.4byte	.LVL130
 11111 1ad4 4A010000 		.4byte	.LVL131
 11112 1ad8 0600     		.2byte	0x6
 11113 1ada 0C       		.byte	0xc
 11114 1adb 00033240 		.4byte	0x40320300
 11115 1adf 9F       		.byte	0x9f
 11116 1ae0 00000000 		.4byte	0
 11117 1ae4 00000000 		.4byte	0
 11118              	.LLST337:
 11119 1ae8 4A010000 		.4byte	.LVL131
ARM GAS  C:\Users\Angel\AppData\Local\Temp\ccvqOPgy.s 			page 266


 11120 1aec 50010000 		.4byte	.LVL132
 11121 1af0 0200     		.2byte	0x2
 11122 1af2 30       		.byte	0x30
 11123 1af3 9F       		.byte	0x9f
 11124 1af4 00000000 		.4byte	0
 11125 1af8 00000000 		.4byte	0
 11126              	.LLST338:
 11127 1afc 4A010000 		.4byte	.LVL131
 11128 1b00 50010000 		.4byte	.LVL132
 11129 1b04 0200     		.2byte	0x2
 11130 1b06 35       		.byte	0x35
 11131 1b07 9F       		.byte	0x9f
 11132 1b08 00000000 		.4byte	0
 11133 1b0c 00000000 		.4byte	0
 11134              	.LLST339:
 11135 1b10 4A010000 		.4byte	.LVL131
 11136 1b14 50010000 		.4byte	.LVL132
 11137 1b18 0600     		.2byte	0x6
 11138 1b1a 0C       		.byte	0xc
 11139 1b1b 80043240 		.4byte	0x40320480
 11140 1b1f 9F       		.byte	0x9f
 11141 1b20 00000000 		.4byte	0
 11142 1b24 00000000 		.4byte	0
 11143              	.LLST340:
 11144 1b28 50010000 		.4byte	.LVL132
 11145 1b2c 54010000 		.4byte	.LVL133
 11146 1b30 0200     		.2byte	0x2
 11147 1b32 30       		.byte	0x30
 11148 1b33 9F       		.byte	0x9f
 11149 1b34 00000000 		.4byte	0
 11150 1b38 00000000 		.4byte	0
 11151              	.LLST341:
 11152 1b3c 50010000 		.4byte	.LVL132
 11153 1b40 54010000 		.4byte	.LVL133
 11154 1b44 0200     		.2byte	0x2
 11155 1b46 36       		.byte	0x36
 11156 1b47 9F       		.byte	0x9f
 11157 1b48 00000000 		.4byte	0
 11158 1b4c 00000000 		.4byte	0
 11159              	.LLST342:
 11160 1b50 50010000 		.4byte	.LVL132
 11161 1b54 54010000 		.4byte	.LVL133
 11162 1b58 0600     		.2byte	0x6
 11163 1b5a 0C       		.byte	0xc
 11164 1b5b 80043240 		.4byte	0x40320480
 11165 1b5f 9F       		.byte	0x9f
 11166 1b60 00000000 		.4byte	0
 11167 1b64 00000000 		.4byte	0
 11168              	.LLST343:
 11169 1b68 54010000 		.4byte	.LVL133
 11170 1b6c 5C010000 		.4byte	.LVL134
 11171 1b70 0200     		.2byte	0x2
 11172 1b72 31       		.byte	0x31
 11173 1b73 9F       		.byte	0x9f
 11174 1b74 00000000 		.4byte	0
 11175 1b78 00000000 		.4byte	0
 11176              	.LLST344:
ARM GAS  C:\Users\Angel\AppData\Local\Temp\ccvqOPgy.s 			page 267


 11177 1b7c 54010000 		.4byte	.LVL133
 11178 1b80 5C010000 		.4byte	.LVL134
 11179 1b84 0200     		.2byte	0x2
 11180 1b86 32       		.byte	0x32
 11181 1b87 9F       		.byte	0x9f
 11182 1b88 00000000 		.4byte	0
 11183 1b8c 00000000 		.4byte	0
 11184              	.LLST345:
 11185 1b90 54010000 		.4byte	.LVL133
 11186 1b94 5C010000 		.4byte	.LVL134
 11187 1b98 0600     		.2byte	0x6
 11188 1b9a 0C       		.byte	0xc
 11189 1b9b 00033240 		.4byte	0x40320300
 11190 1b9f 9F       		.byte	0x9f
 11191 1ba0 00000000 		.4byte	0
 11192 1ba4 00000000 		.4byte	0
 11193              	.LLST346:
 11194 1ba8 5C010000 		.4byte	.LVL134
 11195 1bac 62010000 		.4byte	.LVL135
 11196 1bb0 0200     		.2byte	0x2
 11197 1bb2 31       		.byte	0x31
 11198 1bb3 9F       		.byte	0x9f
 11199 1bb4 00000000 		.4byte	0
 11200 1bb8 00000000 		.4byte	0
 11201              	.LLST347:
 11202 1bbc 5C010000 		.4byte	.LVL134
 11203 1bc0 62010000 		.4byte	.LVL135
 11204 1bc4 0200     		.2byte	0x2
 11205 1bc6 33       		.byte	0x33
 11206 1bc7 9F       		.byte	0x9f
 11207 1bc8 00000000 		.4byte	0
 11208 1bcc 00000000 		.4byte	0
 11209              	.LLST348:
 11210 1bd0 5C010000 		.4byte	.LVL134
 11211 1bd4 62010000 		.4byte	.LVL135
 11212 1bd8 0600     		.2byte	0x6
 11213 1bda 0C       		.byte	0xc
 11214 1bdb 00033240 		.4byte	0x40320300
 11215 1bdf 9F       		.byte	0x9f
 11216 1be0 00000000 		.4byte	0
 11217 1be4 00000000 		.4byte	0
 11218              	.LLST349:
 11219 1be8 62010000 		.4byte	.LVL135
 11220 1bec 68010000 		.4byte	.LVL136
 11221 1bf0 0200     		.2byte	0x2
 11222 1bf2 31       		.byte	0x31
 11223 1bf3 9F       		.byte	0x9f
 11224 1bf4 00000000 		.4byte	0
 11225 1bf8 00000000 		.4byte	0
 11226              	.LLST350:
 11227 1bfc 62010000 		.4byte	.LVL135
 11228 1c00 68010000 		.4byte	.LVL136
 11229 1c04 0200     		.2byte	0x2
 11230 1c06 35       		.byte	0x35
 11231 1c07 9F       		.byte	0x9f
 11232 1c08 00000000 		.4byte	0
 11233 1c0c 00000000 		.4byte	0
ARM GAS  C:\Users\Angel\AppData\Local\Temp\ccvqOPgy.s 			page 268


 11234              	.LLST351:
 11235 1c10 62010000 		.4byte	.LVL135
 11236 1c14 68010000 		.4byte	.LVL136
 11237 1c18 0600     		.2byte	0x6
 11238 1c1a 0C       		.byte	0xc
 11239 1c1b 80043240 		.4byte	0x40320480
 11240 1c1f 9F       		.byte	0x9f
 11241 1c20 00000000 		.4byte	0
 11242 1c24 00000000 		.4byte	0
 11243              	.LLST352:
 11244 1c28 68010000 		.4byte	.LVL136
 11245 1c2c 6C010000 		.4byte	.LVL137
 11246 1c30 0200     		.2byte	0x2
 11247 1c32 30       		.byte	0x30
 11248 1c33 9F       		.byte	0x9f
 11249 1c34 00000000 		.4byte	0
 11250 1c38 00000000 		.4byte	0
 11251              	.LLST353:
 11252 1c3c 68010000 		.4byte	.LVL136
 11253 1c40 6C010000 		.4byte	.LVL137
 11254 1c44 0200     		.2byte	0x2
 11255 1c46 36       		.byte	0x36
 11256 1c47 9F       		.byte	0x9f
 11257 1c48 00000000 		.4byte	0
 11258 1c4c 00000000 		.4byte	0
 11259              	.LLST354:
 11260 1c50 68010000 		.4byte	.LVL136
 11261 1c54 6C010000 		.4byte	.LVL137
 11262 1c58 0600     		.2byte	0x6
 11263 1c5a 0C       		.byte	0xc
 11264 1c5b 80043240 		.4byte	0x40320480
 11265 1c5f 9F       		.byte	0x9f
 11266 1c60 00000000 		.4byte	0
 11267 1c64 00000000 		.4byte	0
 11268              	.LLST355:
 11269 1c68 6C010000 		.4byte	.LVL137
 11270 1c6c 74010000 		.4byte	.LVL138
 11271 1c70 0200     		.2byte	0x2
 11272 1c72 31       		.byte	0x31
 11273 1c73 9F       		.byte	0x9f
 11274 1c74 00000000 		.4byte	0
 11275 1c78 00000000 		.4byte	0
 11276              	.LLST356:
 11277 1c7c 6C010000 		.4byte	.LVL137
 11278 1c80 74010000 		.4byte	.LVL138
 11279 1c84 0200     		.2byte	0x2
 11280 1c86 32       		.byte	0x32
 11281 1c87 9F       		.byte	0x9f
 11282 1c88 00000000 		.4byte	0
 11283 1c8c 00000000 		.4byte	0
 11284              	.LLST357:
 11285 1c90 6C010000 		.4byte	.LVL137
 11286 1c94 74010000 		.4byte	.LVL138
 11287 1c98 0600     		.2byte	0x6
 11288 1c9a 0C       		.byte	0xc
 11289 1c9b 00033240 		.4byte	0x40320300
 11290 1c9f 9F       		.byte	0x9f
ARM GAS  C:\Users\Angel\AppData\Local\Temp\ccvqOPgy.s 			page 269


 11291 1ca0 00000000 		.4byte	0
 11292 1ca4 00000000 		.4byte	0
 11293              	.LLST358:
 11294 1ca8 74010000 		.4byte	.LVL138
 11295 1cac 7A010000 		.4byte	.LVL139
 11296 1cb0 0200     		.2byte	0x2
 11297 1cb2 31       		.byte	0x31
 11298 1cb3 9F       		.byte	0x9f
 11299 1cb4 00000000 		.4byte	0
 11300 1cb8 00000000 		.4byte	0
 11301              	.LLST359:
 11302 1cbc 74010000 		.4byte	.LVL138
 11303 1cc0 7A010000 		.4byte	.LVL139
 11304 1cc4 0200     		.2byte	0x2
 11305 1cc6 33       		.byte	0x33
 11306 1cc7 9F       		.byte	0x9f
 11307 1cc8 00000000 		.4byte	0
 11308 1ccc 00000000 		.4byte	0
 11309              	.LLST360:
 11310 1cd0 74010000 		.4byte	.LVL138
 11311 1cd4 7A010000 		.4byte	.LVL139
 11312 1cd8 0600     		.2byte	0x6
 11313 1cda 0C       		.byte	0xc
 11314 1cdb 00033240 		.4byte	0x40320300
 11315 1cdf 9F       		.byte	0x9f
 11316 1ce0 00000000 		.4byte	0
 11317 1ce4 00000000 		.4byte	0
 11318              	.LLST361:
 11319 1ce8 7A010000 		.4byte	.LVL139
 11320 1cec 80010000 		.4byte	.LVL140
 11321 1cf0 0200     		.2byte	0x2
 11322 1cf2 30       		.byte	0x30
 11323 1cf3 9F       		.byte	0x9f
 11324 1cf4 00000000 		.4byte	0
 11325 1cf8 00000000 		.4byte	0
 11326              	.LLST362:
 11327 1cfc 7A010000 		.4byte	.LVL139
 11328 1d00 80010000 		.4byte	.LVL140
 11329 1d04 0200     		.2byte	0x2
 11330 1d06 35       		.byte	0x35
 11331 1d07 9F       		.byte	0x9f
 11332 1d08 00000000 		.4byte	0
 11333 1d0c 00000000 		.4byte	0
 11334              	.LLST363:
 11335 1d10 7A010000 		.4byte	.LVL139
 11336 1d14 80010000 		.4byte	.LVL140
 11337 1d18 0600     		.2byte	0x6
 11338 1d1a 0C       		.byte	0xc
 11339 1d1b 80043240 		.4byte	0x40320480
 11340 1d1f 9F       		.byte	0x9f
 11341 1d20 00000000 		.4byte	0
 11342 1d24 00000000 		.4byte	0
 11343              	.LLST364:
 11344 1d28 80010000 		.4byte	.LVL140
 11345 1d2c 84010000 		.4byte	.LVL141
 11346 1d30 0200     		.2byte	0x2
 11347 1d32 31       		.byte	0x31
ARM GAS  C:\Users\Angel\AppData\Local\Temp\ccvqOPgy.s 			page 270


 11348 1d33 9F       		.byte	0x9f
 11349 1d34 00000000 		.4byte	0
 11350 1d38 00000000 		.4byte	0
 11351              	.LLST365:
 11352 1d3c 80010000 		.4byte	.LVL140
 11353 1d40 84010000 		.4byte	.LVL141
 11354 1d44 0200     		.2byte	0x2
 11355 1d46 36       		.byte	0x36
 11356 1d47 9F       		.byte	0x9f
 11357 1d48 00000000 		.4byte	0
 11358 1d4c 00000000 		.4byte	0
 11359              	.LLST366:
 11360 1d50 80010000 		.4byte	.LVL140
 11361 1d54 84010000 		.4byte	.LVL141
 11362 1d58 0600     		.2byte	0x6
 11363 1d5a 0C       		.byte	0xc
 11364 1d5b 80043240 		.4byte	0x40320480
 11365 1d5f 9F       		.byte	0x9f
 11366 1d60 00000000 		.4byte	0
 11367 1d64 00000000 		.4byte	0
 11368              	.LLST367:
 11369 1d68 84010000 		.4byte	.LVL141
 11370 1d6c 8C010000 		.4byte	.LVL142
 11371 1d70 0200     		.2byte	0x2
 11372 1d72 31       		.byte	0x31
 11373 1d73 9F       		.byte	0x9f
 11374 1d74 00000000 		.4byte	0
 11375 1d78 00000000 		.4byte	0
 11376              	.LLST368:
 11377 1d7c 84010000 		.4byte	.LVL141
 11378 1d80 8C010000 		.4byte	.LVL142
 11379 1d84 0200     		.2byte	0x2
 11380 1d86 32       		.byte	0x32
 11381 1d87 9F       		.byte	0x9f
 11382 1d88 00000000 		.4byte	0
 11383 1d8c 00000000 		.4byte	0
 11384              	.LLST369:
 11385 1d90 84010000 		.4byte	.LVL141
 11386 1d94 8C010000 		.4byte	.LVL142
 11387 1d98 0600     		.2byte	0x6
 11388 1d9a 0C       		.byte	0xc
 11389 1d9b 00033240 		.4byte	0x40320300
 11390 1d9f 9F       		.byte	0x9f
 11391 1da0 00000000 		.4byte	0
 11392 1da4 00000000 		.4byte	0
 11393              	.LLST370:
 11394 1da8 8C010000 		.4byte	.LVL142
 11395 1dac 92010000 		.4byte	.LVL143
 11396 1db0 0200     		.2byte	0x2
 11397 1db2 31       		.byte	0x31
 11398 1db3 9F       		.byte	0x9f
 11399 1db4 00000000 		.4byte	0
 11400 1db8 00000000 		.4byte	0
 11401              	.LLST371:
 11402 1dbc 8C010000 		.4byte	.LVL142
 11403 1dc0 92010000 		.4byte	.LVL143
 11404 1dc4 0200     		.2byte	0x2
ARM GAS  C:\Users\Angel\AppData\Local\Temp\ccvqOPgy.s 			page 271


 11405 1dc6 33       		.byte	0x33
 11406 1dc7 9F       		.byte	0x9f
 11407 1dc8 00000000 		.4byte	0
 11408 1dcc 00000000 		.4byte	0
 11409              	.LLST372:
 11410 1dd0 8C010000 		.4byte	.LVL142
 11411 1dd4 92010000 		.4byte	.LVL143
 11412 1dd8 0600     		.2byte	0x6
 11413 1dda 0C       		.byte	0xc
 11414 1ddb 00033240 		.4byte	0x40320300
 11415 1ddf 9F       		.byte	0x9f
 11416 1de0 00000000 		.4byte	0
 11417 1de4 00000000 		.4byte	0
 11418              	.LLST373:
 11419 1de8 92010000 		.4byte	.LVL143
 11420 1dec 98010000 		.4byte	.LVL144
 11421 1df0 0200     		.2byte	0x2
 11422 1df2 31       		.byte	0x31
 11423 1df3 9F       		.byte	0x9f
 11424 1df4 00000000 		.4byte	0
 11425 1df8 00000000 		.4byte	0
 11426              	.LLST374:
 11427 1dfc 92010000 		.4byte	.LVL143
 11428 1e00 98010000 		.4byte	.LVL144
 11429 1e04 0200     		.2byte	0x2
 11430 1e06 35       		.byte	0x35
 11431 1e07 9F       		.byte	0x9f
 11432 1e08 00000000 		.4byte	0
 11433 1e0c 00000000 		.4byte	0
 11434              	.LLST375:
 11435 1e10 92010000 		.4byte	.LVL143
 11436 1e14 98010000 		.4byte	.LVL144
 11437 1e18 0600     		.2byte	0x6
 11438 1e1a 0C       		.byte	0xc
 11439 1e1b 80043240 		.4byte	0x40320480
 11440 1e1f 9F       		.byte	0x9f
 11441 1e20 00000000 		.4byte	0
 11442 1e24 00000000 		.4byte	0
 11443              	.LLST376:
 11444 1e28 98010000 		.4byte	.LVL144
 11445 1e2c 9C010000 		.4byte	.LVL145
 11446 1e30 0200     		.2byte	0x2
 11447 1e32 31       		.byte	0x31
 11448 1e33 9F       		.byte	0x9f
 11449 1e34 00000000 		.4byte	0
 11450 1e38 00000000 		.4byte	0
 11451              	.LLST377:
 11452 1e3c 98010000 		.4byte	.LVL144
 11453 1e40 9C010000 		.4byte	.LVL145
 11454 1e44 0200     		.2byte	0x2
 11455 1e46 36       		.byte	0x36
 11456 1e47 9F       		.byte	0x9f
 11457 1e48 00000000 		.4byte	0
 11458 1e4c 00000000 		.4byte	0
 11459              	.LLST378:
 11460 1e50 98010000 		.4byte	.LVL144
 11461 1e54 9C010000 		.4byte	.LVL145
ARM GAS  C:\Users\Angel\AppData\Local\Temp\ccvqOPgy.s 			page 272


 11462 1e58 0600     		.2byte	0x6
 11463 1e5a 0C       		.byte	0xc
 11464 1e5b 80043240 		.4byte	0x40320480
 11465 1e5f 9F       		.byte	0x9f
 11466 1e60 00000000 		.4byte	0
 11467 1e64 00000000 		.4byte	0
 11468              	.LLST379:
 11469 1e68 9C010000 		.4byte	.LVL145
 11470 1e6c A4010000 		.4byte	.LVL146
 11471 1e70 0200     		.2byte	0x2
 11472 1e72 31       		.byte	0x31
 11473 1e73 9F       		.byte	0x9f
 11474 1e74 00000000 		.4byte	0
 11475 1e78 00000000 		.4byte	0
 11476              	.LLST380:
 11477 1e7c 9C010000 		.4byte	.LVL145
 11478 1e80 A4010000 		.4byte	.LVL146
 11479 1e84 0200     		.2byte	0x2
 11480 1e86 32       		.byte	0x32
 11481 1e87 9F       		.byte	0x9f
 11482 1e88 00000000 		.4byte	0
 11483 1e8c 00000000 		.4byte	0
 11484              	.LLST381:
 11485 1e90 9C010000 		.4byte	.LVL145
 11486 1e94 A4010000 		.4byte	.LVL146
 11487 1e98 0600     		.2byte	0x6
 11488 1e9a 0C       		.byte	0xc
 11489 1e9b 00033240 		.4byte	0x40320300
 11490 1e9f 9F       		.byte	0x9f
 11491 1ea0 00000000 		.4byte	0
 11492 1ea4 00000000 		.4byte	0
 11493              	.LLST382:
 11494 1ea8 A4010000 		.4byte	.LVL146
 11495 1eac A8010000 		.4byte	.LVL147
 11496 1eb0 0200     		.2byte	0x2
 11497 1eb2 31       		.byte	0x31
 11498 1eb3 9F       		.byte	0x9f
 11499 1eb4 00000000 		.4byte	0
 11500 1eb8 00000000 		.4byte	0
 11501              	.LLST383:
 11502 1ebc A4010000 		.4byte	.LVL146
 11503 1ec0 A8010000 		.4byte	.LVL147
 11504 1ec4 0200     		.2byte	0x2
 11505 1ec6 33       		.byte	0x33
 11506 1ec7 9F       		.byte	0x9f
 11507 1ec8 00000000 		.4byte	0
 11508 1ecc 00000000 		.4byte	0
 11509              	.LLST384:
 11510 1ed0 A4010000 		.4byte	.LVL146
 11511 1ed4 A8010000 		.4byte	.LVL147
 11512 1ed8 0600     		.2byte	0x6
 11513 1eda 0C       		.byte	0xc
 11514 1edb 00033240 		.4byte	0x40320300
 11515 1edf 9F       		.byte	0x9f
 11516 1ee0 00000000 		.4byte	0
 11517 1ee4 00000000 		.4byte	0
 11518              	.LLST385:
ARM GAS  C:\Users\Angel\AppData\Local\Temp\ccvqOPgy.s 			page 273


 11519 1ee8 00000000 		.4byte	.LVL148
 11520 1eec 08000000 		.4byte	.LVL149
 11521 1ef0 0200     		.2byte	0x2
 11522 1ef2 30       		.byte	0x30
 11523 1ef3 9F       		.byte	0x9f
 11524 1ef4 00000000 		.4byte	0
 11525 1ef8 00000000 		.4byte	0
 11526              	.LLST386:
 11527 1efc 00000000 		.4byte	.LVL148
 11528 1f00 08000000 		.4byte	.LVL149
 11529 1f04 0600     		.2byte	0x6
 11530 1f06 0C       		.byte	0xc
 11531 1f07 80043240 		.4byte	0x40320480
 11532 1f0b 9F       		.byte	0x9f
 11533 1f0c 00000000 		.4byte	0
 11534 1f10 00000000 		.4byte	0
 11535              	.LLST387:
 11536 1f14 0C000000 		.4byte	.LVL150
 11537 1f18 12000000 		.4byte	.LVL151
 11538 1f1c 0200     		.2byte	0x2
 11539 1f1e 31       		.byte	0x31
 11540 1f1f 9F       		.byte	0x9f
 11541 1f20 00000000 		.4byte	0
 11542 1f24 00000000 		.4byte	0
 11543              	.LLST388:
 11544 1f28 0C000000 		.4byte	.LVL150
 11545 1f2c 12000000 		.4byte	.LVL151
 11546 1f30 0600     		.2byte	0x6
 11547 1f32 0C       		.byte	0xc
 11548 1f33 80043240 		.4byte	0x40320480
 11549 1f37 9F       		.byte	0x9f
 11550 1f38 00000000 		.4byte	0
 11551 1f3c 00000000 		.4byte	0
 11552              	.LLST389:
 11553 1f40 14000000 		.4byte	.LVL152
 11554 1f44 1A000000 		.4byte	.LVL153
 11555 1f48 0200     		.2byte	0x2
 11556 1f4a 32       		.byte	0x32
 11557 1f4b 9F       		.byte	0x9f
 11558 1f4c 00000000 		.4byte	0
 11559 1f50 00000000 		.4byte	0
 11560              	.LLST390:
 11561 1f54 14000000 		.4byte	.LVL152
 11562 1f58 1A000000 		.4byte	.LVL153
 11563 1f5c 0600     		.2byte	0x6
 11564 1f5e 0C       		.byte	0xc
 11565 1f5f 80043240 		.4byte	0x40320480
 11566 1f63 9F       		.byte	0x9f
 11567 1f64 00000000 		.4byte	0
 11568 1f68 00000000 		.4byte	0
 11569              	.LLST391:
 11570 1f6c 1C000000 		.4byte	.LVL154
 11571 1f70 22000000 		.4byte	.LVL155
 11572 1f74 0200     		.2byte	0x2
 11573 1f76 33       		.byte	0x33
 11574 1f77 9F       		.byte	0x9f
 11575 1f78 00000000 		.4byte	0
ARM GAS  C:\Users\Angel\AppData\Local\Temp\ccvqOPgy.s 			page 274


 11576 1f7c 00000000 		.4byte	0
 11577              	.LLST392:
 11578 1f80 1C000000 		.4byte	.LVL154
 11579 1f84 22000000 		.4byte	.LVL155
 11580 1f88 0600     		.2byte	0x6
 11581 1f8a 0C       		.byte	0xc
 11582 1f8b 80043240 		.4byte	0x40320480
 11583 1f8f 9F       		.byte	0x9f
 11584 1f90 00000000 		.4byte	0
 11585 1f94 00000000 		.4byte	0
 11586              	.LLST393:
 11587 1f98 24000000 		.4byte	.LVL156
 11588 1f9c 2A000000 		.4byte	.LVL157
 11589 1fa0 0200     		.2byte	0x2
 11590 1fa2 30       		.byte	0x30
 11591 1fa3 9F       		.byte	0x9f
 11592 1fa4 00000000 		.4byte	0
 11593 1fa8 00000000 		.4byte	0
 11594              	.LLST394:
 11595 1fac 24000000 		.4byte	.LVL156
 11596 1fb0 2A000000 		.4byte	.LVL157
 11597 1fb4 0600     		.2byte	0x6
 11598 1fb6 0C       		.byte	0xc
 11599 1fb7 80043240 		.4byte	0x40320480
 11600 1fbb 9F       		.byte	0x9f
 11601 1fbc 00000000 		.4byte	0
 11602 1fc0 00000000 		.4byte	0
 11603              	.LLST395:
 11604 1fc4 2E000000 		.4byte	.LVL158
 11605 1fc8 34000000 		.4byte	.LVL159
 11606 1fcc 0200     		.2byte	0x2
 11607 1fce 31       		.byte	0x31
 11608 1fcf 9F       		.byte	0x9f
 11609 1fd0 00000000 		.4byte	0
 11610 1fd4 00000000 		.4byte	0
 11611              	.LLST396:
 11612 1fd8 2E000000 		.4byte	.LVL158
 11613 1fdc 34000000 		.4byte	.LVL159
 11614 1fe0 0600     		.2byte	0x6
 11615 1fe2 0C       		.byte	0xc
 11616 1fe3 80043240 		.4byte	0x40320480
 11617 1fe7 9F       		.byte	0x9f
 11618 1fe8 00000000 		.4byte	0
 11619 1fec 00000000 		.4byte	0
 11620              	.LLST397:
 11621 1ff0 36000000 		.4byte	.LVL160
 11622 1ff4 3E000000 		.4byte	.LVL161
 11623 1ff8 0200     		.2byte	0x2
 11624 1ffa 32       		.byte	0x32
 11625 1ffb 9F       		.byte	0x9f
 11626 1ffc 00000000 		.4byte	0
 11627 2000 00000000 		.4byte	0
 11628              	.LLST398:
 11629 2004 36000000 		.4byte	.LVL160
 11630 2008 3E000000 		.4byte	.LVL161
 11631 200c 0600     		.2byte	0x6
 11632 200e 0C       		.byte	0xc
ARM GAS  C:\Users\Angel\AppData\Local\Temp\ccvqOPgy.s 			page 275


 11633 200f 00033240 		.4byte	0x40320300
 11634 2013 9F       		.byte	0x9f
 11635 2014 00000000 		.4byte	0
 11636 2018 00000000 		.4byte	0
 11637              	.LLST399:
 11638 201c 40000000 		.4byte	.LVL162
 11639 2020 46000000 		.4byte	.LVL163
 11640 2024 0200     		.2byte	0x2
 11641 2026 33       		.byte	0x33
 11642 2027 9F       		.byte	0x9f
 11643 2028 00000000 		.4byte	0
 11644 202c 00000000 		.4byte	0
 11645              	.LLST400:
 11646 2030 40000000 		.4byte	.LVL162
 11647 2034 46000000 		.4byte	.LVL163
 11648 2038 0600     		.2byte	0x6
 11649 203a 0C       		.byte	0xc
 11650 203b 00033240 		.4byte	0x40320300
 11651 203f 9F       		.byte	0x9f
 11652 2040 00000000 		.4byte	0
 11653 2044 00000000 		.4byte	0
 11654              	.LLST401:
 11655 2048 86000000 		.4byte	.LVL183
 11656 204c 8C000000 		.4byte	.LVL184
 11657 2050 0100     		.2byte	0x1
 11658 2052 50       		.byte	0x50
 11659 2053 8C000000 		.4byte	.LVL184
 11660 2057 8F000000 		.4byte	.LVL185-1
 11661 205b 0100     		.2byte	0x1
 11662 205d 52       		.byte	0x52
 11663 205e 00000000 		.4byte	0
 11664 2062 00000000 		.4byte	0
 11665              	.LLST402:
 11666 2066 1C000000 		.4byte	.LVL169
 11667 206a 20000000 		.4byte	.LVL170
 11668 206e 0200     		.2byte	0x2
 11669 2070 34       		.byte	0x34
 11670 2071 9F       		.byte	0x9f
 11671 2072 00000000 		.4byte	0
 11672 2076 00000000 		.4byte	0
 11673              	.LLST403:
 11674 207a 1C000000 		.4byte	.LVL169
 11675 207e 20000000 		.4byte	.LVL170
 11676 2082 0600     		.2byte	0x6
 11677 2084 0C       		.byte	0xc
 11678 2085 00003240 		.4byte	0x40320000
 11679 2089 9F       		.byte	0x9f
 11680 208a 00000000 		.4byte	0
 11681 208e 00000000 		.4byte	0
 11682              	.LLST404:
 11683 2092 38000000 		.4byte	.LVL173
 11684 2096 3C000000 		.4byte	.LVL174
 11685 209a 0200     		.2byte	0x2
 11686 209c 30       		.byte	0x30
 11687 209d 9F       		.byte	0x9f
 11688 209e 3C000000 		.4byte	.LVL174
 11689 20a2 04010000 		.4byte	.LFE532
ARM GAS  C:\Users\Angel\AppData\Local\Temp\ccvqOPgy.s 			page 276


 11690 20a6 0100     		.2byte	0x1
 11691 20a8 56       		.byte	0x56
 11692 20a9 00000000 		.4byte	0
 11693 20ad 00000000 		.4byte	0
 11694              	.LLST405:
 11695 20b1 48000000 		.4byte	.LVL176
 11696 20b5 4C000000 		.4byte	.LVL177
 11697 20b9 0200     		.2byte	0x2
 11698 20bb 30       		.byte	0x30
 11699 20bc 9F       		.byte	0x9f
 11700 20bd 4C000000 		.4byte	.LVL177
 11701 20c1 B2000000 		.4byte	.LVL190
 11702 20c5 0100     		.2byte	0x1
 11703 20c7 54       		.byte	0x54
 11704 20c8 00000000 		.4byte	0
 11705 20cc 00000000 		.4byte	0
 11706              	.LLST406:
 11707 20d0 62000000 		.4byte	.LVL181
 11708 20d4 86000000 		.4byte	.LVL183
 11709 20d8 0200     		.2byte	0x2
 11710 20da 30       		.byte	0x30
 11711 20db 9F       		.byte	0x9f
 11712 20dc 00000000 		.4byte	0
 11713 20e0 00000000 		.4byte	0
 11714              	.LLST407:
 11715 20e4 98000000 		.4byte	.LVL186
 11716 20e8 A2000000 		.4byte	.LVL187
 11717 20ec 0100     		.2byte	0x1
 11718 20ee 5D       		.byte	0x5d
 11719 20ef 00000000 		.4byte	0
 11720 20f3 00000000 		.4byte	0
 11721              	.LLST409:
 11722 20f7 98000000 		.4byte	.LVL186
 11723 20fb A2000000 		.4byte	.LVL187
 11724 20ff 0600     		.2byte	0x6
 11725 2101 0C       		.byte	0xc
 11726 2102 00006640 		.4byte	0x40660000
 11727 2106 9F       		.byte	0x9f
 11728 2107 00000000 		.4byte	0
 11729 210b 00000000 		.4byte	0
 11730              	.LLST410:
 11731 210f A2000000 		.4byte	.LVL187
 11732 2113 AA000000 		.4byte	.LVL188
 11733 2117 0600     		.2byte	0x6
 11734 2119 03       		.byte	0x3
 11735 211a 6C000000 		.4byte	.LC8
 11736 211e 9F       		.byte	0x9f
 11737 211f 00000000 		.4byte	0
 11738 2123 00000000 		.4byte	0
 11739              	.LLST412:
 11740 2127 A2000000 		.4byte	.LVL187
 11741 212b AA000000 		.4byte	.LVL188
 11742 212f 0600     		.2byte	0x6
 11743 2131 0C       		.byte	0xc
 11744 2132 00006640 		.4byte	0x40660000
 11745 2136 9F       		.byte	0x9f
 11746 2137 00000000 		.4byte	0
ARM GAS  C:\Users\Angel\AppData\Local\Temp\ccvqOPgy.s 			page 277


 11747 213b 00000000 		.4byte	0
 11748              	.LLST413:
 11749 213f B6000000 		.4byte	.LVL191
 11750 2143 BE000000 		.4byte	.LVL192
 11751 2147 0600     		.2byte	0x6
 11752 2149 03       		.byte	0x3
 11753 214a 70000000 		.4byte	.LC9
 11754 214e 9F       		.byte	0x9f
 11755 214f 00000000 		.4byte	0
 11756 2153 00000000 		.4byte	0
 11757              	.LLST415:
 11758 2157 B6000000 		.4byte	.LVL191
 11759 215b BE000000 		.4byte	.LVL192
 11760 215f 0600     		.2byte	0x6
 11761 2161 0C       		.byte	0xc
 11762 2162 00006640 		.4byte	0x40660000
 11763 2166 9F       		.byte	0x9f
 11764 2167 00000000 		.4byte	0
 11765 216b 00000000 		.4byte	0
 11766              		.section	.debug_aranges,"",%progbits
 11767 0000 74000000 		.4byte	0x74
 11768 0004 0200     		.2byte	0x2
 11769 0006 00000000 		.4byte	.Ldebug_info0
 11770 000a 04       		.byte	0x4
 11771 000b 00       		.byte	0
 11772 000c 0000     		.2byte	0
 11773 000e 0000     		.2byte	0
 11774 0010 00000000 		.4byte	.LFB534
 11775 0014 08000000 		.4byte	.LFE534-.LFB534
 11776 0018 00000000 		.4byte	.LFB533
 11777 001c 10000000 		.4byte	.LFE533-.LFB533
 11778 0020 00000000 		.4byte	.LFB539
 11779 0024 24000000 		.4byte	.LFE539-.LFB539
 11780 0028 00000000 		.4byte	.LFB535
 11781 002c 24000000 		.4byte	.LFE535-.LFB535
 11782 0030 00000000 		.4byte	.LFB536
 11783 0034 24000000 		.4byte	.LFE536-.LFB536
 11784 0038 00000000 		.4byte	.LFB540
 11785 003c 58000000 		.4byte	.LFE540-.LFB540
 11786 0040 00000000 		.4byte	.LFB537
 11787 0044 24000000 		.4byte	.LFE537-.LFB537
 11788 0048 00000000 		.4byte	.LFB538
 11789 004c 24000000 		.4byte	.LFE538-.LFB538
 11790 0050 00000000 		.4byte	.LFB529
 11791 0054 60010000 		.4byte	.LFE529-.LFB529
 11792 0058 00000000 		.4byte	.LFB530
 11793 005c B0010000 		.4byte	.LFE530-.LFB530
 11794 0060 00000000 		.4byte	.LFB531
 11795 0064 5C000000 		.4byte	.LFE531-.LFB531
 11796 0068 00000000 		.4byte	.LFB532
 11797 006c 04010000 		.4byte	.LFE532-.LFB532
 11798 0070 00000000 		.4byte	0
 11799 0074 00000000 		.4byte	0
 11800              		.section	.debug_ranges,"",%progbits
 11801              	.Ldebug_ranges0:
 11802 0000 00000000 		.4byte	.LFB534
 11803 0004 08000000 		.4byte	.LFE534
ARM GAS  C:\Users\Angel\AppData\Local\Temp\ccvqOPgy.s 			page 278


 11804 0008 00000000 		.4byte	.LFB533
 11805 000c 10000000 		.4byte	.LFE533
 11806 0010 00000000 		.4byte	.LFB539
 11807 0014 24000000 		.4byte	.LFE539
 11808 0018 00000000 		.4byte	.LFB535
 11809 001c 24000000 		.4byte	.LFE535
 11810 0020 00000000 		.4byte	.LFB536
 11811 0024 24000000 		.4byte	.LFE536
 11812 0028 00000000 		.4byte	.LFB540
 11813 002c 58000000 		.4byte	.LFE540
 11814 0030 00000000 		.4byte	.LFB537
 11815 0034 24000000 		.4byte	.LFE537
 11816 0038 00000000 		.4byte	.LFB538
 11817 003c 24000000 		.4byte	.LFE538
 11818 0040 00000000 		.4byte	.LFB529
 11819 0044 60010000 		.4byte	.LFE529
 11820 0048 00000000 		.4byte	.LFB530
 11821 004c B0010000 		.4byte	.LFE530
 11822 0050 00000000 		.4byte	.LFB531
 11823 0054 5C000000 		.4byte	.LFE531
 11824 0058 00000000 		.4byte	.LFB532
 11825 005c 04010000 		.4byte	.LFE532
 11826 0060 00000000 		.4byte	0
 11827 0064 00000000 		.4byte	0
 11828              		.section	.debug_line,"",%progbits
 11829              	.Ldebug_line0:
 11830 0000 65060000 		.section	.debug_str,"MS",%progbits,1
 11830      02005D04 
 11830      00000201 
 11830      FB0E0D00 
 11830      01010101 
 11831              	.LASF193:
 11832 0000 666C6173 		.ascii	"flashCtlMainWs1Freq\000"
 11832      6843746C 
 11832      4D61696E 
 11832      57733146 
 11832      72657100 
 11833              	.LASF31:
 11834 0014 52455345 		.ascii	"RESERVED\000"
 11834      52564544 
 11834      00
 11835              	.LASF39:
 11836 001d 5644445F 		.ascii	"VDD_ACTIVE\000"
 11836      41435449 
 11836      564500
 11837              	.LASF35:
 11838 0028 494E5452 		.ascii	"INTR_CAUSE0\000"
 11838      5F434155 
 11838      53453000 
 11839              	.LASF36:
 11840 0034 494E5452 		.ascii	"INTR_CAUSE1\000"
 11840      5F434155 
 11840      53453100 
 11841              	.LASF37:
 11842 0040 494E5452 		.ascii	"INTR_CAUSE2\000"
 11842      5F434155 
 11842      53453200 
ARM GAS  C:\Users\Angel\AppData\Local\Temp\ccvqOPgy.s 			page 279


 11843              	.LASF38:
 11844 004c 494E5452 		.ascii	"INTR_CAUSE3\000"
 11844      5F434155 
 11844      53453300 
 11845              	.LASF306:
 11846 0058 646F5F70 		.ascii	"do_pos\000"
 11846      6F7300
 11847              	.LASF122:
 11848 005f 4348414E 		.ascii	"CHAN_WORK_UPDATED\000"
 11848      5F574F52 
 11848      4B5F5550 
 11848      44415445 
 11848      4400
 11849              	.LASF349:
 11850 0071 6D61696E 		.ascii	"main_cm4.c\000"
 11850      5F636D34 
 11850      2E6300
 11851              	.LASF322:
 11852 007c 63795F64 		.ascii	"cy_device\000"
 11852      65766963 
 11852      6500
 11853              	.LASF314:
 11854 0086 6368616E 		.ascii	"chan\000"
 11854      00
 11855              	.LASF220:
 11856 008b 63707573 		.ascii	"cpussCm0ClockCtlOffset\000"
 11856      73436D30 
 11856      436C6F63 
 11856      6B43746C 
 11856      4F666673 
 11857              	.LASF179:
 11858 00a2 70657269 		.ascii	"periClockNr\000"
 11858      436C6F63 
 11858      6B4E7200 
 11859              	.LASF264:
 11860 00ae 74785374 		.ascii	"txStatus\000"
 11860      61747573 
 11860      00
 11861              	.LASF153:
 11862 00b7 75646242 		.ascii	"udbBase\000"
 11862      61736500 
 11863              	.LASF48:
 11864 00bf 434D445F 		.ascii	"CMD_RESP_STATUS\000"
 11864      52455350 
 11864      5F535441 
 11864      54555300 
 11865              	.LASF117:
 11866 00cf 4348414E 		.ascii	"CHAN_EN\000"
 11866      5F454E00 
 11867              	.LASF104:
 11868 00d7 494E5452 		.ascii	"INTR_TX_MASK\000"
 11868      5F54585F 
 11868      4D41534B 
 11868      00
 11869              	.LASF152:
 11870 00e4 70657269 		.ascii	"periBase\000"
 11870      42617365 
ARM GAS  C:\Users\Angel\AppData\Local\Temp\ccvqOPgy.s 			page 280


 11870      00
 11871              	.LASF228:
 11872 00ed 63707573 		.ascii	"cpussCm0NmiCtlOffset\000"
 11872      73436D30 
 11872      4E6D6943 
 11872      746C4F66 
 11872      66736574 
 11873              	.LASF198:
 11874 0102 64774368 		.ascii	"dwChSize\000"
 11874      53697A65 
 11874      00
 11875              	.LASF320:
 11876 010b 6D795374 		.ascii	"myString\000"
 11876      72696E67 
 11876      00
 11877              	.LASF65:
 11878 0114 54585F46 		.ascii	"TX_FIFO_STATUS\000"
 11878      49464F5F 
 11878      53544154 
 11878      555300
 11879              	.LASF132:
 11880 0123 52414E47 		.ascii	"RANGE_INTR_MASK\000"
 11880      455F494E 
 11880      54525F4D 
 11880      41534B00 
 11881              	.LASF296:
 11882 0133 43795F47 		.ascii	"Cy_GPIO_Read\000"
 11882      50494F5F 
 11882      52656164 
 11882      00
 11883              	.LASF346:
 11884 0140 4144435F 		.ascii	"ADC_1_Init\000"
 11884      315F496E 
 11884      697400
 11885              	.LASF80:
 11886 014b 494E5452 		.ascii	"INTR_CAUSE\000"
 11886      5F434155 
 11886      534500
 11887              	.LASF180:
 11888 0156 736D6966 		.ascii	"smifDeviceNr\000"
 11888      44657669 
 11888      63654E72 
 11888      00
 11889              	.LASF245:
 11890 0163 43595F53 		.ascii	"CY_SAR_RANGE_COND_OUTSIDE\000"
 11890      41525F52 
 11890      414E4745 
 11890      5F434F4E 
 11890      445F4F55 
 11891              	.LASF210:
 11892 017d 70657269 		.ascii	"periDivCmdPaTypeSelPos\000"
 11892      44697643 
 11892      6D645061 
 11892      54797065 
 11892      53656C50 
 11893              	.LASF172:
 11894 0194 63707573 		.ascii	"cpussFlashPaSize\000"
ARM GAS  C:\Users\Angel\AppData\Local\Temp\ccvqOPgy.s 			page 281


 11894      73466C61 
 11894      73685061 
 11894      53697A65 
 11894      00
 11895              	.LASF30:
 11896 01a5 4346475F 		.ascii	"CFG_SIO\000"
 11896      53494F00 
 11897              	.LASF70:
 11898 01ad 52585F46 		.ascii	"RX_FIFO_CTRL\000"
 11898      49464F5F 
 11898      4354524C 
 11898      00
 11899              	.LASF7:
 11900 01ba 5F5F696E 		.ascii	"__int32_t\000"
 11900      7433325F 
 11900      7400
 11901              	.LASF124:
 11902 01c4 4348414E 		.ascii	"CHAN_WORK_NEWVALUE\000"
 11902      5F574F52 
 11902      4B5F4E45 
 11902      5756414C 
 11902      554500
 11903              	.LASF150:
 11904 01d7 63707573 		.ascii	"cpussBase\000"
 11904      73426173 
 11904      6500
 11905              	.LASF341:
 11906 01e1 4144435F 		.ascii	"ADC_1_IsEndConversion\000"
 11906      315F4973 
 11906      456E6443 
 11906      6F6E7665 
 11906      7273696F 
 11907              	.LASF174:
 11908 01f7 63707573 		.ascii	"cpussFmIrq\000"
 11908      73466D49 
 11908      727100
 11909              	.LASF98:
 11910 0202 494E5452 		.ascii	"INTR_S_SET\000"
 11910      5F535F53 
 11910      455400
 11911              	.LASF281:
 11912 020d 6877436F 		.ascii	"hwConfigStc\000"
 11912      6E666967 
 11912      53746300 
 11913              	.LASF204:
 11914 0219 70657269 		.ascii	"periTrCmdGrSelMsk\000"
 11914      5472436D 
 11914      64477253 
 11914      656C4D73 
 11914      6B00
 11915              	.LASF103:
 11916 022b 494E5452 		.ascii	"INTR_TX_SET\000"
 11916      5F54585F 
 11916      53455400 
 11917              	.LASF110:
 11918 0237 494E5452 		.ascii	"INTR_RX_MASKED\000"
 11918      5F52585F 
ARM GAS  C:\Users\Angel\AppData\Local\Temp\ccvqOPgy.s 			page 282


 11918      4D41534B 
 11918      454400
 11919              	.LASF340:
 11920 0246 4144435F 		.ascii	"ADC_1_StartConvert\000"
 11920      315F5374 
 11920      61727443 
 11920      6F6E7665 
 11920      727400
 11921              	.LASF0:
 11922 0259 73686F72 		.ascii	"short int\000"
 11922      7420696E 
 11922      7400
 11923              	.LASF267:
 11924 0263 72785269 		.ascii	"rxRingBufSize\000"
 11924      6E674275 
 11924      6653697A 
 11924      6500
 11925              	.LASF126:
 11926 0271 53415455 		.ascii	"SATURATE_INTR\000"
 11926      52415445 
 11926      5F494E54 
 11926      5200
 11927              	.LASF13:
 11928 027f 756E7369 		.ascii	"unsigned int\000"
 11928      676E6564 
 11928      20696E74 
 11928      00
 11929              	.LASF113:
 11930 028c 53414D50 		.ascii	"SAMPLE_TIME01\000"
 11930      4C455F54 
 11930      494D4530 
 11930      3100
 11931              	.LASF135:
 11932 029a 494E4A5F 		.ascii	"INJ_RESULT\000"
 11932      52455355 
 11932      4C5400
 11933              	.LASF209:
 11934 02a5 70657269 		.ascii	"periDivCmdPaDivSelPos\000"
 11934      44697643 
 11934      6D645061 
 11934      44697653 
 11934      656C506F 
 11935              	.LASF289:
 11936 02bb 66756E63 		.ascii	"func\000"
 11936      00
 11937              	.LASF26:
 11938 02c0 494E5452 		.ascii	"INTR_SET\000"
 11938      5F534554 
 11938      00
 11939              	.LASF186:
 11940 02c9 63727970 		.ascii	"cryptoMemSize\000"
 11940      746F4D65 
 11940      6D53697A 
 11940      6500
 11941              	.LASF256:
 11942 02d7 73617449 		.ascii	"satIntrMask\000"
 11942      6E74724D 
ARM GAS  C:\Users\Angel\AppData\Local\Temp\ccvqOPgy.s 			page 283


 11942      61736B00 
 11943              	.LASF232:
 11944 02e3 63707573 		.ascii	"cpussRam1Ctl0\000"
 11944      7352616D 
 11944      3143746C 
 11944      3000
 11945              	.LASF206:
 11946 02f1 70657269 		.ascii	"periTrGrSize\000"
 11946      54724772 
 11946      53697A65 
 11946      00
 11947              	.LASF177:
 11948 02fe 73727373 		.ascii	"srssNumPll\000"
 11948      4E756D50 
 11948      6C6C00
 11949              	.LASF234:
 11950 0309 69706353 		.ascii	"ipcStructSize\000"
 11950      74727563 
 11950      7453697A 
 11950      6500
 11951              	.LASF319:
 11952 0317 61637475 		.ascii	"actualValue\000"
 11952      616C5661 
 11952      6C756500 
 11953              	.LASF348:
 11954 0323 474E5520 		.ascii	"GNU C11 5.4.1 20160609 (release) [ARM/embedded-5-br"
 11954      43313120 
 11954      352E342E 
 11954      31203230 
 11954      31363036 
 11955 0356 616E6368 		.ascii	"anch revision 237715] -mcpu=cortex-m4 -mfloat-abi=s"
 11955      20726576 
 11955      6973696F 
 11955      6E203233 
 11955      37373135 
 11956 0389 6F667466 		.ascii	"oftfp -mfpu=fpv4-sp-d16 -mthumb -g -Og -ffunction-s"
 11956      70202D6D 
 11956      6670753D 
 11956      66707634 
 11956      2D73702D 
 11957 03bc 65637469 		.ascii	"ections -ffat-lto-objects\000"
 11957      6F6E7320 
 11957      2D666661 
 11957      742D6C74 
 11957      6F2D6F62 
 11958              	.LASF168:
 11959 03d6 70726F74 		.ascii	"protVersion\000"
 11959      56657273 
 11959      696F6E00 
 11960              	.LASF53:
 11961 03e2 55415254 		.ascii	"UART_RX_CTRL\000"
 11961      5F52585F 
 11961      4354524C 
 11961      00
 11962              	.LASF208:
 11963 03ef 70657269 		.ascii	"periDivCmdTypeSelPos\000"
 11963      44697643 
ARM GAS  C:\Users\Angel\AppData\Local\Temp\ccvqOPgy.s 			page 284


 11963      6D645479 
 11963      70655365 
 11963      6C506F73 
 11964              	.LASF225:
 11965 0404 63707573 		.ascii	"cpussTrimRamCtlOffset\000"
 11965      73547269 
 11965      6D52616D 
 11965      43746C4F 
 11965      66667365 
 11966              	.LASF147:
 11967 041a 43795343 		.ascii	"CySCB_Type\000"
 11967      425F5479 
 11967      706500
 11968              	.LASF327:
 11969 0425 6D61696E 		.ascii	"main_func_list\000"
 11969      5F66756E 
 11969      635F6C69 
 11969      737400
 11970              	.LASF28:
 11971 0434 4346475F 		.ascii	"CFG_IN\000"
 11971      494E00
 11972              	.LASF236:
 11973 043b 63795F73 		.ascii	"cy_stc_device_t\000"
 11973      74635F64 
 11973      65766963 
 11973      655F7400 
 11974              	.LASF61:
 11975 044b 4932435F 		.ascii	"I2C_CFG\000"
 11975      43464700 
 11976              	.LASF311:
 11977 0453 636F6C75 		.ascii	"columnselect\000"
 11977      6D6E7365 
 11977      6C656374 
 11977      00
 11978              	.LASF76:
 11979 0460 52585F46 		.ascii	"RX_FIFO_RD_SILENT\000"
 11979      49464F5F 
 11979      52445F53 
 11979      494C454E 
 11979      5400
 11980              	.LASF18:
 11981 0472 75696E74 		.ascii	"uint32_t\000"
 11981      33325F74 
 11981      00
 11982              	.LASF93:
 11983 047b 494E5452 		.ascii	"INTR_M_SET\000"
 11983      5F4D5F53 
 11983      455400
 11984              	.LASF44:
 11985 0486 4750494F 		.ascii	"GPIO_V1_Type\000"
 11985      5F56315F 
 11985      54797065 
 11985      00
 11986              	.LASF218:
 11987 0493 6770696F 		.ascii	"gpioPrtCfgOutOffset\000"
 11987      50727443 
 11987      66674F75 
ARM GAS  C:\Users\Angel\AppData\Local\Temp\ccvqOPgy.s 			page 285


 11987      744F6666 
 11987      73657400 
 11988              	.LASF23:
 11989 04a7 494E5452 		.ascii	"INTR\000"
 11989      00
 11990              	.LASF239:
 11991 04ac 666C6F61 		.ascii	"float\000"
 11991      7400
 11992              	.LASF161:
 11993 04b2 63727970 		.ascii	"cryptoVersion\000"
 11993      746F5665 
 11993      7273696F 
 11993      6E00
 11994              	.LASF95:
 11995 04c0 494E5452 		.ascii	"INTR_M_MASKED\000"
 11995      5F4D5F4D 
 11995      41534B45 
 11995      4400
 11996              	.LASF190:
 11997 04ce 666C6173 		.ascii	"flashProgramDelay\000"
 11997      6850726F 
 11997      6772616D 
 11997      44656C61 
 11997      7900
 11998              	.LASF292:
 11999 04e0 62617365 		.ascii	"base\000"
 11999      00
 12000              	.LASF339:
 12001 04e5 43795F53 		.ascii	"Cy_SysLib_Delay\000"
 12001      79734C69 
 12001      625F4465 
 12001      6C617900 
 12002              	.LASF286:
 12003 04f5 63795F73 		.ascii	"cy_stc_scb_uart_context\000"
 12003      74635F73 
 12003      63625F75 
 12003      6172745F 
 12003      636F6E74 
 12004              	.LASF20:
 12005 050d 4F55545F 		.ascii	"OUT_CLR\000"
 12005      434C5200 
 12006              	.LASF33:
 12007 0515 52455345 		.ascii	"RESERVED1\000"
 12007      52564544 
 12007      3100
 12008              	.LASF15:
 12009 051f 696E7431 		.ascii	"int16_t\000"
 12009      365F7400 
 12010              	.LASF217:
 12011 0527 6770696F 		.ascii	"gpioPrtCfgInOffset\000"
 12011      50727443 
 12011      6667496E 
 12011      4F666673 
 12011      657400
 12012              	.LASF280:
 12013 053a 6E756D43 		.ascii	"numChannels\000"
 12013      68616E6E 
ARM GAS  C:\Users\Angel\AppData\Local\Temp\ccvqOPgy.s 			page 286


 12013      656C7300 
 12014              	.LASF12:
 12015 0546 6C6F6E67 		.ascii	"long long unsigned int\000"
 12015      206C6F6E 
 12015      6720756E 
 12015      7369676E 
 12015      65642069 
 12016              	.LASF214:
 12017 055d 70657269 		.ascii	"periDiv24_5CtlOffset\000"
 12017      44697632 
 12017      345F3543 
 12017      746C4F66 
 12017      66736574 
 12018              	.LASF219:
 12019 0572 6770696F 		.ascii	"gpioPrtCfgSioOffset\000"
 12019      50727443 
 12019      66675369 
 12019      6F4F6666 
 12019      73657400 
 12020              	.LASF297:
 12021 0586 43795F47 		.ascii	"Cy_GPIO_Write\000"
 12021      50494F5F 
 12021      57726974 
 12021      6500
 12022              	.LASF173:
 12023 0594 63707573 		.ascii	"cpussIpc0Irq\000"
 12023      73497063 
 12023      30497271 
 12023      00
 12024              	.LASF253:
 12025 05a1 6368616E 		.ascii	"chanEn\000"
 12025      456E00
 12026              	.LASF114:
 12027 05a8 53414D50 		.ascii	"SAMPLE_TIME23\000"
 12027      4C455F54 
 12027      494D4532 
 12027      3300
 12028              	.LASF251:
 12029 05b6 72616E67 		.ascii	"rangeThres\000"
 12029      65546872 
 12029      657300
 12030              	.LASF5:
 12031 05c1 5F5F7569 		.ascii	"__uint16_t\000"
 12031      6E743136 
 12031      5F7400
 12032              	.LASF334:
 12033 05cc 434C4344 		.ascii	"CLCD_SetCGRAMAddr\000"
 12033      5F536574 
 12033      43475241 
 12033      4D416464 
 12033      7200
 12034              	.LASF243:
 12035 05de 43595F53 		.ascii	"CY_SAR_RANGE_COND_INSIDE\000"
 12035      41525F52 
 12035      414E4745 
 12035      5F434F4E 
 12035      445F494E 
ARM GAS  C:\Users\Angel\AppData\Local\Temp\ccvqOPgy.s 			page 287


 12036              	.LASF262:
 12037 05f7 63795F73 		.ascii	"cy_stc_sar_config_t\000"
 12037      74635F73 
 12037      61725F63 
 12037      6F6E6669 
 12037      675F7400 
 12038              	.LASF222:
 12039 060b 63707573 		.ascii	"cpussCm4StatusOffset\000"
 12039      73436D34 
 12039      53746174 
 12039      75734F66 
 12039      66736574 
 12040              	.LASF247:
 12041 0620 6374726C 		.ascii	"ctrl\000"
 12041      00
 12042              	.LASF52:
 12043 0625 55415254 		.ascii	"UART_TX_CTRL\000"
 12043      5F54585F 
 12043      4354524C 
 12043      00
 12044              	.LASF294:
 12045 0632 76616C75 		.ascii	"value\000"
 12045      6500
 12046              	.LASF29:
 12047 0638 4346475F 		.ascii	"CFG_OUT\000"
 12047      4F555400 
 12048              	.LASF265:
 12049 0640 72785374 		.ascii	"rxStatus\000"
 12049      61747573 
 12049      00
 12050              	.LASF270:
 12051 0649 72784275 		.ascii	"rxBuf\000"
 12051      6600
 12052              	.LASF328:
 12053 064f 434C4344 		.ascii	"CLCD_Clear\000"
 12053      5F436C65 
 12053      617200
 12054              	.LASF195:
 12055 065a 666C6173 		.ascii	"flashCtlMainWs3Freq\000"
 12055      6843746C 
 12055      4D61696E 
 12055      57733346 
 12055      72657100 
 12056              	.LASF284:
 12057 066e 4144435F 		.ascii	"ADC_1_CONFIG_STRUCT\000"
 12057      315F434F 
 12057      4E464947 
 12057      5F535452 
 12057      55435400 
 12058              	.LASF148:
 12059 0682 5341525F 		.ascii	"SAR_Type\000"
 12059      54797065 
 12059      00
 12060              	.LASF21:
 12061 068b 4F55545F 		.ascii	"OUT_SET\000"
 12061      53455400 
 12062              	.LASF87:
ARM GAS  C:\Users\Angel\AppData\Local\Temp\ccvqOPgy.s 			page 288


 12063 0693 494E5452 		.ascii	"INTR_SPI_EC\000"
 12063      5F535049 
 12063      5F454300 
 12064              	.LASF188:
 12065 069f 666C6173 		.ascii	"flashPipeRequired\000"
 12065      68506970 
 12065      65526571 
 12065      75697265 
 12065      6400
 12066              	.LASF276:
 12067 06b1 63624576 		.ascii	"cbEvents\000"
 12067      656E7473 
 12067      00
 12068              	.LASF240:
 12069 06ba 646F7562 		.ascii	"double\000"
 12069      6C6500
 12070              	.LASF347:
 12071 06c1 4144435F 		.ascii	"ADC_1_Start\000"
 12071      315F5374 
 12071      61727400 
 12072              	.LASF241:
 12073 06cd 5F426F6F 		.ascii	"_Bool\000"
 12073      6C00
 12074              	.LASF332:
 12075 06d3 434C4344 		.ascii	"CLCD_WriteData\000"
 12075      5F577269 
 12075      74654461 
 12075      746100
 12076              	.LASF73:
 12077 06e2 52585F4D 		.ascii	"RX_MATCH\000"
 12077      41544348 
 12077      00
 12078              	.LASF308:
 12079 06eb 646F5F53 		.ascii	"do_SetCGRAMAddr\000"
 12079      65744347 
 12079      52414D41 
 12079      64647200 
 12080              	.LASF116:
 12081 06fb 52414E47 		.ascii	"RANGE_COND\000"
 12081      455F434F 
 12081      4E4400
 12082              	.LASF192:
 12083 0706 666C6173 		.ascii	"flashCtlMainWs0Freq\000"
 12083      6843746C 
 12083      4D61696E 
 12083      57733046 
 12083      72657100 
 12084              	.LASF40:
 12085 071a 5644445F 		.ascii	"VDD_INTR\000"
 12085      494E5452 
 12085      00
 12086              	.LASF321:
 12087 0723 49544D5F 		.ascii	"ITM_RxBuffer\000"
 12087      52784275 
 12087      66666572 
 12087      00
 12088              	.LASF156:
ARM GAS  C:\Users\Angel\AppData\Local\Temp\ccvqOPgy.s 			page 289


 12089 0730 6770696F 		.ascii	"gpioBase\000"
 12089      42617365 
 12089      00
 12090              	.LASF82:
 12091 0739 494E5452 		.ascii	"INTR_I2C_EC\000"
 12091      5F493243 
 12091      5F454300 
 12092              	.LASF100:
 12093 0745 494E5452 		.ascii	"INTR_S_MASKED\000"
 12093      5F535F4D 
 12093      41534B45 
 12093      4400
 12094              	.LASF299:
 12095 0753 73747269 		.ascii	"string\000"
 12095      6E6700
 12096              	.LASF227:
 12097 075a 63707573 		.ascii	"cpussSysTickCtlOffset\000"
 12097      73537973 
 12097      5469636B 
 12097      43746C4F 
 12097      66667365 
 12098              	.LASF183:
 12099 0770 75646250 		.ascii	"udbPresent\000"
 12099      72657365 
 12099      6E7400
 12100              	.LASF304:
 12101 077b 646F5F53 		.ascii	"do_SetDDRAddr\000"
 12101      65744444 
 12101      52416464 
 12101      7200
 12102              	.LASF291:
 12103 0789 665F6C69 		.ascii	"f_list_type\000"
 12103      73745F74 
 12103      79706500 
 12104              	.LASF201:
 12105 0795 64775374 		.ascii	"dwStatusChIdxPos\000"
 12105      61747573 
 12105      43684964 
 12105      78506F73 
 12105      00
 12106              	.LASF144:
 12107 07a6 5341525F 		.ascii	"SAR_V1_Type\000"
 12107      56315F54 
 12107      79706500 
 12108              	.LASF298:
 12109 07b2 55415254 		.ascii	"UART_PutString\000"
 12109      5F507574 
 12109      53747269 
 12109      6E6700
 12110              	.LASF345:
 12111 07c1 434C4344 		.ascii	"CLCD_Init\000"
 12111      5F496E69 
 12111      7400
 12112              	.LASF261:
 12113 07cb 76726566 		.ascii	"vrefMvValue\000"
 12113      4D765661 
 12113      6C756500 
ARM GAS  C:\Users\Angel\AppData\Local\Temp\ccvqOPgy.s 			page 290


 12114              	.LASF295:
 12115 07d7 43795F47 		.ascii	"Cy_GPIO_ReadOut\000"
 12115      50494F5F 
 12115      52656164 
 12115      4F757400 
 12116              	.LASF129:
 12117 07e7 53415455 		.ascii	"SATURATE_INTR_MASKED\000"
 12117      52415445 
 12117      5F494E54 
 12117      525F4D41 
 12117      534B4544 
 12118              	.LASF352:
 12119 07fc 73746174 		.ascii	"states\000"
 12119      657300
 12120              	.LASF127:
 12121 0803 53415455 		.ascii	"SATURATE_INTR_SET\000"
 12121      52415445 
 12121      5F494E54 
 12121      525F5345 
 12121      5400
 12122              	.LASF151:
 12123 0815 666C6173 		.ascii	"flashcBase\000"
 12123      68634261 
 12123      736500
 12124              	.LASF238:
 12125 0820 63686172 		.ascii	"char\000"
 12125      00
 12126              	.LASF336:
 12127 0825 43795F53 		.ascii	"Cy_SysLib_AssertFailed\000"
 12127      79734C69 
 12127      625F4173 
 12127      73657274 
 12127      4661696C 
 12128              	.LASF111:
 12129 083c 43795343 		.ascii	"CySCB_V1_Type\000"
 12129      425F5631 
 12129      5F547970 
 12129      6500
 12130              	.LASF313:
 12131 084a 4144435F 		.ascii	"ADC_1_GetResult16\000"
 12131      315F4765 
 12131      74526573 
 12131      756C7431 
 12131      3600
 12132              	.LASF269:
 12133 085c 72785269 		.ascii	"rxRingBufTail\000"
 12133      6E674275 
 12133      66546169 
 12133      6C00
 12134              	.LASF213:
 12135 086a 70657269 		.ascii	"periDiv16_5CtlOffset\000"
 12135      44697631 
 12135      365F3543 
 12135      746C4F66 
 12135      66736574 
 12136              	.LASF99:
 12137 087f 494E5452 		.ascii	"INTR_S_MASK\000"
ARM GAS  C:\Users\Angel\AppData\Local\Temp\ccvqOPgy.s 			page 291


 12137      5F535F4D 
 12137      41534B00 
 12138              	.LASF184:
 12139 088b 73797350 		.ascii	"sysPmSimoPresent\000"
 12139      6D53696D 
 12139      6F507265 
 12139      73656E74 
 12139      00
 12140              	.LASF85:
 12141 089c 494E5452 		.ascii	"INTR_I2C_EC_MASKED\000"
 12141      5F493243 
 12141      5F45435F 
 12141      4D41534B 
 12141      454400
 12142              	.LASF317:
 12143 08af 6D795561 		.ascii	"myUart\000"
 12143      727400
 12144              	.LASF125:
 12145 08b6 4348414E 		.ascii	"CHAN_RESULT_NEWVALUE\000"
 12145      5F524553 
 12145      554C545F 
 12145      4E455756 
 12145      414C5545 
 12146              	.LASF315:
 12147 08cb 64617461 		.ascii	"data\000"
 12147      00
 12148              	.LASF272:
 12149 08d0 72784275 		.ascii	"rxBufIdx\000"
 12149      66496478 
 12149      00
 12150              	.LASF134:
 12151 08d9 494E4A5F 		.ascii	"INJ_CHAN_CONFIG\000"
 12151      4348414E 
 12151      5F434F4E 
 12151      46494700 
 12152              	.LASF277:
 12153 08e9 696E6974 		.ascii	"initKey\000"
 12153      4B657900 
 12154              	.LASF136:
 12155 08f1 4156475F 		.ascii	"AVG_STAT\000"
 12155      53544154 
 12155      00
 12156              	.LASF202:
 12157 08fa 64775374 		.ascii	"dwStatusChIdxMsk\000"
 12157      61747573 
 12157      43684964 
 12157      784D736B 
 12157      00
 12158              	.LASF14:
 12159 090b 75696E74 		.ascii	"uint8_t\000"
 12159      385F7400 
 12160              	.LASF207:
 12161 0913 70657269 		.ascii	"periDivCmdDivSelMsk\000"
 12161      44697643 
 12161      6D644469 
 12161      7653656C 
 12161      4D736B00 
ARM GAS  C:\Users\Angel\AppData\Local\Temp\ccvqOPgy.s 			page 292


 12162              	.LASF131:
 12163 0927 52414E47 		.ascii	"RANGE_INTR_SET\000"
 12163      455F494E 
 12163      54525F53 
 12163      455400
 12164              	.LASF259:
 12165 0936 6D757853 		.ascii	"muxSwitchSqCtrl\000"
 12165      77697463 
 12165      68537143 
 12165      74726C00 
 12166              	.LASF263:
 12167 0946 63795F63 		.ascii	"cy_cb_scb_uart_handle_events_t\000"
 12167      625F7363 
 12167      625F7561 
 12167      72745F68 
 12167      616E646C 
 12168              	.LASF252:
 12169 0965 72616E67 		.ascii	"rangeCond\000"
 12169      65436F6E 
 12169      6400
 12170              	.LASF75:
 12171 096f 52585F46 		.ascii	"RX_FIFO_RD\000"
 12171      49464F5F 
 12171      524400
 12172              	.LASF231:
 12173 097a 63707573 		.ascii	"cpussRam0Ctl0\000"
 12173      7352616D 
 12173      3043746C 
 12173      3000
 12174              	.LASF11:
 12175 0988 6C6F6E67 		.ascii	"long long int\000"
 12175      206C6F6E 
 12175      6720696E 
 12175      7400
 12176              	.LASF158:
 12177 0996 69706342 		.ascii	"ipcBase\000"
 12177      61736500 
 12178              	.LASF199:
 12179 099e 64774368 		.ascii	"dwChCtlPrioPos\000"
 12179      43746C50 
 12179      72696F50 
 12179      6F7300
 12180              	.LASF159:
 12181 09ad 63727970 		.ascii	"cryptoBase\000"
 12181      746F4261 
 12181      736500
 12182              	.LASF343:
 12183 09b8 7072696E 		.ascii	"printf\000"
 12183      746600
 12184              	.LASF333:
 12185 09bf 434C4344 		.ascii	"CLCD_SetDDRAMAddr\000"
 12185      5F536574 
 12185      44445241 
 12185      4D416464 
 12185      7200
 12186              	.LASF290:
 12187 09d1 64657363 		.ascii	"description\000"
ARM GAS  C:\Users\Angel\AppData\Local\Temp\ccvqOPgy.s 			page 293


 12187      72697074 
 12187      696F6E00 
 12188              	.LASF133:
 12189 09dd 52414E47 		.ascii	"RANGE_INTR_MASKED\000"
 12189      455F494E 
 12189      54525F4D 
 12189      41534B45 
 12189      4400
 12190              	.LASF189:
 12191 09ef 666C6173 		.ascii	"flashWriteDelay\000"
 12191      68577269 
 12191      74654465 
 12191      6C617900 
 12192              	.LASF145:
 12193 09ff 4750494F 		.ascii	"GPIO_PRT_Type\000"
 12193      5F505254 
 12193      5F547970 
 12193      6500
 12194              	.LASF4:
 12195 0a0d 5F5F696E 		.ascii	"__int16_t\000"
 12195      7431365F 
 12195      7400
 12196              	.LASF55:
 12197 0a17 55415254 		.ascii	"UART_FLOW_CTRL\000"
 12197      5F464C4F 
 12197      575F4354 
 12197      524C00
 12198              	.LASF300:
 12199 0a26 646F5F63 		.ascii	"do_clear\000"
 12199      6C656172 
 12199      00
 12200              	.LASF155:
 12201 0a2f 6873696F 		.ascii	"hsiomBase\000"
 12201      6D426173 
 12201      6500
 12202              	.LASF121:
 12203 0a39 4348414E 		.ascii	"CHAN_RESULT\000"
 12203      5F524553 
 12203      554C5400 
 12204              	.LASF205:
 12205 0a45 70657269 		.ascii	"periTrGrOffset\000"
 12205      54724772 
 12205      4F666673 
 12205      657400
 12206              	.LASF175:
 12207 0a54 63707573 		.ascii	"cpussNotConnectedIrq\000"
 12207      734E6F74 
 12207      436F6E6E 
 12207      65637465 
 12207      64497271 
 12208              	.LASF130:
 12209 0a69 52414E47 		.ascii	"RANGE_INTR\000"
 12209      455F494E 
 12209      545200
 12210              	.LASF268:
 12211 0a74 72785269 		.ascii	"rxRingBufHead\000"
 12211      6E674275 
ARM GAS  C:\Users\Angel\AppData\Local\Temp\ccvqOPgy.s 			page 294


 12211      66486561 
 12211      6400
 12212              	.LASF309:
 12213 0a82 646F5F43 		.ascii	"do_Command\000"
 12213      6F6D6D61 
 12213      6E6400
 12214              	.LASF171:
 12215 0a8d 63707573 		.ascii	"cpussDwChNr\000"
 12215      73447743 
 12215      684E7200 
 12216              	.LASF338:
 12217 0a99 43795F53 		.ascii	"Cy_SCB_WriteString\000"
 12217      43425F57 
 12217      72697465 
 12217      53747269 
 12217      6E6700
 12218              	.LASF24:
 12219 0aac 494E5452 		.ascii	"INTR_MASK\000"
 12219      5F4D4153 
 12219      4B00
 12220              	.LASF112:
 12221 0ab6 53414D50 		.ascii	"SAMPLE_CTRL\000"
 12221      4C455F43 
 12221      54524C00 
 12222              	.LASF316:
 12223 0ac2 73697A65 		.ascii	"size\000"
 12223      00
 12224              	.LASF274:
 12225 0ac7 74784275 		.ascii	"txBufSize\000"
 12225      6653697A 
 12225      6500
 12226              	.LASF169:
 12227 0ad1 63707573 		.ascii	"cpussIpcNr\000"
 12227      73497063 
 12227      4E7200
 12228              	.LASF138:
 12229 0adc 4D55585F 		.ascii	"MUX_SWITCH_CLEAR0\000"
 12229      53574954 
 12229      43485F43 
 12229      4C454152 
 12229      3000
 12230              	.LASF181:
 12231 0aee 70617373 		.ascii	"passSarChannels\000"
 12231      53617243 
 12231      68616E6E 
 12231      656C7300 
 12232              	.LASF233:
 12233 0afe 63707573 		.ascii	"cpussRam2Ctl0\000"
 12233      7352616D 
 12233      3243746C 
 12233      3000
 12234              	.LASF107:
 12235 0b0c 494E5452 		.ascii	"INTR_RX\000"
 12235      5F525800 
 12236              	.LASF301:
 12237 0b14 646F5F68 		.ascii	"do_help\000"
 12237      656C7000 
ARM GAS  C:\Users\Angel\AppData\Local\Temp\ccvqOPgy.s 			page 295


 12238              	.LASF118:
 12239 0b1c 53544152 		.ascii	"START_CTRL\000"
 12239      545F4354 
 12239      524C00
 12240              	.LASF273:
 12241 0b27 74784275 		.ascii	"txBuf\000"
 12241      6600
 12242              	.LASF42:
 12243 0b2d 5644445F 		.ascii	"VDD_INTR_MASKED\000"
 12243      494E5452 
 12243      5F4D4153 
 12243      4B454400 
 12244              	.LASF212:
 12245 0b3d 70657269 		.ascii	"periDiv16CtlOffset\000"
 12245      44697631 
 12245      3643746C 
 12245      4F666673 
 12245      657400
 12246              	.LASF325:
 12247 0b50 4144435F 		.ascii	"ADC_1_allConfigs\000"
 12247      315F616C 
 12247      6C436F6E 
 12247      66696773 
 12247      00
 12248              	.LASF258:
 12249 0b61 6D757853 		.ascii	"muxSwitch\000"
 12249      77697463 
 12249      6800
 12250              	.LASF6:
 12251 0b6b 73686F72 		.ascii	"short unsigned int\000"
 12251      7420756E 
 12251      7369676E 
 12251      65642069 
 12251      6E7400
 12252              	.LASF266:
 12253 0b7e 72785269 		.ascii	"rxRingBuf\000"
 12253      6E674275 
 12253      6600
 12254              	.LASF149:
 12255 0b88 6C6F6E67 		.ascii	"long double\000"
 12255      20646F75 
 12255      626C6500 
 12256              	.LASF342:
 12257 0b94 73707269 		.ascii	"sprintf\000"
 12257      6E746600 
 12258              	.LASF16:
 12259 0b9c 75696E74 		.ascii	"uint16_t\000"
 12259      31365F74 
 12259      00
 12260              	.LASF84:
 12261 0ba5 494E5452 		.ascii	"INTR_I2C_EC_MASK\000"
 12261      5F493243 
 12261      5F45435F 
 12261      4D41534B 
 12261      00
 12262              	.LASF154:
 12263 0bb6 70726F74 		.ascii	"protBase\000"
ARM GAS  C:\Users\Angel\AppData\Local\Temp\ccvqOPgy.s 			page 296


 12263      42617365 
 12263      00
 12264              	.LASF43:
 12265 0bbf 5644445F 		.ascii	"VDD_INTR_SET\000"
 12265      494E5452 
 12265      5F534554 
 12265      00
 12266              	.LASF331:
 12267 0bcc 434C4344 		.ascii	"CLCD_PutString\000"
 12267      5F507574 
 12267      53747269 
 12267      6E6700
 12268              	.LASF249:
 12269 0bdb 73616D70 		.ascii	"sampleTime01\000"
 12269      6C655469 
 12269      6D653031 
 12269      00
 12270              	.LASF178:
 12271 0be8 73727373 		.ascii	"srssNumHfroot\000"
 12271      4E756D48 
 12271      66726F6F 
 12271      7400
 12272              	.LASF242:
 12273 0bf6 43595F53 		.ascii	"CY_SAR_RANGE_COND_BELOW\000"
 12273      41525F52 
 12273      414E4745 
 12273      5F434F4E 
 12273      445F4245 
 12274              	.LASF162:
 12275 0c0e 64775665 		.ascii	"dwVersion\000"
 12275      7273696F 
 12275      6E00
 12276              	.LASF89:
 12277 0c18 494E5452 		.ascii	"INTR_SPI_EC_MASK\000"
 12277      5F535049 
 12277      5F45435F 
 12277      4D41534B 
 12277      00
 12278              	.LASF203:
 12279 0c29 70657269 		.ascii	"periTrCmdOffset\000"
 12279      5472436D 
 12279      644F6666 
 12279      73657400 
 12280              	.LASF2:
 12281 0c39 756E7369 		.ascii	"unsigned char\000"
 12281      676E6564 
 12281      20636861 
 12281      7200
 12282              	.LASF19:
 12283 0c47 73697A65 		.ascii	"sizetype\000"
 12283      74797065 
 12283      00
 12284              	.LASF60:
 12285 0c50 4932435F 		.ascii	"I2C_S_CMD\000"
 12285      535F434D 
 12285      4400
 12286              	.LASF229:
ARM GAS  C:\Users\Angel\AppData\Local\Temp\ccvqOPgy.s 			page 297


 12287 0c5a 63707573 		.ascii	"cpussCm4NmiCtlOffset\000"
 12287      73436D34 
 12287      4E6D6943 
 12287      746C4F66 
 12287      66736574 
 12288              	.LASF223:
 12289 0c6f 63707573 		.ascii	"cpussCm0StatusOffset\000"
 12289      73436D30 
 12289      53746174 
 12289      75734F66 
 12289      66736574 
 12290              	.LASF211:
 12291 0c84 70657269 		.ascii	"periDiv8CtlOffset\000"
 12291      44697638 
 12291      43746C4F 
 12291      66667365 
 12291      7400
 12292              	.LASF56:
 12293 0c96 52455345 		.ascii	"RESERVED2\000"
 12293      52564544 
 12293      3200
 12294              	.LASF62:
 12295 0ca0 52455345 		.ascii	"RESERVED3\000"
 12295      52564544 
 12295      3300
 12296              	.LASF66:
 12297 0caa 52455345 		.ascii	"RESERVED4\000"
 12297      52564544 
 12297      3400
 12298              	.LASF68:
 12299 0cb4 52455345 		.ascii	"RESERVED5\000"
 12299      52564544 
 12299      3500
 12300              	.LASF72:
 12301 0cbe 52455345 		.ascii	"RESERVED6\000"
 12301      52564544 
 12301      3600
 12302              	.LASF74:
 12303 0cc8 52455345 		.ascii	"RESERVED7\000"
 12303      52564544 
 12303      3700
 12304              	.LASF77:
 12305 0cd2 52455345 		.ascii	"RESERVED8\000"
 12305      52564544 
 12305      3800
 12306              	.LASF335:
 12307 0cdc 434C4344 		.ascii	"CLCD_WriteCommand\000"
 12307      5F577269 
 12307      7465436F 
 12307      6D6D616E 
 12307      6400
 12308              	.LASF140:
 12309 0cee 4D55585F 		.ascii	"MUX_SWITCH_SQ_CTRL\000"
 12309      53574954 
 12309      43485F53 
 12309      515F4354 
 12309      524C00
ARM GAS  C:\Users\Angel\AppData\Local\Temp\ccvqOPgy.s 			page 298


 12310              	.LASF8:
 12311 0d01 6C6F6E67 		.ascii	"long int\000"
 12311      20696E74 
 12311      00
 12312              	.LASF160:
 12313 0d0a 63707573 		.ascii	"cpussVersion\000"
 12313      73566572 
 12313      73696F6E 
 12313      00
 12314              	.LASF58:
 12315 0d17 4932435F 		.ascii	"I2C_STATUS\000"
 12315      53544154 
 12315      555300
 12316              	.LASF164:
 12317 0d22 6770696F 		.ascii	"gpioVersion\000"
 12317      56657273 
 12317      696F6E00 
 12318              	.LASF105:
 12319 0d2e 494E5452 		.ascii	"INTR_TX_MASKED\000"
 12319      5F54585F 
 12319      4D41534B 
 12319      454400
 12320              	.LASF163:
 12321 0d3d 666C6173 		.ascii	"flashcVersion\000"
 12321      68635665 
 12321      7273696F 
 12321      6E00
 12322              	.LASF185:
 12323 0d4b 70726F74 		.ascii	"protBusMasterMask\000"
 12323      4275734D 
 12323      61737465 
 12323      724D6173 
 12323      6B00
 12324              	.LASF318:
 12325 0d5d 766F6C74 		.ascii	"voltagereading\000"
 12325      61676572 
 12325      65616469 
 12325      6E6700
 12326              	.LASF244:
 12327 0d6c 43595F53 		.ascii	"CY_SAR_RANGE_COND_ABOVE\000"
 12327      41525F52 
 12327      414E4745 
 12327      5F434F4E 
 12327      445F4142 
 12328              	.LASF34:
 12329 0d84 4750494F 		.ascii	"GPIO_PRT_V1_Type\000"
 12329      5F505254 
 12329      5F56315F 
 12329      54797065 
 12329      00
 12330              	.LASF324:
 12331 0d95 4144435F 		.ascii	"ADC_1_currentConfig\000"
 12331      315F6375 
 12331      7272656E 
 12331      74436F6E 
 12331      66696700 
 12332              	.LASF115:
ARM GAS  C:\Users\Angel\AppData\Local\Temp\ccvqOPgy.s 			page 299


 12333 0da9 52414E47 		.ascii	"RANGE_THRES\000"
 12333      455F5448 
 12333      52455300 
 12334              	.LASF237:
 12335 0db5 63686172 		.ascii	"char_t\000"
 12335      5F7400
 12336              	.LASF120:
 12337 0dbc 4348414E 		.ascii	"CHAN_WORK\000"
 12337      5F574F52 
 12337      4B00
 12338              	.LASF326:
 12339 0dc6 636F6C75 		.ascii	"column\000"
 12339      6D6E00
 12340              	.LASF102:
 12341 0dcd 494E5452 		.ascii	"INTR_TX\000"
 12341      5F545800 
 12342              	.LASF54:
 12343 0dd5 55415254 		.ascii	"UART_RX_STATUS\000"
 12343      5F52585F 
 12343      53544154 
 12343      555300
 12344              	.LASF275:
 12345 0de4 74784C65 		.ascii	"txLeftToTransmit\000"
 12345      6674546F 
 12345      5472616E 
 12345      736D6974 
 12345      00
 12346              	.LASF191:
 12347 0df5 666C6173 		.ascii	"flashEraseDelay\000"
 12347      68457261 
 12347      73654465 
 12347      6C617900 
 12348              	.LASF22:
 12349 0e05 4F55545F 		.ascii	"OUT_INV\000"
 12349      494E5600 
 12350              	.LASF224:
 12351 0e0d 63707573 		.ascii	"cpussCm4PwrCtlOffset\000"
 12351      73436D34 
 12351      50777243 
 12351      746C4F66 
 12351      66736574 
 12352              	.LASF3:
 12353 0e22 5F5F7569 		.ascii	"__uint8_t\000"
 12353      6E74385F 
 12353      7400
 12354              	.LASF282:
 12355 0e2c 6D697363 		.ascii	"miscConfig\000"
 12355      436F6E66 
 12355      696700
 12356              	.LASF64:
 12357 0e37 54585F46 		.ascii	"TX_FIFO_CTRL\000"
 12357      49464F5F 
 12357      4354524C 
 12357      00
 12358              	.LASF288:
 12359 0e44 6E616D65 		.ascii	"name\000"
 12359      00
ARM GAS  C:\Users\Angel\AppData\Local\Temp\ccvqOPgy.s 			page 300


 12360              	.LASF59:
 12361 0e49 4932435F 		.ascii	"I2C_M_CMD\000"
 12361      4D5F434D 
 12361      4400
 12362              	.LASF90:
 12363 0e53 494E5452 		.ascii	"INTR_SPI_EC_MASKED\000"
 12363      5F535049 
 12363      5F45435F 
 12363      4D41534B 
 12363      454400
 12364              	.LASF215:
 12365 0e66 6770696F 		.ascii	"gpioPrtIntrCfgOffset\000"
 12365      50727449 
 12365      6E747243 
 12365      66674F66 
 12365      66736574 
 12366              	.LASF49:
 12367 0e7b 5350495F 		.ascii	"SPI_CTRL\000"
 12367      4354524C 
 12367      00
 12368              	.LASF221:
 12369 0e84 63707573 		.ascii	"cpussCm4ClockCtlOffset\000"
 12369      73436D34 
 12369      436C6F63 
 12369      6B43746C 
 12369      4F666673 
 12370              	.LASF25:
 12371 0e9b 494E5452 		.ascii	"INTR_MASKED\000"
 12371      5F4D4153 
 12371      4B454400 
 12372              	.LASF69:
 12373 0ea7 52585F43 		.ascii	"RX_CTRL\000"
 12373      54524C00 
 12374              	.LASF226:
 12375 0eaf 63707573 		.ascii	"cpussTrimRomCtlOffset\000"
 12375      73547269 
 12375      6D526F6D 
 12375      43746C4F 
 12375      66667365 
 12376              	.LASF250:
 12377 0ec5 73616D70 		.ascii	"sampleTime23\000"
 12377      6C655469 
 12377      6D653233 
 12377      00
 12378              	.LASF57:
 12379 0ed2 4932435F 		.ascii	"I2C_CTRL\000"
 12379      4354524C 
 12379      00
 12380              	.LASF165:
 12381 0edb 6873696F 		.ascii	"hsiomVersion\000"
 12381      6D566572 
 12381      73696F6E 
 12381      00
 12382              	.LASF10:
 12383 0ee8 6C6F6E67 		.ascii	"long unsigned int\000"
 12383      20756E73 
 12383      69676E65 
ARM GAS  C:\Users\Angel\AppData\Local\Temp\ccvqOPgy.s 			page 301


 12383      6420696E 
 12383      7400
 12384              	.LASF92:
 12385 0efa 494E5452 		.ascii	"INTR_M\000"
 12385      5F4D00
 12386              	.LASF230:
 12387 0f01 63707573 		.ascii	"cpussRomCtl\000"
 12387      73526F6D 
 12387      43746C00 
 12388              	.LASF337:
 12389 0f0d 43795F53 		.ascii	"Cy_SAR_GetResult16\000"
 12389      41525F47 
 12389      65745265 
 12389      73756C74 
 12389      313600
 12390              	.LASF97:
 12391 0f20 494E5452 		.ascii	"INTR_S\000"
 12391      5F5300
 12392              	.LASF17:
 12393 0f27 696E7433 		.ascii	"int32_t\000"
 12393      325F7400 
 12394              	.LASF137:
 12395 0f2f 4D55585F 		.ascii	"MUX_SWITCH0\000"
 12395      53574954 
 12395      43483000 
 12396              	.LASF94:
 12397 0f3b 494E5452 		.ascii	"INTR_M_MASK\000"
 12397      5F4D5F4D 
 12397      41534B00 
 12398              	.LASF123:
 12399 0f47 4348414E 		.ascii	"CHAN_RESULT_UPDATED\000"
 12399      5F524553 
 12399      554C545F 
 12399      55504441 
 12399      54454400 
 12400              	.LASF119:
 12401 0f5b 4348414E 		.ascii	"CHAN_CONFIG\000"
 12401      5F434F4E 
 12401      46494700 
 12402              	.LASF32:
 12403 0f67 4346475F 		.ascii	"CFG_IN_GPIO5V\000"
 12403      494E5F47 
 12403      50494F35 
 12403      5600
 12404              	.LASF248:
 12405 0f75 73616D70 		.ascii	"sampleCtrl\000"
 12405      6C654374 
 12405      726C00
 12406              	.LASF50:
 12407 0f80 5350495F 		.ascii	"SPI_STATUS\000"
 12407      53544154 
 12407      555300
 12408              	.LASF310:
 12409 0f8b 726F7773 		.ascii	"rowselect\000"
 12409      656C6563 
 12409      7400
 12410              	.LASF285:
ARM GAS  C:\Users\Angel\AppData\Local\Temp\ccvqOPgy.s 			page 302


 12411 0f95 66756E63 		.ascii	"func_ptr\000"
 12411      5F707472 
 12411      00
 12412              	.LASF142:
 12413 0f9e 414E415F 		.ascii	"ANA_TRIM0\000"
 12413      5452494D 
 12413      3000
 12414              	.LASF143:
 12415 0fa8 414E415F 		.ascii	"ANA_TRIM1\000"
 12415      5452494D 
 12415      3100
 12416              	.LASF9:
 12417 0fb2 5F5F7569 		.ascii	"__uint32_t\000"
 12417      6E743332 
 12417      5F7400
 12418              	.LASF146:
 12419 0fbd 4750494F 		.ascii	"GPIO_Type\000"
 12419      5F547970 
 12419      6500
 12420              	.LASF235:
 12421 0fc7 6970634C 		.ascii	"ipcLockStatusOffset\000"
 12421      6F636B53 
 12421      74617475 
 12421      734F6666 
 12421      73657400 
 12422              	.LASF307:
 12423 0fdb 6C696E65 		.ascii	"line\000"
 12423      00
 12424              	.LASF303:
 12425 0fe0 646F5F77 		.ascii	"do_write\000"
 12425      72697465 
 12425      00
 12426              	.LASF27:
 12427 0fe9 494E5452 		.ascii	"INTR_CFG\000"
 12427      5F434647 
 12427      00
 12428              	.LASF128:
 12429 0ff2 53415455 		.ascii	"SATURATE_INTR_MASK\000"
 12429      52415445 
 12429      5F494E54 
 12429      525F4D41 
 12429      534B00
 12430              	.LASF344:
 12431 1005 7474795F 		.ascii	"tty_init\000"
 12431      696E6974 
 12431      00
 12432              	.LASF81:
 12433 100e 52455345 		.ascii	"RESERVED10\000"
 12433      52564544 
 12433      313000
 12434              	.LASF83:
 12435 1019 52455345 		.ascii	"RESERVED11\000"
 12435      52564544 
 12435      313100
 12436              	.LASF86:
 12437 1024 52455345 		.ascii	"RESERVED12\000"
 12437      52564544 
ARM GAS  C:\Users\Angel\AppData\Local\Temp\ccvqOPgy.s 			page 303


 12437      313200
 12438              	.LASF88:
 12439 102f 52455345 		.ascii	"RESERVED13\000"
 12439      52564544 
 12439      313300
 12440              	.LASF91:
 12441 103a 52455345 		.ascii	"RESERVED14\000"
 12441      52564544 
 12441      313400
 12442              	.LASF96:
 12443 1045 52455345 		.ascii	"RESERVED15\000"
 12443      52564544 
 12443      313500
 12444              	.LASF101:
 12445 1050 52455345 		.ascii	"RESERVED16\000"
 12445      52564544 
 12445      313600
 12446              	.LASF106:
 12447 105b 52455345 		.ascii	"RESERVED17\000"
 12447      52564544 
 12447      313700
 12448              	.LASF71:
 12449 1066 52585F46 		.ascii	"RX_FIFO_STATUS\000"
 12449      49464F5F 
 12449      53544154 
 12449      555300
 12450              	.LASF283:
 12451 1075 636C6B44 		.ascii	"clkDivider\000"
 12451      69766964 
 12451      657200
 12452              	.LASF305:
 12453 1080 61646472 		.ascii	"addr\000"
 12453      00
 12454              	.LASF216:
 12455 1085 6770696F 		.ascii	"gpioPrtCfgOffset\000"
 12455      50727443 
 12455      66674F66 
 12455      66736574 
 12455      00
 12456              	.LASF67:
 12457 1096 54585F46 		.ascii	"TX_FIFO_WR\000"
 12457      49464F5F 
 12457      575200
 12458              	.LASF187:
 12459 10a1 666C6173 		.ascii	"flashRwwRequired\000"
 12459      68527777 
 12459      52657175 
 12459      69726564 
 12459      00
 12460              	.LASF329:
 12461 10b2 73686F77 		.ascii	"show_help\000"
 12461      5F68656C 
 12461      7000
 12462              	.LASF63:
 12463 10bc 54585F43 		.ascii	"TX_CTRL\000"
 12463      54524C00 
 12464              	.LASF293:
ARM GAS  C:\Users\Angel\AppData\Local\Temp\ccvqOPgy.s 			page 304


 12465 10c4 70696E4E 		.ascii	"pinNum\000"
 12465      756D00
 12466              	.LASF182:
 12467 10cb 65704D6F 		.ascii	"epMonitorNr\000"
 12467      6E69746F 
 12467      724E7200 
 12468              	.LASF323:
 12469 10d7 55415254 		.ascii	"UART_context\000"
 12469      5F636F6E 
 12469      74657874 
 12469      00
 12470              	.LASF302:
 12471 10e4 646F5F70 		.ascii	"do_print\000"
 12471      72696E74 
 12471      00
 12472              	.LASF41:
 12473 10ed 5644445F 		.ascii	"VDD_INTR_MASK\000"
 12473      494E5452 
 12473      5F4D4153 
 12473      4B00
 12474              	.LASF1:
 12475 10fb 7369676E 		.ascii	"signed char\000"
 12475      65642063 
 12475      68617200 
 12476              	.LASF197:
 12477 1107 64774368 		.ascii	"dwChOffset\000"
 12477      4F666673 
 12477      657400
 12478              	.LASF51:
 12479 1112 55415254 		.ascii	"UART_CTRL\000"
 12479      5F435452 
 12479      4C00
 12480              	.LASF170:
 12481 111c 63707573 		.ascii	"cpussIpcIrqNr\000"
 12481      73497063 
 12481      4972714E 
 12481      7200
 12482              	.LASF109:
 12483 112a 494E5452 		.ascii	"INTR_RX_MASK\000"
 12483      5F52585F 
 12483      4D41534B 
 12483      00
 12484              	.LASF200:
 12485 1137 64774368 		.ascii	"dwChCtlPreemptablePos\000"
 12485      43746C50 
 12485      7265656D 
 12485      70746162 
 12485      6C65506F 
 12486              	.LASF353:
 12487 114d 6D61696E 		.ascii	"main\000"
 12487      00
 12488              	.LASF139:
 12489 1152 4D55585F 		.ascii	"MUX_SWITCH_DS_CTRL\000"
 12489      53574954 
 12489      43485F44 
 12489      535F4354 
 12489      524C00
ARM GAS  C:\Users\Angel\AppData\Local\Temp\ccvqOPgy.s 			page 305


 12490              	.LASF47:
 12491 1165 434D445F 		.ascii	"CMD_RESP_CTRL\000"
 12491      52455350 
 12491      5F435452 
 12491      4C00
 12492              	.LASF254:
 12493 1173 6368616E 		.ascii	"chanConfig\000"
 12493      436F6E66 
 12493      696700
 12494              	.LASF351:
 12495 117e 5F5F656E 		.ascii	"__enable_irq\000"
 12495      61626C65 
 12495      5F697271 
 12495      00
 12496              	.LASF141:
 12497 118b 4D55585F 		.ascii	"MUX_SWITCH_STATUS\000"
 12497      53574954 
 12497      43485F53 
 12497      54415455 
 12497      5300
 12498              	.LASF167:
 12499 119d 70657269 		.ascii	"periVersion\000"
 12499      56657273 
 12499      696F6E00 
 12500              	.LASF287:
 12501 11a9 5F665F6C 		.ascii	"_f_list_st_\000"
 12501      6973745F 
 12501      73745F00 
 12502              	.LASF260:
 12503 11b5 636F6E66 		.ascii	"configRouting\000"
 12503      6967526F 
 12503      7574696E 
 12503      6700
 12504              	.LASF157:
 12505 11c3 70617373 		.ascii	"passBase\000"
 12505      42617365 
 12505      00
 12506              	.LASF194:
 12507 11cc 666C6173 		.ascii	"flashCtlMainWs2Freq\000"
 12507      6843746C 
 12507      4D61696E 
 12507      57733246 
 12507      72657100 
 12508              	.LASF108:
 12509 11e0 494E5452 		.ascii	"INTR_RX_SET\000"
 12509      5F52585F 
 12509      53455400 
 12510              	.LASF330:
 12511 11ec 73736361 		.ascii	"sscanf\000"
 12511      6E6600
 12512              	.LASF176:
 12513 11f3 73727373 		.ascii	"srssNumClkpath\000"
 12513      4E756D43 
 12513      6C6B7061 
 12513      746800
 12514              	.LASF46:
 12515 1202 53544154 		.ascii	"STATUS\000"
ARM GAS  C:\Users\Angel\AppData\Local\Temp\ccvqOPgy.s 			page 306


 12515      555300
 12516              	.LASF196:
 12517 1209 666C6173 		.ascii	"flashCtlMainWs4Freq\000"
 12517      6843746C 
 12517      4D61696E 
 12517      57733446 
 12517      72657100 
 12518              	.LASF257:
 12519 121d 72616E67 		.ascii	"rangeIntrMask\000"
 12519      65496E74 
 12519      724D6173 
 12519      6B00
 12520              	.LASF312:
 12521 122b 43795F53 		.ascii	"Cy_SCB_UART_PutString\000"
 12521      43425F55 
 12521      4152545F 
 12521      50757453 
 12521      7472696E 
 12522              	.LASF246:
 12523 1241 63795F65 		.ascii	"cy_en_sar_range_detect_condition_t\000"
 12523      6E5F7361 
 12523      725F7261 
 12523      6E67655F 
 12523      64657465 
 12524              	.LASF79:
 12525 1264 52455345 		.ascii	"RESERVED9\000"
 12525      52564544 
 12525      3900
 12526              	.LASF278:
 12527 126e 63795F73 		.ascii	"cy_stc_scb_uart_context_t\000"
 12527      74635F73 
 12527      63625F75 
 12527      6172745F 
 12527      636F6E74 
 12528              	.LASF78:
 12529 1288 455A5F44 		.ascii	"EZ_DATA\000"
 12529      41544100 
 12530              	.LASF350:
 12531 1290 433A5C55 		.ascii	"C:\\Users\\Angel\\OneDrive\\Desktop\\clcd_063proto_"
 12531      73657273 
 12531      5C416E67 
 12531      656C5C4F 
 12531      6E654472 
 12532 12be 32313031 		.ascii	"210114.cydsn\000"
 12532      31342E63 
 12532      7964736E 
 12532      00
 12533              	.LASF166:
 12534 12cb 69706356 		.ascii	"ipcVersion\000"
 12534      65727369 
 12534      6F6E00
 12535              	.LASF255:
 12536 12d6 696E7472 		.ascii	"intrMask\000"
 12536      4D61736B 
 12536      00
 12537              	.LASF271:
 12538 12df 72784275 		.ascii	"rxBufSize\000"
ARM GAS  C:\Users\Angel\AppData\Local\Temp\ccvqOPgy.s 			page 307


 12538      6653697A 
 12538      6500
 12539              	.LASF45:
 12540 12e9 4354524C 		.ascii	"CTRL\000"
 12540      00
 12541              	.LASF279:
 12542 12ee 6368616E 		.ascii	"channelBase\000"
 12542      6E656C42 
 12542      61736500 
 12543              		.ident	"GCC: (GNU Tools for ARM Embedded Processors) 5.4.1 20160609 (release) [ARM/embedded-5-bran
