ARM GAS  C:\Users\dmula\AppData\Local\Temp\ccXnnfAd.s 			page 1


   1              		.syntax unified
   2              		.cpu cortex-m4
   3              		.eabi_attribute 27, 1
   4              		.fpu fpv4-sp-d16
   5              		.eabi_attribute 20, 1
   6              		.eabi_attribute 21, 1
   7              		.eabi_attribute 23, 3
   8              		.eabi_attribute 24, 1
   9              		.eabi_attribute 25, 1
  10              		.eabi_attribute 26, 1
  11              		.eabi_attribute 30, 1
  12              		.eabi_attribute 34, 1
  13              		.eabi_attribute 18, 4
  14              		.thumb
  15              		.syntax unified
  16              		.file	"main_cm4.c"
  17              		.text
  18              	.Ltext0:
  19              		.cfi_sections	.debug_frame
  20              		.section	.text.rowselect,"ax",%progbits
  21              		.align	2
  22              		.global	rowselect
  23              		.thumb
  24              		.thumb_func
  25              		.type	rowselect, %function
  26              	rowselect:
  27              	.LFB529:
  28              		.file 1 "main_cm4.c"
   1:main_cm4.c    **** /* ========================================
   2:main_cm4.c    ****  *
   3:main_cm4.c    ****  * Copyright YOUR COMPANY, THE YEAR
   4:main_cm4.c    ****  * All Rights Reserved
   5:main_cm4.c    ****  * UNPUBLISHED, LICENSED SOFTWARE.
   6:main_cm4.c    ****  *
   7:main_cm4.c    ****  * CONFIDENTIAL AND PROPRIETARY INFORMATION
   8:main_cm4.c    ****  * WHICH IS THE PROPERTY OF your company.
   9:main_cm4.c    ****  *
  10:main_cm4.c    ****  * ========================================
  11:main_cm4.c    **** */
  12:main_cm4.c    **** #include "project.h"
  13:main_cm4.c    **** #include "stdio.h"
  14:main_cm4.c    **** int row[4];
  15:main_cm4.c    **** int column[4];
  16:main_cm4.c    **** 
  17:main_cm4.c    **** void rowselect(int in){
  29              		.loc 1 17 0
  30              		.cfi_startproc
  31              		@ args = 0, pretend = 0, frame = 0
  32              		@ frame_needed = 0, uses_anonymous_args = 0
  33              		@ link register save eliminated.
  34              	.LVL0:
  18:main_cm4.c    **** switch (in)
  35              		.loc 1 18 0
  36 0000 0F28     		cmp	r0, #15
  37 0002 00F2A980 		bhi	.L1
  38 0006 DFE800F0 		tbb	[pc, r0]
  39              	.L4:
ARM GAS  C:\Users\dmula\AppData\Local\Temp\ccXnnfAd.s 			page 2


  40 000a 08       		.byte	(.L3-.L4)/2
  41 000b 12       		.byte	(.L5-.L4)/2
  42 000c 1C       		.byte	(.L6-.L4)/2
  43 000d 26       		.byte	(.L7-.L4)/2
  44 000e 30       		.byte	(.L8-.L4)/2
  45 000f 3A       		.byte	(.L9-.L4)/2
  46 0010 44       		.byte	(.L10-.L4)/2
  47 0011 4E       		.byte	(.L11-.L4)/2
  48 0012 58       		.byte	(.L12-.L4)/2
  49 0013 62       		.byte	(.L13-.L4)/2
  50 0014 6C       		.byte	(.L14-.L4)/2
  51 0015 76       		.byte	(.L15-.L4)/2
  52 0016 80       		.byte	(.L16-.L4)/2
  53 0017 8A       		.byte	(.L17-.L4)/2
  54 0018 94       		.byte	(.L18-.L4)/2
  55 0019 9E       		.byte	(.L19-.L4)/2
  56              		.p2align 1
  57              	.L3:
  58              	.LVL1:
  59              	.LBB282:
  60              	.LBB283:
  61              		.file 2 "Generated_Source\\PSoC6\\pdl\\drivers/peripheral/gpio/cy_gpio.h"
   1:Generated_Source\PSoC6\pdl\drivers/peripheral/gpio/cy_gpio.h **** /***************************************************************************//**
   2:Generated_Source\PSoC6\pdl\drivers/peripheral/gpio/cy_gpio.h **** * \file cy_gpio.h
   3:Generated_Source\PSoC6\pdl\drivers/peripheral/gpio/cy_gpio.h **** * \version 1.20
   4:Generated_Source\PSoC6\pdl\drivers/peripheral/gpio/cy_gpio.h **** *
   5:Generated_Source\PSoC6\pdl\drivers/peripheral/gpio/cy_gpio.h **** * Provides an API declaration of the GPIO driver
   6:Generated_Source\PSoC6\pdl\drivers/peripheral/gpio/cy_gpio.h **** *
   7:Generated_Source\PSoC6\pdl\drivers/peripheral/gpio/cy_gpio.h **** ********************************************************************************
   8:Generated_Source\PSoC6\pdl\drivers/peripheral/gpio/cy_gpio.h **** * \copyright
   9:Generated_Source\PSoC6\pdl\drivers/peripheral/gpio/cy_gpio.h **** * Copyright 2016-2018, Cypress Semiconductor Corporation. All rights reserved.
  10:Generated_Source\PSoC6\pdl\drivers/peripheral/gpio/cy_gpio.h **** * You may use this file only in accordance with the license, terms, conditions,
  11:Generated_Source\PSoC6\pdl\drivers/peripheral/gpio/cy_gpio.h **** * disclaimers, and limitations in the end user license agreement accompanying
  12:Generated_Source\PSoC6\pdl\drivers/peripheral/gpio/cy_gpio.h **** * the software package with which this file was provided.
  13:Generated_Source\PSoC6\pdl\drivers/peripheral/gpio/cy_gpio.h **** *******************************************************************************/
  14:Generated_Source\PSoC6\pdl\drivers/peripheral/gpio/cy_gpio.h **** 
  15:Generated_Source\PSoC6\pdl\drivers/peripheral/gpio/cy_gpio.h **** /**
  16:Generated_Source\PSoC6\pdl\drivers/peripheral/gpio/cy_gpio.h **** * \addtogroup group_gpio
  17:Generated_Source\PSoC6\pdl\drivers/peripheral/gpio/cy_gpio.h **** * \{
  18:Generated_Source\PSoC6\pdl\drivers/peripheral/gpio/cy_gpio.h **** * The GPIO driver provides an API to configure and access device Input/Output pins.
  19:Generated_Source\PSoC6\pdl\drivers/peripheral/gpio/cy_gpio.h **** *
  20:Generated_Source\PSoC6\pdl\drivers/peripheral/gpio/cy_gpio.h **** * The functions and other declarations used in this driver are in cy_gpio.h. 
  21:Generated_Source\PSoC6\pdl\drivers/peripheral/gpio/cy_gpio.h **** * You can include cy_pdl.h (ModusToolbox only) to get access to all functions 
  22:Generated_Source\PSoC6\pdl\drivers/peripheral/gpio/cy_gpio.h **** * and declarations in the PDL.
  23:Generated_Source\PSoC6\pdl\drivers/peripheral/gpio/cy_gpio.h **** *
  24:Generated_Source\PSoC6\pdl\drivers/peripheral/gpio/cy_gpio.h **** * IO pins include all general purpose types such as GPIO, SIO, HSIO, AUXIO, and
  25:Generated_Source\PSoC6\pdl\drivers/peripheral/gpio/cy_gpio.h **** * their variants.
  26:Generated_Source\PSoC6\pdl\drivers/peripheral/gpio/cy_gpio.h **** *
  27:Generated_Source\PSoC6\pdl\drivers/peripheral/gpio/cy_gpio.h **** * Initialization can be performed either at the port level or by configuring the
  28:Generated_Source\PSoC6\pdl\drivers/peripheral/gpio/cy_gpio.h **** * individual pins. For efficient use of code space, port
  29:Generated_Source\PSoC6\pdl\drivers/peripheral/gpio/cy_gpio.h **** * configuration should be used in the field. Refer to the product device header files 
  30:Generated_Source\PSoC6\pdl\drivers/peripheral/gpio/cy_gpio.h **** * for the list of supported ports and pins.
  31:Generated_Source\PSoC6\pdl\drivers/peripheral/gpio/cy_gpio.h **** * 
  32:Generated_Source\PSoC6\pdl\drivers/peripheral/gpio/cy_gpio.h **** * - Single pin configuration is performed by using \ref Cy_GPIO_Pin_FastInit 
  33:Generated_Source\PSoC6\pdl\drivers/peripheral/gpio/cy_gpio.h **** *   (provide specific values) or \ref Cy_GPIO_Pin_Init (provide a filled
  34:Generated_Source\PSoC6\pdl\drivers/peripheral/gpio/cy_gpio.h **** *   cy_stc_gpio_pin_config_t structure).
  35:Generated_Source\PSoC6\pdl\drivers/peripheral/gpio/cy_gpio.h **** * - An entire port can be configured using \ref Cy_GPIO_Port_Init. Provide a filled 
ARM GAS  C:\Users\dmula\AppData\Local\Temp\ccXnnfAd.s 			page 3


  36:Generated_Source\PSoC6\pdl\drivers/peripheral/gpio/cy_gpio.h **** *   cy_stc_gpio_prt_config_t structure. The values in the structure are 
  37:Generated_Source\PSoC6\pdl\drivers/peripheral/gpio/cy_gpio.h **** *   bitfields representing the desired value for each pin in the port.
  38:Generated_Source\PSoC6\pdl\drivers/peripheral/gpio/cy_gpio.h **** * - Pin configuration and management is based on the port address and pin number.
  39:Generated_Source\PSoC6\pdl\drivers/peripheral/gpio/cy_gpio.h **** *   \ref Cy_GPIO_PortToAddr function can optionally be used to calculate the port
  40:Generated_Source\PSoC6\pdl\drivers/peripheral/gpio/cy_gpio.h **** *   address from the port number at run-time.
  41:Generated_Source\PSoC6\pdl\drivers/peripheral/gpio/cy_gpio.h **** *
  42:Generated_Source\PSoC6\pdl\drivers/peripheral/gpio/cy_gpio.h **** * Once the pin/port initialization is complete, each pin can be accessed by 
  43:Generated_Source\PSoC6\pdl\drivers/peripheral/gpio/cy_gpio.h **** * specifying the port (GPIO_PRT_Type) and the pin (0-7) in the provided API 
  44:Generated_Source\PSoC6\pdl\drivers/peripheral/gpio/cy_gpio.h **** * functions.
  45:Generated_Source\PSoC6\pdl\drivers/peripheral/gpio/cy_gpio.h **** *
  46:Generated_Source\PSoC6\pdl\drivers/peripheral/gpio/cy_gpio.h **** * \section group_gpio_configuration Configuration Considerations
  47:Generated_Source\PSoC6\pdl\drivers/peripheral/gpio/cy_gpio.h **** *
  48:Generated_Source\PSoC6\pdl\drivers/peripheral/gpio/cy_gpio.h **** * 1. Pin multiplexing is controlled through the High-Speed IO Matrix (HSIOM) selection.
  49:Generated_Source\PSoC6\pdl\drivers/peripheral/gpio/cy_gpio.h **** *    This allows the pin to connect to signal sources/sinks throughout the device,
  50:Generated_Source\PSoC6\pdl\drivers/peripheral/gpio/cy_gpio.h **** *    as defined by the pin HSIOM selection options (en_hsiom_sel_t).
  51:Generated_Source\PSoC6\pdl\drivers/peripheral/gpio/cy_gpio.h **** * 2. All pins are initialized to High-Z drive mode with HSIOM connected to CPU (SW
  52:Generated_Source\PSoC6\pdl\drivers/peripheral/gpio/cy_gpio.h **** *    control digital pin only) at Power-On-Reset(POR).
  53:Generated_Source\PSoC6\pdl\drivers/peripheral/gpio/cy_gpio.h **** * 3. Some API functions perform read-modify-write operations on shared port
  54:Generated_Source\PSoC6\pdl\drivers/peripheral/gpio/cy_gpio.h **** *    registers. These functions are not thread safe and care must be taken when
  55:Generated_Source\PSoC6\pdl\drivers/peripheral/gpio/cy_gpio.h **** *    called by the application.
  56:Generated_Source\PSoC6\pdl\drivers/peripheral/gpio/cy_gpio.h **** * 4. Digital input buffer provides a high-impedance buffer for the external 
  57:Generated_Source\PSoC6\pdl\drivers/peripheral/gpio/cy_gpio.h **** *    digital input. The input buffer is connected to the HSIOM for routing to 
  58:Generated_Source\PSoC6\pdl\drivers/peripheral/gpio/cy_gpio.h **** *    the CPU port registers and selected peripheral. Enabling the input 
  59:Generated_Source\PSoC6\pdl\drivers/peripheral/gpio/cy_gpio.h **** *    buffer provides possibility to read the pin state via the CPU.
  60:Generated_Source\PSoC6\pdl\drivers/peripheral/gpio/cy_gpio.h **** *    If pin is connected to an analog signal, the input buffer should be 
  61:Generated_Source\PSoC6\pdl\drivers/peripheral/gpio/cy_gpio.h **** *    disabled to avoid crowbar currents. For more information refer to device 
  62:Generated_Source\PSoC6\pdl\drivers/peripheral/gpio/cy_gpio.h **** *    TRM and the device datasheet.
  63:Generated_Source\PSoC6\pdl\drivers/peripheral/gpio/cy_gpio.h **** *
  64:Generated_Source\PSoC6\pdl\drivers/peripheral/gpio/cy_gpio.h **** * Multiple pins on a port can be updated using direct port register writes with an
  65:Generated_Source\PSoC6\pdl\drivers/peripheral/gpio/cy_gpio.h **** * appropriate port mask. An example is shown below, highlighting the different ways of 
  66:Generated_Source\PSoC6\pdl\drivers/peripheral/gpio/cy_gpio.h **** * configuring Port 1 pins using:
  67:Generated_Source\PSoC6\pdl\drivers/peripheral/gpio/cy_gpio.h **** * 
  68:Generated_Source\PSoC6\pdl\drivers/peripheral/gpio/cy_gpio.h **** * - Port output data register
  69:Generated_Source\PSoC6\pdl\drivers/peripheral/gpio/cy_gpio.h **** * - Port output data set register
  70:Generated_Source\PSoC6\pdl\drivers/peripheral/gpio/cy_gpio.h **** * - Port output data clear register
  71:Generated_Source\PSoC6\pdl\drivers/peripheral/gpio/cy_gpio.h **** *
  72:Generated_Source\PSoC6\pdl\drivers/peripheral/gpio/cy_gpio.h **** * \snippet gpio/gpio_v1_10_sut_01.cydsn/main_cm4.c Cy_GPIO_Snippet
  73:Generated_Source\PSoC6\pdl\drivers/peripheral/gpio/cy_gpio.h **** *
  74:Generated_Source\PSoC6\pdl\drivers/peripheral/gpio/cy_gpio.h **** * \section group_gpio_more_information More Information
  75:Generated_Source\PSoC6\pdl\drivers/peripheral/gpio/cy_gpio.h **** *
  76:Generated_Source\PSoC6\pdl\drivers/peripheral/gpio/cy_gpio.h **** * Refer to the technical reference manual (TRM) and the device datasheet.
  77:Generated_Source\PSoC6\pdl\drivers/peripheral/gpio/cy_gpio.h **** *
  78:Generated_Source\PSoC6\pdl\drivers/peripheral/gpio/cy_gpio.h **** * \section group_gpio_MISRA MISRA-C Compliance
  79:Generated_Source\PSoC6\pdl\drivers/peripheral/gpio/cy_gpio.h **** * The GPIO driver has the following specific deviations:
  80:Generated_Source\PSoC6\pdl\drivers/peripheral/gpio/cy_gpio.h **** *
  81:Generated_Source\PSoC6\pdl\drivers/peripheral/gpio/cy_gpio.h **** * <table class="doxtable">
  82:Generated_Source\PSoC6\pdl\drivers/peripheral/gpio/cy_gpio.h **** *   <tr>
  83:Generated_Source\PSoC6\pdl\drivers/peripheral/gpio/cy_gpio.h **** *     <th>MISRA Rule</th>
  84:Generated_Source\PSoC6\pdl\drivers/peripheral/gpio/cy_gpio.h **** *     <th>Rule Class (Required/Advisory)</th>
  85:Generated_Source\PSoC6\pdl\drivers/peripheral/gpio/cy_gpio.h **** *     <th>Rule Description</th>
  86:Generated_Source\PSoC6\pdl\drivers/peripheral/gpio/cy_gpio.h **** *     <th>Description of Deviation(s)</th>
  87:Generated_Source\PSoC6\pdl\drivers/peripheral/gpio/cy_gpio.h **** *   </tr>
  88:Generated_Source\PSoC6\pdl\drivers/peripheral/gpio/cy_gpio.h **** *   <tr>
  89:Generated_Source\PSoC6\pdl\drivers/peripheral/gpio/cy_gpio.h **** *     <td>11.4</td>
  90:Generated_Source\PSoC6\pdl\drivers/peripheral/gpio/cy_gpio.h **** *     <td>A</td>
  91:Generated_Source\PSoC6\pdl\drivers/peripheral/gpio/cy_gpio.h **** *     <td>A cast should not be performed between a pointer to object type and
  92:Generated_Source\PSoC6\pdl\drivers/peripheral/gpio/cy_gpio.h **** *         a different pointer to object type.</td>
ARM GAS  C:\Users\dmula\AppData\Local\Temp\ccXnnfAd.s 			page 4


  93:Generated_Source\PSoC6\pdl\drivers/peripheral/gpio/cy_gpio.h **** *     <td> This code is safe because the elements of both GPIO_PRT_V1_Type and GPIO_PRT_V2_Type 
  94:Generated_Source\PSoC6\pdl\drivers/peripheral/gpio/cy_gpio.h **** *          types have identical alignment.</td>
  95:Generated_Source\PSoC6\pdl\drivers/peripheral/gpio/cy_gpio.h **** *   </tr>
  96:Generated_Source\PSoC6\pdl\drivers/peripheral/gpio/cy_gpio.h **** *   <tr>
  97:Generated_Source\PSoC6\pdl\drivers/peripheral/gpio/cy_gpio.h **** *     <td>16.7</td>
  98:Generated_Source\PSoC6\pdl\drivers/peripheral/gpio/cy_gpio.h **** *     <td>A</td>
  99:Generated_Source\PSoC6\pdl\drivers/peripheral/gpio/cy_gpio.h **** *     <td>A pointer parameter in a function prototype should be declared as pointer 
 100:Generated_Source\PSoC6\pdl\drivers/peripheral/gpio/cy_gpio.h **** *         to const if the pointer is not used to modify the addressed object.</td>
 101:Generated_Source\PSoC6\pdl\drivers/peripheral/gpio/cy_gpio.h **** *     <td>The objects pointed to by the base addresses of the GPIO port are not always modified.
 102:Generated_Source\PSoC6\pdl\drivers/peripheral/gpio/cy_gpio.h **** *         While a const qualifier can be used in select scenarios, it brings little benefit
 103:Generated_Source\PSoC6\pdl\drivers/peripheral/gpio/cy_gpio.h **** *         in adding this to the affected functions. </td>
 104:Generated_Source\PSoC6\pdl\drivers/peripheral/gpio/cy_gpio.h **** *   </tr>
 105:Generated_Source\PSoC6\pdl\drivers/peripheral/gpio/cy_gpio.h **** * </table>
 106:Generated_Source\PSoC6\pdl\drivers/peripheral/gpio/cy_gpio.h **** *
 107:Generated_Source\PSoC6\pdl\drivers/peripheral/gpio/cy_gpio.h **** * \section group_gpio_changelog Changelog
 108:Generated_Source\PSoC6\pdl\drivers/peripheral/gpio/cy_gpio.h **** * <table class="doxtable">
 109:Generated_Source\PSoC6\pdl\drivers/peripheral/gpio/cy_gpio.h **** *   <tr><th>Version</th><th>Changes</th><th>Reason for Change</th></tr>
 110:Generated_Source\PSoC6\pdl\drivers/peripheral/gpio/cy_gpio.h **** *   <tr>
 111:Generated_Source\PSoC6\pdl\drivers/peripheral/gpio/cy_gpio.h **** *     <td rowspan="3">1.20</td>
 112:Generated_Source\PSoC6\pdl\drivers/peripheral/gpio/cy_gpio.h **** *     <td>Flattened the organization of the driver source code into the single source directory and
 113:Generated_Source\PSoC6\pdl\drivers/peripheral/gpio/cy_gpio.h **** *     <td>Driver library directory-structure simplification.</td>
 114:Generated_Source\PSoC6\pdl\drivers/peripheral/gpio/cy_gpio.h **** *   </tr>
 115:Generated_Source\PSoC6\pdl\drivers/peripheral/gpio/cy_gpio.h **** *   <tr>
 116:Generated_Source\PSoC6\pdl\drivers/peripheral/gpio/cy_gpio.h **** *     <td>Added the functions for configuring the AMux bus splitter switch cells:
 117:Generated_Source\PSoC6\pdl\drivers/peripheral/gpio/cy_gpio.h **** *     - \ref Cy_GPIO_SetAmuxSplit
 118:Generated_Source\PSoC6\pdl\drivers/peripheral/gpio/cy_gpio.h **** *     - \ref Cy_GPIO_GetAmuxSplit
 119:Generated_Source\PSoC6\pdl\drivers/peripheral/gpio/cy_gpio.h **** *     </td>
 120:Generated_Source\PSoC6\pdl\drivers/peripheral/gpio/cy_gpio.h **** *     <td>Added a new functionality related to AMux bus.</td>
 121:Generated_Source\PSoC6\pdl\drivers/peripheral/gpio/cy_gpio.h **** *   </tr>
 122:Generated_Source\PSoC6\pdl\drivers/peripheral/gpio/cy_gpio.h **** *   <tr>
 123:Generated_Source\PSoC6\pdl\drivers/peripheral/gpio/cy_gpio.h **** *     <td>Added register access layer. Use register access macros instead
 124:Generated_Source\PSoC6\pdl\drivers/peripheral/gpio/cy_gpio.h **** *         of direct register access using dereferenced pointers.</td>
 125:Generated_Source\PSoC6\pdl\drivers/peripheral/gpio/cy_gpio.h **** *     <td>Makes register access device-independent, so that the PDL does 
 126:Generated_Source\PSoC6\pdl\drivers/peripheral/gpio/cy_gpio.h **** *         not need to be recompiled for each supported part number.</td>
 127:Generated_Source\PSoC6\pdl\drivers/peripheral/gpio/cy_gpio.h **** *   </tr>
 128:Generated_Source\PSoC6\pdl\drivers/peripheral/gpio/cy_gpio.h **** *   <tr>
 129:Generated_Source\PSoC6\pdl\drivers/peripheral/gpio/cy_gpio.h **** *     <td>1.10.1</td>
 130:Generated_Source\PSoC6\pdl\drivers/peripheral/gpio/cy_gpio.h **** *     <td>Updated description for the functions: \ref Cy_GPIO_GetInterruptStatus, 
 131:Generated_Source\PSoC6\pdl\drivers/peripheral/gpio/cy_gpio.h **** *         \ref Cy_GPIO_GetInterruptMask, \ref Cy_GPIO_GetInterruptStatusMasked.
 132:Generated_Source\PSoC6\pdl\drivers/peripheral/gpio/cy_gpio.h **** *
 133:Generated_Source\PSoC6\pdl\drivers/peripheral/gpio/cy_gpio.h **** *         Minor documentation edits.
 134:Generated_Source\PSoC6\pdl\drivers/peripheral/gpio/cy_gpio.h **** *     </td>
 135:Generated_Source\PSoC6\pdl\drivers/peripheral/gpio/cy_gpio.h **** *     <td>Documentation update and clarification</td>
 136:Generated_Source\PSoC6\pdl\drivers/peripheral/gpio/cy_gpio.h **** *   </tr>
 137:Generated_Source\PSoC6\pdl\drivers/peripheral/gpio/cy_gpio.h **** *   <tr>
 138:Generated_Source\PSoC6\pdl\drivers/peripheral/gpio/cy_gpio.h **** *     <td>1.10</td>
 139:Generated_Source\PSoC6\pdl\drivers/peripheral/gpio/cy_gpio.h **** *     <td>Added input parameter validation to the API functions</td>
 140:Generated_Source\PSoC6\pdl\drivers/peripheral/gpio/cy_gpio.h **** *     <td></td>
 141:Generated_Source\PSoC6\pdl\drivers/peripheral/gpio/cy_gpio.h **** *   </tr>
 142:Generated_Source\PSoC6\pdl\drivers/peripheral/gpio/cy_gpio.h **** *   <tr>
 143:Generated_Source\PSoC6\pdl\drivers/peripheral/gpio/cy_gpio.h **** *     <td>1.0</td>
 144:Generated_Source\PSoC6\pdl\drivers/peripheral/gpio/cy_gpio.h **** *     <td>Initial version</td>
 145:Generated_Source\PSoC6\pdl\drivers/peripheral/gpio/cy_gpio.h **** *     <td></td>
 146:Generated_Source\PSoC6\pdl\drivers/peripheral/gpio/cy_gpio.h **** *   </tr>
 147:Generated_Source\PSoC6\pdl\drivers/peripheral/gpio/cy_gpio.h **** * </table>
 148:Generated_Source\PSoC6\pdl\drivers/peripheral/gpio/cy_gpio.h **** *
 149:Generated_Source\PSoC6\pdl\drivers/peripheral/gpio/cy_gpio.h **** * \defgroup group_gpio_macros Macros
ARM GAS  C:\Users\dmula\AppData\Local\Temp\ccXnnfAd.s 			page 5


 150:Generated_Source\PSoC6\pdl\drivers/peripheral/gpio/cy_gpio.h **** * \defgroup group_gpio_functions Functions
 151:Generated_Source\PSoC6\pdl\drivers/peripheral/gpio/cy_gpio.h **** * \{
 152:Generated_Source\PSoC6\pdl\drivers/peripheral/gpio/cy_gpio.h **** *   \defgroup group_gpio_functions_init       Initialization Functions
 153:Generated_Source\PSoC6\pdl\drivers/peripheral/gpio/cy_gpio.h **** *   \defgroup group_gpio_functions_gpio       GPIO Functions
 154:Generated_Source\PSoC6\pdl\drivers/peripheral/gpio/cy_gpio.h **** *   \defgroup group_gpio_functions_sio        SIO Functions
 155:Generated_Source\PSoC6\pdl\drivers/peripheral/gpio/cy_gpio.h **** *   \defgroup group_gpio_functions_interrupt  Port Interrupt Functions
 156:Generated_Source\PSoC6\pdl\drivers/peripheral/gpio/cy_gpio.h **** * \}
 157:Generated_Source\PSoC6\pdl\drivers/peripheral/gpio/cy_gpio.h **** * \defgroup group_gpio_data_structures Data Structures
 158:Generated_Source\PSoC6\pdl\drivers/peripheral/gpio/cy_gpio.h **** * \defgroup group_gpio_enums Enumerated Types
 159:Generated_Source\PSoC6\pdl\drivers/peripheral/gpio/cy_gpio.h **** */
 160:Generated_Source\PSoC6\pdl\drivers/peripheral/gpio/cy_gpio.h **** 
 161:Generated_Source\PSoC6\pdl\drivers/peripheral/gpio/cy_gpio.h **** #if !defined(CY_GPIO_H)
 162:Generated_Source\PSoC6\pdl\drivers/peripheral/gpio/cy_gpio.h **** #define CY_GPIO_H
 163:Generated_Source\PSoC6\pdl\drivers/peripheral/gpio/cy_gpio.h **** 
 164:Generated_Source\PSoC6\pdl\drivers/peripheral/gpio/cy_gpio.h **** #include <stddef.h>
 165:Generated_Source\PSoC6\pdl\drivers/peripheral/gpio/cy_gpio.h **** #include "cy_device.h"
 166:Generated_Source\PSoC6\pdl\drivers/peripheral/gpio/cy_gpio.h **** #include "cy_device_headers.h"
 167:Generated_Source\PSoC6\pdl\drivers/peripheral/gpio/cy_gpio.h **** #include "cy_syslib.h"
 168:Generated_Source\PSoC6\pdl\drivers/peripheral/gpio/cy_gpio.h **** 
 169:Generated_Source\PSoC6\pdl\drivers/peripheral/gpio/cy_gpio.h **** #if defined(__cplusplus)
 170:Generated_Source\PSoC6\pdl\drivers/peripheral/gpio/cy_gpio.h **** extern "C" {
 171:Generated_Source\PSoC6\pdl\drivers/peripheral/gpio/cy_gpio.h **** #endif
 172:Generated_Source\PSoC6\pdl\drivers/peripheral/gpio/cy_gpio.h **** 
 173:Generated_Source\PSoC6\pdl\drivers/peripheral/gpio/cy_gpio.h **** /** \addtogroup group_gpio_macros
 174:Generated_Source\PSoC6\pdl\drivers/peripheral/gpio/cy_gpio.h **** * \{
 175:Generated_Source\PSoC6\pdl\drivers/peripheral/gpio/cy_gpio.h **** */
 176:Generated_Source\PSoC6\pdl\drivers/peripheral/gpio/cy_gpio.h **** 
 177:Generated_Source\PSoC6\pdl\drivers/peripheral/gpio/cy_gpio.h **** /** Driver major version */
 178:Generated_Source\PSoC6\pdl\drivers/peripheral/gpio/cy_gpio.h **** #define CY_GPIO_DRV_VERSION_MAJOR       1
 179:Generated_Source\PSoC6\pdl\drivers/peripheral/gpio/cy_gpio.h **** 
 180:Generated_Source\PSoC6\pdl\drivers/peripheral/gpio/cy_gpio.h **** /** Driver minor version */
 181:Generated_Source\PSoC6\pdl\drivers/peripheral/gpio/cy_gpio.h **** #define CY_GPIO_DRV_VERSION_MINOR       20
 182:Generated_Source\PSoC6\pdl\drivers/peripheral/gpio/cy_gpio.h **** 
 183:Generated_Source\PSoC6\pdl\drivers/peripheral/gpio/cy_gpio.h **** /** GPIO driver ID */
 184:Generated_Source\PSoC6\pdl\drivers/peripheral/gpio/cy_gpio.h **** #define CY_GPIO_ID CY_PDL_DRV_ID(0x16U)
 185:Generated_Source\PSoC6\pdl\drivers/peripheral/gpio/cy_gpio.h **** 
 186:Generated_Source\PSoC6\pdl\drivers/peripheral/gpio/cy_gpio.h **** /** \} group_gpio_macros */
 187:Generated_Source\PSoC6\pdl\drivers/peripheral/gpio/cy_gpio.h **** 
 188:Generated_Source\PSoC6\pdl\drivers/peripheral/gpio/cy_gpio.h **** 
 189:Generated_Source\PSoC6\pdl\drivers/peripheral/gpio/cy_gpio.h **** /***************************************
 190:Generated_Source\PSoC6\pdl\drivers/peripheral/gpio/cy_gpio.h **** *       Enumerations
 191:Generated_Source\PSoC6\pdl\drivers/peripheral/gpio/cy_gpio.h **** ***************************************/
 192:Generated_Source\PSoC6\pdl\drivers/peripheral/gpio/cy_gpio.h **** /**
 193:Generated_Source\PSoC6\pdl\drivers/peripheral/gpio/cy_gpio.h **** * \addtogroup group_gpio_enums
 194:Generated_Source\PSoC6\pdl\drivers/peripheral/gpio/cy_gpio.h **** * \{
 195:Generated_Source\PSoC6\pdl\drivers/peripheral/gpio/cy_gpio.h **** */
 196:Generated_Source\PSoC6\pdl\drivers/peripheral/gpio/cy_gpio.h **** 
 197:Generated_Source\PSoC6\pdl\drivers/peripheral/gpio/cy_gpio.h **** /** GPIO Driver error codes */
 198:Generated_Source\PSoC6\pdl\drivers/peripheral/gpio/cy_gpio.h **** typedef enum 
 199:Generated_Source\PSoC6\pdl\drivers/peripheral/gpio/cy_gpio.h **** {
 200:Generated_Source\PSoC6\pdl\drivers/peripheral/gpio/cy_gpio.h ****     CY_GPIO_SUCCESS   = 0x00U,                                    /**< Returned successful */
 201:Generated_Source\PSoC6\pdl\drivers/peripheral/gpio/cy_gpio.h ****     CY_GPIO_BAD_PARAM = CY_GPIO_ID | CY_PDL_STATUS_ERROR | 0x01U, /**< Bad parameter was passed */
 202:Generated_Source\PSoC6\pdl\drivers/peripheral/gpio/cy_gpio.h **** } cy_en_gpio_status_t;
 203:Generated_Source\PSoC6\pdl\drivers/peripheral/gpio/cy_gpio.h **** 
 204:Generated_Source\PSoC6\pdl\drivers/peripheral/gpio/cy_gpio.h **** /** AMux switch open/close config */
 205:Generated_Source\PSoC6\pdl\drivers/peripheral/gpio/cy_gpio.h **** typedef enum
 206:Generated_Source\PSoC6\pdl\drivers/peripheral/gpio/cy_gpio.h **** {
ARM GAS  C:\Users\dmula\AppData\Local\Temp\ccXnnfAd.s 			page 6


 207:Generated_Source\PSoC6\pdl\drivers/peripheral/gpio/cy_gpio.h ****     CY_GPIO_AMUX_OPENALL,   /**< Open ground switch. Open right switch. Open left switch */
 208:Generated_Source\PSoC6\pdl\drivers/peripheral/gpio/cy_gpio.h ****     CY_GPIO_AMUX_L,         /**< Open ground switch. Open right switch. Close left switch */
 209:Generated_Source\PSoC6\pdl\drivers/peripheral/gpio/cy_gpio.h ****     CY_GPIO_AMUX_R,         /**< Open ground switch. Close right switch. Open left switch */
 210:Generated_Source\PSoC6\pdl\drivers/peripheral/gpio/cy_gpio.h ****     CY_GPIO_AMUX_LR,        /**< Open ground switch. Close right switch. Close left switch */
 211:Generated_Source\PSoC6\pdl\drivers/peripheral/gpio/cy_gpio.h ****     CY_GPIO_AMUX_G,         /**< Close ground switch. Open right switch. Open left switch */
 212:Generated_Source\PSoC6\pdl\drivers/peripheral/gpio/cy_gpio.h ****     CY_GPIO_AMUX_GL,        /**< Close ground switch. Open right switch. Close left switch */
 213:Generated_Source\PSoC6\pdl\drivers/peripheral/gpio/cy_gpio.h ****     CY_GPIO_AMUX_GR,        /**< Close ground switch. Close right switch. Open left switch */
 214:Generated_Source\PSoC6\pdl\drivers/peripheral/gpio/cy_gpio.h ****     CY_GPIO_AMUX_GLR,       /**< Close ground switch. Close right switch. Close left switch */
 215:Generated_Source\PSoC6\pdl\drivers/peripheral/gpio/cy_gpio.h **** }cy_en_gpio_amuxconnect_t;
 216:Generated_Source\PSoC6\pdl\drivers/peripheral/gpio/cy_gpio.h **** 
 217:Generated_Source\PSoC6\pdl\drivers/peripheral/gpio/cy_gpio.h **** /**
 218:Generated_Source\PSoC6\pdl\drivers/peripheral/gpio/cy_gpio.h **** * AMux Bus selection
 219:Generated_Source\PSoC6\pdl\drivers/peripheral/gpio/cy_gpio.h **** */
 220:Generated_Source\PSoC6\pdl\drivers/peripheral/gpio/cy_gpio.h **** typedef enum
 221:Generated_Source\PSoC6\pdl\drivers/peripheral/gpio/cy_gpio.h **** {
 222:Generated_Source\PSoC6\pdl\drivers/peripheral/gpio/cy_gpio.h ****     CY_GPIO_AMUXBUSA,       /**< AMuxBus A */
 223:Generated_Source\PSoC6\pdl\drivers/peripheral/gpio/cy_gpio.h ****     CY_GPIO_AMUXBUSB        /**< AMuxBus B */
 224:Generated_Source\PSoC6\pdl\drivers/peripheral/gpio/cy_gpio.h **** }cy_en_gpio_amuxselect_t;
 225:Generated_Source\PSoC6\pdl\drivers/peripheral/gpio/cy_gpio.h **** 
 226:Generated_Source\PSoC6\pdl\drivers/peripheral/gpio/cy_gpio.h **** /** \} group_gpio_enums */
 227:Generated_Source\PSoC6\pdl\drivers/peripheral/gpio/cy_gpio.h **** 
 228:Generated_Source\PSoC6\pdl\drivers/peripheral/gpio/cy_gpio.h **** 
 229:Generated_Source\PSoC6\pdl\drivers/peripheral/gpio/cy_gpio.h **** /***************************************
 230:Generated_Source\PSoC6\pdl\drivers/peripheral/gpio/cy_gpio.h **** *       Configuration Structures
 231:Generated_Source\PSoC6\pdl\drivers/peripheral/gpio/cy_gpio.h **** ***************************************/
 232:Generated_Source\PSoC6\pdl\drivers/peripheral/gpio/cy_gpio.h **** 
 233:Generated_Source\PSoC6\pdl\drivers/peripheral/gpio/cy_gpio.h **** /**
 234:Generated_Source\PSoC6\pdl\drivers/peripheral/gpio/cy_gpio.h **** * \addtogroup group_gpio_data_structures
 235:Generated_Source\PSoC6\pdl\drivers/peripheral/gpio/cy_gpio.h **** * \{
 236:Generated_Source\PSoC6\pdl\drivers/peripheral/gpio/cy_gpio.h **** */
 237:Generated_Source\PSoC6\pdl\drivers/peripheral/gpio/cy_gpio.h **** 
 238:Generated_Source\PSoC6\pdl\drivers/peripheral/gpio/cy_gpio.h **** /** This structure is used to initialize a port of GPIO pins */
 239:Generated_Source\PSoC6\pdl\drivers/peripheral/gpio/cy_gpio.h **** typedef struct 
 240:Generated_Source\PSoC6\pdl\drivers/peripheral/gpio/cy_gpio.h **** {
 241:Generated_Source\PSoC6\pdl\drivers/peripheral/gpio/cy_gpio.h ****     uint32_t out;           /**< Initial output data for the IO pins in the port */
 242:Generated_Source\PSoC6\pdl\drivers/peripheral/gpio/cy_gpio.h ****     uint32_t intrMask;      /**< Interrupt enable mask for the port interrupt */
 243:Generated_Source\PSoC6\pdl\drivers/peripheral/gpio/cy_gpio.h ****     uint32_t intrCfg;       /**< Port pin interrupt edge detection configuration */
 244:Generated_Source\PSoC6\pdl\drivers/peripheral/gpio/cy_gpio.h ****     uint32_t cfg;           /**< Port pin drive modes and input buffer enable configuration */
 245:Generated_Source\PSoC6\pdl\drivers/peripheral/gpio/cy_gpio.h ****     uint32_t cfgIn;         /**< Port pin input buffer configuration */
 246:Generated_Source\PSoC6\pdl\drivers/peripheral/gpio/cy_gpio.h ****     uint32_t cfgOut;        /**< Port pin output buffer configuration */
 247:Generated_Source\PSoC6\pdl\drivers/peripheral/gpio/cy_gpio.h ****     uint32_t cfgSIO;        /**< Port SIO pins configuration */
 248:Generated_Source\PSoC6\pdl\drivers/peripheral/gpio/cy_gpio.h ****     uint32_t sel0Active;    /**< HSIOM selection for port pins 0,1,2,3 */
 249:Generated_Source\PSoC6\pdl\drivers/peripheral/gpio/cy_gpio.h ****     uint32_t sel1Active;    /**< HSIOM selection for port pins 4,5,6,7 */
 250:Generated_Source\PSoC6\pdl\drivers/peripheral/gpio/cy_gpio.h **** } cy_stc_gpio_prt_config_t;
 251:Generated_Source\PSoC6\pdl\drivers/peripheral/gpio/cy_gpio.h **** 
 252:Generated_Source\PSoC6\pdl\drivers/peripheral/gpio/cy_gpio.h **** /** This structure is used to initialize a single GPIO pin */
 253:Generated_Source\PSoC6\pdl\drivers/peripheral/gpio/cy_gpio.h **** typedef struct
 254:Generated_Source\PSoC6\pdl\drivers/peripheral/gpio/cy_gpio.h **** {
 255:Generated_Source\PSoC6\pdl\drivers/peripheral/gpio/cy_gpio.h ****     uint32_t outVal;         /**< Pin output state */
 256:Generated_Source\PSoC6\pdl\drivers/peripheral/gpio/cy_gpio.h ****     uint32_t driveMode;      /**< Drive mode */
 257:Generated_Source\PSoC6\pdl\drivers/peripheral/gpio/cy_gpio.h ****     en_hsiom_sel_t hsiom;    /**< HSIOM selection */
 258:Generated_Source\PSoC6\pdl\drivers/peripheral/gpio/cy_gpio.h ****     uint32_t intEdge;        /**< Interrupt Edge type */
 259:Generated_Source\PSoC6\pdl\drivers/peripheral/gpio/cy_gpio.h ****     uint32_t intMask;        /**< Interrupt enable mask */
 260:Generated_Source\PSoC6\pdl\drivers/peripheral/gpio/cy_gpio.h ****     uint32_t vtrip;          /**< Input buffer voltage trip type */
 261:Generated_Source\PSoC6\pdl\drivers/peripheral/gpio/cy_gpio.h ****     uint32_t slewRate;       /**< Output buffer slew rate */
 262:Generated_Source\PSoC6\pdl\drivers/peripheral/gpio/cy_gpio.h ****     uint32_t driveSel;       /**< Drive strength */
 263:Generated_Source\PSoC6\pdl\drivers/peripheral/gpio/cy_gpio.h ****     uint32_t vregEn;         /**< SIO pair output buffer mode */
ARM GAS  C:\Users\dmula\AppData\Local\Temp\ccXnnfAd.s 			page 7


 264:Generated_Source\PSoC6\pdl\drivers/peripheral/gpio/cy_gpio.h ****     uint32_t ibufMode;       /**< SIO pair input buffer mode */
 265:Generated_Source\PSoC6\pdl\drivers/peripheral/gpio/cy_gpio.h ****     uint32_t vtripSel;       /**< SIO pair input buffer trip point */
 266:Generated_Source\PSoC6\pdl\drivers/peripheral/gpio/cy_gpio.h ****     uint32_t vrefSel;        /**< SIO pair reference voltage for input buffer trip point */
 267:Generated_Source\PSoC6\pdl\drivers/peripheral/gpio/cy_gpio.h ****     uint32_t vohSel;         /**< SIO pair regulated voltage output level */
 268:Generated_Source\PSoC6\pdl\drivers/peripheral/gpio/cy_gpio.h **** } cy_stc_gpio_pin_config_t;
 269:Generated_Source\PSoC6\pdl\drivers/peripheral/gpio/cy_gpio.h **** 
 270:Generated_Source\PSoC6\pdl\drivers/peripheral/gpio/cy_gpio.h **** /** \} group_gpio_data_structures */
 271:Generated_Source\PSoC6\pdl\drivers/peripheral/gpio/cy_gpio.h **** 
 272:Generated_Source\PSoC6\pdl\drivers/peripheral/gpio/cy_gpio.h **** /***************************************
 273:Generated_Source\PSoC6\pdl\drivers/peripheral/gpio/cy_gpio.h **** *        Constants
 274:Generated_Source\PSoC6\pdl\drivers/peripheral/gpio/cy_gpio.h **** ***************************************/
 275:Generated_Source\PSoC6\pdl\drivers/peripheral/gpio/cy_gpio.h **** 
 276:Generated_Source\PSoC6\pdl\drivers/peripheral/gpio/cy_gpio.h **** /** \cond INTERNAL */
 277:Generated_Source\PSoC6\pdl\drivers/peripheral/gpio/cy_gpio.h **** 
 278:Generated_Source\PSoC6\pdl\drivers/peripheral/gpio/cy_gpio.h **** /* General Constants */
 279:Generated_Source\PSoC6\pdl\drivers/peripheral/gpio/cy_gpio.h **** #define CY_GPIO_PRT_HALF                       (4UL)      /**< Half-way point of a GPIO port */
 280:Generated_Source\PSoC6\pdl\drivers/peripheral/gpio/cy_gpio.h **** #define CY_GPIO_PRT_DEINIT                     (0UL)      /**< De-init value for port registers */
 281:Generated_Source\PSoC6\pdl\drivers/peripheral/gpio/cy_gpio.h **** 
 282:Generated_Source\PSoC6\pdl\drivers/peripheral/gpio/cy_gpio.h **** /* GPIO Masks */
 283:Generated_Source\PSoC6\pdl\drivers/peripheral/gpio/cy_gpio.h **** #define CY_GPIO_HSIOM_MASK                     (0x1FUL)   /**< HSIOM selection mask */
 284:Generated_Source\PSoC6\pdl\drivers/peripheral/gpio/cy_gpio.h **** #define CY_GPIO_OUT_MASK                       (0x01UL)   /**< Single pin mask for OUT register */
 285:Generated_Source\PSoC6\pdl\drivers/peripheral/gpio/cy_gpio.h **** #define CY_GPIO_IN_MASK                        (0x01UL)   /**< Single pin mask for IN register */
 286:Generated_Source\PSoC6\pdl\drivers/peripheral/gpio/cy_gpio.h **** #define CY_GPIO_CFG_DM_MASK                    (0x0FUL)   /**< Single pin mask for drive mode in CF
 287:Generated_Source\PSoC6\pdl\drivers/peripheral/gpio/cy_gpio.h **** #define CY_GPIO_CFG_IN_VTRIP_SEL_MASK          (0x01UL)   /**< Single pin mask for VTRIP selection 
 288:Generated_Source\PSoC6\pdl\drivers/peripheral/gpio/cy_gpio.h **** #define CY_GPIO_CFG_OUT_SLOW_MASK              (0x01UL)   /**< Single pin mask for slew rate in CFG
 289:Generated_Source\PSoC6\pdl\drivers/peripheral/gpio/cy_gpio.h **** #define CY_GPIO_CFG_OUT_DRIVE_SEL_MASK         (0x03UL)   /**< Single pin mask for drive strength i
 290:Generated_Source\PSoC6\pdl\drivers/peripheral/gpio/cy_gpio.h **** #define CY_GPIO_INTR_STATUS_MASK               (0x01UL)   /**< Single pin mask for interrupt status
 291:Generated_Source\PSoC6\pdl\drivers/peripheral/gpio/cy_gpio.h **** #define CY_GPIO_INTR_EN_MASK                   (0x01UL)   /**< Single pin mask for interrupt status
 292:Generated_Source\PSoC6\pdl\drivers/peripheral/gpio/cy_gpio.h **** #define CY_GPIO_INTR_MASKED_MASK               (0x01UL)   /**< Single pin mask for masked interrupt
 293:Generated_Source\PSoC6\pdl\drivers/peripheral/gpio/cy_gpio.h **** #define CY_GPIO_INTR_SET_MASK                  (0x01UL)   /**< Single pin mask for setting the inte
 294:Generated_Source\PSoC6\pdl\drivers/peripheral/gpio/cy_gpio.h **** #define CY_GPIO_INTR_EDGE_MASK                 (0x03UL)   /**< Single pin mask for interrupt edge t
 295:Generated_Source\PSoC6\pdl\drivers/peripheral/gpio/cy_gpio.h **** #define CY_GPIO_INTR_FLT_EDGE_MASK             (0x07UL)   /**< Single pin mask for setting filtered
 296:Generated_Source\PSoC6\pdl\drivers/peripheral/gpio/cy_gpio.h **** 
 297:Generated_Source\PSoC6\pdl\drivers/peripheral/gpio/cy_gpio.h **** /* SIO Masks */
 298:Generated_Source\PSoC6\pdl\drivers/peripheral/gpio/cy_gpio.h **** #define CY_GPIO_VREG_EN_MASK                   (0x01UL)   /**< Single SIO pin mask for voltage regu
 299:Generated_Source\PSoC6\pdl\drivers/peripheral/gpio/cy_gpio.h **** #define CY_GPIO_IBUF_MASK                      (0x01UL)   /**< Single SIO pin mask for input buffer
 300:Generated_Source\PSoC6\pdl\drivers/peripheral/gpio/cy_gpio.h **** #define CY_GPIO_IBUF_SHIFT                     (0x01UL)   /**< Single SIO pin shift for input buffe
 301:Generated_Source\PSoC6\pdl\drivers/peripheral/gpio/cy_gpio.h **** #define CY_GPIO_VTRIP_SEL_MASK                 (0x01UL)   /**< Single SIO pin mask for the input bu
 302:Generated_Source\PSoC6\pdl\drivers/peripheral/gpio/cy_gpio.h **** #define CY_GPIO_VTRIP_SEL_SHIFT                (0x02UL)   /**< Single SIO pin shift for the input b
 303:Generated_Source\PSoC6\pdl\drivers/peripheral/gpio/cy_gpio.h **** #define CY_GPIO_VREF_SEL_MASK                  (0x03UL)   /**< Single SIO pin mask for voltage refe
 304:Generated_Source\PSoC6\pdl\drivers/peripheral/gpio/cy_gpio.h **** #define CY_GPIO_VREF_SEL_SHIFT                 (0x03UL)   /**< Single SIO pin shift for voltage ref
 305:Generated_Source\PSoC6\pdl\drivers/peripheral/gpio/cy_gpio.h **** #define CY_GPIO_VOH_SEL_MASK                   (0x07UL)   /**< Single SIO pin mask for VOH */
 306:Generated_Source\PSoC6\pdl\drivers/peripheral/gpio/cy_gpio.h **** #define CY_GPIO_VOH_SEL_SHIFT                  (0x05UL)   /**< Single SIO pin shift for VOH */
 307:Generated_Source\PSoC6\pdl\drivers/peripheral/gpio/cy_gpio.h **** 
 308:Generated_Source\PSoC6\pdl\drivers/peripheral/gpio/cy_gpio.h **** /* Special mask for SIO pin pair setting */
 309:Generated_Source\PSoC6\pdl\drivers/peripheral/gpio/cy_gpio.h **** #define CY_GPIO_SIO_ODD_PIN_MASK               (0x00FEUL) /**< SIO pin pair selection mask */
 310:Generated_Source\PSoC6\pdl\drivers/peripheral/gpio/cy_gpio.h **** #define CY_GPIO_SIO_PIN_MASK                   (0x00FFUL) /**< SIO pin pair mask */
 311:Generated_Source\PSoC6\pdl\drivers/peripheral/gpio/cy_gpio.h **** 
 312:Generated_Source\PSoC6\pdl\drivers/peripheral/gpio/cy_gpio.h **** /* Offsets */
 313:Generated_Source\PSoC6\pdl\drivers/peripheral/gpio/cy_gpio.h **** #define CY_GPIO_HSIOM_OFFSET                   (3UL)      /**< Offset for HSIOM */
 314:Generated_Source\PSoC6\pdl\drivers/peripheral/gpio/cy_gpio.h **** #define CY_GPIO_DRIVE_MODE_OFFSET              (2UL)      /**< Offset for Drive mode */
 315:Generated_Source\PSoC6\pdl\drivers/peripheral/gpio/cy_gpio.h **** #define CY_GPIO_INBUF_OFFSET                   (3UL)      /**< Offset for input buffer */
 316:Generated_Source\PSoC6\pdl\drivers/peripheral/gpio/cy_gpio.h **** #define CY_GPIO_CFG_OUT_DRIVE_OFFSET           (16UL)     /**< Offset for drive strength */
 317:Generated_Source\PSoC6\pdl\drivers/peripheral/gpio/cy_gpio.h **** #define CY_GPIO_INTR_CFG_OFFSET                (1UL)      /**< Offset for interrupt config */
 318:Generated_Source\PSoC6\pdl\drivers/peripheral/gpio/cy_gpio.h **** #define CY_GPIO_INTR_FILT_OFFSET               (18UL)     /**< Offset for filtered interrupt config
 319:Generated_Source\PSoC6\pdl\drivers/peripheral/gpio/cy_gpio.h **** #define CY_GPIO_CFG_SIO_OFFSET                 (2UL)      /**< Offset for SIO config */
 320:Generated_Source\PSoC6\pdl\drivers/peripheral/gpio/cy_gpio.h **** 
ARM GAS  C:\Users\dmula\AppData\Local\Temp\ccXnnfAd.s 			page 8


 321:Generated_Source\PSoC6\pdl\drivers/peripheral/gpio/cy_gpio.h **** /* Parameter validation constants */
 322:Generated_Source\PSoC6\pdl\drivers/peripheral/gpio/cy_gpio.h **** #define CY_GPIO_PINS_MAX                       (8UL)      /**< Number of pins in the port */
 323:Generated_Source\PSoC6\pdl\drivers/peripheral/gpio/cy_gpio.h **** #define CY_GPIO_PRT_PINS_MASK                  (0x0000000FFUL)
 324:Generated_Source\PSoC6\pdl\drivers/peripheral/gpio/cy_gpio.h **** #define CY_GPIO_PRT_INTR_CFG_EDGE_SEL_MASK     (GPIO_PRT_INTR_CFG_EDGE0_SEL_Msk | \
 325:Generated_Source\PSoC6\pdl\drivers/peripheral/gpio/cy_gpio.h ****                                                 GPIO_PRT_INTR_CFG_EDGE1_SEL_Msk | \
 326:Generated_Source\PSoC6\pdl\drivers/peripheral/gpio/cy_gpio.h ****                                                 GPIO_PRT_INTR_CFG_EDGE2_SEL_Msk | \
 327:Generated_Source\PSoC6\pdl\drivers/peripheral/gpio/cy_gpio.h ****                                                 GPIO_PRT_INTR_CFG_EDGE3_SEL_Msk | \
 328:Generated_Source\PSoC6\pdl\drivers/peripheral/gpio/cy_gpio.h ****                                                 GPIO_PRT_INTR_CFG_EDGE4_SEL_Msk | \
 329:Generated_Source\PSoC6\pdl\drivers/peripheral/gpio/cy_gpio.h ****                                                 GPIO_PRT_INTR_CFG_EDGE5_SEL_Msk | \
 330:Generated_Source\PSoC6\pdl\drivers/peripheral/gpio/cy_gpio.h ****                                                 GPIO_PRT_INTR_CFG_EDGE6_SEL_Msk | \
 331:Generated_Source\PSoC6\pdl\drivers/peripheral/gpio/cy_gpio.h ****                                                 GPIO_PRT_INTR_CFG_EDGE7_SEL_Msk)
 332:Generated_Source\PSoC6\pdl\drivers/peripheral/gpio/cy_gpio.h **** #define CY_GPIO_PRT_INTR_CFG_RANGE_MASK        (CY_GPIO_PRT_INTR_CFG_EDGE_SEL_MASK | \
 333:Generated_Source\PSoC6\pdl\drivers/peripheral/gpio/cy_gpio.h ****                                                 GPIO_PRT_INTR_CFG_FLT_EDGE_SEL_Msk | \
 334:Generated_Source\PSoC6\pdl\drivers/peripheral/gpio/cy_gpio.h ****                                                 GPIO_PRT_INTR_CFG_FLT_SEL_Msk)
 335:Generated_Source\PSoC6\pdl\drivers/peripheral/gpio/cy_gpio.h **** #define CY_GPIO_PRT_INT_MASK_MASK              (0x0000001FFUL)
 336:Generated_Source\PSoC6\pdl\drivers/peripheral/gpio/cy_gpio.h **** #define CY_GPIO_PRT_SEL_ACTIVE_MASK            (0x1FFFFFFFUL)
 337:Generated_Source\PSoC6\pdl\drivers/peripheral/gpio/cy_gpio.h **** 
 338:Generated_Source\PSoC6\pdl\drivers/peripheral/gpio/cy_gpio.h **** #define GPIO_MAX_SPLIT_CELL_SEGMENTS           (9U)
 339:Generated_Source\PSoC6\pdl\drivers/peripheral/gpio/cy_gpio.h **** 
 340:Generated_Source\PSoC6\pdl\drivers/peripheral/gpio/cy_gpio.h **** /* Parameter validation macros */
 341:Generated_Source\PSoC6\pdl\drivers/peripheral/gpio/cy_gpio.h **** #define CY_GPIO_IS_PIN_VALID(pinNum)           (CY_GPIO_PINS_MAX > (pinNum))
 342:Generated_Source\PSoC6\pdl\drivers/peripheral/gpio/cy_gpio.h **** #define CY_GPIO_IS_FILTER_PIN_VALID(pinNum)    (CY_GPIO_PINS_MAX >= (pinNum))
 343:Generated_Source\PSoC6\pdl\drivers/peripheral/gpio/cy_gpio.h **** #define CY_GPIO_IS_VALUE_VALID(outVal)         (1UL >= (outVal))
 344:Generated_Source\PSoC6\pdl\drivers/peripheral/gpio/cy_gpio.h **** #define CY_GPIO_IS_DM_VALID(driveMode)         (0U == ((driveMode) & (uint32_t)~CY_GPIO_CFG_DM_MASK
 345:Generated_Source\PSoC6\pdl\drivers/peripheral/gpio/cy_gpio.h **** 
 346:Generated_Source\PSoC6\pdl\drivers/peripheral/gpio/cy_gpio.h **** #define CY_GPIO_IS_HSIOM_VALID(hsiom)          (0U == ((hsiom) & (uint32_t)~CY_GPIO_HSIOM_MASK))
 347:Generated_Source\PSoC6\pdl\drivers/peripheral/gpio/cy_gpio.h **** 
 348:Generated_Source\PSoC6\pdl\drivers/peripheral/gpio/cy_gpio.h **** #define CY_GPIO_IS_INT_EDGE_VALID(intEdge)     ((CY_GPIO_INTR_DISABLE  == (intEdge)) || \
 349:Generated_Source\PSoC6\pdl\drivers/peripheral/gpio/cy_gpio.h ****                                                 (CY_GPIO_INTR_RISING   == (intEdge)) || \
 350:Generated_Source\PSoC6\pdl\drivers/peripheral/gpio/cy_gpio.h ****                                                 (CY_GPIO_INTR_FALLING  == (intEdge)) || \
 351:Generated_Source\PSoC6\pdl\drivers/peripheral/gpio/cy_gpio.h ****                                                 (CY_GPIO_INTR_BOTH     == (intEdge)))
 352:Generated_Source\PSoC6\pdl\drivers/peripheral/gpio/cy_gpio.h **** 
 353:Generated_Source\PSoC6\pdl\drivers/peripheral/gpio/cy_gpio.h **** #define CY_GPIO_IS_DRIVE_SEL_VALID(driveSel)   ((CY_GPIO_DRIVE_FULL    == (driveSel)) || \
 354:Generated_Source\PSoC6\pdl\drivers/peripheral/gpio/cy_gpio.h ****                                                 (CY_GPIO_DRIVE_1_2     == (driveSel)) || \
 355:Generated_Source\PSoC6\pdl\drivers/peripheral/gpio/cy_gpio.h ****                                                 (CY_GPIO_DRIVE_1_4     == (driveSel)) || \
 356:Generated_Source\PSoC6\pdl\drivers/peripheral/gpio/cy_gpio.h ****                                                 (CY_GPIO_DRIVE_1_8     == (driveSel)))
 357:Generated_Source\PSoC6\pdl\drivers/peripheral/gpio/cy_gpio.h **** 
 358:Generated_Source\PSoC6\pdl\drivers/peripheral/gpio/cy_gpio.h **** #define CY_GPIO_IS_VREF_SEL_VALID(vrefSel)     ((CY_SIO_VREF_PINREF    == (vrefSel)) || \
 359:Generated_Source\PSoC6\pdl\drivers/peripheral/gpio/cy_gpio.h ****                                                 (CY_SIO_VREF_1_2V      == (vrefSel)) || \
 360:Generated_Source\PSoC6\pdl\drivers/peripheral/gpio/cy_gpio.h ****                                                 (CY_SIO_VREF_AMUX_A    == (vrefSel)) || \
 361:Generated_Source\PSoC6\pdl\drivers/peripheral/gpio/cy_gpio.h ****                                                 (CY_SIO_VREF_AMUX_B    == (vrefSel)))
 362:Generated_Source\PSoC6\pdl\drivers/peripheral/gpio/cy_gpio.h **** 
 363:Generated_Source\PSoC6\pdl\drivers/peripheral/gpio/cy_gpio.h **** #define CY_GPIO_IS_VOH_SEL_VALID(vrefSel)      ((CY_SIO_VOH_1_00       == (vrefSel)) || \
 364:Generated_Source\PSoC6\pdl\drivers/peripheral/gpio/cy_gpio.h ****                                                 (CY_SIO_VOH_1_25       == (vrefSel)) || \
 365:Generated_Source\PSoC6\pdl\drivers/peripheral/gpio/cy_gpio.h ****                                                 (CY_SIO_VOH_1_49       == (vrefSel)) || \
 366:Generated_Source\PSoC6\pdl\drivers/peripheral/gpio/cy_gpio.h ****                                                 (CY_SIO_VOH_1_67       == (vrefSel)) || \
 367:Generated_Source\PSoC6\pdl\drivers/peripheral/gpio/cy_gpio.h ****                                                 (CY_SIO_VOH_2_08       == (vrefSel)) || \
 368:Generated_Source\PSoC6\pdl\drivers/peripheral/gpio/cy_gpio.h ****                                                 (CY_SIO_VOH_2_50       == (vrefSel)) || \
 369:Generated_Source\PSoC6\pdl\drivers/peripheral/gpio/cy_gpio.h ****                                                 (CY_SIO_VOH_2_78       == (vrefSel)) || \
 370:Generated_Source\PSoC6\pdl\drivers/peripheral/gpio/cy_gpio.h ****                                                 (CY_SIO_VOH_4_16       == (vrefSel)))
 371:Generated_Source\PSoC6\pdl\drivers/peripheral/gpio/cy_gpio.h ****                    
 372:Generated_Source\PSoC6\pdl\drivers/peripheral/gpio/cy_gpio.h **** #define CY_GPIO_IS_PIN_BIT_VALID(pinBit)       (0U == ((pinBit) & (uint32_t)~CY_GPIO_PRT_PINS_MASK)
 373:Generated_Source\PSoC6\pdl\drivers/peripheral/gpio/cy_gpio.h **** #define CY_GPIO_IS_INTR_CFG_VALID(intrCfg)     (0U == ((intrCfg) & (uint32_t)~CY_GPIO_PRT_INTR_CFG_
 374:Generated_Source\PSoC6\pdl\drivers/peripheral/gpio/cy_gpio.h **** #define CY_GPIO_IS_INTR_MASK_VALID(intrMask)   (0U == ((intrMask) & (uint32_t)~CY_GPIO_PRT_INT_MASK
 375:Generated_Source\PSoC6\pdl\drivers/peripheral/gpio/cy_gpio.h **** #define CY_GPIO_IS_SEL_ACT_VALID(selActive)    (0U == ((selActive) & (uint32_t)~CY_GPIO_PRT_SEL_ACT
 376:Generated_Source\PSoC6\pdl\drivers/peripheral/gpio/cy_gpio.h **** 
 377:Generated_Source\PSoC6\pdl\drivers/peripheral/gpio/cy_gpio.h **** #define CY_GPIO_IS_AMUX_SPLIT_VALID(switchCtrl)       (((uint32_t) (switchCtrl)) < GPIO_MAX_SPLIT_C
ARM GAS  C:\Users\dmula\AppData\Local\Temp\ccXnnfAd.s 			page 9


 378:Generated_Source\PSoC6\pdl\drivers/peripheral/gpio/cy_gpio.h **** 
 379:Generated_Source\PSoC6\pdl\drivers/peripheral/gpio/cy_gpio.h **** #define CY_GPIO_IS_AMUX_CONNECT_VALID(amuxConnect)    ((CY_GPIO_AMUX_OPENALL == (amuxConnect)) || \
 380:Generated_Source\PSoC6\pdl\drivers/peripheral/gpio/cy_gpio.h ****                                                        (CY_GPIO_AMUX_L       == (amuxConnect)) || \
 381:Generated_Source\PSoC6\pdl\drivers/peripheral/gpio/cy_gpio.h ****                                                        (CY_GPIO_AMUX_R       == (amuxConnect)) || \
 382:Generated_Source\PSoC6\pdl\drivers/peripheral/gpio/cy_gpio.h ****                                                        (CY_GPIO_AMUX_LR      == (amuxConnect)) || \
 383:Generated_Source\PSoC6\pdl\drivers/peripheral/gpio/cy_gpio.h ****                                                        (CY_GPIO_AMUX_G       == (amuxConnect)) || \
 384:Generated_Source\PSoC6\pdl\drivers/peripheral/gpio/cy_gpio.h ****                                                        (CY_GPIO_AMUX_GL      == (amuxConnect)) || \
 385:Generated_Source\PSoC6\pdl\drivers/peripheral/gpio/cy_gpio.h ****                                                        (CY_GPIO_AMUX_GR      == (amuxConnect)) || \
 386:Generated_Source\PSoC6\pdl\drivers/peripheral/gpio/cy_gpio.h ****                                                        (CY_GPIO_AMUX_GLR     == (amuxConnect)))
 387:Generated_Source\PSoC6\pdl\drivers/peripheral/gpio/cy_gpio.h **** 
 388:Generated_Source\PSoC6\pdl\drivers/peripheral/gpio/cy_gpio.h **** #define CY_GPIO_IS_AMUX_SELECT_VALID(amuxBus)       ((CY_GPIO_AMUXBUSA       == (amuxBus)) || \
 389:Generated_Source\PSoC6\pdl\drivers/peripheral/gpio/cy_gpio.h ****                                                      (CY_GPIO_AMUXBUSB       == (amuxBus)))
 390:Generated_Source\PSoC6\pdl\drivers/peripheral/gpio/cy_gpio.h **** /** \endcond */
 391:Generated_Source\PSoC6\pdl\drivers/peripheral/gpio/cy_gpio.h **** 
 392:Generated_Source\PSoC6\pdl\drivers/peripheral/gpio/cy_gpio.h **** 
 393:Generated_Source\PSoC6\pdl\drivers/peripheral/gpio/cy_gpio.h **** /***************************************
 394:Generated_Source\PSoC6\pdl\drivers/peripheral/gpio/cy_gpio.h **** *        Function Constants
 395:Generated_Source\PSoC6\pdl\drivers/peripheral/gpio/cy_gpio.h **** ***************************************/
 396:Generated_Source\PSoC6\pdl\drivers/peripheral/gpio/cy_gpio.h **** 
 397:Generated_Source\PSoC6\pdl\drivers/peripheral/gpio/cy_gpio.h **** /**
 398:Generated_Source\PSoC6\pdl\drivers/peripheral/gpio/cy_gpio.h **** * \addtogroup group_gpio_macros
 399:Generated_Source\PSoC6\pdl\drivers/peripheral/gpio/cy_gpio.h **** * \{
 400:Generated_Source\PSoC6\pdl\drivers/peripheral/gpio/cy_gpio.h **** */
 401:Generated_Source\PSoC6\pdl\drivers/peripheral/gpio/cy_gpio.h **** 
 402:Generated_Source\PSoC6\pdl\drivers/peripheral/gpio/cy_gpio.h **** /**
 403:Generated_Source\PSoC6\pdl\drivers/peripheral/gpio/cy_gpio.h **** * \defgroup group_gpio_driveModes Pin drive mode
 404:Generated_Source\PSoC6\pdl\drivers/peripheral/gpio/cy_gpio.h **** * \{
 405:Generated_Source\PSoC6\pdl\drivers/peripheral/gpio/cy_gpio.h **** * Constants to be used for setting the drive mode of the pin.
 406:Generated_Source\PSoC6\pdl\drivers/peripheral/gpio/cy_gpio.h **** */
 407:Generated_Source\PSoC6\pdl\drivers/peripheral/gpio/cy_gpio.h **** #define CY_GPIO_DM_ANALOG                      (0x00UL) /**< Analog High-Z. Input buffer off */
 408:Generated_Source\PSoC6\pdl\drivers/peripheral/gpio/cy_gpio.h **** #define CY_GPIO_DM_PULLUP_IN_OFF               (0x02UL) /**< Resistive Pull-Up. Input buffer off */
 409:Generated_Source\PSoC6\pdl\drivers/peripheral/gpio/cy_gpio.h **** #define CY_GPIO_DM_PULLDOWN_IN_OFF             (0x03UL) /**< Resistive Pull-Down. Input buffer off 
 410:Generated_Source\PSoC6\pdl\drivers/peripheral/gpio/cy_gpio.h **** #define CY_GPIO_DM_OD_DRIVESLOW_IN_OFF         (0x04UL) /**< Open Drain, Drives Low. Input buffer o
 411:Generated_Source\PSoC6\pdl\drivers/peripheral/gpio/cy_gpio.h **** #define CY_GPIO_DM_OD_DRIVESHIGH_IN_OFF        (0x05UL) /**< Open Drain, Drives High. Input buffer 
 412:Generated_Source\PSoC6\pdl\drivers/peripheral/gpio/cy_gpio.h **** #define CY_GPIO_DM_STRONG_IN_OFF               (0x06UL) /**< Strong Drive. Input buffer off */
 413:Generated_Source\PSoC6\pdl\drivers/peripheral/gpio/cy_gpio.h **** #define CY_GPIO_DM_PULLUP_DOWN_IN_OFF          (0x07UL) /**< Resistive Pull-Up/Down. Input buffer o
 414:Generated_Source\PSoC6\pdl\drivers/peripheral/gpio/cy_gpio.h **** #define CY_GPIO_DM_HIGHZ                       (0x08UL) /**< Digital High-Z. Input buffer on */
 415:Generated_Source\PSoC6\pdl\drivers/peripheral/gpio/cy_gpio.h **** #define CY_GPIO_DM_PULLUP                      (0x0AUL) /**< Resistive Pull-Up. Input buffer on */
 416:Generated_Source\PSoC6\pdl\drivers/peripheral/gpio/cy_gpio.h **** #define CY_GPIO_DM_PULLDOWN                    (0x0BUL) /**< Resistive Pull-Down. Input buffer on *
 417:Generated_Source\PSoC6\pdl\drivers/peripheral/gpio/cy_gpio.h **** #define CY_GPIO_DM_OD_DRIVESLOW                (0x0CUL) /**< Open Drain, Drives Low. Input buffer o
 418:Generated_Source\PSoC6\pdl\drivers/peripheral/gpio/cy_gpio.h **** #define CY_GPIO_DM_OD_DRIVESHIGH               (0x0DUL) /**< Open Drain, Drives High. Input buffer 
 419:Generated_Source\PSoC6\pdl\drivers/peripheral/gpio/cy_gpio.h **** #define CY_GPIO_DM_STRONG                      (0x0EUL) /**< Strong Drive. Input buffer on */
 420:Generated_Source\PSoC6\pdl\drivers/peripheral/gpio/cy_gpio.h **** #define CY_GPIO_DM_PULLUP_DOWN                 (0x0FUL) /**< Resistive Pull-Up/Down. Input buffer o
 421:Generated_Source\PSoC6\pdl\drivers/peripheral/gpio/cy_gpio.h **** /** \} */
 422:Generated_Source\PSoC6\pdl\drivers/peripheral/gpio/cy_gpio.h **** 
 423:Generated_Source\PSoC6\pdl\drivers/peripheral/gpio/cy_gpio.h **** /**
 424:Generated_Source\PSoC6\pdl\drivers/peripheral/gpio/cy_gpio.h **** * \defgroup group_gpio_vtrip Voltage trip mode
 425:Generated_Source\PSoC6\pdl\drivers/peripheral/gpio/cy_gpio.h **** * \{
 426:Generated_Source\PSoC6\pdl\drivers/peripheral/gpio/cy_gpio.h **** * Constants to be used for setting the voltage trip type on the pin.
 427:Generated_Source\PSoC6\pdl\drivers/peripheral/gpio/cy_gpio.h **** */
 428:Generated_Source\PSoC6\pdl\drivers/peripheral/gpio/cy_gpio.h **** #define CY_GPIO_VTRIP_CMOS                     (0x00UL) /**< Input buffer compatible with CMOS and 
 429:Generated_Source\PSoC6\pdl\drivers/peripheral/gpio/cy_gpio.h **** #define CY_GPIO_VTRIP_TTL                      (0x01UL) /**< Input buffer compatible with TTL and M
 430:Generated_Source\PSoC6\pdl\drivers/peripheral/gpio/cy_gpio.h **** /** \} */
 431:Generated_Source\PSoC6\pdl\drivers/peripheral/gpio/cy_gpio.h **** 
 432:Generated_Source\PSoC6\pdl\drivers/peripheral/gpio/cy_gpio.h **** /**
 433:Generated_Source\PSoC6\pdl\drivers/peripheral/gpio/cy_gpio.h **** * \defgroup group_gpio_slewRate Slew Rate Mode
 434:Generated_Source\PSoC6\pdl\drivers/peripheral/gpio/cy_gpio.h **** * \{
ARM GAS  C:\Users\dmula\AppData\Local\Temp\ccXnnfAd.s 			page 10


 435:Generated_Source\PSoC6\pdl\drivers/peripheral/gpio/cy_gpio.h **** * Constants to be used for setting the slew rate of the pin.
 436:Generated_Source\PSoC6\pdl\drivers/peripheral/gpio/cy_gpio.h **** */
 437:Generated_Source\PSoC6\pdl\drivers/peripheral/gpio/cy_gpio.h **** #define CY_GPIO_SLEW_FAST                      (0x00UL) /**< Fast slew rate */
 438:Generated_Source\PSoC6\pdl\drivers/peripheral/gpio/cy_gpio.h **** #define CY_GPIO_SLEW_SLOW                      (0x01UL) /**< Slow slew rate */
 439:Generated_Source\PSoC6\pdl\drivers/peripheral/gpio/cy_gpio.h **** /** \} */
 440:Generated_Source\PSoC6\pdl\drivers/peripheral/gpio/cy_gpio.h **** 
 441:Generated_Source\PSoC6\pdl\drivers/peripheral/gpio/cy_gpio.h **** /**
 442:Generated_Source\PSoC6\pdl\drivers/peripheral/gpio/cy_gpio.h **** * \defgroup group_gpio_driveStrength Pin drive strength
 443:Generated_Source\PSoC6\pdl\drivers/peripheral/gpio/cy_gpio.h **** * \{
 444:Generated_Source\PSoC6\pdl\drivers/peripheral/gpio/cy_gpio.h **** * Constants to be used for setting the drive strength of the pin.
 445:Generated_Source\PSoC6\pdl\drivers/peripheral/gpio/cy_gpio.h **** */
 446:Generated_Source\PSoC6\pdl\drivers/peripheral/gpio/cy_gpio.h **** #define CY_GPIO_DRIVE_FULL                     (0x00UL) /**< Full drive strength: Max drive current
 447:Generated_Source\PSoC6\pdl\drivers/peripheral/gpio/cy_gpio.h **** #define CY_GPIO_DRIVE_1_2                      (0x01UL) /**< 1/2 drive strength: 1/2 drive current 
 448:Generated_Source\PSoC6\pdl\drivers/peripheral/gpio/cy_gpio.h **** #define CY_GPIO_DRIVE_1_4                      (0x02UL) /**< 1/4 drive strength: 1/4 drive current 
 449:Generated_Source\PSoC6\pdl\drivers/peripheral/gpio/cy_gpio.h **** #define CY_GPIO_DRIVE_1_8                      (0x03UL) /**< 1/8 drive strength: 1/8 drive current 
 450:Generated_Source\PSoC6\pdl\drivers/peripheral/gpio/cy_gpio.h **** /** \} */
 451:Generated_Source\PSoC6\pdl\drivers/peripheral/gpio/cy_gpio.h **** 
 452:Generated_Source\PSoC6\pdl\drivers/peripheral/gpio/cy_gpio.h **** /**
 453:Generated_Source\PSoC6\pdl\drivers/peripheral/gpio/cy_gpio.h **** * \defgroup group_gpio_interruptTrigger Interrupt trigger type
 454:Generated_Source\PSoC6\pdl\drivers/peripheral/gpio/cy_gpio.h **** * \{
 455:Generated_Source\PSoC6\pdl\drivers/peripheral/gpio/cy_gpio.h **** * Constants to be used for setting the interrupt trigger type on the pin.
 456:Generated_Source\PSoC6\pdl\drivers/peripheral/gpio/cy_gpio.h **** */
 457:Generated_Source\PSoC6\pdl\drivers/peripheral/gpio/cy_gpio.h **** #define CY_GPIO_INTR_DISABLE                   (0x00UL) /**< Disable the pin interrupt generation *
 458:Generated_Source\PSoC6\pdl\drivers/peripheral/gpio/cy_gpio.h **** #define CY_GPIO_INTR_RISING                    (0x01UL) /**< Rising-Edge interrupt */
 459:Generated_Source\PSoC6\pdl\drivers/peripheral/gpio/cy_gpio.h **** #define CY_GPIO_INTR_FALLING                   (0x02UL) /**< Falling-Edge interrupt */
 460:Generated_Source\PSoC6\pdl\drivers/peripheral/gpio/cy_gpio.h **** #define CY_GPIO_INTR_BOTH                      (0x03UL) /**< Both-Edge interrupt */
 461:Generated_Source\PSoC6\pdl\drivers/peripheral/gpio/cy_gpio.h **** /** \} */
 462:Generated_Source\PSoC6\pdl\drivers/peripheral/gpio/cy_gpio.h **** 
 463:Generated_Source\PSoC6\pdl\drivers/peripheral/gpio/cy_gpio.h **** /**
 464:Generated_Source\PSoC6\pdl\drivers/peripheral/gpio/cy_gpio.h **** * \defgroup group_gpio_sioVreg SIO output buffer mode
 465:Generated_Source\PSoC6\pdl\drivers/peripheral/gpio/cy_gpio.h **** * \{
 466:Generated_Source\PSoC6\pdl\drivers/peripheral/gpio/cy_gpio.h **** * Constants to be used for setting the SIO output buffer mode on the pin.
 467:Generated_Source\PSoC6\pdl\drivers/peripheral/gpio/cy_gpio.h **** */
 468:Generated_Source\PSoC6\pdl\drivers/peripheral/gpio/cy_gpio.h **** #define CY_SIO_VREG_UNREGULATED                (0x00UL) /**< Unregulated output buffer */
 469:Generated_Source\PSoC6\pdl\drivers/peripheral/gpio/cy_gpio.h **** #define CY_SIO_VREG_REGULATED                  (0x01UL) /**< Regulated output buffer */
 470:Generated_Source\PSoC6\pdl\drivers/peripheral/gpio/cy_gpio.h **** /** \} */
 471:Generated_Source\PSoC6\pdl\drivers/peripheral/gpio/cy_gpio.h **** 
 472:Generated_Source\PSoC6\pdl\drivers/peripheral/gpio/cy_gpio.h **** /**
 473:Generated_Source\PSoC6\pdl\drivers/peripheral/gpio/cy_gpio.h **** * \defgroup group_gpio_sioIbuf SIO input buffer mode
 474:Generated_Source\PSoC6\pdl\drivers/peripheral/gpio/cy_gpio.h **** * \{
 475:Generated_Source\PSoC6\pdl\drivers/peripheral/gpio/cy_gpio.h **** * Constants to be used for setting the SIO input buffer mode on the pin.
 476:Generated_Source\PSoC6\pdl\drivers/peripheral/gpio/cy_gpio.h **** */
 477:Generated_Source\PSoC6\pdl\drivers/peripheral/gpio/cy_gpio.h **** #define CY_SIO_IBUF_SINGLEENDED                (0x00UL) /**< Single ended input buffer */
 478:Generated_Source\PSoC6\pdl\drivers/peripheral/gpio/cy_gpio.h **** #define CY_SIO_IBUF_DIFFERENTIAL               (0x01UL) /**< Differential input buffer */
 479:Generated_Source\PSoC6\pdl\drivers/peripheral/gpio/cy_gpio.h **** /** \} */
 480:Generated_Source\PSoC6\pdl\drivers/peripheral/gpio/cy_gpio.h **** 
 481:Generated_Source\PSoC6\pdl\drivers/peripheral/gpio/cy_gpio.h **** /**
 482:Generated_Source\PSoC6\pdl\drivers/peripheral/gpio/cy_gpio.h **** * \defgroup group_gpio_sioVtrip SIO input buffer trip-point
 483:Generated_Source\PSoC6\pdl\drivers/peripheral/gpio/cy_gpio.h **** * \{
 484:Generated_Source\PSoC6\pdl\drivers/peripheral/gpio/cy_gpio.h **** * Constants to be used for setting the SIO input buffer trip-point of the pin.
 485:Generated_Source\PSoC6\pdl\drivers/peripheral/gpio/cy_gpio.h **** */
 486:Generated_Source\PSoC6\pdl\drivers/peripheral/gpio/cy_gpio.h **** #define CY_SIO_VTRIP_CMOS                      (0x00UL) /**< CMOS input buffer (single-ended) */
 487:Generated_Source\PSoC6\pdl\drivers/peripheral/gpio/cy_gpio.h **** #define CY_SIO_VTRIP_TTL                       (0x01UL) /**< TTL input buffer (single-ended) */
 488:Generated_Source\PSoC6\pdl\drivers/peripheral/gpio/cy_gpio.h **** #define CY_SIO_VTRIP_0_5VDDIO_0_5VOH           (0x00UL) /**< 0.5xVddio or 0.5xVoh (differential) */
 489:Generated_Source\PSoC6\pdl\drivers/peripheral/gpio/cy_gpio.h **** #define CY_SIO_VTRIP_0_4VDDIO_1_0VREF          (0x01UL) /**< 0.4xVddio or 0.4xVoh (differential) */
 490:Generated_Source\PSoC6\pdl\drivers/peripheral/gpio/cy_gpio.h **** /** \} */
 491:Generated_Source\PSoC6\pdl\drivers/peripheral/gpio/cy_gpio.h **** 
ARM GAS  C:\Users\dmula\AppData\Local\Temp\ccXnnfAd.s 			page 11


 492:Generated_Source\PSoC6\pdl\drivers/peripheral/gpio/cy_gpio.h **** /**
 493:Generated_Source\PSoC6\pdl\drivers/peripheral/gpio/cy_gpio.h **** * \defgroup group_gpio_sioVref SIO reference voltage for input buffer trip-point
 494:Generated_Source\PSoC6\pdl\drivers/peripheral/gpio/cy_gpio.h **** * \{
 495:Generated_Source\PSoC6\pdl\drivers/peripheral/gpio/cy_gpio.h **** * Constants to be used for setting the reference voltage of SIO input buffer trip-point.
 496:Generated_Source\PSoC6\pdl\drivers/peripheral/gpio/cy_gpio.h **** */
 497:Generated_Source\PSoC6\pdl\drivers/peripheral/gpio/cy_gpio.h **** #define CY_SIO_VREF_PINREF                     (0x00UL) /**< Vref from analog pin */
 498:Generated_Source\PSoC6\pdl\drivers/peripheral/gpio/cy_gpio.h **** #define CY_SIO_VREF_1_2V                       (0x01UL) /**< Vref from internal 1.2V reference */
 499:Generated_Source\PSoC6\pdl\drivers/peripheral/gpio/cy_gpio.h **** #define CY_SIO_VREF_AMUX_A                     (0x02UL) /**< Vref from AMUXBUS_A */
 500:Generated_Source\PSoC6\pdl\drivers/peripheral/gpio/cy_gpio.h **** #define CY_SIO_VREF_AMUX_B                     (0x03UL) /**< Vref from AMUXBUS_B */
 501:Generated_Source\PSoC6\pdl\drivers/peripheral/gpio/cy_gpio.h **** /** \} */
 502:Generated_Source\PSoC6\pdl\drivers/peripheral/gpio/cy_gpio.h **** 
 503:Generated_Source\PSoC6\pdl\drivers/peripheral/gpio/cy_gpio.h **** /**
 504:Generated_Source\PSoC6\pdl\drivers/peripheral/gpio/cy_gpio.h **** * \defgroup group_gpio_sioVoh Regulated output voltage level (Voh) and input buffer trip-point of a
 505:Generated_Source\PSoC6\pdl\drivers/peripheral/gpio/cy_gpio.h **** * \{
 506:Generated_Source\PSoC6\pdl\drivers/peripheral/gpio/cy_gpio.h **** * Constants to be used for setting the Voh and input buffer trip-point of an SIO pair
 507:Generated_Source\PSoC6\pdl\drivers/peripheral/gpio/cy_gpio.h **** */
 508:Generated_Source\PSoC6\pdl\drivers/peripheral/gpio/cy_gpio.h **** #define CY_SIO_VOH_1_00                        (0x00UL) /**< Voh = 1 x Reference */
 509:Generated_Source\PSoC6\pdl\drivers/peripheral/gpio/cy_gpio.h **** #define CY_SIO_VOH_1_25                        (0x01UL) /**< Voh = 1.25 x Reference */
 510:Generated_Source\PSoC6\pdl\drivers/peripheral/gpio/cy_gpio.h **** #define CY_SIO_VOH_1_49                        (0x02UL) /**< Voh = 1.49 x Reference */
 511:Generated_Source\PSoC6\pdl\drivers/peripheral/gpio/cy_gpio.h **** #define CY_SIO_VOH_1_67                        (0x03UL) /**< Voh = 1.67 x Reference */
 512:Generated_Source\PSoC6\pdl\drivers/peripheral/gpio/cy_gpio.h **** #define CY_SIO_VOH_2_08                        (0x04UL) /**< Voh = 2.08 x Reference */
 513:Generated_Source\PSoC6\pdl\drivers/peripheral/gpio/cy_gpio.h **** #define CY_SIO_VOH_2_50                        (0x05UL) /**< Voh = 2.50 x Reference */
 514:Generated_Source\PSoC6\pdl\drivers/peripheral/gpio/cy_gpio.h **** #define CY_SIO_VOH_2_78                        (0x06UL) /**< Voh = 2.78 x Reference */
 515:Generated_Source\PSoC6\pdl\drivers/peripheral/gpio/cy_gpio.h **** #define CY_SIO_VOH_4_16                        (0x07UL) /**< Voh = 4.16 x Reference */
 516:Generated_Source\PSoC6\pdl\drivers/peripheral/gpio/cy_gpio.h **** /** \} */
 517:Generated_Source\PSoC6\pdl\drivers/peripheral/gpio/cy_gpio.h **** 
 518:Generated_Source\PSoC6\pdl\drivers/peripheral/gpio/cy_gpio.h **** /** \} group_gpio_macros */
 519:Generated_Source\PSoC6\pdl\drivers/peripheral/gpio/cy_gpio.h **** 
 520:Generated_Source\PSoC6\pdl\drivers/peripheral/gpio/cy_gpio.h **** /***************************************
 521:Generated_Source\PSoC6\pdl\drivers/peripheral/gpio/cy_gpio.h **** *        Function Prototypes
 522:Generated_Source\PSoC6\pdl\drivers/peripheral/gpio/cy_gpio.h **** ***************************************/
 523:Generated_Source\PSoC6\pdl\drivers/peripheral/gpio/cy_gpio.h **** 
 524:Generated_Source\PSoC6\pdl\drivers/peripheral/gpio/cy_gpio.h **** /**
 525:Generated_Source\PSoC6\pdl\drivers/peripheral/gpio/cy_gpio.h **** * \addtogroup group_gpio_functions
 526:Generated_Source\PSoC6\pdl\drivers/peripheral/gpio/cy_gpio.h **** * \{
 527:Generated_Source\PSoC6\pdl\drivers/peripheral/gpio/cy_gpio.h **** */
 528:Generated_Source\PSoC6\pdl\drivers/peripheral/gpio/cy_gpio.h **** 
 529:Generated_Source\PSoC6\pdl\drivers/peripheral/gpio/cy_gpio.h **** /**
 530:Generated_Source\PSoC6\pdl\drivers/peripheral/gpio/cy_gpio.h **** * \addtogroup group_gpio_functions_init
 531:Generated_Source\PSoC6\pdl\drivers/peripheral/gpio/cy_gpio.h **** * \{
 532:Generated_Source\PSoC6\pdl\drivers/peripheral/gpio/cy_gpio.h **** */
 533:Generated_Source\PSoC6\pdl\drivers/peripheral/gpio/cy_gpio.h **** 
 534:Generated_Source\PSoC6\pdl\drivers/peripheral/gpio/cy_gpio.h **** cy_en_gpio_status_t Cy_GPIO_Pin_Init(GPIO_PRT_Type* base, uint32_t pinNum, const cy_stc_gpio_pin_co
 535:Generated_Source\PSoC6\pdl\drivers/peripheral/gpio/cy_gpio.h **** cy_en_gpio_status_t Cy_GPIO_Port_Init(GPIO_PRT_Type* base, const cy_stc_gpio_prt_config_t *config);
 536:Generated_Source\PSoC6\pdl\drivers/peripheral/gpio/cy_gpio.h **** void Cy_GPIO_Pin_FastInit(GPIO_PRT_Type* base, uint32_t pinNum, uint32_t driveMode, uint32_t outVal
 537:Generated_Source\PSoC6\pdl\drivers/peripheral/gpio/cy_gpio.h **** void Cy_GPIO_Port_Deinit(GPIO_PRT_Type* base);
 538:Generated_Source\PSoC6\pdl\drivers/peripheral/gpio/cy_gpio.h **** __STATIC_INLINE void Cy_GPIO_SetHSIOM(GPIO_PRT_Type* base, uint32_t pinNum, en_hsiom_sel_t value);
 539:Generated_Source\PSoC6\pdl\drivers/peripheral/gpio/cy_gpio.h **** __STATIC_INLINE en_hsiom_sel_t Cy_GPIO_GetHSIOM(GPIO_PRT_Type* base, uint32_t pinNum);
 540:Generated_Source\PSoC6\pdl\drivers/peripheral/gpio/cy_gpio.h **** __STATIC_INLINE GPIO_PRT_Type* Cy_GPIO_PortToAddr(uint32_t portNum);
 541:Generated_Source\PSoC6\pdl\drivers/peripheral/gpio/cy_gpio.h **** 
 542:Generated_Source\PSoC6\pdl\drivers/peripheral/gpio/cy_gpio.h **** /** \} group_gpio_functions_init */
 543:Generated_Source\PSoC6\pdl\drivers/peripheral/gpio/cy_gpio.h **** 
 544:Generated_Source\PSoC6\pdl\drivers/peripheral/gpio/cy_gpio.h **** /**
 545:Generated_Source\PSoC6\pdl\drivers/peripheral/gpio/cy_gpio.h **** * \addtogroup group_gpio_functions_gpio
 546:Generated_Source\PSoC6\pdl\drivers/peripheral/gpio/cy_gpio.h **** * \{
 547:Generated_Source\PSoC6\pdl\drivers/peripheral/gpio/cy_gpio.h **** */
 548:Generated_Source\PSoC6\pdl\drivers/peripheral/gpio/cy_gpio.h **** 
ARM GAS  C:\Users\dmula\AppData\Local\Temp\ccXnnfAd.s 			page 12


 549:Generated_Source\PSoC6\pdl\drivers/peripheral/gpio/cy_gpio.h **** void Cy_GPIO_SetAmuxSplit(cy_en_amux_split_t switchCtrl, cy_en_gpio_amuxconnect_t amuxConnect, cy_e
 550:Generated_Source\PSoC6\pdl\drivers/peripheral/gpio/cy_gpio.h **** cy_en_gpio_amuxconnect_t Cy_GPIO_GetAmuxSplit(cy_en_amux_split_t switchCtrl, cy_en_gpio_amuxselect_
 551:Generated_Source\PSoC6\pdl\drivers/peripheral/gpio/cy_gpio.h **** 
 552:Generated_Source\PSoC6\pdl\drivers/peripheral/gpio/cy_gpio.h **** __STATIC_INLINE uint32_t Cy_GPIO_Read(GPIO_PRT_Type* base, uint32_t pinNum);
 553:Generated_Source\PSoC6\pdl\drivers/peripheral/gpio/cy_gpio.h **** __STATIC_INLINE void Cy_GPIO_Write(GPIO_PRT_Type* base, uint32_t pinNum, uint32_t value);
 554:Generated_Source\PSoC6\pdl\drivers/peripheral/gpio/cy_gpio.h **** __STATIC_INLINE uint32_t Cy_GPIO_ReadOut(GPIO_PRT_Type* base, uint32_t pinNum);
 555:Generated_Source\PSoC6\pdl\drivers/peripheral/gpio/cy_gpio.h **** __STATIC_INLINE void Cy_GPIO_Set(GPIO_PRT_Type* base, uint32_t pinNum);
 556:Generated_Source\PSoC6\pdl\drivers/peripheral/gpio/cy_gpio.h **** __STATIC_INLINE void Cy_GPIO_Clr(GPIO_PRT_Type* base, uint32_t pinNum);
 557:Generated_Source\PSoC6\pdl\drivers/peripheral/gpio/cy_gpio.h **** __STATIC_INLINE void Cy_GPIO_Inv(GPIO_PRT_Type* base, uint32_t pinNum);
 558:Generated_Source\PSoC6\pdl\drivers/peripheral/gpio/cy_gpio.h **** __STATIC_INLINE void Cy_GPIO_SetDrivemode(GPIO_PRT_Type* base, uint32_t pinNum, uint32_t value);
 559:Generated_Source\PSoC6\pdl\drivers/peripheral/gpio/cy_gpio.h **** __STATIC_INLINE uint32_t Cy_GPIO_GetDrivemode(GPIO_PRT_Type* base, uint32_t pinNum);
 560:Generated_Source\PSoC6\pdl\drivers/peripheral/gpio/cy_gpio.h **** __STATIC_INLINE void Cy_GPIO_SetVtrip(GPIO_PRT_Type* base, uint32_t pinNum, uint32_t value);
 561:Generated_Source\PSoC6\pdl\drivers/peripheral/gpio/cy_gpio.h **** __STATIC_INLINE uint32_t Cy_GPIO_GetVtrip(GPIO_PRT_Type* base, uint32_t pinNum);
 562:Generated_Source\PSoC6\pdl\drivers/peripheral/gpio/cy_gpio.h **** __STATIC_INLINE void Cy_GPIO_SetSlewRate(GPIO_PRT_Type* base, uint32_t pinNum, uint32_t value);
 563:Generated_Source\PSoC6\pdl\drivers/peripheral/gpio/cy_gpio.h **** __STATIC_INLINE uint32_t Cy_GPIO_GetSlewRate(GPIO_PRT_Type* base, uint32_t pinNum);
 564:Generated_Source\PSoC6\pdl\drivers/peripheral/gpio/cy_gpio.h **** __STATIC_INLINE void Cy_GPIO_SetDriveSel(GPIO_PRT_Type* base, uint32_t pinNum, uint32_t value);
 565:Generated_Source\PSoC6\pdl\drivers/peripheral/gpio/cy_gpio.h **** __STATIC_INLINE uint32_t Cy_GPIO_GetDriveSel(GPIO_PRT_Type* base, uint32_t pinNum);
 566:Generated_Source\PSoC6\pdl\drivers/peripheral/gpio/cy_gpio.h **** 
 567:Generated_Source\PSoC6\pdl\drivers/peripheral/gpio/cy_gpio.h **** /** \} group_gpio_functions_gpio */
 568:Generated_Source\PSoC6\pdl\drivers/peripheral/gpio/cy_gpio.h **** 
 569:Generated_Source\PSoC6\pdl\drivers/peripheral/gpio/cy_gpio.h **** /**
 570:Generated_Source\PSoC6\pdl\drivers/peripheral/gpio/cy_gpio.h **** * \addtogroup group_gpio_functions_sio
 571:Generated_Source\PSoC6\pdl\drivers/peripheral/gpio/cy_gpio.h **** * \{
 572:Generated_Source\PSoC6\pdl\drivers/peripheral/gpio/cy_gpio.h **** */
 573:Generated_Source\PSoC6\pdl\drivers/peripheral/gpio/cy_gpio.h **** 
 574:Generated_Source\PSoC6\pdl\drivers/peripheral/gpio/cy_gpio.h **** __STATIC_INLINE void Cy_GPIO_SetVregEn(GPIO_PRT_Type* base, uint32_t pinNum, uint32_t value);
 575:Generated_Source\PSoC6\pdl\drivers/peripheral/gpio/cy_gpio.h **** __STATIC_INLINE uint32_t Cy_GPIO_GetVregEn(GPIO_PRT_Type* base, uint32_t pinNum);
 576:Generated_Source\PSoC6\pdl\drivers/peripheral/gpio/cy_gpio.h **** __STATIC_INLINE void Cy_GPIO_SetIbufMode(GPIO_PRT_Type* base, uint32_t pinNum, uint32_t value);
 577:Generated_Source\PSoC6\pdl\drivers/peripheral/gpio/cy_gpio.h **** __STATIC_INLINE uint32_t Cy_GPIO_GetIbufMode(GPIO_PRT_Type* base, uint32_t pinNum);
 578:Generated_Source\PSoC6\pdl\drivers/peripheral/gpio/cy_gpio.h **** __STATIC_INLINE void Cy_GPIO_SetVtripSel(GPIO_PRT_Type* base, uint32_t pinNum, uint32_t value);
 579:Generated_Source\PSoC6\pdl\drivers/peripheral/gpio/cy_gpio.h **** __STATIC_INLINE uint32_t Cy_GPIO_GetVtripSel(GPIO_PRT_Type* base, uint32_t pinNum);
 580:Generated_Source\PSoC6\pdl\drivers/peripheral/gpio/cy_gpio.h **** __STATIC_INLINE void Cy_GPIO_SetVrefSel(GPIO_PRT_Type* base, uint32_t pinNum, uint32_t value);
 581:Generated_Source\PSoC6\pdl\drivers/peripheral/gpio/cy_gpio.h **** __STATIC_INLINE uint32_t Cy_GPIO_GetVrefSel(GPIO_PRT_Type* base, uint32_t pinNum);
 582:Generated_Source\PSoC6\pdl\drivers/peripheral/gpio/cy_gpio.h **** __STATIC_INLINE void Cy_GPIO_SetVohSel(GPIO_PRT_Type* base, uint32_t pinNum, uint32_t value);
 583:Generated_Source\PSoC6\pdl\drivers/peripheral/gpio/cy_gpio.h **** __STATIC_INLINE uint32_t Cy_GPIO_GetVohSel(GPIO_PRT_Type* base, uint32_t pinNum);
 584:Generated_Source\PSoC6\pdl\drivers/peripheral/gpio/cy_gpio.h **** 
 585:Generated_Source\PSoC6\pdl\drivers/peripheral/gpio/cy_gpio.h **** /** \} group_gpio_functions_sio */
 586:Generated_Source\PSoC6\pdl\drivers/peripheral/gpio/cy_gpio.h **** 
 587:Generated_Source\PSoC6\pdl\drivers/peripheral/gpio/cy_gpio.h **** /**
 588:Generated_Source\PSoC6\pdl\drivers/peripheral/gpio/cy_gpio.h **** * \addtogroup group_gpio_functions_interrupt
 589:Generated_Source\PSoC6\pdl\drivers/peripheral/gpio/cy_gpio.h **** * \{
 590:Generated_Source\PSoC6\pdl\drivers/peripheral/gpio/cy_gpio.h **** */
 591:Generated_Source\PSoC6\pdl\drivers/peripheral/gpio/cy_gpio.h **** 
 592:Generated_Source\PSoC6\pdl\drivers/peripheral/gpio/cy_gpio.h **** __STATIC_INLINE uint32_t Cy_GPIO_GetInterruptStatus(GPIO_PRT_Type* base, uint32_t pinNum);
 593:Generated_Source\PSoC6\pdl\drivers/peripheral/gpio/cy_gpio.h **** __STATIC_INLINE void Cy_GPIO_ClearInterrupt(GPIO_PRT_Type* base, uint32_t pinNum);
 594:Generated_Source\PSoC6\pdl\drivers/peripheral/gpio/cy_gpio.h **** __STATIC_INLINE void Cy_GPIO_SetInterruptMask(GPIO_PRT_Type* base, uint32_t pinNum, uint32_t value)
 595:Generated_Source\PSoC6\pdl\drivers/peripheral/gpio/cy_gpio.h **** __STATIC_INLINE uint32_t Cy_GPIO_GetInterruptMask(GPIO_PRT_Type* base, uint32_t pinNum);
 596:Generated_Source\PSoC6\pdl\drivers/peripheral/gpio/cy_gpio.h **** __STATIC_INLINE uint32_t Cy_GPIO_GetInterruptStatusMasked(GPIO_PRT_Type* base, uint32_t pinNum);
 597:Generated_Source\PSoC6\pdl\drivers/peripheral/gpio/cy_gpio.h **** __STATIC_INLINE void Cy_GPIO_SetSwInterrupt(GPIO_PRT_Type* base, uint32_t pinNum);
 598:Generated_Source\PSoC6\pdl\drivers/peripheral/gpio/cy_gpio.h **** __STATIC_INLINE void Cy_GPIO_SetInterruptEdge(GPIO_PRT_Type* base, uint32_t pinNum, uint32_t value)
 599:Generated_Source\PSoC6\pdl\drivers/peripheral/gpio/cy_gpio.h **** __STATIC_INLINE uint32_t Cy_GPIO_GetInterruptEdge(GPIO_PRT_Type* base, uint32_t pinNum);
 600:Generated_Source\PSoC6\pdl\drivers/peripheral/gpio/cy_gpio.h **** __STATIC_INLINE void Cy_GPIO_SetFilter(GPIO_PRT_Type* base, uint32_t value);
 601:Generated_Source\PSoC6\pdl\drivers/peripheral/gpio/cy_gpio.h **** __STATIC_INLINE uint32_t Cy_GPIO_GetFilter(GPIO_PRT_Type* base);
 602:Generated_Source\PSoC6\pdl\drivers/peripheral/gpio/cy_gpio.h **** 
 603:Generated_Source\PSoC6\pdl\drivers/peripheral/gpio/cy_gpio.h **** __STATIC_INLINE uint32_t Cy_GPIO_GetInterruptCause0(void);
 604:Generated_Source\PSoC6\pdl\drivers/peripheral/gpio/cy_gpio.h **** __STATIC_INLINE uint32_t Cy_GPIO_GetInterruptCause1(void);
 605:Generated_Source\PSoC6\pdl\drivers/peripheral/gpio/cy_gpio.h **** __STATIC_INLINE uint32_t Cy_GPIO_GetInterruptCause2(void);
ARM GAS  C:\Users\dmula\AppData\Local\Temp\ccXnnfAd.s 			page 13


 606:Generated_Source\PSoC6\pdl\drivers/peripheral/gpio/cy_gpio.h **** __STATIC_INLINE uint32_t Cy_GPIO_GetInterruptCause3(void);
 607:Generated_Source\PSoC6\pdl\drivers/peripheral/gpio/cy_gpio.h **** 
 608:Generated_Source\PSoC6\pdl\drivers/peripheral/gpio/cy_gpio.h **** /** \} group_gpio_functions_interrupt */
 609:Generated_Source\PSoC6\pdl\drivers/peripheral/gpio/cy_gpio.h **** 
 610:Generated_Source\PSoC6\pdl\drivers/peripheral/gpio/cy_gpio.h **** 
 611:Generated_Source\PSoC6\pdl\drivers/peripheral/gpio/cy_gpio.h **** /**
 612:Generated_Source\PSoC6\pdl\drivers/peripheral/gpio/cy_gpio.h **** * \addtogroup group_gpio_functions_init
 613:Generated_Source\PSoC6\pdl\drivers/peripheral/gpio/cy_gpio.h **** * \{
 614:Generated_Source\PSoC6\pdl\drivers/peripheral/gpio/cy_gpio.h **** */
 615:Generated_Source\PSoC6\pdl\drivers/peripheral/gpio/cy_gpio.h **** 
 616:Generated_Source\PSoC6\pdl\drivers/peripheral/gpio/cy_gpio.h **** /*******************************************************************************
 617:Generated_Source\PSoC6\pdl\drivers/peripheral/gpio/cy_gpio.h **** * Function Name: Cy_GPIO_SetHSIOM
 618:Generated_Source\PSoC6\pdl\drivers/peripheral/gpio/cy_gpio.h **** ****************************************************************************//**
 619:Generated_Source\PSoC6\pdl\drivers/peripheral/gpio/cy_gpio.h **** *
 620:Generated_Source\PSoC6\pdl\drivers/peripheral/gpio/cy_gpio.h **** * Configures the HSIOM connection to the pin.
 621:Generated_Source\PSoC6\pdl\drivers/peripheral/gpio/cy_gpio.h **** *
 622:Generated_Source\PSoC6\pdl\drivers/peripheral/gpio/cy_gpio.h **** * Connects the specified High-Speed Input Output Multiplexer (HSIOM) selection
 623:Generated_Source\PSoC6\pdl\drivers/peripheral/gpio/cy_gpio.h **** * to the pin.
 624:Generated_Source\PSoC6\pdl\drivers/peripheral/gpio/cy_gpio.h **** *
 625:Generated_Source\PSoC6\pdl\drivers/peripheral/gpio/cy_gpio.h **** * \param base
 626:Generated_Source\PSoC6\pdl\drivers/peripheral/gpio/cy_gpio.h **** * Pointer to the pin's port register base address
 627:Generated_Source\PSoC6\pdl\drivers/peripheral/gpio/cy_gpio.h **** *
 628:Generated_Source\PSoC6\pdl\drivers/peripheral/gpio/cy_gpio.h **** * \param pinNum
 629:Generated_Source\PSoC6\pdl\drivers/peripheral/gpio/cy_gpio.h **** * Position of the pin bit-field within the port register
 630:Generated_Source\PSoC6\pdl\drivers/peripheral/gpio/cy_gpio.h **** *
 631:Generated_Source\PSoC6\pdl\drivers/peripheral/gpio/cy_gpio.h **** * \param value
 632:Generated_Source\PSoC6\pdl\drivers/peripheral/gpio/cy_gpio.h **** * HSIOM input selection
 633:Generated_Source\PSoC6\pdl\drivers/peripheral/gpio/cy_gpio.h **** *
 634:Generated_Source\PSoC6\pdl\drivers/peripheral/gpio/cy_gpio.h **** * \note 
 635:Generated_Source\PSoC6\pdl\drivers/peripheral/gpio/cy_gpio.h **** * This function modifies a port register in a read-modify-write operation. It is
 636:Generated_Source\PSoC6\pdl\drivers/peripheral/gpio/cy_gpio.h **** * not thread safe as the resource is shared among multiple pins on a port.
 637:Generated_Source\PSoC6\pdl\drivers/peripheral/gpio/cy_gpio.h **** *
 638:Generated_Source\PSoC6\pdl\drivers/peripheral/gpio/cy_gpio.h **** * \funcusage
 639:Generated_Source\PSoC6\pdl\drivers/peripheral/gpio/cy_gpio.h **** * \snippet gpio/gpio_v1_10_sut_01.cydsn/main_cm4.c snippet_Cy_GPIO_SetHSIOM
 640:Generated_Source\PSoC6\pdl\drivers/peripheral/gpio/cy_gpio.h **** *
 641:Generated_Source\PSoC6\pdl\drivers/peripheral/gpio/cy_gpio.h **** *******************************************************************************/
 642:Generated_Source\PSoC6\pdl\drivers/peripheral/gpio/cy_gpio.h **** __STATIC_INLINE void Cy_GPIO_SetHSIOM(GPIO_PRT_Type* base, uint32_t pinNum, en_hsiom_sel_t value)
 643:Generated_Source\PSoC6\pdl\drivers/peripheral/gpio/cy_gpio.h **** {
 644:Generated_Source\PSoC6\pdl\drivers/peripheral/gpio/cy_gpio.h ****     uint32_t portNum;
 645:Generated_Source\PSoC6\pdl\drivers/peripheral/gpio/cy_gpio.h ****     uint32_t tempReg;
 646:Generated_Source\PSoC6\pdl\drivers/peripheral/gpio/cy_gpio.h ****     HSIOM_PRT_V1_Type* portAddrHSIOM;
 647:Generated_Source\PSoC6\pdl\drivers/peripheral/gpio/cy_gpio.h **** 
 648:Generated_Source\PSoC6\pdl\drivers/peripheral/gpio/cy_gpio.h ****     CY_ASSERT_L2(CY_GPIO_IS_PIN_VALID(pinNum));
 649:Generated_Source\PSoC6\pdl\drivers/peripheral/gpio/cy_gpio.h ****     CY_ASSERT_L2(CY_GPIO_IS_HSIOM_VALID(value));
 650:Generated_Source\PSoC6\pdl\drivers/peripheral/gpio/cy_gpio.h **** 
 651:Generated_Source\PSoC6\pdl\drivers/peripheral/gpio/cy_gpio.h ****     portNum = ((uint32_t)(base) - CY_GPIO_BASE) / GPIO_PRT_SECTION_SIZE;
 652:Generated_Source\PSoC6\pdl\drivers/peripheral/gpio/cy_gpio.h ****     portAddrHSIOM = (HSIOM_PRT_V1_Type*)(CY_HSIOM_BASE + (HSIOM_PRT_SECTION_SIZE * portNum));
 653:Generated_Source\PSoC6\pdl\drivers/peripheral/gpio/cy_gpio.h **** 
 654:Generated_Source\PSoC6\pdl\drivers/peripheral/gpio/cy_gpio.h ****     if(pinNum < CY_GPIO_PRT_HALF)
 655:Generated_Source\PSoC6\pdl\drivers/peripheral/gpio/cy_gpio.h ****     {
 656:Generated_Source\PSoC6\pdl\drivers/peripheral/gpio/cy_gpio.h ****         tempReg = HSIOM_PRT_PORT_SEL0(portAddrHSIOM) & ~(CY_GPIO_HSIOM_MASK << (pinNum << CY_GPIO_H
 657:Generated_Source\PSoC6\pdl\drivers/peripheral/gpio/cy_gpio.h ****         HSIOM_PRT_PORT_SEL0(portAddrHSIOM) = tempReg | ((value & CY_GPIO_HSIOM_MASK) << (pinNum << 
 658:Generated_Source\PSoC6\pdl\drivers/peripheral/gpio/cy_gpio.h ****     }
 659:Generated_Source\PSoC6\pdl\drivers/peripheral/gpio/cy_gpio.h ****     else
 660:Generated_Source\PSoC6\pdl\drivers/peripheral/gpio/cy_gpio.h ****     {
 661:Generated_Source\PSoC6\pdl\drivers/peripheral/gpio/cy_gpio.h ****         pinNum -= CY_GPIO_PRT_HALF;
 662:Generated_Source\PSoC6\pdl\drivers/peripheral/gpio/cy_gpio.h ****         tempReg = HSIOM_PRT_PORT_SEL1(portAddrHSIOM) & ~(CY_GPIO_HSIOM_MASK << (pinNum << CY_GPIO_H
ARM GAS  C:\Users\dmula\AppData\Local\Temp\ccXnnfAd.s 			page 14


 663:Generated_Source\PSoC6\pdl\drivers/peripheral/gpio/cy_gpio.h ****         HSIOM_PRT_PORT_SEL1(portAddrHSIOM) = tempReg | ((value & CY_GPIO_HSIOM_MASK) << (pinNum << 
 664:Generated_Source\PSoC6\pdl\drivers/peripheral/gpio/cy_gpio.h ****     }
 665:Generated_Source\PSoC6\pdl\drivers/peripheral/gpio/cy_gpio.h **** }
 666:Generated_Source\PSoC6\pdl\drivers/peripheral/gpio/cy_gpio.h **** 
 667:Generated_Source\PSoC6\pdl\drivers/peripheral/gpio/cy_gpio.h **** 
 668:Generated_Source\PSoC6\pdl\drivers/peripheral/gpio/cy_gpio.h **** /*******************************************************************************
 669:Generated_Source\PSoC6\pdl\drivers/peripheral/gpio/cy_gpio.h **** * Function Name: Cy_GPIO_GetHSIOM
 670:Generated_Source\PSoC6\pdl\drivers/peripheral/gpio/cy_gpio.h **** ****************************************************************************//**
 671:Generated_Source\PSoC6\pdl\drivers/peripheral/gpio/cy_gpio.h **** *
 672:Generated_Source\PSoC6\pdl\drivers/peripheral/gpio/cy_gpio.h **** * Returns the current HSIOM multiplexer connection to the pin.
 673:Generated_Source\PSoC6\pdl\drivers/peripheral/gpio/cy_gpio.h **** *
 674:Generated_Source\PSoC6\pdl\drivers/peripheral/gpio/cy_gpio.h **** * \param base
 675:Generated_Source\PSoC6\pdl\drivers/peripheral/gpio/cy_gpio.h **** * Pointer to the pin's port register base address
 676:Generated_Source\PSoC6\pdl\drivers/peripheral/gpio/cy_gpio.h **** *
 677:Generated_Source\PSoC6\pdl\drivers/peripheral/gpio/cy_gpio.h **** * \param pinNum
 678:Generated_Source\PSoC6\pdl\drivers/peripheral/gpio/cy_gpio.h **** * Position of the pin bit-field within the port register
 679:Generated_Source\PSoC6\pdl\drivers/peripheral/gpio/cy_gpio.h **** *
 680:Generated_Source\PSoC6\pdl\drivers/peripheral/gpio/cy_gpio.h **** * \return
 681:Generated_Source\PSoC6\pdl\drivers/peripheral/gpio/cy_gpio.h **** * HSIOM input selection
 682:Generated_Source\PSoC6\pdl\drivers/peripheral/gpio/cy_gpio.h **** *
 683:Generated_Source\PSoC6\pdl\drivers/peripheral/gpio/cy_gpio.h **** * \funcusage
 684:Generated_Source\PSoC6\pdl\drivers/peripheral/gpio/cy_gpio.h **** * \snippet gpio/gpio_v1_10_sut_01.cydsn/main_cm4.c snippet_Cy_GPIO_SetHSIOM
 685:Generated_Source\PSoC6\pdl\drivers/peripheral/gpio/cy_gpio.h **** *
 686:Generated_Source\PSoC6\pdl\drivers/peripheral/gpio/cy_gpio.h **** *******************************************************************************/
 687:Generated_Source\PSoC6\pdl\drivers/peripheral/gpio/cy_gpio.h **** __STATIC_INLINE en_hsiom_sel_t Cy_GPIO_GetHSIOM(GPIO_PRT_Type* base, uint32_t pinNum)
 688:Generated_Source\PSoC6\pdl\drivers/peripheral/gpio/cy_gpio.h **** {
 689:Generated_Source\PSoC6\pdl\drivers/peripheral/gpio/cy_gpio.h ****     uint32_t returnValue;
 690:Generated_Source\PSoC6\pdl\drivers/peripheral/gpio/cy_gpio.h ****     uint32_t portNum;
 691:Generated_Source\PSoC6\pdl\drivers/peripheral/gpio/cy_gpio.h ****     HSIOM_PRT_V1_Type* portAddrHSIOM;
 692:Generated_Source\PSoC6\pdl\drivers/peripheral/gpio/cy_gpio.h ****     
 693:Generated_Source\PSoC6\pdl\drivers/peripheral/gpio/cy_gpio.h ****     CY_ASSERT_L2(CY_GPIO_IS_PIN_VALID(pinNum));
 694:Generated_Source\PSoC6\pdl\drivers/peripheral/gpio/cy_gpio.h **** 
 695:Generated_Source\PSoC6\pdl\drivers/peripheral/gpio/cy_gpio.h ****     portNum = ((uint32_t)(base) - CY_GPIO_BASE) / GPIO_PRT_SECTION_SIZE;
 696:Generated_Source\PSoC6\pdl\drivers/peripheral/gpio/cy_gpio.h ****     portAddrHSIOM = (HSIOM_PRT_V1_Type*)(CY_HSIOM_BASE + (HSIOM_PRT_SECTION_SIZE * portNum));
 697:Generated_Source\PSoC6\pdl\drivers/peripheral/gpio/cy_gpio.h **** 
 698:Generated_Source\PSoC6\pdl\drivers/peripheral/gpio/cy_gpio.h ****     if(pinNum < CY_GPIO_PRT_HALF)
 699:Generated_Source\PSoC6\pdl\drivers/peripheral/gpio/cy_gpio.h ****     {
 700:Generated_Source\PSoC6\pdl\drivers/peripheral/gpio/cy_gpio.h ****         returnValue = (HSIOM_PRT_PORT_SEL0(portAddrHSIOM) >> (pinNum << CY_GPIO_HSIOM_OFFSET)) & CY
 701:Generated_Source\PSoC6\pdl\drivers/peripheral/gpio/cy_gpio.h ****     }
 702:Generated_Source\PSoC6\pdl\drivers/peripheral/gpio/cy_gpio.h ****     else
 703:Generated_Source\PSoC6\pdl\drivers/peripheral/gpio/cy_gpio.h ****     {
 704:Generated_Source\PSoC6\pdl\drivers/peripheral/gpio/cy_gpio.h ****         pinNum -= CY_GPIO_PRT_HALF;
 705:Generated_Source\PSoC6\pdl\drivers/peripheral/gpio/cy_gpio.h ****         returnValue = (HSIOM_PRT_PORT_SEL1(portAddrHSIOM) >> (pinNum << CY_GPIO_HSIOM_OFFSET)) & CY
 706:Generated_Source\PSoC6\pdl\drivers/peripheral/gpio/cy_gpio.h ****     }
 707:Generated_Source\PSoC6\pdl\drivers/peripheral/gpio/cy_gpio.h **** 
 708:Generated_Source\PSoC6\pdl\drivers/peripheral/gpio/cy_gpio.h ****     return (en_hsiom_sel_t)returnValue;
 709:Generated_Source\PSoC6\pdl\drivers/peripheral/gpio/cy_gpio.h **** }
 710:Generated_Source\PSoC6\pdl\drivers/peripheral/gpio/cy_gpio.h **** 
 711:Generated_Source\PSoC6\pdl\drivers/peripheral/gpio/cy_gpio.h **** 
 712:Generated_Source\PSoC6\pdl\drivers/peripheral/gpio/cy_gpio.h **** /*******************************************************************************
 713:Generated_Source\PSoC6\pdl\drivers/peripheral/gpio/cy_gpio.h **** * Function Name: Cy_GPIO_PortToAddr
 714:Generated_Source\PSoC6\pdl\drivers/peripheral/gpio/cy_gpio.h **** ****************************************************************************//**
 715:Generated_Source\PSoC6\pdl\drivers/peripheral/gpio/cy_gpio.h **** *
 716:Generated_Source\PSoC6\pdl\drivers/peripheral/gpio/cy_gpio.h **** * Retrieves the port address based on the given port number.
 717:Generated_Source\PSoC6\pdl\drivers/peripheral/gpio/cy_gpio.h **** *
 718:Generated_Source\PSoC6\pdl\drivers/peripheral/gpio/cy_gpio.h **** * This is a helper function to calculate the port base address when given a port
 719:Generated_Source\PSoC6\pdl\drivers/peripheral/gpio/cy_gpio.h **** * number. It is to be used when pin access needs to be calculated at runtime.
ARM GAS  C:\Users\dmula\AppData\Local\Temp\ccXnnfAd.s 			page 15


 720:Generated_Source\PSoC6\pdl\drivers/peripheral/gpio/cy_gpio.h **** *
 721:Generated_Source\PSoC6\pdl\drivers/peripheral/gpio/cy_gpio.h **** * \param portNum
 722:Generated_Source\PSoC6\pdl\drivers/peripheral/gpio/cy_gpio.h **** * Port number
 723:Generated_Source\PSoC6\pdl\drivers/peripheral/gpio/cy_gpio.h **** *
 724:Generated_Source\PSoC6\pdl\drivers/peripheral/gpio/cy_gpio.h **** * \return
 725:Generated_Source\PSoC6\pdl\drivers/peripheral/gpio/cy_gpio.h **** * Base address of the port register structure
 726:Generated_Source\PSoC6\pdl\drivers/peripheral/gpio/cy_gpio.h **** *
 727:Generated_Source\PSoC6\pdl\drivers/peripheral/gpio/cy_gpio.h **** * \funcusage
 728:Generated_Source\PSoC6\pdl\drivers/peripheral/gpio/cy_gpio.h **** * \snippet gpio/gpio_v1_10_sut_01.cydsn/main_cm4.c snippet_Cy_GPIO_PortToAddr
 729:Generated_Source\PSoC6\pdl\drivers/peripheral/gpio/cy_gpio.h **** *
 730:Generated_Source\PSoC6\pdl\drivers/peripheral/gpio/cy_gpio.h **** *******************************************************************************/
 731:Generated_Source\PSoC6\pdl\drivers/peripheral/gpio/cy_gpio.h **** __STATIC_INLINE GPIO_PRT_Type* Cy_GPIO_PortToAddr(uint32_t portNum)
 732:Generated_Source\PSoC6\pdl\drivers/peripheral/gpio/cy_gpio.h **** {
 733:Generated_Source\PSoC6\pdl\drivers/peripheral/gpio/cy_gpio.h ****     GPIO_PRT_Type* portBase;
 734:Generated_Source\PSoC6\pdl\drivers/peripheral/gpio/cy_gpio.h ****     
 735:Generated_Source\PSoC6\pdl\drivers/peripheral/gpio/cy_gpio.h ****     if(portNum < (uint32_t)IOSS_GPIO_GPIO_PORT_NR)
 736:Generated_Source\PSoC6\pdl\drivers/peripheral/gpio/cy_gpio.h ****     {
 737:Generated_Source\PSoC6\pdl\drivers/peripheral/gpio/cy_gpio.h ****         portBase = (GPIO_PRT_Type *)(CY_GPIO_BASE + (GPIO_PRT_SECTION_SIZE * portNum));
 738:Generated_Source\PSoC6\pdl\drivers/peripheral/gpio/cy_gpio.h ****     }
 739:Generated_Source\PSoC6\pdl\drivers/peripheral/gpio/cy_gpio.h ****     else
 740:Generated_Source\PSoC6\pdl\drivers/peripheral/gpio/cy_gpio.h ****     {
 741:Generated_Source\PSoC6\pdl\drivers/peripheral/gpio/cy_gpio.h ****         /* Error: Return default base address */
 742:Generated_Source\PSoC6\pdl\drivers/peripheral/gpio/cy_gpio.h ****         portBase = (GPIO_PRT_Type *)(CY_GPIO_BASE);
 743:Generated_Source\PSoC6\pdl\drivers/peripheral/gpio/cy_gpio.h ****     }
 744:Generated_Source\PSoC6\pdl\drivers/peripheral/gpio/cy_gpio.h **** 
 745:Generated_Source\PSoC6\pdl\drivers/peripheral/gpio/cy_gpio.h ****     return (portBase);
 746:Generated_Source\PSoC6\pdl\drivers/peripheral/gpio/cy_gpio.h **** }
 747:Generated_Source\PSoC6\pdl\drivers/peripheral/gpio/cy_gpio.h **** 
 748:Generated_Source\PSoC6\pdl\drivers/peripheral/gpio/cy_gpio.h **** /** \} group_gpio_functions_init */
 749:Generated_Source\PSoC6\pdl\drivers/peripheral/gpio/cy_gpio.h **** 
 750:Generated_Source\PSoC6\pdl\drivers/peripheral/gpio/cy_gpio.h **** /**
 751:Generated_Source\PSoC6\pdl\drivers/peripheral/gpio/cy_gpio.h **** * \addtogroup group_gpio_functions_gpio
 752:Generated_Source\PSoC6\pdl\drivers/peripheral/gpio/cy_gpio.h **** * \{
 753:Generated_Source\PSoC6\pdl\drivers/peripheral/gpio/cy_gpio.h **** */
 754:Generated_Source\PSoC6\pdl\drivers/peripheral/gpio/cy_gpio.h **** 
 755:Generated_Source\PSoC6\pdl\drivers/peripheral/gpio/cy_gpio.h **** /*******************************************************************************
 756:Generated_Source\PSoC6\pdl\drivers/peripheral/gpio/cy_gpio.h **** * Function Name: Cy_GPIO_Read
 757:Generated_Source\PSoC6\pdl\drivers/peripheral/gpio/cy_gpio.h **** ****************************************************************************//**
 758:Generated_Source\PSoC6\pdl\drivers/peripheral/gpio/cy_gpio.h **** *
 759:Generated_Source\PSoC6\pdl\drivers/peripheral/gpio/cy_gpio.h **** * Reads the current logic level on the input buffer of the pin.
 760:Generated_Source\PSoC6\pdl\drivers/peripheral/gpio/cy_gpio.h **** *
 761:Generated_Source\PSoC6\pdl\drivers/peripheral/gpio/cy_gpio.h **** * \param base
 762:Generated_Source\PSoC6\pdl\drivers/peripheral/gpio/cy_gpio.h **** * Pointer to the pin's port register base address
 763:Generated_Source\PSoC6\pdl\drivers/peripheral/gpio/cy_gpio.h **** *
 764:Generated_Source\PSoC6\pdl\drivers/peripheral/gpio/cy_gpio.h **** * \param pinNum
 765:Generated_Source\PSoC6\pdl\drivers/peripheral/gpio/cy_gpio.h **** * Position of the pin bit-field within the port register.
 766:Generated_Source\PSoC6\pdl\drivers/peripheral/gpio/cy_gpio.h **** * Bit position 8 is the routed pin through the port glitch filter.
 767:Generated_Source\PSoC6\pdl\drivers/peripheral/gpio/cy_gpio.h **** *
 768:Generated_Source\PSoC6\pdl\drivers/peripheral/gpio/cy_gpio.h **** * \return
 769:Generated_Source\PSoC6\pdl\drivers/peripheral/gpio/cy_gpio.h **** * Logic level present on the pin
 770:Generated_Source\PSoC6\pdl\drivers/peripheral/gpio/cy_gpio.h **** *
 771:Generated_Source\PSoC6\pdl\drivers/peripheral/gpio/cy_gpio.h **** * \funcusage
 772:Generated_Source\PSoC6\pdl\drivers/peripheral/gpio/cy_gpio.h **** * \snippet gpio/gpio_v1_10_sut_01.cydsn/main_cm4.c snippet_Cy_GPIO_Read
 773:Generated_Source\PSoC6\pdl\drivers/peripheral/gpio/cy_gpio.h **** *
 774:Generated_Source\PSoC6\pdl\drivers/peripheral/gpio/cy_gpio.h **** *******************************************************************************/
 775:Generated_Source\PSoC6\pdl\drivers/peripheral/gpio/cy_gpio.h **** __STATIC_INLINE uint32_t Cy_GPIO_Read(GPIO_PRT_Type* base, uint32_t pinNum)
 776:Generated_Source\PSoC6\pdl\drivers/peripheral/gpio/cy_gpio.h **** {
ARM GAS  C:\Users\dmula\AppData\Local\Temp\ccXnnfAd.s 			page 16


 777:Generated_Source\PSoC6\pdl\drivers/peripheral/gpio/cy_gpio.h ****     CY_ASSERT_L2(CY_GPIO_IS_FILTER_PIN_VALID(pinNum));
 778:Generated_Source\PSoC6\pdl\drivers/peripheral/gpio/cy_gpio.h ****     
 779:Generated_Source\PSoC6\pdl\drivers/peripheral/gpio/cy_gpio.h ****     return (GPIO_PRT_IN(base) >> (pinNum)) & CY_GPIO_IN_MASK;
 780:Generated_Source\PSoC6\pdl\drivers/peripheral/gpio/cy_gpio.h **** }
 781:Generated_Source\PSoC6\pdl\drivers/peripheral/gpio/cy_gpio.h **** 
 782:Generated_Source\PSoC6\pdl\drivers/peripheral/gpio/cy_gpio.h **** 
 783:Generated_Source\PSoC6\pdl\drivers/peripheral/gpio/cy_gpio.h **** /*******************************************************************************
 784:Generated_Source\PSoC6\pdl\drivers/peripheral/gpio/cy_gpio.h **** * Function Name: Cy_GPIO_Write
 785:Generated_Source\PSoC6\pdl\drivers/peripheral/gpio/cy_gpio.h **** ****************************************************************************//**
 786:Generated_Source\PSoC6\pdl\drivers/peripheral/gpio/cy_gpio.h **** *
 787:Generated_Source\PSoC6\pdl\drivers/peripheral/gpio/cy_gpio.h **** * Write a logic 0 or logic 1 state to the output driver.
 788:Generated_Source\PSoC6\pdl\drivers/peripheral/gpio/cy_gpio.h **** *
 789:Generated_Source\PSoC6\pdl\drivers/peripheral/gpio/cy_gpio.h **** * This function should be used only for software driven pins. It does not have
 790:Generated_Source\PSoC6\pdl\drivers/peripheral/gpio/cy_gpio.h **** * any effect on peripheral driven pins.
 791:Generated_Source\PSoC6\pdl\drivers/peripheral/gpio/cy_gpio.h **** *
 792:Generated_Source\PSoC6\pdl\drivers/peripheral/gpio/cy_gpio.h **** * \param base
 793:Generated_Source\PSoC6\pdl\drivers/peripheral/gpio/cy_gpio.h **** * Pointer to the pin's port register base address
 794:Generated_Source\PSoC6\pdl\drivers/peripheral/gpio/cy_gpio.h **** *
 795:Generated_Source\PSoC6\pdl\drivers/peripheral/gpio/cy_gpio.h **** * \param pinNum
 796:Generated_Source\PSoC6\pdl\drivers/peripheral/gpio/cy_gpio.h **** * Position of the pin bit-field within the port register
 797:Generated_Source\PSoC6\pdl\drivers/peripheral/gpio/cy_gpio.h **** *
 798:Generated_Source\PSoC6\pdl\drivers/peripheral/gpio/cy_gpio.h **** * \param value
 799:Generated_Source\PSoC6\pdl\drivers/peripheral/gpio/cy_gpio.h **** * Logic level to drive out on the pin
 800:Generated_Source\PSoC6\pdl\drivers/peripheral/gpio/cy_gpio.h **** *
 801:Generated_Source\PSoC6\pdl\drivers/peripheral/gpio/cy_gpio.h **** * \funcusage
 802:Generated_Source\PSoC6\pdl\drivers/peripheral/gpio/cy_gpio.h **** * \snippet gpio/gpio_v1_10_sut_01.cydsn/main_cm4.c snippet_Cy_GPIO_Write
 803:Generated_Source\PSoC6\pdl\drivers/peripheral/gpio/cy_gpio.h **** *
 804:Generated_Source\PSoC6\pdl\drivers/peripheral/gpio/cy_gpio.h **** *******************************************************************************/
 805:Generated_Source\PSoC6\pdl\drivers/peripheral/gpio/cy_gpio.h **** __STATIC_INLINE void Cy_GPIO_Write(GPIO_PRT_Type* base, uint32_t pinNum, uint32_t value)
 806:Generated_Source\PSoC6\pdl\drivers/peripheral/gpio/cy_gpio.h **** {
 807:Generated_Source\PSoC6\pdl\drivers/peripheral/gpio/cy_gpio.h ****     CY_ASSERT_L2(CY_GPIO_IS_PIN_VALID(pinNum));
 808:Generated_Source\PSoC6\pdl\drivers/peripheral/gpio/cy_gpio.h ****     CY_ASSERT_L2(CY_GPIO_IS_VALUE_VALID(value));
 809:Generated_Source\PSoC6\pdl\drivers/peripheral/gpio/cy_gpio.h **** 
 810:Generated_Source\PSoC6\pdl\drivers/peripheral/gpio/cy_gpio.h ****     /* Thread-safe: Directly access the pin registers instead of base->OUT */
 811:Generated_Source\PSoC6\pdl\drivers/peripheral/gpio/cy_gpio.h ****     if(0UL == value)
 812:Generated_Source\PSoC6\pdl\drivers/peripheral/gpio/cy_gpio.h ****     {
 813:Generated_Source\PSoC6\pdl\drivers/peripheral/gpio/cy_gpio.h ****         GPIO_PRT_OUT_CLR(base) = CY_GPIO_OUT_MASK << pinNum;
  62              		.loc 2 813 0
  63 001a 504B     		ldr	r3, .L20
  64 001c 0122     		movs	r2, #1
  65 001e 5A60     		str	r2, [r3, #4]
  66              	.LVL2:
  67              	.LBE283:
  68              	.LBE282:
  69              	.LBB284:
  70              	.LBB285:
  71 0020 0222     		movs	r2, #2
  72 0022 5A60     		str	r2, [r3, #4]
  73              	.LVL3:
  74              	.LBE285:
  75              	.LBE284:
  76              	.LBB286:
  77              	.LBB287:
  78 0024 0422     		movs	r2, #4
  79 0026 5A60     		str	r2, [r3, #4]
  80              	.LVL4:
  81              	.LBE287:
ARM GAS  C:\Users\dmula\AppData\Local\Temp\ccXnnfAd.s 			page 17


  82              	.LBE286:
  83              	.LBB288:
  84              	.LBB289:
  85 0028 0822     		movs	r2, #8
  86 002a 5A60     		str	r2, [r3, #4]
  87 002c 7047     		bx	lr
  88              	.LVL5:
  89              	.L5:
  90              	.LBE289:
  91              	.LBE288:
  92              	.LBB290:
  93              	.LBB291:
 814:Generated_Source\PSoC6\pdl\drivers/peripheral/gpio/cy_gpio.h ****     }
 815:Generated_Source\PSoC6\pdl\drivers/peripheral/gpio/cy_gpio.h ****     else
 816:Generated_Source\PSoC6\pdl\drivers/peripheral/gpio/cy_gpio.h ****     {
 817:Generated_Source\PSoC6\pdl\drivers/peripheral/gpio/cy_gpio.h ****         GPIO_PRT_OUT_SET(base) = CY_GPIO_OUT_MASK << pinNum;
  94              		.loc 2 817 0
  95 002e 4B4B     		ldr	r3, .L20
  96 0030 0122     		movs	r2, #1
  97 0032 9A60     		str	r2, [r3, #8]
  98              	.LVL6:
  99              	.LBE291:
 100              	.LBE290:
 101              	.LBB292:
 102              	.LBB293:
 813:Generated_Source\PSoC6\pdl\drivers/peripheral/gpio/cy_gpio.h ****     }
 103              		.loc 2 813 0
 104 0034 0222     		movs	r2, #2
 105 0036 5A60     		str	r2, [r3, #4]
 106              	.LVL7:
 107              	.LBE293:
 108              	.LBE292:
 109              	.LBB294:
 110              	.LBB295:
 111 0038 0422     		movs	r2, #4
 112 003a 5A60     		str	r2, [r3, #4]
 113              	.LVL8:
 114              	.LBE295:
 115              	.LBE294:
 116              	.LBB296:
 117              	.LBB297:
 118 003c 0822     		movs	r2, #8
 119 003e 5A60     		str	r2, [r3, #4]
 120 0040 7047     		bx	lr
 121              	.LVL9:
 122              	.L6:
 123              	.LBE297:
 124              	.LBE296:
 125              	.LBB298:
 126              	.LBB299:
 127 0042 464B     		ldr	r3, .L20
 128 0044 0122     		movs	r2, #1
 129 0046 5A60     		str	r2, [r3, #4]
 130              	.LVL10:
 131              	.LBE299:
 132              	.LBE298:
 133              	.LBB300:
ARM GAS  C:\Users\dmula\AppData\Local\Temp\ccXnnfAd.s 			page 18


 134              	.LBB301:
 135              		.loc 2 817 0
 136 0048 0222     		movs	r2, #2
 137 004a 9A60     		str	r2, [r3, #8]
 138              	.LVL11:
 139              	.LBE301:
 140              	.LBE300:
 141              	.LBB302:
 142              	.LBB303:
 813:Generated_Source\PSoC6\pdl\drivers/peripheral/gpio/cy_gpio.h ****     }
 143              		.loc 2 813 0
 144 004c 0422     		movs	r2, #4
 145 004e 5A60     		str	r2, [r3, #4]
 146              	.LVL12:
 147              	.LBE303:
 148              	.LBE302:
 149              	.LBB304:
 150              	.LBB305:
 151 0050 0822     		movs	r2, #8
 152 0052 5A60     		str	r2, [r3, #4]
 153 0054 7047     		bx	lr
 154              	.LVL13:
 155              	.L7:
 156              	.LBE305:
 157              	.LBE304:
 158              	.LBB306:
 159              	.LBB307:
 160              		.loc 2 817 0
 161 0056 414B     		ldr	r3, .L20
 162 0058 0122     		movs	r2, #1
 163 005a 9A60     		str	r2, [r3, #8]
 164              	.LVL14:
 165              	.LBE307:
 166              	.LBE306:
 167              	.LBB308:
 168              	.LBB309:
 169 005c 0222     		movs	r2, #2
 170 005e 9A60     		str	r2, [r3, #8]
 171              	.LVL15:
 172              	.LBE309:
 173              	.LBE308:
 174              	.LBB310:
 175              	.LBB311:
 813:Generated_Source\PSoC6\pdl\drivers/peripheral/gpio/cy_gpio.h ****     }
 176              		.loc 2 813 0
 177 0060 0422     		movs	r2, #4
 178 0062 5A60     		str	r2, [r3, #4]
 179              	.LVL16:
 180              	.LBE311:
 181              	.LBE310:
 182              	.LBB312:
 183              	.LBB313:
 184 0064 0822     		movs	r2, #8
 185 0066 5A60     		str	r2, [r3, #4]
 186 0068 7047     		bx	lr
 187              	.LVL17:
 188              	.L8:
ARM GAS  C:\Users\dmula\AppData\Local\Temp\ccXnnfAd.s 			page 19


 189              	.LBE313:
 190              	.LBE312:
 191              	.LBB314:
 192              	.LBB315:
 193 006a 3C4B     		ldr	r3, .L20
 194 006c 0122     		movs	r2, #1
 195 006e 5A60     		str	r2, [r3, #4]
 196              	.LVL18:
 197              	.LBE315:
 198              	.LBE314:
 199              	.LBB316:
 200              	.LBB317:
 201 0070 0222     		movs	r2, #2
 202 0072 5A60     		str	r2, [r3, #4]
 203              	.LVL19:
 204              	.LBE317:
 205              	.LBE316:
 206              	.LBB318:
 207              	.LBB319:
 208              		.loc 2 817 0
 209 0074 0422     		movs	r2, #4
 210 0076 9A60     		str	r2, [r3, #8]
 211              	.LVL20:
 212              	.LBE319:
 213              	.LBE318:
 214              	.LBB320:
 215              	.LBB321:
 813:Generated_Source\PSoC6\pdl\drivers/peripheral/gpio/cy_gpio.h ****     }
 216              		.loc 2 813 0
 217 0078 0822     		movs	r2, #8
 218 007a 5A60     		str	r2, [r3, #4]
 219 007c 7047     		bx	lr
 220              	.LVL21:
 221              	.L9:
 222              	.LBE321:
 223              	.LBE320:
 224              	.LBB322:
 225              	.LBB323:
 226              		.loc 2 817 0
 227 007e 374B     		ldr	r3, .L20
 228 0080 0122     		movs	r2, #1
 229 0082 9A60     		str	r2, [r3, #8]
 230              	.LVL22:
 231              	.LBE323:
 232              	.LBE322:
 233              	.LBB324:
 234              	.LBB325:
 813:Generated_Source\PSoC6\pdl\drivers/peripheral/gpio/cy_gpio.h ****     }
 235              		.loc 2 813 0
 236 0084 0222     		movs	r2, #2
 237 0086 5A60     		str	r2, [r3, #4]
 238              	.LVL23:
 239              	.LBE325:
 240              	.LBE324:
 241              	.LBB326:
 242              	.LBB327:
 243              		.loc 2 817 0
ARM GAS  C:\Users\dmula\AppData\Local\Temp\ccXnnfAd.s 			page 20


 244 0088 0422     		movs	r2, #4
 245 008a 9A60     		str	r2, [r3, #8]
 246              	.LVL24:
 247              	.LBE327:
 248              	.LBE326:
 249              	.LBB328:
 250              	.LBB329:
 813:Generated_Source\PSoC6\pdl\drivers/peripheral/gpio/cy_gpio.h ****     }
 251              		.loc 2 813 0
 252 008c 0822     		movs	r2, #8
 253 008e 5A60     		str	r2, [r3, #4]
 254 0090 7047     		bx	lr
 255              	.LVL25:
 256              	.L10:
 257              	.LBE329:
 258              	.LBE328:
 259              	.LBB330:
 260              	.LBB331:
 261 0092 324B     		ldr	r3, .L20
 262 0094 0122     		movs	r2, #1
 263 0096 5A60     		str	r2, [r3, #4]
 264              	.LVL26:
 265              	.LBE331:
 266              	.LBE330:
 267              	.LBB332:
 268              	.LBB333:
 269              		.loc 2 817 0
 270 0098 0222     		movs	r2, #2
 271 009a 9A60     		str	r2, [r3, #8]
 272              	.LVL27:
 273              	.LBE333:
 274              	.LBE332:
 275              	.LBB334:
 276              	.LBB335:
 277 009c 0422     		movs	r2, #4
 278 009e 9A60     		str	r2, [r3, #8]
 279              	.LVL28:
 280              	.LBE335:
 281              	.LBE334:
 282              	.LBB336:
 283              	.LBB337:
 813:Generated_Source\PSoC6\pdl\drivers/peripheral/gpio/cy_gpio.h ****     }
 284              		.loc 2 813 0
 285 00a0 0822     		movs	r2, #8
 286 00a2 5A60     		str	r2, [r3, #4]
 287 00a4 7047     		bx	lr
 288              	.LVL29:
 289              	.L11:
 290              	.LBE337:
 291              	.LBE336:
 292              	.LBB338:
 293              	.LBB339:
 294              		.loc 2 817 0
 295 00a6 2D4B     		ldr	r3, .L20
 296 00a8 0122     		movs	r2, #1
 297 00aa 9A60     		str	r2, [r3, #8]
 298              	.LVL30:
ARM GAS  C:\Users\dmula\AppData\Local\Temp\ccXnnfAd.s 			page 21


 299              	.LBE339:
 300              	.LBE338:
 301              	.LBB340:
 302              	.LBB341:
 303 00ac 0222     		movs	r2, #2
 304 00ae 9A60     		str	r2, [r3, #8]
 305              	.LVL31:
 306              	.LBE341:
 307              	.LBE340:
 308              	.LBB342:
 309              	.LBB343:
 310 00b0 0422     		movs	r2, #4
 311 00b2 9A60     		str	r2, [r3, #8]
 312              	.LVL32:
 313              	.LBE343:
 314              	.LBE342:
 315              	.LBB344:
 316              	.LBB345:
 813:Generated_Source\PSoC6\pdl\drivers/peripheral/gpio/cy_gpio.h ****     }
 317              		.loc 2 813 0
 318 00b4 0822     		movs	r2, #8
 319 00b6 5A60     		str	r2, [r3, #4]
 320 00b8 7047     		bx	lr
 321              	.LVL33:
 322              	.L12:
 323              	.LBE345:
 324              	.LBE344:
 325              	.LBB346:
 326              	.LBB347:
 327 00ba 284B     		ldr	r3, .L20
 328 00bc 0122     		movs	r2, #1
 329 00be 5A60     		str	r2, [r3, #4]
 330              	.LVL34:
 331              	.LBE347:
 332              	.LBE346:
 333              	.LBB348:
 334              	.LBB349:
 335 00c0 0222     		movs	r2, #2
 336 00c2 5A60     		str	r2, [r3, #4]
 337              	.LVL35:
 338              	.LBE349:
 339              	.LBE348:
 340              	.LBB350:
 341              	.LBB351:
 342 00c4 0422     		movs	r2, #4
 343 00c6 5A60     		str	r2, [r3, #4]
 344              	.LVL36:
 345              	.LBE351:
 346              	.LBE350:
 347              	.LBB352:
 348              	.LBB353:
 349              		.loc 2 817 0
 350 00c8 0822     		movs	r2, #8
 351 00ca 9A60     		str	r2, [r3, #8]
 352 00cc 7047     		bx	lr
 353              	.LVL37:
 354              	.L13:
ARM GAS  C:\Users\dmula\AppData\Local\Temp\ccXnnfAd.s 			page 22


 355              	.LBE353:
 356              	.LBE352:
 357              	.LBB354:
 358              	.LBB355:
 359 00ce 234B     		ldr	r3, .L20
 360 00d0 0122     		movs	r2, #1
 361 00d2 9A60     		str	r2, [r3, #8]
 362              	.LVL38:
 363              	.LBE355:
 364              	.LBE354:
 365              	.LBB356:
 366              	.LBB357:
 813:Generated_Source\PSoC6\pdl\drivers/peripheral/gpio/cy_gpio.h ****     }
 367              		.loc 2 813 0
 368 00d4 0222     		movs	r2, #2
 369 00d6 5A60     		str	r2, [r3, #4]
 370              	.LVL39:
 371              	.LBE357:
 372              	.LBE356:
 373              	.LBB358:
 374              	.LBB359:
 375 00d8 0422     		movs	r2, #4
 376 00da 5A60     		str	r2, [r3, #4]
 377              	.LVL40:
 378              	.LBE359:
 379              	.LBE358:
 380              	.LBB360:
 381              	.LBB361:
 382              		.loc 2 817 0
 383 00dc 0822     		movs	r2, #8
 384 00de 9A60     		str	r2, [r3, #8]
 385 00e0 7047     		bx	lr
 386              	.LVL41:
 387              	.L14:
 388              	.LBE361:
 389              	.LBE360:
 390              	.LBB362:
 391              	.LBB363:
 813:Generated_Source\PSoC6\pdl\drivers/peripheral/gpio/cy_gpio.h ****     }
 392              		.loc 2 813 0
 393 00e2 1E4B     		ldr	r3, .L20
 394 00e4 0122     		movs	r2, #1
 395 00e6 5A60     		str	r2, [r3, #4]
 396              	.LVL42:
 397              	.LBE363:
 398              	.LBE362:
 399              	.LBB364:
 400              	.LBB365:
 401              		.loc 2 817 0
 402 00e8 0222     		movs	r2, #2
 403 00ea 9A60     		str	r2, [r3, #8]
 404              	.LVL43:
 405              	.LBE365:
 406              	.LBE364:
 407              	.LBB366:
 408              	.LBB367:
 813:Generated_Source\PSoC6\pdl\drivers/peripheral/gpio/cy_gpio.h ****     }
ARM GAS  C:\Users\dmula\AppData\Local\Temp\ccXnnfAd.s 			page 23


 409              		.loc 2 813 0
 410 00ec 0422     		movs	r2, #4
 411 00ee 5A60     		str	r2, [r3, #4]
 412              	.LVL44:
 413              	.LBE367:
 414              	.LBE366:
 415              	.LBB368:
 416              	.LBB369:
 417              		.loc 2 817 0
 418 00f0 0822     		movs	r2, #8
 419 00f2 9A60     		str	r2, [r3, #8]
 420 00f4 7047     		bx	lr
 421              	.LVL45:
 422              	.L15:
 423              	.LBE369:
 424              	.LBE368:
 425              	.LBB370:
 426              	.LBB371:
 427 00f6 194B     		ldr	r3, .L20
 428 00f8 0122     		movs	r2, #1
 429 00fa 9A60     		str	r2, [r3, #8]
 430              	.LVL46:
 431              	.LBE371:
 432              	.LBE370:
 433              	.LBB372:
 434              	.LBB373:
 435 00fc 0222     		movs	r2, #2
 436 00fe 9A60     		str	r2, [r3, #8]
 437              	.LVL47:
 438              	.LBE373:
 439              	.LBE372:
 440              	.LBB374:
 441              	.LBB375:
 813:Generated_Source\PSoC6\pdl\drivers/peripheral/gpio/cy_gpio.h ****     }
 442              		.loc 2 813 0
 443 0100 0422     		movs	r2, #4
 444 0102 5A60     		str	r2, [r3, #4]
 445              	.LVL48:
 446              	.LBE375:
 447              	.LBE374:
 448              	.LBB376:
 449              	.LBB377:
 450              		.loc 2 817 0
 451 0104 0822     		movs	r2, #8
 452 0106 9A60     		str	r2, [r3, #8]
 453 0108 7047     		bx	lr
 454              	.LVL49:
 455              	.L16:
 456              	.LBE377:
 457              	.LBE376:
 458              	.LBB378:
 459              	.LBB379:
 813:Generated_Source\PSoC6\pdl\drivers/peripheral/gpio/cy_gpio.h ****     }
 460              		.loc 2 813 0
 461 010a 144B     		ldr	r3, .L20
 462 010c 0122     		movs	r2, #1
 463 010e 5A60     		str	r2, [r3, #4]
ARM GAS  C:\Users\dmula\AppData\Local\Temp\ccXnnfAd.s 			page 24


 464              	.LVL50:
 465              	.LBE379:
 466              	.LBE378:
 467              	.LBB380:
 468              	.LBB381:
 469 0110 0222     		movs	r2, #2
 470 0112 5A60     		str	r2, [r3, #4]
 471              	.LVL51:
 472              	.LBE381:
 473              	.LBE380:
 474              	.LBB382:
 475              	.LBB383:
 476              		.loc 2 817 0
 477 0114 0422     		movs	r2, #4
 478 0116 9A60     		str	r2, [r3, #8]
 479              	.LVL52:
 480              	.LBE383:
 481              	.LBE382:
 482              	.LBB384:
 483              	.LBB385:
 484 0118 0822     		movs	r2, #8
 485 011a 9A60     		str	r2, [r3, #8]
 486 011c 7047     		bx	lr
 487              	.LVL53:
 488              	.L17:
 489              	.LBE385:
 490              	.LBE384:
 491              	.LBB386:
 492              	.LBB387:
 493 011e 0F4B     		ldr	r3, .L20
 494 0120 0122     		movs	r2, #1
 495 0122 9A60     		str	r2, [r3, #8]
 496              	.LVL54:
 497              	.LBE387:
 498              	.LBE386:
 499              	.LBB388:
 500              	.LBB389:
 813:Generated_Source\PSoC6\pdl\drivers/peripheral/gpio/cy_gpio.h ****     }
 501              		.loc 2 813 0
 502 0124 0222     		movs	r2, #2
 503 0126 5A60     		str	r2, [r3, #4]
 504              	.LVL55:
 505              	.LBE389:
 506              	.LBE388:
 507              	.LBB390:
 508              	.LBB391:
 509              		.loc 2 817 0
 510 0128 0422     		movs	r2, #4
 511 012a 9A60     		str	r2, [r3, #8]
 512              	.LVL56:
 513              	.LBE391:
 514              	.LBE390:
 515              	.LBB392:
 516              	.LBB393:
 517 012c 0822     		movs	r2, #8
 518 012e 9A60     		str	r2, [r3, #8]
 519 0130 7047     		bx	lr
ARM GAS  C:\Users\dmula\AppData\Local\Temp\ccXnnfAd.s 			page 25


 520              	.LVL57:
 521              	.L18:
 522              	.LBE393:
 523              	.LBE392:
 524              	.LBB394:
 525              	.LBB395:
 813:Generated_Source\PSoC6\pdl\drivers/peripheral/gpio/cy_gpio.h ****     }
 526              		.loc 2 813 0
 527 0132 0A4B     		ldr	r3, .L20
 528 0134 0122     		movs	r2, #1
 529 0136 5A60     		str	r2, [r3, #4]
 530              	.LVL58:
 531              	.LBE395:
 532              	.LBE394:
 533              	.LBB396:
 534              	.LBB397:
 535              		.loc 2 817 0
 536 0138 0222     		movs	r2, #2
 537 013a 9A60     		str	r2, [r3, #8]
 538              	.LVL59:
 539              	.LBE397:
 540              	.LBE396:
 541              	.LBB398:
 542              	.LBB399:
 543 013c 0422     		movs	r2, #4
 544 013e 9A60     		str	r2, [r3, #8]
 545              	.LVL60:
 546              	.LBE399:
 547              	.LBE398:
 548              	.LBB400:
 549              	.LBB401:
 550 0140 0822     		movs	r2, #8
 551 0142 9A60     		str	r2, [r3, #8]
 552 0144 7047     		bx	lr
 553              	.LVL61:
 554              	.L19:
 555              	.LBE401:
 556              	.LBE400:
 557              	.LBB402:
 558              	.LBB403:
 559 0146 054B     		ldr	r3, .L20
 560 0148 0122     		movs	r2, #1
 561 014a 9A60     		str	r2, [r3, #8]
 562              	.LVL62:
 563              	.LBE403:
 564              	.LBE402:
 565              	.LBB404:
 566              	.LBB405:
 567 014c 0222     		movs	r2, #2
 568 014e 9A60     		str	r2, [r3, #8]
 569              	.LVL63:
 570              	.LBE405:
 571              	.LBE404:
 572              	.LBB406:
 573              	.LBB407:
 574 0150 0422     		movs	r2, #4
 575 0152 9A60     		str	r2, [r3, #8]
ARM GAS  C:\Users\dmula\AppData\Local\Temp\ccXnnfAd.s 			page 26


 576              	.LVL64:
 577              	.LBE407:
 578              	.LBE406:
 579              	.LBB408:
 580              	.LBB409:
 581 0154 0822     		movs	r2, #8
 582 0156 9A60     		str	r2, [r3, #8]
 583              	.LVL65:
 584              	.L1:
 585 0158 7047     		bx	lr
 586              	.L21:
 587 015a 00BF     		.align	2
 588              	.L20:
 589 015c 80043240 		.word	1077019776
 590              	.LBE409:
 591              	.LBE408:
 592              		.cfi_endproc
 593              	.LFE529:
 594              		.size	rowselect, .-rowselect
 595              		.section	.text.columnselect,"ax",%progbits
 596              		.align	2
 597              		.global	columnselect
 598              		.thumb
 599              		.thumb_func
 600              		.type	columnselect, %function
 601              	columnselect:
 602              	.LFB530:
  19:main_cm4.c    **** {
  20:main_cm4.c    ****     case 0:
  21:main_cm4.c    ****    Cy_GPIO_Write(R0_PORT,R0_NUM,0);
  22:main_cm4.c    ****    Cy_GPIO_Write(R1_PORT,R1_NUM,0);
  23:main_cm4.c    ****    Cy_GPIO_Write(R2_PORT,R2_NUM,0);
  24:main_cm4.c    ****    Cy_GPIO_Write(R3_PORT,R3_NUM,0);
  25:main_cm4.c    **** 
  26:main_cm4.c    ****     break;
  27:main_cm4.c    ****     case 1:
  28:main_cm4.c    ****      Cy_GPIO_Write(R0_PORT,R0_NUM,1);
  29:main_cm4.c    ****      Cy_GPIO_Write(R1_PORT,R1_NUM,0);
  30:main_cm4.c    ****      Cy_GPIO_Write(R2_PORT,R2_NUM,0);
  31:main_cm4.c    ****      Cy_GPIO_Write(R3_PORT,R3_NUM,0);
  32:main_cm4.c    ****     
  33:main_cm4.c    ****     break;
  34:main_cm4.c    ****      case 2:
  35:main_cm4.c    ****      Cy_GPIO_Write(R0_PORT,R0_NUM,0);
  36:main_cm4.c    ****      Cy_GPIO_Write(R1_PORT,R1_NUM,1);
  37:main_cm4.c    ****      Cy_GPIO_Write(R2_PORT,R2_NUM,0);
  38:main_cm4.c    ****      Cy_GPIO_Write(R3_PORT,R3_NUM,0);
  39:main_cm4.c    ****     
  40:main_cm4.c    ****     break;
  41:main_cm4.c    ****      case 3:
  42:main_cm4.c    ****      Cy_GPIO_Write(R0_PORT,R0_NUM,1);
  43:main_cm4.c    ****      Cy_GPIO_Write(R1_PORT,R1_NUM,1);
  44:main_cm4.c    ****      Cy_GPIO_Write(R2_PORT,R2_NUM,0);
  45:main_cm4.c    ****      Cy_GPIO_Write(R3_PORT,R3_NUM,0);
  46:main_cm4.c    ****     
  47:main_cm4.c    ****     break;
  48:main_cm4.c    ****      case 4:
ARM GAS  C:\Users\dmula\AppData\Local\Temp\ccXnnfAd.s 			page 27


  49:main_cm4.c    ****      Cy_GPIO_Write(R0_PORT,R0_NUM,0);
  50:main_cm4.c    ****      Cy_GPIO_Write(R1_PORT,R1_NUM,0);
  51:main_cm4.c    ****      Cy_GPIO_Write(R2_PORT,R2_NUM,1);
  52:main_cm4.c    ****      Cy_GPIO_Write(R3_PORT,R3_NUM,0);
  53:main_cm4.c    ****     break;
  54:main_cm4.c    ****      case 5:
  55:main_cm4.c    ****      Cy_GPIO_Write(R0_PORT,R0_NUM,1);
  56:main_cm4.c    ****      Cy_GPIO_Write(R1_PORT,R1_NUM,0);
  57:main_cm4.c    ****      Cy_GPIO_Write(R2_PORT,R2_NUM,1);
  58:main_cm4.c    ****      Cy_GPIO_Write(R3_PORT,R3_NUM,0);
  59:main_cm4.c    ****     
  60:main_cm4.c    ****     break;
  61:main_cm4.c    ****      case 6:
  62:main_cm4.c    ****      Cy_GPIO_Write(R0_PORT,R0_NUM,0);
  63:main_cm4.c    ****      Cy_GPIO_Write(R1_PORT,R1_NUM,1);
  64:main_cm4.c    ****      Cy_GPIO_Write(R2_PORT,R2_NUM,1);
  65:main_cm4.c    ****      Cy_GPIO_Write(R3_PORT,R3_NUM,0);
  66:main_cm4.c    **** 
  67:main_cm4.c    ****     break;
  68:main_cm4.c    ****      case 7:
  69:main_cm4.c    ****      Cy_GPIO_Write(R0_PORT,R0_NUM,1);
  70:main_cm4.c    ****      Cy_GPIO_Write(R1_PORT,R1_NUM,1);
  71:main_cm4.c    ****      Cy_GPIO_Write(R2_PORT,R2_NUM,1);
  72:main_cm4.c    ****      Cy_GPIO_Write(R3_PORT,R3_NUM,0);
  73:main_cm4.c    ****     
  74:main_cm4.c    ****     break;
  75:main_cm4.c    ****      case 8:
  76:main_cm4.c    ****      Cy_GPIO_Write(R0_PORT,R0_NUM,0);
  77:main_cm4.c    ****      Cy_GPIO_Write(R1_PORT,R1_NUM,0);
  78:main_cm4.c    ****      Cy_GPIO_Write(R2_PORT,R2_NUM,0);
  79:main_cm4.c    ****      Cy_GPIO_Write(R3_PORT,R3_NUM,1);
  80:main_cm4.c    ****     
  81:main_cm4.c    ****     break;
  82:main_cm4.c    ****      case 9:
  83:main_cm4.c    ****      Cy_GPIO_Write(R0_PORT,R0_NUM,1);
  84:main_cm4.c    ****      Cy_GPIO_Write(R1_PORT,R1_NUM,0);
  85:main_cm4.c    ****      Cy_GPIO_Write(R2_PORT,R2_NUM,0);
  86:main_cm4.c    ****      Cy_GPIO_Write(R3_PORT,R3_NUM,1);
  87:main_cm4.c    ****     
  88:main_cm4.c    ****     break;
  89:main_cm4.c    ****      case 10:
  90:main_cm4.c    ****      Cy_GPIO_Write(R0_PORT,R0_NUM,0);
  91:main_cm4.c    ****      Cy_GPIO_Write(R1_PORT,R1_NUM,1);
  92:main_cm4.c    ****      Cy_GPIO_Write(R2_PORT,R2_NUM,0);
  93:main_cm4.c    ****      Cy_GPIO_Write(R3_PORT,R3_NUM,1);
  94:main_cm4.c    ****     
  95:main_cm4.c    ****     break;
  96:main_cm4.c    ****      case 11:
  97:main_cm4.c    ****      Cy_GPIO_Write(R0_PORT,R0_NUM,1);
  98:main_cm4.c    ****      Cy_GPIO_Write(R1_PORT,R1_NUM,1);
  99:main_cm4.c    ****      Cy_GPIO_Write(R2_PORT,R2_NUM,0);
 100:main_cm4.c    ****      Cy_GPIO_Write(R3_PORT,R3_NUM,1);
 101:main_cm4.c    ****     
 102:main_cm4.c    ****     break;
 103:main_cm4.c    ****      case 12:
 104:main_cm4.c    ****      Cy_GPIO_Write(R0_PORT,R0_NUM,0);
 105:main_cm4.c    ****      Cy_GPIO_Write(R1_PORT,R1_NUM,0);
ARM GAS  C:\Users\dmula\AppData\Local\Temp\ccXnnfAd.s 			page 28


 106:main_cm4.c    ****      Cy_GPIO_Write(R2_PORT,R2_NUM,1);
 107:main_cm4.c    ****      Cy_GPIO_Write(R3_PORT,R3_NUM,1);
 108:main_cm4.c    **** 
 109:main_cm4.c    ****     break;
 110:main_cm4.c    ****      case 13:
 111:main_cm4.c    ****      Cy_GPIO_Write(R0_PORT,R0_NUM,1);
 112:main_cm4.c    ****      Cy_GPIO_Write(R1_PORT,R1_NUM,0);
 113:main_cm4.c    ****      Cy_GPIO_Write(R2_PORT,R2_NUM,1);
 114:main_cm4.c    ****      Cy_GPIO_Write(R3_PORT,R3_NUM,1);
 115:main_cm4.c    ****     
 116:main_cm4.c    ****     break;
 117:main_cm4.c    ****      case 14:
 118:main_cm4.c    ****      Cy_GPIO_Write(R0_PORT,R0_NUM,0);
 119:main_cm4.c    ****      Cy_GPIO_Write(R1_PORT,R1_NUM,1);
 120:main_cm4.c    ****      Cy_GPIO_Write(R2_PORT,R2_NUM,1);
 121:main_cm4.c    ****      Cy_GPIO_Write(R3_PORT,R3_NUM,1);
 122:main_cm4.c    **** 
 123:main_cm4.c    ****     break;
 124:main_cm4.c    ****      case 15:
 125:main_cm4.c    ****      Cy_GPIO_Write(R0_PORT,R0_NUM,1);
 126:main_cm4.c    ****      Cy_GPIO_Write(R1_PORT,R1_NUM,1);
 127:main_cm4.c    ****      Cy_GPIO_Write(R2_PORT,R2_NUM,1);
 128:main_cm4.c    ****      Cy_GPIO_Write(R3_PORT,R3_NUM,1);
 129:main_cm4.c    ****     break;
 130:main_cm4.c    **** }
 131:main_cm4.c    **** }
 132:main_cm4.c    **** 
 133:main_cm4.c    **** 
 134:main_cm4.c    **** void columnselect(int in){
 603              		.loc 1 134 0
 604              		.cfi_startproc
 605              		@ args = 0, pretend = 0, frame = 0
 606              		@ frame_needed = 0, uses_anonymous_args = 0
 607              		@ link register save eliminated.
 608              	.LVL66:
 135:main_cm4.c    **** switch (in)
 609              		.loc 1 135 0
 610 0000 0F28     		cmp	r0, #15
 611 0002 00F2D180 		bhi	.L22
 612 0006 DFE810F0 		tbh	[pc, r0, lsl #1]
 613              	.L25:
 614 000a 1000     		.2byte	(.L24-.L25)/2
 615 000c 1C00     		.2byte	(.L26-.L25)/2
 616 000e 2800     		.2byte	(.L27-.L25)/2
 617 0010 3400     		.2byte	(.L28-.L25)/2
 618 0012 4000     		.2byte	(.L29-.L25)/2
 619 0014 4C00     		.2byte	(.L30-.L25)/2
 620 0016 5800     		.2byte	(.L31-.L25)/2
 621 0018 6400     		.2byte	(.L32-.L25)/2
 622 001a 7000     		.2byte	(.L33-.L25)/2
 623 001c 7C00     		.2byte	(.L34-.L25)/2
 624 001e 8800     		.2byte	(.L35-.L25)/2
 625 0020 9400     		.2byte	(.L36-.L25)/2
 626 0022 A000     		.2byte	(.L37-.L25)/2
 627 0024 AC00     		.2byte	(.L38-.L25)/2
 628 0026 B800     		.2byte	(.L39-.L25)/2
 629 0028 C400     		.2byte	(.L40-.L25)/2
ARM GAS  C:\Users\dmula\AppData\Local\Temp\ccXnnfAd.s 			page 29


 630              		.p2align 1
 631              	.L24:
 632              	.LVL67:
 633              	.LBB410:
 634              	.LBB411:
 813:Generated_Source\PSoC6\pdl\drivers/peripheral/gpio/cy_gpio.h ****     }
 635              		.loc 2 813 0
 636 002a 604B     		ldr	r3, .L41
 637 002c 2022     		movs	r2, #32
 638 002e 5A60     		str	r2, [r3, #4]
 639              	.LVL68:
 640              	.LBE411:
 641              	.LBE410:
 642              	.LBB412:
 643              	.LBB413:
 644 0030 4022     		movs	r2, #64
 645 0032 5A60     		str	r2, [r3, #4]
 646              	.LVL69:
 647              	.LBE413:
 648              	.LBE412:
 649              	.LBB414:
 650              	.LBB415:
 651 0034 A3F5C073 		sub	r3, r3, #384
 652 0038 0422     		movs	r2, #4
 653 003a 5A60     		str	r2, [r3, #4]
 654              	.LVL70:
 655              	.LBE415:
 656              	.LBE414:
 657              	.LBB416:
 658              	.LBB417:
 659 003c 0822     		movs	r2, #8
 660 003e 5A60     		str	r2, [r3, #4]
 661 0040 7047     		bx	lr
 662              	.LVL71:
 663              	.L26:
 664              	.LBE417:
 665              	.LBE416:
 666              	.LBB418:
 667              	.LBB419:
 668              		.loc 2 817 0
 669 0042 5A4B     		ldr	r3, .L41
 670 0044 2022     		movs	r2, #32
 671 0046 9A60     		str	r2, [r3, #8]
 672              	.LVL72:
 673              	.LBE419:
 674              	.LBE418:
 675              	.LBB420:
 676              	.LBB421:
 813:Generated_Source\PSoC6\pdl\drivers/peripheral/gpio/cy_gpio.h ****     }
 677              		.loc 2 813 0
 678 0048 4022     		movs	r2, #64
 679 004a 5A60     		str	r2, [r3, #4]
 680              	.LVL73:
 681              	.LBE421:
 682              	.LBE420:
 683              	.LBB422:
 684              	.LBB423:
ARM GAS  C:\Users\dmula\AppData\Local\Temp\ccXnnfAd.s 			page 30


 685 004c A3F5C073 		sub	r3, r3, #384
 686 0050 0422     		movs	r2, #4
 687 0052 5A60     		str	r2, [r3, #4]
 688              	.LVL74:
 689              	.LBE423:
 690              	.LBE422:
 691              	.LBB424:
 692              	.LBB425:
 693 0054 0822     		movs	r2, #8
 694 0056 5A60     		str	r2, [r3, #4]
 695 0058 7047     		bx	lr
 696              	.LVL75:
 697              	.L27:
 698              	.LBE425:
 699              	.LBE424:
 700              	.LBB426:
 701              	.LBB427:
 702 005a 544B     		ldr	r3, .L41
 703 005c 2022     		movs	r2, #32
 704 005e 5A60     		str	r2, [r3, #4]
 705              	.LVL76:
 706              	.LBE427:
 707              	.LBE426:
 708              	.LBB428:
 709              	.LBB429:
 710              		.loc 2 817 0
 711 0060 4022     		movs	r2, #64
 712 0062 9A60     		str	r2, [r3, #8]
 713              	.LVL77:
 714              	.LBE429:
 715              	.LBE428:
 716              	.LBB430:
 717              	.LBB431:
 813:Generated_Source\PSoC6\pdl\drivers/peripheral/gpio/cy_gpio.h ****     }
 718              		.loc 2 813 0
 719 0064 A3F5C073 		sub	r3, r3, #384
 720 0068 0422     		movs	r2, #4
 721 006a 5A60     		str	r2, [r3, #4]
 722              	.LVL78:
 723              	.LBE431:
 724              	.LBE430:
 725              	.LBB432:
 726              	.LBB433:
 727 006c 0822     		movs	r2, #8
 728 006e 5A60     		str	r2, [r3, #4]
 729 0070 7047     		bx	lr
 730              	.LVL79:
 731              	.L28:
 732              	.LBE433:
 733              	.LBE432:
 734              	.LBB434:
 735              	.LBB435:
 736              		.loc 2 817 0
 737 0072 4E4B     		ldr	r3, .L41
 738 0074 2022     		movs	r2, #32
 739 0076 9A60     		str	r2, [r3, #8]
 740              	.LVL80:
ARM GAS  C:\Users\dmula\AppData\Local\Temp\ccXnnfAd.s 			page 31


 741              	.LBE435:
 742              	.LBE434:
 743              	.LBB436:
 744              	.LBB437:
 745 0078 4022     		movs	r2, #64
 746 007a 9A60     		str	r2, [r3, #8]
 747              	.LVL81:
 748              	.LBE437:
 749              	.LBE436:
 750              	.LBB438:
 751              	.LBB439:
 813:Generated_Source\PSoC6\pdl\drivers/peripheral/gpio/cy_gpio.h ****     }
 752              		.loc 2 813 0
 753 007c A3F5C073 		sub	r3, r3, #384
 754 0080 0422     		movs	r2, #4
 755 0082 5A60     		str	r2, [r3, #4]
 756              	.LVL82:
 757              	.LBE439:
 758              	.LBE438:
 759              	.LBB440:
 760              	.LBB441:
 761 0084 0822     		movs	r2, #8
 762 0086 5A60     		str	r2, [r3, #4]
 763 0088 7047     		bx	lr
 764              	.LVL83:
 765              	.L29:
 766              	.LBE441:
 767              	.LBE440:
 768              	.LBB442:
 769              	.LBB443:
 770 008a 484B     		ldr	r3, .L41
 771 008c 2022     		movs	r2, #32
 772 008e 5A60     		str	r2, [r3, #4]
 773              	.LVL84:
 774              	.LBE443:
 775              	.LBE442:
 776              	.LBB444:
 777              	.LBB445:
 778 0090 4022     		movs	r2, #64
 779 0092 5A60     		str	r2, [r3, #4]
 780              	.LVL85:
 781              	.LBE445:
 782              	.LBE444:
 783              	.LBB446:
 784              	.LBB447:
 785              		.loc 2 817 0
 786 0094 A3F5C073 		sub	r3, r3, #384
 787 0098 0422     		movs	r2, #4
 788 009a 9A60     		str	r2, [r3, #8]
 789              	.LVL86:
 790              	.LBE447:
 791              	.LBE446:
 792              	.LBB448:
 793              	.LBB449:
 813:Generated_Source\PSoC6\pdl\drivers/peripheral/gpio/cy_gpio.h ****     }
 794              		.loc 2 813 0
 795 009c 0822     		movs	r2, #8
ARM GAS  C:\Users\dmula\AppData\Local\Temp\ccXnnfAd.s 			page 32


 796 009e 5A60     		str	r2, [r3, #4]
 797 00a0 7047     		bx	lr
 798              	.LVL87:
 799              	.L30:
 800              	.LBE449:
 801              	.LBE448:
 802              	.LBB450:
 803              	.LBB451:
 804              		.loc 2 817 0
 805 00a2 424B     		ldr	r3, .L41
 806 00a4 2022     		movs	r2, #32
 807 00a6 9A60     		str	r2, [r3, #8]
 808              	.LVL88:
 809              	.LBE451:
 810              	.LBE450:
 811              	.LBB452:
 812              	.LBB453:
 813:Generated_Source\PSoC6\pdl\drivers/peripheral/gpio/cy_gpio.h ****     }
 813              		.loc 2 813 0
 814 00a8 4022     		movs	r2, #64
 815 00aa 5A60     		str	r2, [r3, #4]
 816              	.LVL89:
 817              	.LBE453:
 818              	.LBE452:
 819              	.LBB454:
 820              	.LBB455:
 821              		.loc 2 817 0
 822 00ac A3F5C073 		sub	r3, r3, #384
 823 00b0 0422     		movs	r2, #4
 824 00b2 9A60     		str	r2, [r3, #8]
 825              	.LVL90:
 826              	.LBE455:
 827              	.LBE454:
 828              	.LBB456:
 829              	.LBB457:
 813:Generated_Source\PSoC6\pdl\drivers/peripheral/gpio/cy_gpio.h ****     }
 830              		.loc 2 813 0
 831 00b4 0822     		movs	r2, #8
 832 00b6 5A60     		str	r2, [r3, #4]
 833 00b8 7047     		bx	lr
 834              	.LVL91:
 835              	.L31:
 836              	.LBE457:
 837              	.LBE456:
 838              	.LBB458:
 839              	.LBB459:
 840 00ba 3C4B     		ldr	r3, .L41
 841 00bc 2022     		movs	r2, #32
 842 00be 5A60     		str	r2, [r3, #4]
 843              	.LVL92:
 844              	.LBE459:
 845              	.LBE458:
 846              	.LBB460:
 847              	.LBB461:
 848              		.loc 2 817 0
 849 00c0 4022     		movs	r2, #64
 850 00c2 9A60     		str	r2, [r3, #8]
ARM GAS  C:\Users\dmula\AppData\Local\Temp\ccXnnfAd.s 			page 33


 851              	.LVL93:
 852              	.LBE461:
 853              	.LBE460:
 854              	.LBB462:
 855              	.LBB463:
 856 00c4 A3F5C073 		sub	r3, r3, #384
 857 00c8 0422     		movs	r2, #4
 858 00ca 9A60     		str	r2, [r3, #8]
 859              	.LVL94:
 860              	.LBE463:
 861              	.LBE462:
 862              	.LBB464:
 863              	.LBB465:
 813:Generated_Source\PSoC6\pdl\drivers/peripheral/gpio/cy_gpio.h ****     }
 864              		.loc 2 813 0
 865 00cc 0822     		movs	r2, #8
 866 00ce 5A60     		str	r2, [r3, #4]
 867 00d0 7047     		bx	lr
 868              	.LVL95:
 869              	.L32:
 870              	.LBE465:
 871              	.LBE464:
 872              	.LBB466:
 873              	.LBB467:
 874              		.loc 2 817 0
 875 00d2 364B     		ldr	r3, .L41
 876 00d4 2022     		movs	r2, #32
 877 00d6 9A60     		str	r2, [r3, #8]
 878              	.LVL96:
 879              	.LBE467:
 880              	.LBE466:
 881              	.LBB468:
 882              	.LBB469:
 883 00d8 4022     		movs	r2, #64
 884 00da 9A60     		str	r2, [r3, #8]
 885              	.LVL97:
 886              	.LBE469:
 887              	.LBE468:
 888              	.LBB470:
 889              	.LBB471:
 890 00dc A3F5C073 		sub	r3, r3, #384
 891 00e0 0422     		movs	r2, #4
 892 00e2 9A60     		str	r2, [r3, #8]
 893              	.LVL98:
 894              	.LBE471:
 895              	.LBE470:
 896              	.LBB472:
 897              	.LBB473:
 813:Generated_Source\PSoC6\pdl\drivers/peripheral/gpio/cy_gpio.h ****     }
 898              		.loc 2 813 0
 899 00e4 0822     		movs	r2, #8
 900 00e6 5A60     		str	r2, [r3, #4]
 901 00e8 7047     		bx	lr
 902              	.LVL99:
 903              	.L33:
 904              	.LBE473:
 905              	.LBE472:
ARM GAS  C:\Users\dmula\AppData\Local\Temp\ccXnnfAd.s 			page 34


 906              	.LBB474:
 907              	.LBB475:
 908 00ea 304B     		ldr	r3, .L41
 909 00ec 2022     		movs	r2, #32
 910 00ee 5A60     		str	r2, [r3, #4]
 911              	.LVL100:
 912              	.LBE475:
 913              	.LBE474:
 914              	.LBB476:
 915              	.LBB477:
 916 00f0 4022     		movs	r2, #64
 917 00f2 5A60     		str	r2, [r3, #4]
 918              	.LVL101:
 919              	.LBE477:
 920              	.LBE476:
 921              	.LBB478:
 922              	.LBB479:
 923 00f4 A3F5C073 		sub	r3, r3, #384
 924 00f8 0422     		movs	r2, #4
 925 00fa 5A60     		str	r2, [r3, #4]
 926              	.LVL102:
 927              	.LBE479:
 928              	.LBE478:
 929              	.LBB480:
 930              	.LBB481:
 931              		.loc 2 817 0
 932 00fc 0822     		movs	r2, #8
 933 00fe 9A60     		str	r2, [r3, #8]
 934 0100 7047     		bx	lr
 935              	.LVL103:
 936              	.L34:
 937              	.LBE481:
 938              	.LBE480:
 939              	.LBB482:
 940              	.LBB483:
 941 0102 2A4B     		ldr	r3, .L41
 942 0104 2022     		movs	r2, #32
 943 0106 9A60     		str	r2, [r3, #8]
 944              	.LVL104:
 945              	.LBE483:
 946              	.LBE482:
 947              	.LBB484:
 948              	.LBB485:
 813:Generated_Source\PSoC6\pdl\drivers/peripheral/gpio/cy_gpio.h ****     }
 949              		.loc 2 813 0
 950 0108 4022     		movs	r2, #64
 951 010a 5A60     		str	r2, [r3, #4]
 952              	.LVL105:
 953              	.LBE485:
 954              	.LBE484:
 955              	.LBB486:
 956              	.LBB487:
 957 010c A3F5C073 		sub	r3, r3, #384
 958 0110 0422     		movs	r2, #4
 959 0112 5A60     		str	r2, [r3, #4]
 960              	.LVL106:
 961              	.LBE487:
ARM GAS  C:\Users\dmula\AppData\Local\Temp\ccXnnfAd.s 			page 35


 962              	.LBE486:
 963              	.LBB488:
 964              	.LBB489:
 965              		.loc 2 817 0
 966 0114 0822     		movs	r2, #8
 967 0116 9A60     		str	r2, [r3, #8]
 968 0118 7047     		bx	lr
 969              	.LVL107:
 970              	.L35:
 971              	.LBE489:
 972              	.LBE488:
 973              	.LBB490:
 974              	.LBB491:
 813:Generated_Source\PSoC6\pdl\drivers/peripheral/gpio/cy_gpio.h ****     }
 975              		.loc 2 813 0
 976 011a 244B     		ldr	r3, .L41
 977 011c 2022     		movs	r2, #32
 978 011e 5A60     		str	r2, [r3, #4]
 979              	.LVL108:
 980              	.LBE491:
 981              	.LBE490:
 982              	.LBB492:
 983              	.LBB493:
 984              		.loc 2 817 0
 985 0120 4022     		movs	r2, #64
 986 0122 9A60     		str	r2, [r3, #8]
 987              	.LVL109:
 988              	.LBE493:
 989              	.LBE492:
 990              	.LBB494:
 991              	.LBB495:
 813:Generated_Source\PSoC6\pdl\drivers/peripheral/gpio/cy_gpio.h ****     }
 992              		.loc 2 813 0
 993 0124 A3F5C073 		sub	r3, r3, #384
 994 0128 0422     		movs	r2, #4
 995 012a 5A60     		str	r2, [r3, #4]
 996              	.LVL110:
 997              	.LBE495:
 998              	.LBE494:
 999              	.LBB496:
 1000              	.LBB497:
 1001              		.loc 2 817 0
 1002 012c 0822     		movs	r2, #8
 1003 012e 9A60     		str	r2, [r3, #8]
 1004 0130 7047     		bx	lr
 1005              	.LVL111:
 1006              	.L36:
 1007              	.LBE497:
 1008              	.LBE496:
 1009              	.LBB498:
 1010              	.LBB499:
 1011 0132 1E4B     		ldr	r3, .L41
 1012 0134 2022     		movs	r2, #32
 1013 0136 9A60     		str	r2, [r3, #8]
 1014              	.LVL112:
 1015              	.LBE499:
 1016              	.LBE498:
ARM GAS  C:\Users\dmula\AppData\Local\Temp\ccXnnfAd.s 			page 36


 1017              	.LBB500:
 1018              	.LBB501:
 1019 0138 4022     		movs	r2, #64
 1020 013a 9A60     		str	r2, [r3, #8]
 1021              	.LVL113:
 1022              	.LBE501:
 1023              	.LBE500:
 1024              	.LBB502:
 1025              	.LBB503:
 813:Generated_Source\PSoC6\pdl\drivers/peripheral/gpio/cy_gpio.h ****     }
 1026              		.loc 2 813 0
 1027 013c A3F5C073 		sub	r3, r3, #384
 1028 0140 0422     		movs	r2, #4
 1029 0142 5A60     		str	r2, [r3, #4]
 1030              	.LVL114:
 1031              	.LBE503:
 1032              	.LBE502:
 1033              	.LBB504:
 1034              	.LBB505:
 1035              		.loc 2 817 0
 1036 0144 0822     		movs	r2, #8
 1037 0146 9A60     		str	r2, [r3, #8]
 1038 0148 7047     		bx	lr
 1039              	.LVL115:
 1040              	.L37:
 1041              	.LBE505:
 1042              	.LBE504:
 1043              	.LBB506:
 1044              	.LBB507:
 813:Generated_Source\PSoC6\pdl\drivers/peripheral/gpio/cy_gpio.h ****     }
 1045              		.loc 2 813 0
 1046 014a 184B     		ldr	r3, .L41
 1047 014c 2022     		movs	r2, #32
 1048 014e 5A60     		str	r2, [r3, #4]
 1049              	.LVL116:
 1050              	.LBE507:
 1051              	.LBE506:
 1052              	.LBB508:
 1053              	.LBB509:
 1054 0150 4022     		movs	r2, #64
 1055 0152 5A60     		str	r2, [r3, #4]
 1056              	.LVL117:
 1057              	.LBE509:
 1058              	.LBE508:
 1059              	.LBB510:
 1060              	.LBB511:
 1061              		.loc 2 817 0
 1062 0154 A3F5C073 		sub	r3, r3, #384
 1063 0158 0422     		movs	r2, #4
 1064 015a 9A60     		str	r2, [r3, #8]
 1065              	.LVL118:
 1066              	.LBE511:
 1067              	.LBE510:
 1068              	.LBB512:
 1069              	.LBB513:
 1070 015c 0822     		movs	r2, #8
 1071 015e 9A60     		str	r2, [r3, #8]
ARM GAS  C:\Users\dmula\AppData\Local\Temp\ccXnnfAd.s 			page 37


 1072 0160 7047     		bx	lr
 1073              	.LVL119:
 1074              	.L38:
 1075              	.LBE513:
 1076              	.LBE512:
 1077              	.LBB514:
 1078              	.LBB515:
 1079 0162 124B     		ldr	r3, .L41
 1080 0164 2022     		movs	r2, #32
 1081 0166 9A60     		str	r2, [r3, #8]
 1082              	.LVL120:
 1083              	.LBE515:
 1084              	.LBE514:
 1085              	.LBB516:
 1086              	.LBB517:
 813:Generated_Source\PSoC6\pdl\drivers/peripheral/gpio/cy_gpio.h ****     }
 1087              		.loc 2 813 0
 1088 0168 4022     		movs	r2, #64
 1089 016a 5A60     		str	r2, [r3, #4]
 1090              	.LVL121:
 1091              	.LBE517:
 1092              	.LBE516:
 1093              	.LBB518:
 1094              	.LBB519:
 1095              		.loc 2 817 0
 1096 016c A3F5C073 		sub	r3, r3, #384
 1097 0170 0422     		movs	r2, #4
 1098 0172 9A60     		str	r2, [r3, #8]
 1099              	.LVL122:
 1100              	.LBE519:
 1101              	.LBE518:
 1102              	.LBB520:
 1103              	.LBB521:
 1104 0174 0822     		movs	r2, #8
 1105 0176 9A60     		str	r2, [r3, #8]
 1106 0178 7047     		bx	lr
 1107              	.LVL123:
 1108              	.L39:
 1109              	.LBE521:
 1110              	.LBE520:
 1111              	.LBB522:
 1112              	.LBB523:
 813:Generated_Source\PSoC6\pdl\drivers/peripheral/gpio/cy_gpio.h ****     }
 1113              		.loc 2 813 0
 1114 017a 0C4B     		ldr	r3, .L41
 1115 017c 2022     		movs	r2, #32
 1116 017e 5A60     		str	r2, [r3, #4]
 1117              	.LVL124:
 1118              	.LBE523:
 1119              	.LBE522:
 1120              	.LBB524:
 1121              	.LBB525:
 1122              		.loc 2 817 0
 1123 0180 4022     		movs	r2, #64
 1124 0182 9A60     		str	r2, [r3, #8]
 1125              	.LVL125:
 1126              	.LBE525:
ARM GAS  C:\Users\dmula\AppData\Local\Temp\ccXnnfAd.s 			page 38


 1127              	.LBE524:
 1128              	.LBB526:
 1129              	.LBB527:
 1130 0184 A3F5C073 		sub	r3, r3, #384
 1131 0188 0422     		movs	r2, #4
 1132 018a 9A60     		str	r2, [r3, #8]
 1133              	.LVL126:
 1134              	.LBE527:
 1135              	.LBE526:
 1136              	.LBB528:
 1137              	.LBB529:
 1138 018c 0822     		movs	r2, #8
 1139 018e 9A60     		str	r2, [r3, #8]
 1140 0190 7047     		bx	lr
 1141              	.LVL127:
 1142              	.L40:
 1143              	.LBE529:
 1144              	.LBE528:
 1145              	.LBB530:
 1146              	.LBB531:
 1147 0192 064B     		ldr	r3, .L41
 1148 0194 2022     		movs	r2, #32
 1149 0196 9A60     		str	r2, [r3, #8]
 1150              	.LVL128:
 1151              	.LBE531:
 1152              	.LBE530:
 1153              	.LBB532:
 1154              	.LBB533:
 1155 0198 4022     		movs	r2, #64
 1156 019a 9A60     		str	r2, [r3, #8]
 1157              	.LVL129:
 1158              	.LBE533:
 1159              	.LBE532:
 1160              	.LBB534:
 1161              	.LBB535:
 1162 019c A3F5C073 		sub	r3, r3, #384
 1163 01a0 0422     		movs	r2, #4
 1164 01a2 9A60     		str	r2, [r3, #8]
 1165              	.LVL130:
 1166              	.LBE535:
 1167              	.LBE534:
 1168              	.LBB536:
 1169              	.LBB537:
 1170 01a4 0822     		movs	r2, #8
 1171 01a6 9A60     		str	r2, [r3, #8]
 1172              	.LVL131:
 1173              	.L22:
 1174 01a8 7047     		bx	lr
 1175              	.L42:
 1176 01aa 00BF     		.align	2
 1177              	.L41:
 1178 01ac 80043240 		.word	1077019776
 1179              	.LBE537:
 1180              	.LBE536:
 1181              		.cfi_endproc
 1182              	.LFE530:
 1183              		.size	columnselect, .-columnselect
ARM GAS  C:\Users\dmula\AppData\Local\Temp\ccXnnfAd.s 			page 39


 1184              		.section	.text.states,"ax",%progbits
 1185              		.align	2
 1186              		.global	states
 1187              		.thumb
 1188              		.thumb_func
 1189              		.type	states, %function
 1190              	states:
 1191              	.LFB531:
 136:main_cm4.c    **** {
 137:main_cm4.c    ****     case 0:
 138:main_cm4.c    ****    Cy_GPIO_Write(C0_PORT,C0_NUM,0);
 139:main_cm4.c    ****    Cy_GPIO_Write(C1_PORT,C1_NUM,0);
 140:main_cm4.c    ****    Cy_GPIO_Write(C2_PORT,C2_NUM,0);
 141:main_cm4.c    ****    Cy_GPIO_Write(C3_PORT,C3_NUM,0);
 142:main_cm4.c    ****     break;
 143:main_cm4.c    ****     case 1:
 144:main_cm4.c    ****     
 145:main_cm4.c    ****      Cy_GPIO_Write(C0_PORT,C0_NUM,1);
 146:main_cm4.c    ****      Cy_GPIO_Write(C1_PORT,C1_NUM,0);
 147:main_cm4.c    ****      Cy_GPIO_Write(C2_PORT,C2_NUM,0);
 148:main_cm4.c    ****      Cy_GPIO_Write(C3_PORT,C3_NUM,0);
 149:main_cm4.c    ****     break;
 150:main_cm4.c    ****      case 2:
 151:main_cm4.c    ****    
 152:main_cm4.c    ****      Cy_GPIO_Write(C0_PORT,C0_NUM,0);
 153:main_cm4.c    ****      Cy_GPIO_Write(C1_PORT,C1_NUM,1);
 154:main_cm4.c    ****      Cy_GPIO_Write(C2_PORT,C2_NUM,0);
 155:main_cm4.c    ****      Cy_GPIO_Write(C3_PORT,C3_NUM,0);
 156:main_cm4.c    ****     break;
 157:main_cm4.c    ****      case 3:
 158:main_cm4.c    ****   
 159:main_cm4.c    ****      Cy_GPIO_Write(C0_PORT,C0_NUM,1);
 160:main_cm4.c    ****      Cy_GPIO_Write(C1_PORT,C1_NUM,1);
 161:main_cm4.c    ****      Cy_GPIO_Write(C2_PORT,C2_NUM,0);
 162:main_cm4.c    ****      Cy_GPIO_Write(C3_PORT,C3_NUM,0);
 163:main_cm4.c    ****     break;
 164:main_cm4.c    ****      case 4:
 165:main_cm4.c    ****   
 166:main_cm4.c    ****      Cy_GPIO_Write(C0_PORT,C0_NUM,0);
 167:main_cm4.c    ****      Cy_GPIO_Write(C1_PORT,C1_NUM,0);
 168:main_cm4.c    ****      Cy_GPIO_Write(C2_PORT,C2_NUM,1);
 169:main_cm4.c    ****      Cy_GPIO_Write(C3_PORT,C3_NUM,0);
 170:main_cm4.c    ****     break;
 171:main_cm4.c    ****      case 5:
 172:main_cm4.c    ****     
 173:main_cm4.c    ****      Cy_GPIO_Write(C0_PORT,C0_NUM,1);
 174:main_cm4.c    ****      Cy_GPIO_Write(C1_PORT,C1_NUM,0);
 175:main_cm4.c    ****      Cy_GPIO_Write(C2_PORT,C2_NUM,1);
 176:main_cm4.c    ****      Cy_GPIO_Write(C3_PORT,C3_NUM,0);
 177:main_cm4.c    ****     break;
 178:main_cm4.c    ****      case 6:
 179:main_cm4.c    ****    
 180:main_cm4.c    ****      Cy_GPIO_Write(C0_PORT,C0_NUM,0);
 181:main_cm4.c    ****      Cy_GPIO_Write(C1_PORT,C1_NUM,1);
 182:main_cm4.c    ****      Cy_GPIO_Write(C2_PORT,C2_NUM,1);
 183:main_cm4.c    ****      Cy_GPIO_Write(C3_PORT,C3_NUM,0);
 184:main_cm4.c    ****     break;
ARM GAS  C:\Users\dmula\AppData\Local\Temp\ccXnnfAd.s 			page 40


 185:main_cm4.c    ****      case 7:
 186:main_cm4.c    ****      
 187:main_cm4.c    ****      Cy_GPIO_Write(C0_PORT,C0_NUM,1);
 188:main_cm4.c    ****      Cy_GPIO_Write(C1_PORT,C1_NUM,1);
 189:main_cm4.c    ****      Cy_GPIO_Write(C2_PORT,C2_NUM,1);
 190:main_cm4.c    ****      Cy_GPIO_Write(C3_PORT,C3_NUM,0);
 191:main_cm4.c    ****     break;
 192:main_cm4.c    ****      case 8:
 193:main_cm4.c    ****       
 194:main_cm4.c    ****      Cy_GPIO_Write(C0_PORT,C0_NUM,0);
 195:main_cm4.c    ****      Cy_GPIO_Write(C1_PORT,C1_NUM,0);
 196:main_cm4.c    ****      Cy_GPIO_Write(C2_PORT,C2_NUM,0);
 197:main_cm4.c    ****      Cy_GPIO_Write(C3_PORT,C3_NUM,1);
 198:main_cm4.c    ****     break;
 199:main_cm4.c    ****      case 9:
 200:main_cm4.c    ****       
 201:main_cm4.c    ****      Cy_GPIO_Write(C0_PORT,C0_NUM,1);
 202:main_cm4.c    ****      Cy_GPIO_Write(C1_PORT,C1_NUM,0);
 203:main_cm4.c    ****      Cy_GPIO_Write(C2_PORT,C2_NUM,0);
 204:main_cm4.c    ****      Cy_GPIO_Write(C3_PORT,C3_NUM,1);
 205:main_cm4.c    ****     break;
 206:main_cm4.c    ****      case 10:
 207:main_cm4.c    ****     
 208:main_cm4.c    ****      Cy_GPIO_Write(C0_PORT,C0_NUM,0);
 209:main_cm4.c    ****      Cy_GPIO_Write(C1_PORT,C1_NUM,1);
 210:main_cm4.c    ****      Cy_GPIO_Write(C2_PORT,C2_NUM,0);
 211:main_cm4.c    ****      Cy_GPIO_Write(C3_PORT,C3_NUM,1);
 212:main_cm4.c    ****     break;
 213:main_cm4.c    ****      case 11:
 214:main_cm4.c    ****     
 215:main_cm4.c    ****      Cy_GPIO_Write(C0_PORT,C0_NUM,1);
 216:main_cm4.c    ****      Cy_GPIO_Write(C1_PORT,C1_NUM,1);
 217:main_cm4.c    ****      Cy_GPIO_Write(C2_PORT,C2_NUM,0);
 218:main_cm4.c    ****      Cy_GPIO_Write(C3_PORT,C3_NUM,1);
 219:main_cm4.c    ****     break;
 220:main_cm4.c    ****      case 12:
 221:main_cm4.c    ****      Cy_GPIO_Write(C0_PORT,C0_NUM,0);
 222:main_cm4.c    ****      Cy_GPIO_Write(C1_PORT,C1_NUM,0);
 223:main_cm4.c    ****      Cy_GPIO_Write(C2_PORT,C2_NUM,1);
 224:main_cm4.c    ****      Cy_GPIO_Write(C3_PORT,C3_NUM,1);
 225:main_cm4.c    ****     break;
 226:main_cm4.c    ****      case 13: 
 227:main_cm4.c    ****      Cy_GPIO_Write(C0_PORT,C0_NUM,1);
 228:main_cm4.c    ****      Cy_GPIO_Write(C1_PORT,C1_NUM,0);
 229:main_cm4.c    ****      Cy_GPIO_Write(C2_PORT,C2_NUM,1);
 230:main_cm4.c    ****      Cy_GPIO_Write(C3_PORT,C3_NUM,1);
 231:main_cm4.c    ****     
 232:main_cm4.c    ****     break;
 233:main_cm4.c    ****      case 14:
 234:main_cm4.c    ****      Cy_GPIO_Write(C0_PORT,C0_NUM,0);
 235:main_cm4.c    ****      Cy_GPIO_Write(C1_PORT,C1_NUM,1);
 236:main_cm4.c    ****      Cy_GPIO_Write(C2_PORT,C2_NUM,1);
 237:main_cm4.c    ****      Cy_GPIO_Write(C3_PORT,C3_NUM,1);
 238:main_cm4.c    **** 
 239:main_cm4.c    ****     break;
 240:main_cm4.c    ****      case 15:
 241:main_cm4.c    ****      Cy_GPIO_Write(C0_PORT,C0_NUM,1);
ARM GAS  C:\Users\dmula\AppData\Local\Temp\ccXnnfAd.s 			page 41


 242:main_cm4.c    ****      Cy_GPIO_Write(C1_PORT,C1_NUM,1);
 243:main_cm4.c    ****      Cy_GPIO_Write(C2_PORT,C2_NUM,1);
 244:main_cm4.c    ****      Cy_GPIO_Write(C3_PORT,C3_NUM,1);
 245:main_cm4.c    ****     break;
 246:main_cm4.c    **** }
 247:main_cm4.c    **** }
 248:main_cm4.c    **** 
 249:main_cm4.c    **** 
 250:main_cm4.c    **** void states(){
 1192              		.loc 1 250 0
 1193              		.cfi_startproc
 1194              		@ args = 0, pretend = 0, frame = 0
 1195              		@ frame_needed = 0, uses_anonymous_args = 0
 1196              		@ link register save eliminated.
 1197              	.LVL132:
 1198              	.LBB538:
 1199              	.LBB539:
 818:Generated_Source\PSoC6\pdl\drivers/peripheral/gpio/cy_gpio.h ****     }
 819:Generated_Source\PSoC6\pdl\drivers/peripheral/gpio/cy_gpio.h **** }
 820:Generated_Source\PSoC6\pdl\drivers/peripheral/gpio/cy_gpio.h **** 
 821:Generated_Source\PSoC6\pdl\drivers/peripheral/gpio/cy_gpio.h **** 
 822:Generated_Source\PSoC6\pdl\drivers/peripheral/gpio/cy_gpio.h **** /*******************************************************************************
 823:Generated_Source\PSoC6\pdl\drivers/peripheral/gpio/cy_gpio.h **** * Function Name: Cy_GPIO_ReadOut
 824:Generated_Source\PSoC6\pdl\drivers/peripheral/gpio/cy_gpio.h **** ****************************************************************************//**
 825:Generated_Source\PSoC6\pdl\drivers/peripheral/gpio/cy_gpio.h **** *
 826:Generated_Source\PSoC6\pdl\drivers/peripheral/gpio/cy_gpio.h **** * Reads the current logic level on the pin output driver.
 827:Generated_Source\PSoC6\pdl\drivers/peripheral/gpio/cy_gpio.h **** *
 828:Generated_Source\PSoC6\pdl\drivers/peripheral/gpio/cy_gpio.h **** * \param base
 829:Generated_Source\PSoC6\pdl\drivers/peripheral/gpio/cy_gpio.h **** * Pointer to the pin's port register base address
 830:Generated_Source\PSoC6\pdl\drivers/peripheral/gpio/cy_gpio.h **** *
 831:Generated_Source\PSoC6\pdl\drivers/peripheral/gpio/cy_gpio.h **** * \param pinNum
 832:Generated_Source\PSoC6\pdl\drivers/peripheral/gpio/cy_gpio.h **** * Position of the pin bit-field within the port register
 833:Generated_Source\PSoC6\pdl\drivers/peripheral/gpio/cy_gpio.h **** *
 834:Generated_Source\PSoC6\pdl\drivers/peripheral/gpio/cy_gpio.h **** * \return
 835:Generated_Source\PSoC6\pdl\drivers/peripheral/gpio/cy_gpio.h **** * Logic level on the pin output driver
 836:Generated_Source\PSoC6\pdl\drivers/peripheral/gpio/cy_gpio.h **** *
 837:Generated_Source\PSoC6\pdl\drivers/peripheral/gpio/cy_gpio.h **** * \funcusage
 838:Generated_Source\PSoC6\pdl\drivers/peripheral/gpio/cy_gpio.h **** * \snippet gpio/gpio_v1_10_sut_01.cydsn/main_cm4.c snippet_Cy_GPIO_ReadOut
 839:Generated_Source\PSoC6\pdl\drivers/peripheral/gpio/cy_gpio.h **** *
 840:Generated_Source\PSoC6\pdl\drivers/peripheral/gpio/cy_gpio.h **** *******************************************************************************/
 841:Generated_Source\PSoC6\pdl\drivers/peripheral/gpio/cy_gpio.h **** __STATIC_INLINE uint32_t Cy_GPIO_ReadOut(GPIO_PRT_Type* base, uint32_t pinNum)
 842:Generated_Source\PSoC6\pdl\drivers/peripheral/gpio/cy_gpio.h **** {
 843:Generated_Source\PSoC6\pdl\drivers/peripheral/gpio/cy_gpio.h ****     CY_ASSERT_L2(CY_GPIO_IS_PIN_VALID(pinNum));
 844:Generated_Source\PSoC6\pdl\drivers/peripheral/gpio/cy_gpio.h **** 
 845:Generated_Source\PSoC6\pdl\drivers/peripheral/gpio/cy_gpio.h ****     return (GPIO_PRT_OUT(base) >> pinNum) & CY_GPIO_OUT_MASK;
 1200              		.loc 2 845 0
 1201 0000 124B     		ldr	r3, .L44
 1202 0002 1968     		ldr	r1, [r3]
 1203 0004 01F00101 		and	r1, r1, #1
 1204              	.LVL133:
 1205              	.LBE539:
 1206              	.LBE538:
 251:main_cm4.c    ****   row[0]    = Cy_GPIO_ReadOut(R0_PORT,R0_NUM);
 1207              		.loc 1 251 0
 1208 0008 114A     		ldr	r2, .L44+4
 1209 000a 1160     		str	r1, [r2]
 1210              	.LVL134:
ARM GAS  C:\Users\dmula\AppData\Local\Temp\ccXnnfAd.s 			page 42


 1211              	.LBB540:
 1212              	.LBB541:
 1213              		.loc 2 845 0
 1214 000c 1968     		ldr	r1, [r3]
 1215 000e C1F34001 		ubfx	r1, r1, #1, #1
 1216              	.LVL135:
 1217              	.LBE541:
 1218              	.LBE540:
 252:main_cm4.c    ****   row[1]    = Cy_GPIO_ReadOut(R1_PORT,R1_NUM);
 1219              		.loc 1 252 0
 1220 0012 5160     		str	r1, [r2, #4]
 1221              	.LVL136:
 1222              	.LBB542:
 1223              	.LBB543:
 1224              		.loc 2 845 0
 1225 0014 1968     		ldr	r1, [r3]
 1226 0016 C1F38001 		ubfx	r1, r1, #2, #1
 1227              	.LVL137:
 1228              	.LBE543:
 1229              	.LBE542:
 253:main_cm4.c    ****   row[2]    = Cy_GPIO_ReadOut(R2_PORT,R2_NUM);
 1230              		.loc 1 253 0
 1231 001a 9160     		str	r1, [r2, #8]
 1232              	.LVL138:
 1233              	.LBB544:
 1234              	.LBB545:
 1235              		.loc 2 845 0
 1236 001c 1968     		ldr	r1, [r3]
 1237 001e C1F3C001 		ubfx	r1, r1, #3, #1
 1238              	.LVL139:
 1239              	.LBE545:
 1240              	.LBE544:
 254:main_cm4.c    ****   row[3]    = Cy_GPIO_ReadOut(R3_PORT,R3_NUM); 
 1241              		.loc 1 254 0
 1242 0022 D160     		str	r1, [r2, #12]
 1243              	.LVL140:
 1244              	.LBB546:
 1245              	.LBB547:
 1246              		.loc 2 845 0
 1247 0024 1968     		ldr	r1, [r3]
 1248 0026 01F00101 		and	r1, r1, #1
 1249              	.LVL141:
 1250              	.LBE547:
 1251              	.LBE546:
 255:main_cm4.c    ****   column[0] = Cy_GPIO_ReadOut(C0_PORT,R0_NUM);
 1252              		.loc 1 255 0
 1253 002a 0A4A     		ldr	r2, .L44+8
 1254 002c 1160     		str	r1, [r2]
 1255              	.LVL142:
 1256              	.LBB548:
 1257              	.LBB549:
 1258              		.loc 2 845 0
 1259 002e 1B68     		ldr	r3, [r3]
 1260 0030 C3F34003 		ubfx	r3, r3, #1, #1
 1261              	.LVL143:
 1262              	.LBE549:
 1263              	.LBE548:
ARM GAS  C:\Users\dmula\AppData\Local\Temp\ccXnnfAd.s 			page 43


 256:main_cm4.c    ****   column[1] = Cy_GPIO_ReadOut(C1_PORT,R1_NUM);
 1264              		.loc 1 256 0
 1265 0034 5360     		str	r3, [r2, #4]
 1266              	.LVL144:
 1267              	.LBB550:
 1268              	.LBB551:
 1269              		.loc 2 845 0
 1270 0036 0849     		ldr	r1, .L44+12
 1271 0038 0B68     		ldr	r3, [r1]
 1272 003a C3F38003 		ubfx	r3, r3, #2, #1
 1273              	.LVL145:
 1274              	.LBE551:
 1275              	.LBE550:
 257:main_cm4.c    ****   column[2] = Cy_GPIO_ReadOut(C2_PORT,R2_NUM);
 1276              		.loc 1 257 0
 1277 003e 9360     		str	r3, [r2, #8]
 1278              	.LVL146:
 1279              	.LBB552:
 1280              	.LBB553:
 1281              		.loc 2 845 0
 1282 0040 0B68     		ldr	r3, [r1]
 1283 0042 C3F3C003 		ubfx	r3, r3, #3, #1
 1284              	.LVL147:
 1285              	.LBE553:
 1286              	.LBE552:
 258:main_cm4.c    ****   column[3] = Cy_GPIO_ReadOut(C3_PORT,R3_NUM); 
 1287              		.loc 1 258 0
 1288 0046 D360     		str	r3, [r2, #12]
 1289 0048 7047     		bx	lr
 1290              	.L45:
 1291 004a 00BF     		.align	2
 1292              	.L44:
 1293 004c 80043240 		.word	1077019776
 1294 0050 00000000 		.word	row
 1295 0054 00000000 		.word	column
 1296 0058 00033240 		.word	1077019392
 1297              		.cfi_endproc
 1298              	.LFE531:
 1299              		.size	states, .-states
 1300              		.global	__aeabi_f2d
 1301              		.section	.text.main,"ax",%progbits
 1302              		.align	2
 1303              		.global	main
 1304              		.thumb
 1305              		.thumb_func
 1306              		.type	main, %function
 1307              	main:
 1308              	.LFB532:
 259:main_cm4.c    ****    }
 260:main_cm4.c    **** 
 261:main_cm4.c    **** 
 262:main_cm4.c    **** int main(void)
 263:main_cm4.c    **** {    
 1309              		.loc 1 263 0
 1310              		.cfi_startproc
 1311              		@ args = 0, pretend = 0, frame = 0
 1312              		@ frame_needed = 0, uses_anonymous_args = 0
ARM GAS  C:\Users\dmula\AppData\Local\Temp\ccXnnfAd.s 			page 44


 1313 0000 30B5     		push	{r4, r5, lr}
 1314              		.cfi_def_cfa_offset 12
 1315              		.cfi_offset 4, -12
 1316              		.cfi_offset 5, -8
 1317              		.cfi_offset 14, -4
 1318 0002 83B0     		sub	sp, sp, #12
 1319              		.cfi_def_cfa_offset 24
 1320              	.LBB561:
 1321              	.LBB562:
 1322              		.file 3 "Generated_Source\\PSoC6\\pdl\\cmsis/include/cmsis_gcc.h"
   1:Generated_Source\PSoC6\pdl\cmsis/include/cmsis_gcc.h **** /**************************************************************************//**
   2:Generated_Source\PSoC6\pdl\cmsis/include/cmsis_gcc.h ****  * @file     cmsis_gcc.h
   3:Generated_Source\PSoC6\pdl\cmsis/include/cmsis_gcc.h ****  * @brief    CMSIS compiler GCC header file
   4:Generated_Source\PSoC6\pdl\cmsis/include/cmsis_gcc.h ****  * @version  V5.0.3
   5:Generated_Source\PSoC6\pdl\cmsis/include/cmsis_gcc.h ****  * @date     16. January 2018
   6:Generated_Source\PSoC6\pdl\cmsis/include/cmsis_gcc.h ****  ******************************************************************************/
   7:Generated_Source\PSoC6\pdl\cmsis/include/cmsis_gcc.h **** /*
   8:Generated_Source\PSoC6\pdl\cmsis/include/cmsis_gcc.h ****  * Copyright (c) 2009-2017 ARM Limited. All rights reserved.
   9:Generated_Source\PSoC6\pdl\cmsis/include/cmsis_gcc.h ****  *
  10:Generated_Source\PSoC6\pdl\cmsis/include/cmsis_gcc.h ****  * SPDX-License-Identifier: Apache-2.0
  11:Generated_Source\PSoC6\pdl\cmsis/include/cmsis_gcc.h ****  *
  12:Generated_Source\PSoC6\pdl\cmsis/include/cmsis_gcc.h ****  * Licensed under the Apache License, Version 2.0 (the License); you may
  13:Generated_Source\PSoC6\pdl\cmsis/include/cmsis_gcc.h ****  * not use this file except in compliance with the License.
  14:Generated_Source\PSoC6\pdl\cmsis/include/cmsis_gcc.h ****  * You may obtain a copy of the License at
  15:Generated_Source\PSoC6\pdl\cmsis/include/cmsis_gcc.h ****  *
  16:Generated_Source\PSoC6\pdl\cmsis/include/cmsis_gcc.h ****  * www.apache.org/licenses/LICENSE-2.0
  17:Generated_Source\PSoC6\pdl\cmsis/include/cmsis_gcc.h ****  *
  18:Generated_Source\PSoC6\pdl\cmsis/include/cmsis_gcc.h ****  * Unless required by applicable law or agreed to in writing, software
  19:Generated_Source\PSoC6\pdl\cmsis/include/cmsis_gcc.h ****  * distributed under the License is distributed on an AS IS BASIS, WITHOUT
  20:Generated_Source\PSoC6\pdl\cmsis/include/cmsis_gcc.h ****  * WARRANTIES OR CONDITIONS OF ANY KIND, either express or implied.
  21:Generated_Source\PSoC6\pdl\cmsis/include/cmsis_gcc.h ****  * See the License for the specific language governing permissions and
  22:Generated_Source\PSoC6\pdl\cmsis/include/cmsis_gcc.h ****  * limitations under the License.
  23:Generated_Source\PSoC6\pdl\cmsis/include/cmsis_gcc.h ****  */
  24:Generated_Source\PSoC6\pdl\cmsis/include/cmsis_gcc.h **** 
  25:Generated_Source\PSoC6\pdl\cmsis/include/cmsis_gcc.h **** #ifndef __CMSIS_GCC_H
  26:Generated_Source\PSoC6\pdl\cmsis/include/cmsis_gcc.h **** #define __CMSIS_GCC_H
  27:Generated_Source\PSoC6\pdl\cmsis/include/cmsis_gcc.h **** 
  28:Generated_Source\PSoC6\pdl\cmsis/include/cmsis_gcc.h **** /* ignore some GCC warnings */
  29:Generated_Source\PSoC6\pdl\cmsis/include/cmsis_gcc.h **** #pragma GCC diagnostic push
  30:Generated_Source\PSoC6\pdl\cmsis/include/cmsis_gcc.h **** #pragma GCC diagnostic ignored "-Wsign-conversion"
  31:Generated_Source\PSoC6\pdl\cmsis/include/cmsis_gcc.h **** #pragma GCC diagnostic ignored "-Wconversion"
  32:Generated_Source\PSoC6\pdl\cmsis/include/cmsis_gcc.h **** #pragma GCC diagnostic ignored "-Wunused-parameter"
  33:Generated_Source\PSoC6\pdl\cmsis/include/cmsis_gcc.h **** 
  34:Generated_Source\PSoC6\pdl\cmsis/include/cmsis_gcc.h **** /* Fallback for __has_builtin */
  35:Generated_Source\PSoC6\pdl\cmsis/include/cmsis_gcc.h **** #ifndef __has_builtin
  36:Generated_Source\PSoC6\pdl\cmsis/include/cmsis_gcc.h ****   #define __has_builtin(x) (0)
  37:Generated_Source\PSoC6\pdl\cmsis/include/cmsis_gcc.h **** #endif
  38:Generated_Source\PSoC6\pdl\cmsis/include/cmsis_gcc.h **** 
  39:Generated_Source\PSoC6\pdl\cmsis/include/cmsis_gcc.h **** /* CMSIS compiler specific defines */
  40:Generated_Source\PSoC6\pdl\cmsis/include/cmsis_gcc.h **** #ifndef   __ASM
  41:Generated_Source\PSoC6\pdl\cmsis/include/cmsis_gcc.h ****   #define __ASM                                  __asm
  42:Generated_Source\PSoC6\pdl\cmsis/include/cmsis_gcc.h **** #endif
  43:Generated_Source\PSoC6\pdl\cmsis/include/cmsis_gcc.h **** #ifndef   __INLINE
  44:Generated_Source\PSoC6\pdl\cmsis/include/cmsis_gcc.h ****   #define __INLINE                               inline
  45:Generated_Source\PSoC6\pdl\cmsis/include/cmsis_gcc.h **** #endif
  46:Generated_Source\PSoC6\pdl\cmsis/include/cmsis_gcc.h **** #ifndef   __STATIC_INLINE
  47:Generated_Source\PSoC6\pdl\cmsis/include/cmsis_gcc.h ****   #define __STATIC_INLINE                        static inline
ARM GAS  C:\Users\dmula\AppData\Local\Temp\ccXnnfAd.s 			page 45


  48:Generated_Source\PSoC6\pdl\cmsis/include/cmsis_gcc.h **** #endif
  49:Generated_Source\PSoC6\pdl\cmsis/include/cmsis_gcc.h **** #ifndef   __STATIC_FORCEINLINE                 
  50:Generated_Source\PSoC6\pdl\cmsis/include/cmsis_gcc.h ****   #define __STATIC_FORCEINLINE                   __attribute__((always_inline)) static inline
  51:Generated_Source\PSoC6\pdl\cmsis/include/cmsis_gcc.h **** #endif                                           
  52:Generated_Source\PSoC6\pdl\cmsis/include/cmsis_gcc.h **** #ifndef   __NO_RETURN
  53:Generated_Source\PSoC6\pdl\cmsis/include/cmsis_gcc.h ****   #define __NO_RETURN                            __attribute__((__noreturn__))
  54:Generated_Source\PSoC6\pdl\cmsis/include/cmsis_gcc.h **** #endif
  55:Generated_Source\PSoC6\pdl\cmsis/include/cmsis_gcc.h **** #ifndef   __USED
  56:Generated_Source\PSoC6\pdl\cmsis/include/cmsis_gcc.h ****   #define __USED                                 __attribute__((used))
  57:Generated_Source\PSoC6\pdl\cmsis/include/cmsis_gcc.h **** #endif
  58:Generated_Source\PSoC6\pdl\cmsis/include/cmsis_gcc.h **** #ifndef   __WEAK
  59:Generated_Source\PSoC6\pdl\cmsis/include/cmsis_gcc.h ****   #define __WEAK                                 __attribute__((weak))
  60:Generated_Source\PSoC6\pdl\cmsis/include/cmsis_gcc.h **** #endif
  61:Generated_Source\PSoC6\pdl\cmsis/include/cmsis_gcc.h **** #ifndef   __PACKED
  62:Generated_Source\PSoC6\pdl\cmsis/include/cmsis_gcc.h ****   #define __PACKED                               __attribute__((packed, aligned(1)))
  63:Generated_Source\PSoC6\pdl\cmsis/include/cmsis_gcc.h **** #endif
  64:Generated_Source\PSoC6\pdl\cmsis/include/cmsis_gcc.h **** #ifndef   __PACKED_STRUCT
  65:Generated_Source\PSoC6\pdl\cmsis/include/cmsis_gcc.h ****   #define __PACKED_STRUCT                        struct __attribute__((packed, aligned(1)))
  66:Generated_Source\PSoC6\pdl\cmsis/include/cmsis_gcc.h **** #endif
  67:Generated_Source\PSoC6\pdl\cmsis/include/cmsis_gcc.h **** #ifndef   __PACKED_UNION
  68:Generated_Source\PSoC6\pdl\cmsis/include/cmsis_gcc.h ****   #define __PACKED_UNION                         union __attribute__((packed, aligned(1)))
  69:Generated_Source\PSoC6\pdl\cmsis/include/cmsis_gcc.h **** #endif
  70:Generated_Source\PSoC6\pdl\cmsis/include/cmsis_gcc.h **** #ifndef   __UNALIGNED_UINT32        /* deprecated */
  71:Generated_Source\PSoC6\pdl\cmsis/include/cmsis_gcc.h ****   #pragma GCC diagnostic push
  72:Generated_Source\PSoC6\pdl\cmsis/include/cmsis_gcc.h ****   #pragma GCC diagnostic ignored "-Wpacked"
  73:Generated_Source\PSoC6\pdl\cmsis/include/cmsis_gcc.h ****   #pragma GCC diagnostic ignored "-Wattributes"
  74:Generated_Source\PSoC6\pdl\cmsis/include/cmsis_gcc.h ****   struct __attribute__((packed)) T_UINT32 { uint32_t v; };
  75:Generated_Source\PSoC6\pdl\cmsis/include/cmsis_gcc.h ****   #pragma GCC diagnostic pop
  76:Generated_Source\PSoC6\pdl\cmsis/include/cmsis_gcc.h ****   #define __UNALIGNED_UINT32(x)                  (((struct T_UINT32 *)(x))->v)
  77:Generated_Source\PSoC6\pdl\cmsis/include/cmsis_gcc.h **** #endif
  78:Generated_Source\PSoC6\pdl\cmsis/include/cmsis_gcc.h **** #ifndef   __UNALIGNED_UINT16_WRITE
  79:Generated_Source\PSoC6\pdl\cmsis/include/cmsis_gcc.h ****   #pragma GCC diagnostic push
  80:Generated_Source\PSoC6\pdl\cmsis/include/cmsis_gcc.h ****   #pragma GCC diagnostic ignored "-Wpacked"
  81:Generated_Source\PSoC6\pdl\cmsis/include/cmsis_gcc.h ****   #pragma GCC diagnostic ignored "-Wattributes"
  82:Generated_Source\PSoC6\pdl\cmsis/include/cmsis_gcc.h ****   __PACKED_STRUCT T_UINT16_WRITE { uint16_t v; };
  83:Generated_Source\PSoC6\pdl\cmsis/include/cmsis_gcc.h ****   #pragma GCC diagnostic pop
  84:Generated_Source\PSoC6\pdl\cmsis/include/cmsis_gcc.h ****   #define __UNALIGNED_UINT16_WRITE(addr, val)    (void)((((struct T_UINT16_WRITE *)(void *)(addr))-
  85:Generated_Source\PSoC6\pdl\cmsis/include/cmsis_gcc.h **** #endif
  86:Generated_Source\PSoC6\pdl\cmsis/include/cmsis_gcc.h **** #ifndef   __UNALIGNED_UINT16_READ
  87:Generated_Source\PSoC6\pdl\cmsis/include/cmsis_gcc.h ****   #pragma GCC diagnostic push
  88:Generated_Source\PSoC6\pdl\cmsis/include/cmsis_gcc.h ****   #pragma GCC diagnostic ignored "-Wpacked"
  89:Generated_Source\PSoC6\pdl\cmsis/include/cmsis_gcc.h ****   #pragma GCC diagnostic ignored "-Wattributes"
  90:Generated_Source\PSoC6\pdl\cmsis/include/cmsis_gcc.h ****   __PACKED_STRUCT T_UINT16_READ { uint16_t v; };
  91:Generated_Source\PSoC6\pdl\cmsis/include/cmsis_gcc.h ****   #pragma GCC diagnostic pop
  92:Generated_Source\PSoC6\pdl\cmsis/include/cmsis_gcc.h ****   #define __UNALIGNED_UINT16_READ(addr)          (((const struct T_UINT16_READ *)(const void *)(add
  93:Generated_Source\PSoC6\pdl\cmsis/include/cmsis_gcc.h **** #endif
  94:Generated_Source\PSoC6\pdl\cmsis/include/cmsis_gcc.h **** #ifndef   __UNALIGNED_UINT32_WRITE
  95:Generated_Source\PSoC6\pdl\cmsis/include/cmsis_gcc.h ****   #pragma GCC diagnostic push
  96:Generated_Source\PSoC6\pdl\cmsis/include/cmsis_gcc.h ****   #pragma GCC diagnostic ignored "-Wpacked"
  97:Generated_Source\PSoC6\pdl\cmsis/include/cmsis_gcc.h ****   #pragma GCC diagnostic ignored "-Wattributes"
  98:Generated_Source\PSoC6\pdl\cmsis/include/cmsis_gcc.h ****   __PACKED_STRUCT T_UINT32_WRITE { uint32_t v; };
  99:Generated_Source\PSoC6\pdl\cmsis/include/cmsis_gcc.h ****   #pragma GCC diagnostic pop
 100:Generated_Source\PSoC6\pdl\cmsis/include/cmsis_gcc.h ****   #define __UNALIGNED_UINT32_WRITE(addr, val)    (void)((((struct T_UINT32_WRITE *)(void *)(addr))-
 101:Generated_Source\PSoC6\pdl\cmsis/include/cmsis_gcc.h **** #endif
 102:Generated_Source\PSoC6\pdl\cmsis/include/cmsis_gcc.h **** #ifndef   __UNALIGNED_UINT32_READ
 103:Generated_Source\PSoC6\pdl\cmsis/include/cmsis_gcc.h ****   #pragma GCC diagnostic push
 104:Generated_Source\PSoC6\pdl\cmsis/include/cmsis_gcc.h ****   #pragma GCC diagnostic ignored "-Wpacked"
ARM GAS  C:\Users\dmula\AppData\Local\Temp\ccXnnfAd.s 			page 46


 105:Generated_Source\PSoC6\pdl\cmsis/include/cmsis_gcc.h ****   #pragma GCC diagnostic ignored "-Wattributes"
 106:Generated_Source\PSoC6\pdl\cmsis/include/cmsis_gcc.h ****   __PACKED_STRUCT T_UINT32_READ { uint32_t v; };
 107:Generated_Source\PSoC6\pdl\cmsis/include/cmsis_gcc.h ****   #pragma GCC diagnostic pop
 108:Generated_Source\PSoC6\pdl\cmsis/include/cmsis_gcc.h ****   #define __UNALIGNED_UINT32_READ(addr)          (((const struct T_UINT32_READ *)(const void *)(add
 109:Generated_Source\PSoC6\pdl\cmsis/include/cmsis_gcc.h **** #endif
 110:Generated_Source\PSoC6\pdl\cmsis/include/cmsis_gcc.h **** #ifndef   __ALIGNED
 111:Generated_Source\PSoC6\pdl\cmsis/include/cmsis_gcc.h ****   #define __ALIGNED(x)                           __attribute__((aligned(x)))
 112:Generated_Source\PSoC6\pdl\cmsis/include/cmsis_gcc.h **** #endif
 113:Generated_Source\PSoC6\pdl\cmsis/include/cmsis_gcc.h **** #ifndef   __RESTRICT
 114:Generated_Source\PSoC6\pdl\cmsis/include/cmsis_gcc.h ****   #define __RESTRICT                             __restrict
 115:Generated_Source\PSoC6\pdl\cmsis/include/cmsis_gcc.h **** #endif
 116:Generated_Source\PSoC6\pdl\cmsis/include/cmsis_gcc.h **** 
 117:Generated_Source\PSoC6\pdl\cmsis/include/cmsis_gcc.h **** 
 118:Generated_Source\PSoC6\pdl\cmsis/include/cmsis_gcc.h **** /* ###########################  Core Function Access  ########################### */
 119:Generated_Source\PSoC6\pdl\cmsis/include/cmsis_gcc.h **** /** \ingroup  CMSIS_Core_FunctionInterface
 120:Generated_Source\PSoC6\pdl\cmsis/include/cmsis_gcc.h ****     \defgroup CMSIS_Core_RegAccFunctions CMSIS Core Register Access Functions
 121:Generated_Source\PSoC6\pdl\cmsis/include/cmsis_gcc.h ****   @{
 122:Generated_Source\PSoC6\pdl\cmsis/include/cmsis_gcc.h ****  */
 123:Generated_Source\PSoC6\pdl\cmsis/include/cmsis_gcc.h **** 
 124:Generated_Source\PSoC6\pdl\cmsis/include/cmsis_gcc.h **** /**
 125:Generated_Source\PSoC6\pdl\cmsis/include/cmsis_gcc.h ****   \brief   Enable IRQ Interrupts
 126:Generated_Source\PSoC6\pdl\cmsis/include/cmsis_gcc.h ****   \details Enables IRQ interrupts by clearing the I-bit in the CPSR.
 127:Generated_Source\PSoC6\pdl\cmsis/include/cmsis_gcc.h ****            Can only be executed in Privileged modes.
 128:Generated_Source\PSoC6\pdl\cmsis/include/cmsis_gcc.h ****  */
 129:Generated_Source\PSoC6\pdl\cmsis/include/cmsis_gcc.h **** __STATIC_FORCEINLINE void __enable_irq(void)
 130:Generated_Source\PSoC6\pdl\cmsis/include/cmsis_gcc.h **** {
 131:Generated_Source\PSoC6\pdl\cmsis/include/cmsis_gcc.h ****   __ASM volatile ("cpsie i" : : : "memory");
 1323              		.loc 3 131 0
 1324              		.syntax unified
 1325              	@ 131 "Generated_Source\PSoC6\pdl\cmsis/include/cmsis_gcc.h" 1
 1326 0004 62B6     		cpsie i
 1327              	@ 0 "" 2
 1328              		.thumb
 1329              		.syntax unified
 1330              	.LBE562:
 1331              	.LBE561:
 264:main_cm4.c    ****     __enable_irq(); 
 265:main_cm4.c    ****     // Enable UART and ADC
 266:main_cm4.c    ****     UART_Start();
 1332              		.loc 1 266 0
 1333 0006 FFF7FEFF 		bl	UART_Start
 1334              	.LVL148:
 267:main_cm4.c    ****     ADC_1_Init();
 1335              		.loc 1 267 0
 1336 000a FFF7FEFF 		bl	ADC_1_Init
 1337              	.LVL149:
 268:main_cm4.c    ****     ADC_1_Start();
 1338              		.loc 1 268 0
 1339 000e FFF7FEFF 		bl	ADC_1_Start
 1340              	.LVL150:
 269:main_cm4.c    ****     ADC_1_StartConvert();
 1341              		.loc 1 269 0
 1342 0012 FFF7FEFF 		bl	ADC_1_StartConvert
 1343              	.LVL151:
 270:main_cm4.c    ****     setvbuf(stdin, NULL,_IONBF,0); 
 1344              		.loc 1 270 0
 1345 0016 2D4B     		ldr	r3, .L56
ARM GAS  C:\Users\dmula\AppData\Local\Temp\ccXnnfAd.s 			page 47


 1346 0018 1868     		ldr	r0, [r3]
 1347 001a 0023     		movs	r3, #0
 1348 001c 0222     		movs	r2, #2
 1349 001e 1946     		mov	r1, r3
 1350 0020 4068     		ldr	r0, [r0, #4]
 1351 0022 FFF7FEFF 		bl	setvbuf
 1352              	.LVL152:
 1353              	.L47:
 271:main_cm4.c    ****     // Variables for ADC values
 272:main_cm4.c    ****     float voltagereading,actualValue; 
 273:main_cm4.c    ****     int r = 0;
 274:main_cm4.c    ****     int c = 0; 
 275:main_cm4.c    ****     int count = 0;
 276:main_cm4.c    ****     
 277:main_cm4.c    ****     int size;
 278:main_cm4.c    ****     size = 8;
 279:main_cm4.c    ****     
 280:main_cm4.c    ****     for(;;) 
 281:main_cm4.c    ****     {       
 282:main_cm4.c    ****         
 283:main_cm4.c    ****         printf("started \n\r");
 1354              		.loc 1 283 0
 1355 0026 2A48     		ldr	r0, .L56+4
 1356 0028 FFF7FEFF 		bl	printf
 1357              	.LVL153:
 1358              	.LBB563:
 1359              	.LBB564:
 779:Generated_Source\PSoC6\pdl\drivers/peripheral/gpio/cy_gpio.h **** }
 1360              		.loc 2 779 0
 1361 002c 294B     		ldr	r3, .L56+8
 1362 002e 1B69     		ldr	r3, [r3, #16]
 1363              	.LVL154:
 1364              	.LBE564:
 1365              	.LBE563:
 284:main_cm4.c    ****      
 285:main_cm4.c    ****          //voltagereading = ADC_1_CountsTo_Volts(0,actualValue);
 286:main_cm4.c    ****          //voltagereading = (int)voltagereading;
 287:main_cm4.c    ****          
 288:main_cm4.c    ****           
 289:main_cm4.c    ****         
 290:main_cm4.c    ****         if(Cy_GPIO_Read(P0_4_PORT, P0_4_NUM))
 1366              		.loc 1 290 0
 1367 0030 13F0100F 		tst	r3, #16
 1368 0034 07D0     		beq	.L48
 291:main_cm4.c    ****             {
 292:main_cm4.c    ****                 //CLCD_PutString("Ready for Pic...") ;
 293:main_cm4.c    ****                 printf("not pressed \n\r");
 1369              		.loc 1 293 0
 1370 0036 2848     		ldr	r0, .L56+12
 1371 0038 FFF7FEFF 		bl	printf
 1372              	.LVL155:
 294:main_cm4.c    ****                 CyDelay(500);
 1373              		.loc 1 294 0
 1374 003c 4FF4FA70 		mov	r0, #500
 1375 0040 FFF7FEFF 		bl	Cy_SysLib_Delay
 1376              	.LVL156:
 1377 0044 EFE7     		b	.L47
ARM GAS  C:\Users\dmula\AppData\Local\Temp\ccXnnfAd.s 			page 48


 1378              	.L48:
 1379              	.LBB565:
 295:main_cm4.c    ****             }
 296:main_cm4.c    ****         else
 297:main_cm4.c    ****             {
 298:main_cm4.c    ****                //CLCD_Clear();
 299:main_cm4.c    ****                //CLCD_PutString("Acquiring Pic...");
 300:main_cm4.c    ****                 printf("pressed");
 1380              		.loc 1 300 0
 1381 0046 2548     		ldr	r0, .L56+16
 1382 0048 FFF7FEFF 		bl	printf
 1383              	.LVL157:
 301:main_cm4.c    ****                int i, j;
 302:main_cm4.c    ****                 
 303:main_cm4.c    ****                for(i = 0; i < size; i++)
 1384              		.loc 1 303 0
 1385 004c 0025     		movs	r5, #0
 1386 004e 37E0     		b	.L50
 1387              	.LVL158:
 1388              	.L54:
 304:main_cm4.c    ****             {
 305:main_cm4.c    ****                 rowselect(i);
 1389              		.loc 1 305 0
 1390 0050 2846     		mov	r0, r5
 1391 0052 FFF7FEFF 		bl	rowselect
 1392              	.LVL159:
 306:main_cm4.c    ****                 CyDelay(200);//Psoc is 6.7 ns; Mux needs 500 ns delay (THIS IS 1 ms)
 1393              		.loc 1 306 0
 1394 0056 C820     		movs	r0, #200
 1395 0058 FFF7FEFF 		bl	Cy_SysLib_Delay
 1396              	.LVL160:
 307:main_cm4.c    ****                 for(j=0; j<size; j++)
 1397              		.loc 1 307 0
 1398 005c 0024     		movs	r4, #0
 1399 005e 2CE0     		b	.L51
 1400              	.LVL161:
 1401              	.L53:
 308:main_cm4.c    ****                 { 
 309:main_cm4.c    ****                         columnselect(j);
 1402              		.loc 1 309 0 discriminator 3
 1403 0060 2046     		mov	r0, r4
 1404 0062 FFF7FEFF 		bl	columnselect
 1405              	.LVL162:
 310:main_cm4.c    ****                         CyDelay(200); //Psoc is 6.7 ns; Mux is 500 ns delay (THIS IS 1 ms)
 1406              		.loc 1 310 0 discriminator 3
 1407 0066 C820     		movs	r0, #200
 1408 0068 FFF7FEFF 		bl	Cy_SysLib_Delay
 1409              	.LVL163:
 311:main_cm4.c    ****                         
 312:main_cm4.c    ****                        // actualValue = ADC_1_GetResult16(0);
 313:main_cm4.c    ****                         //char myString[200];
 314:main_cm4.c    ****                     
 315:main_cm4.c    ****                         ADC_1_StartConvert();
 1410              		.loc 1 315 0 discriminator 3
 1411 006c FFF7FEFF 		bl	ADC_1_StartConvert
 1412              	.LVL164:
 316:main_cm4.c    ****                         ADC_1_IsEndConversion(1);
ARM GAS  C:\Users\dmula\AppData\Local\Temp\ccXnnfAd.s 			page 49


 1413              		.loc 1 316 0 discriminator 3
 1414 0070 0120     		movs	r0, #1
 1415 0072 FFF7FEFF 		bl	ADC_1_IsEndConversion
 1416              	.LVL165:
 1417              	.LBB566:
 1418              	.LBB567:
 1419              		.file 4 "Generated_Source\\PSoC6/ADC_1.h"
   1:Generated_Source\PSoC6/ADC_1.h **** /***************************************************************************//**
   2:Generated_Source\PSoC6/ADC_1.h **** * \file     ADC_1.h
   3:Generated_Source\PSoC6/ADC_1.h **** * \version  3.10
   4:Generated_Source\PSoC6/ADC_1.h **** *
   5:Generated_Source\PSoC6/ADC_1.h **** * \brief
   6:Generated_Source\PSoC6/ADC_1.h **** * Provides the source code to the API for the ADC_1 Component.
   7:Generated_Source\PSoC6/ADC_1.h **** *
   8:Generated_Source\PSoC6/ADC_1.h **** ********************************************************************************
   9:Generated_Source\PSoC6/ADC_1.h **** * \copyright
  10:Generated_Source\PSoC6/ADC_1.h **** * (c) 2017-2018, Cypress Semiconductor Corporation. All rights reserved.
  11:Generated_Source\PSoC6/ADC_1.h **** * This software, including source code, documentation and related
  12:Generated_Source\PSoC6/ADC_1.h **** * materials ("Software"), is owned by Cypress Semiconductor
  13:Generated_Source\PSoC6/ADC_1.h **** * Corporation ("Cypress") and is protected by and subject to worldwide
  14:Generated_Source\PSoC6/ADC_1.h **** * patent protection (United States and foreign), United States copyright
  15:Generated_Source\PSoC6/ADC_1.h **** * laws and international treaty provisions. Therefore, you may use this
  16:Generated_Source\PSoC6/ADC_1.h **** * Software only as provided in the license agreement accompanying the
  17:Generated_Source\PSoC6/ADC_1.h **** * software package from which you obtained this Software ("EULA").
  18:Generated_Source\PSoC6/ADC_1.h **** * If no EULA applies, Cypress hereby grants you a personal, nonexclusive,
  19:Generated_Source\PSoC6/ADC_1.h **** * non-transferable license to copy, modify, and compile the
  20:Generated_Source\PSoC6/ADC_1.h **** * Software source code solely for use in connection with Cypress's
  21:Generated_Source\PSoC6/ADC_1.h **** * integrated circuit products. Any reproduction, modification, translation,
  22:Generated_Source\PSoC6/ADC_1.h **** * compilation, or representation of this Software except as specified
  23:Generated_Source\PSoC6/ADC_1.h **** * above is prohibited without the express written permission of Cypress.
  24:Generated_Source\PSoC6/ADC_1.h **** * Disclaimer: THIS SOFTWARE IS PROVIDED AS-IS, WITH NO
  25:Generated_Source\PSoC6/ADC_1.h **** * WARRANTY OF ANY KIND, EXPRESS OR IMPLIED, INCLUDING,
  26:Generated_Source\PSoC6/ADC_1.h **** * BUT NOT LIMITED TO, NONINFRINGEMENT, IMPLIED
  27:Generated_Source\PSoC6/ADC_1.h **** * WARRANTIES OF MERCHANTABILITY AND FITNESS FOR A
  28:Generated_Source\PSoC6/ADC_1.h **** * PARTICULAR PURPOSE. Cypress reserves the right to make
  29:Generated_Source\PSoC6/ADC_1.h **** * changes to the Software without notice. Cypress does not assume any
  30:Generated_Source\PSoC6/ADC_1.h **** * liability arising out of the application or use of the Software or any
  31:Generated_Source\PSoC6/ADC_1.h **** * product or circuit described in the Software. Cypress does not
  32:Generated_Source\PSoC6/ADC_1.h **** * authorize its products for use in any products where a malfunction or
  33:Generated_Source\PSoC6/ADC_1.h **** * failure of the Cypress product may reasonably be expected to result in
  34:Generated_Source\PSoC6/ADC_1.h **** * significant property damage, injury or death ("High Risk Product"). By
  35:Generated_Source\PSoC6/ADC_1.h **** * including Cypress's product in a High Risk Product, the manufacturer
  36:Generated_Source\PSoC6/ADC_1.h **** * of such system or application assumes all risk of such use and in doing
  37:Generated_Source\PSoC6/ADC_1.h **** * so agrees to indemnify Cypress against all liability.
  38:Generated_Source\PSoC6/ADC_1.h **** *******************************************************************************/
  39:Generated_Source\PSoC6/ADC_1.h **** #if !defined(CY_ADC_1_H)
  40:Generated_Source\PSoC6/ADC_1.h **** #define CY_ADC_1_H
  41:Generated_Source\PSoC6/ADC_1.h **** 
  42:Generated_Source\PSoC6/ADC_1.h **** #include <cy_device_headers.h>
  43:Generated_Source\PSoC6/ADC_1.h **** #include <sar/cy_sar.h>
  44:Generated_Source\PSoC6/ADC_1.h **** 
  45:Generated_Source\PSoC6/ADC_1.h **** #define ADC_1_VREF_ROUTED                  ((0) == 1u)
  46:Generated_Source\PSoC6/ADC_1.h **** #if (ADC_1_VREF_ROUTED)
  47:Generated_Source\PSoC6/ADC_1.h **** #include "ADC_1_vrefAMux.h"
  48:Generated_Source\PSoC6/ADC_1.h **** #endif
  49:Generated_Source\PSoC6/ADC_1.h **** 
  50:Generated_Source\PSoC6/ADC_1.h **** #define ADC_1_CLOCK_INTERNAL               ((1) == 1u)
ARM GAS  C:\Users\dmula\AppData\Local\Temp\ccXnnfAd.s 			page 50


  51:Generated_Source\PSoC6/ADC_1.h **** #if (ADC_1_CLOCK_INTERNAL)
  52:Generated_Source\PSoC6/ADC_1.h **** #include "ADC_1_intSarClock.h"
  53:Generated_Source\PSoC6/ADC_1.h **** #endif /* ADC_1_CLOCK_INTERNAL */
  54:Generated_Source\PSoC6/ADC_1.h **** 
  55:Generated_Source\PSoC6/ADC_1.h **** /**
  56:Generated_Source\PSoC6/ADC_1.h **** * \addtogroup group_structures
  57:Generated_Source\PSoC6/ADC_1.h **** *
  58:Generated_Source\PSoC6/ADC_1.h **** */
  59:Generated_Source\PSoC6/ADC_1.h **** typedef struct
  60:Generated_Source\PSoC6/ADC_1.h **** {
  61:Generated_Source\PSoC6/ADC_1.h ****     uint32_t channelBase;                   /* Start of channels for the configuration */
  62:Generated_Source\PSoC6/ADC_1.h ****     uint32_t numChannels;                   /* Number of channels in the configuration */
  63:Generated_Source\PSoC6/ADC_1.h ****     const cy_stc_sar_config_t *hwConfigStc; /* PDL structure */
  64:Generated_Source\PSoC6/ADC_1.h ****     uint32_t miscConfig;                    /* Miscellaneous configuration bits broken down as foll
  65:Generated_Source\PSoC6/ADC_1.h ****                                             [0] - Freerunning: Set if the sample mode is freerunnin
  66:Generated_Source\PSoC6/ADC_1.h ****                                             [2] - Mux Switch 0: Set when VSSA is used for the neg i
  67:Generated_Source\PSoC6/ADC_1.h ****                                             */
  68:Generated_Source\PSoC6/ADC_1.h **** #if (ADC_1_CLOCK_INTERNAL)
  69:Generated_Source\PSoC6/ADC_1.h ****     uint32_t clkDivider;                    /* Clock divider */
  70:Generated_Source\PSoC6/ADC_1.h **** #endif /* ADC_1_CLOCK_INTERNAL */
  71:Generated_Source\PSoC6/ADC_1.h **** 
  72:Generated_Source\PSoC6/ADC_1.h **** } ADC_1_CONFIG_STRUCT;
  73:Generated_Source\PSoC6/ADC_1.h **** /** @} structures */
  74:Generated_Source\PSoC6/ADC_1.h **** 
  75:Generated_Source\PSoC6/ADC_1.h **** /*******************************************************************************
  76:Generated_Source\PSoC6/ADC_1.h **** * Function Prototypes
  77:Generated_Source\PSoC6/ADC_1.h **** *******************************************************************************/
  78:Generated_Source\PSoC6/ADC_1.h **** void ADC_1_SelectConfig(uint32_t config, uint32_t restart);
  79:Generated_Source\PSoC6/ADC_1.h **** void ADC_1_InitConfig(const ADC_1_CONFIG_STRUCT *config);
  80:Generated_Source\PSoC6/ADC_1.h **** void ADC_1_Init(void);
  81:Generated_Source\PSoC6/ADC_1.h **** __STATIC_INLINE void ADC_1_Enable(void);
  82:Generated_Source\PSoC6/ADC_1.h **** 
  83:Generated_Source\PSoC6/ADC_1.h **** /**
  84:Generated_Source\PSoC6/ADC_1.h **** * \addtogroup group_general
  85:Generated_Source\PSoC6/ADC_1.h **** * @{
  86:Generated_Source\PSoC6/ADC_1.h **** */
  87:Generated_Source\PSoC6/ADC_1.h **** void ADC_1_Start(void);
  88:Generated_Source\PSoC6/ADC_1.h **** void ADC_1_StartEx(cy_israddress userIsr);
  89:Generated_Source\PSoC6/ADC_1.h **** __STATIC_INLINE void ADC_1_Stop(void);
  90:Generated_Source\PSoC6/ADC_1.h **** void ADC_1_StartConvert(void);
  91:Generated_Source\PSoC6/ADC_1.h **** __STATIC_INLINE void ADC_1_StopConvert(void);
  92:Generated_Source\PSoC6/ADC_1.h **** void ADC_1_SetConvertMode(cy_en_sar_start_convert_sel_t mode);
  93:Generated_Source\PSoC6/ADC_1.h **** void ADC_1_SetEosMask(uint32_t mask);
  94:Generated_Source\PSoC6/ADC_1.h **** uint32_t ADC_1_IsEndConversion(cy_en_sar_return_mode_t retMode);
  95:Generated_Source\PSoC6/ADC_1.h **** __STATIC_INLINE int16_t ADC_1_GetResult16(uint32_t chan);
  96:Generated_Source\PSoC6/ADC_1.h **** __STATIC_INLINE int32_t ADC_1_GetResult32(uint32_t chan);
  97:Generated_Source\PSoC6/ADC_1.h **** __STATIC_INLINE void ADC_1_SetLowLimit(uint32_t lowLimit);
  98:Generated_Source\PSoC6/ADC_1.h **** __STATIC_INLINE void ADC_1_SetHighLimit(uint32_t highLimit);
  99:Generated_Source\PSoC6/ADC_1.h **** __STATIC_INLINE void ADC_1_SetLimitMask(uint32_t limitMask);
 100:Generated_Source\PSoC6/ADC_1.h **** __STATIC_INLINE void ADC_1_SetSatMask(uint32_t satMask);
 101:Generated_Source\PSoC6/ADC_1.h **** __STATIC_INLINE cy_en_sar_status_t ADC_1_SetOffset(uint32_t chan, int16_t offset);
 102:Generated_Source\PSoC6/ADC_1.h **** __STATIC_INLINE cy_en_sar_status_t ADC_1_SetGain(uint32_t chan, int32_t adcGain);
 103:Generated_Source\PSoC6/ADC_1.h **** __STATIC_INLINE float32_t ADC_1_CountsTo_Volts(uint32_t chan, int16_t adcCounts);
 104:Generated_Source\PSoC6/ADC_1.h **** __STATIC_INLINE int16_t ADC_1_CountsTo_mVolts(uint32_t chan, int16_t adcCounts);
 105:Generated_Source\PSoC6/ADC_1.h **** __STATIC_INLINE int32_t ADC_1_CountsTo_uVolts(uint32_t chan, int16_t adcCounts);
 106:Generated_Source\PSoC6/ADC_1.h **** 
 107:Generated_Source\PSoC6/ADC_1.h **** /** @} general */
ARM GAS  C:\Users\dmula\AppData\Local\Temp\ccXnnfAd.s 			page 51


 108:Generated_Source\PSoC6/ADC_1.h **** 
 109:Generated_Source\PSoC6/ADC_1.h **** void ADC_1_SetChanMask(uint32_t enableMask);
 110:Generated_Source\PSoC6/ADC_1.h **** 
 111:Generated_Source\PSoC6/ADC_1.h **** /**
 112:Generated_Source\PSoC6/ADC_1.h **** * \addtogroup group_power
 113:Generated_Source\PSoC6/ADC_1.h **** * @{
 114:Generated_Source\PSoC6/ADC_1.h **** */
 115:Generated_Source\PSoC6/ADC_1.h **** __STATIC_INLINE void ADC_1_Sleep(void);
 116:Generated_Source\PSoC6/ADC_1.h **** __STATIC_INLINE void ADC_1_Wakeup(void);
 117:Generated_Source\PSoC6/ADC_1.h **** 
 118:Generated_Source\PSoC6/ADC_1.h **** /** @} power */
 119:Generated_Source\PSoC6/ADC_1.h **** 
 120:Generated_Source\PSoC6/ADC_1.h **** /**
 121:Generated_Source\PSoC6/ADC_1.h **** * \addtogroup group_interrupt
 122:Generated_Source\PSoC6/ADC_1.h **** * @{
 123:Generated_Source\PSoC6/ADC_1.h **** */
 124:Generated_Source\PSoC6/ADC_1.h **** void ADC_1_ISR(void);
 125:Generated_Source\PSoC6/ADC_1.h **** void ADC_1_IRQ_Enable(void);
 126:Generated_Source\PSoC6/ADC_1.h **** void ADC_1_IRQ_Disable(void);
 127:Generated_Source\PSoC6/ADC_1.h **** 
 128:Generated_Source\PSoC6/ADC_1.h **** /** @} interrupt */
 129:Generated_Source\PSoC6/ADC_1.h **** 
 130:Generated_Source\PSoC6/ADC_1.h **** /*******************************************************************************
 131:Generated_Source\PSoC6/ADC_1.h ****                                   Parameters
 132:Generated_Source\PSoC6/ADC_1.h **** The parameters that are set in the customizer are redefined as constants here.
 133:Generated_Source\PSoC6/ADC_1.h **** *******************************************************************************/
 134:Generated_Source\PSoC6/ADC_1.h **** 
 135:Generated_Source\PSoC6/ADC_1.h **** /*  Sample Mode setting constants */
 136:Generated_Source\PSoC6/ADC_1.h **** #define ADC_1_TOTAL_CONFIGS                (1ul)
 137:Generated_Source\PSoC6/ADC_1.h **** 
 138:Generated_Source\PSoC6/ADC_1.h **** /* ************************************************************************** */
 139:Generated_Source\PSoC6/ADC_1.h **** /* Begin configuration 0 customizer defines                                   */
 140:Generated_Source\PSoC6/ADC_1.h **** /* ************************************************************************** */
 141:Generated_Source\PSoC6/ADC_1.h **** 
 142:Generated_Source\PSoC6/ADC_1.h **** #define ADC_1_CFG0_SAMPLE_RATE             (100000)
 143:Generated_Source\PSoC6/ADC_1.h **** #define ADC_1_CFG0_CHANNEL_BASE            (0u)
 144:Generated_Source\PSoC6/ADC_1.h **** #define ADC_1_CFG0_CHANNEL_COUNT           (1u)
 145:Generated_Source\PSoC6/ADC_1.h **** #define ADC_1_CFG0_VREF_SEL_MASK           (0x70u)
 146:Generated_Source\PSoC6/ADC_1.h **** #define ADC_1_CFG0_NOMINAL_CLOCK_FREQ      (16666666u)
 147:Generated_Source\PSoC6/ADC_1.h **** #define ADC_1_CFG0_CHANNEL_EN              (0x1u)
 148:Generated_Source\PSoC6/ADC_1.h **** 
 149:Generated_Source\PSoC6/ADC_1.h **** /* Sample Control Register */
 150:Generated_Source\PSoC6/ADC_1.h **** #define ADC_1_CFG0_SINGLE_ENDED_FORMAT     (1uL)
 151:Generated_Source\PSoC6/ADC_1.h **** #define ADC_1_CFG0_DIFFERENTIAL_FORMAT     (1uL)
 152:Generated_Source\PSoC6/ADC_1.h **** #define ADC_1_CFG0_SAMPLES_AVERAGED        (7uL)
 153:Generated_Source\PSoC6/ADC_1.h **** #define ADC_1_CFG0_RANGE_INTR_MASK         (0x0u)
 154:Generated_Source\PSoC6/ADC_1.h **** #define ADC_1_CFG0_SATURATE_INTR_MASK      (0x0u)
 155:Generated_Source\PSoC6/ADC_1.h **** #define ADC_1_CFG0_VNEG_INPUT_SEL          (7)
 156:Generated_Source\PSoC6/ADC_1.h **** #define ADC_1_CFG0_SINGLE_PRESENT          (1)
 157:Generated_Source\PSoC6/ADC_1.h **** #define ADC_1_CFG0_VREF_MV_VALUE           (3300)
 158:Generated_Source\PSoC6/ADC_1.h **** #define ADC_1_CFG0_APERTURE_TIME0          (4uL)
 159:Generated_Source\PSoC6/ADC_1.h **** #define ADC_1_CFG0_APERTURE_TIME1          (2uL)
 160:Generated_Source\PSoC6/ADC_1.h **** #define ADC_1_CFG0_APERTURE_TIME2          (2uL)
 161:Generated_Source\PSoC6/ADC_1.h **** #define ADC_1_CFG0_APERTURE_TIME3          (2uL)
 162:Generated_Source\PSoC6/ADC_1.h **** #define ADC_1_CFG0_FREERUNNING             (0u)
 163:Generated_Source\PSoC6/ADC_1.h **** #define ADC_1_CFG0_AVGERAGING_MODE         (1uL)
 164:Generated_Source\PSoC6/ADC_1.h **** #define ADC_1_CFG0_LOW_LIMIT               (512u)
ARM GAS  C:\Users\dmula\AppData\Local\Temp\ccXnnfAd.s 			page 52


 165:Generated_Source\PSoC6/ADC_1.h **** #define ADC_1_CFG0_HIGH_LIMIT              (3584u)
 166:Generated_Source\PSoC6/ADC_1.h **** #define ADC_1_CFG0_RANGE_COND              (3uL)
 167:Generated_Source\PSoC6/ADC_1.h **** #define ADC_1_CFG0_USE_SOC                 (0uL)
 168:Generated_Source\PSoC6/ADC_1.h **** #define ADC_1_CFG0_VREF_PWR                (2uL)
 169:Generated_Source\PSoC6/ADC_1.h **** #define ADC_1_CFG0_COMP_PWR                (3uL)
 170:Generated_Source\PSoC6/ADC_1.h **** #define ADC_1_CFG0_COMP_DLY                (3uL)
 171:Generated_Source\PSoC6/ADC_1.h **** 
 172:Generated_Source\PSoC6/ADC_1.h **** /* Clock parameters*/
 173:Generated_Source\PSoC6/ADC_1.h **** #if (ADC_1_CLOCK_INTERNAL)
 174:Generated_Source\PSoC6/ADC_1.h ****     #define ADC_1_CFG0_CLOCKDIVIDER        (((CYDEV_CLK_PERICLK__HZ) / (ADC_1_CFG0_NOMINAL_CLOCK_FR
 175:Generated_Source\PSoC6/ADC_1.h **** #endif /* (ADC_1_CLOCK_INTERNAL) */
 176:Generated_Source\PSoC6/ADC_1.h **** 
 177:Generated_Source\PSoC6/ADC_1.h **** /* ************************************************************************** */
 178:Generated_Source\PSoC6/ADC_1.h **** /* End configuration 0 customizer defines                                     */
 179:Generated_Source\PSoC6/ADC_1.h **** /* ************************************************************************** */
 180:Generated_Source\PSoC6/ADC_1.h **** 
 181:Generated_Source\PSoC6/ADC_1.h **** /* ************************************************************************** */
 182:Generated_Source\PSoC6/ADC_1.h **** /* Begin configuration 1 customizer defines                                   */
 183:Generated_Source\PSoC6/ADC_1.h **** /* ************************************************************************** */
 184:Generated_Source\PSoC6/ADC_1.h **** 
 185:Generated_Source\PSoC6/ADC_1.h **** #if(ADC_1_TOTAL_CONFIGS > 1)
 186:Generated_Source\PSoC6/ADC_1.h ****     #define ADC_1_CFG1_SAMPLE_RATE             ()
 187:Generated_Source\PSoC6/ADC_1.h ****     #define ADC_1_CFG1_CHANNEL_BASE            (u)
 188:Generated_Source\PSoC6/ADC_1.h ****     #define ADC_1_CFG1_CHANNEL_COUNT           (u)
 189:Generated_Source\PSoC6/ADC_1.h ****     #define ADC_1_CFG1_VREF_SEL_MASK           (u)
 190:Generated_Source\PSoC6/ADC_1.h ****     #define ADC_1_CFG1_NOMINAL_CLOCK_FREQ      (u)
 191:Generated_Source\PSoC6/ADC_1.h ****     #define ADC_1_CFG1_CHANNEL_EN              (u)
 192:Generated_Source\PSoC6/ADC_1.h **** 
 193:Generated_Source\PSoC6/ADC_1.h ****     /* Sample Control Register */
 194:Generated_Source\PSoC6/ADC_1.h ****     #define ADC_1_CFG1_SINGLE_ENDED_FORMAT     (uL)
 195:Generated_Source\PSoC6/ADC_1.h ****     #define ADC_1_CFG1_DIFFERENTIAL_FORMAT     (uL)
 196:Generated_Source\PSoC6/ADC_1.h ****     #define ADC_1_CFG1_SAMPLES_AVERAGED        (uL)
 197:Generated_Source\PSoC6/ADC_1.h ****     #define ADC_1_CFG1_RANGE_INTR_MASK         (u)
 198:Generated_Source\PSoC6/ADC_1.h ****     #define ADC_1_CFG1_SATURATE_INTR_MASK      (u)
 199:Generated_Source\PSoC6/ADC_1.h ****     #define ADC_1_CFG1_VNEG_INPUT_SEL          ()
 200:Generated_Source\PSoC6/ADC_1.h ****     #define ADC_1_CFG1_SINGLE_PRESENT          ()
 201:Generated_Source\PSoC6/ADC_1.h ****     #define ADC_1_CFG1_VREF_MV_VALUE           ()
 202:Generated_Source\PSoC6/ADC_1.h ****     #define ADC_1_CFG1_APERTURE_TIME0          (uL)
 203:Generated_Source\PSoC6/ADC_1.h ****     #define ADC_1_CFG1_APERTURE_TIME1          (uL)
 204:Generated_Source\PSoC6/ADC_1.h ****     #define ADC_1_CFG1_APERTURE_TIME2          (uL)
 205:Generated_Source\PSoC6/ADC_1.h ****     #define ADC_1_CFG1_APERTURE_TIME3          (uL)
 206:Generated_Source\PSoC6/ADC_1.h ****     #define ADC_1_CFG1_FREERUNNING             (u)
 207:Generated_Source\PSoC6/ADC_1.h ****     #define ADC_1_CFG1_AVGERAGING_MODE         (uL)
 208:Generated_Source\PSoC6/ADC_1.h ****     #define ADC_1_CFG1_LOW_LIMIT               (u)
 209:Generated_Source\PSoC6/ADC_1.h ****     #define ADC_1_CFG1_HIGH_LIMIT              (u)
 210:Generated_Source\PSoC6/ADC_1.h ****     #define ADC_1_CFG1_RANGE_COND              (uL)
 211:Generated_Source\PSoC6/ADC_1.h ****     #define ADC_1_CFG1_USE_SOC                 (0uL)
 212:Generated_Source\PSoC6/ADC_1.h ****     #define ADC_1_CFG1_VREF_PWR                (uL)
 213:Generated_Source\PSoC6/ADC_1.h ****     #define ADC_1_CFG1_COMP_PWR                (uL)
 214:Generated_Source\PSoC6/ADC_1.h ****     #define ADC_1_CFG1_COMP_DLY                (uL)
 215:Generated_Source\PSoC6/ADC_1.h **** 
 216:Generated_Source\PSoC6/ADC_1.h ****     /* Clock parameters*/
 217:Generated_Source\PSoC6/ADC_1.h ****     #if (ADC_1_CLOCK_INTERNAL)
 218:Generated_Source\PSoC6/ADC_1.h ****         #define ADC_1_CFG1_CLOCKDIVIDER        (((CYDEV_CLK_PERICLK__HZ) / (ADC_1_CFG1_NOMINAL_CLOC
 219:Generated_Source\PSoC6/ADC_1.h ****     #endif /* (ADC_1_CLOCK_INTERNAL) */
 220:Generated_Source\PSoC6/ADC_1.h **** #endif /* #if(ADC_1_TOTAL_CONFIGS > 1) */
 221:Generated_Source\PSoC6/ADC_1.h **** 
ARM GAS  C:\Users\dmula\AppData\Local\Temp\ccXnnfAd.s 			page 53


 222:Generated_Source\PSoC6/ADC_1.h **** /* ************************************************************************** */
 223:Generated_Source\PSoC6/ADC_1.h **** /* End configuration 1 customizer defines                                     */
 224:Generated_Source\PSoC6/ADC_1.h **** /* ************************************************************************** */
 225:Generated_Source\PSoC6/ADC_1.h **** 
 226:Generated_Source\PSoC6/ADC_1.h **** /* ************************************************************************** */
 227:Generated_Source\PSoC6/ADC_1.h **** /* Begin configuration 2 customizer defines                                         */
 228:Generated_Source\PSoC6/ADC_1.h **** /* ************************************************************************** */
 229:Generated_Source\PSoC6/ADC_1.h **** 
 230:Generated_Source\PSoC6/ADC_1.h **** #if(ADC_1_TOTAL_CONFIGS > 2)
 231:Generated_Source\PSoC6/ADC_1.h ****     #define ADC_1_CFG2_SAMPLE_RATE             ()
 232:Generated_Source\PSoC6/ADC_1.h ****     #define ADC_1_CFG2_CHANNEL_BASE            (u)
 233:Generated_Source\PSoC6/ADC_1.h ****     #define ADC_1_CFG2_CHANNEL_COUNT           (u)
 234:Generated_Source\PSoC6/ADC_1.h ****     #define ADC_1_CFG2_VREF_SEL_MASK           (u)
 235:Generated_Source\PSoC6/ADC_1.h ****     #define ADC_1_CFG2_NOMINAL_CLOCK_FREQ      (u)
 236:Generated_Source\PSoC6/ADC_1.h ****     #define ADC_1_CFG2_CHANNEL_EN              (u)
 237:Generated_Source\PSoC6/ADC_1.h **** 
 238:Generated_Source\PSoC6/ADC_1.h ****     /* Sample Control Register */
 239:Generated_Source\PSoC6/ADC_1.h ****     #define ADC_1_CFG2_SINGLE_ENDED_FORMAT     (uL)
 240:Generated_Source\PSoC6/ADC_1.h ****     #define ADC_1_CFG2_DIFFERENTIAL_FORMAT     (uL)
 241:Generated_Source\PSoC6/ADC_1.h ****     #define ADC_1_CFG2_SAMPLES_AVERAGED        (uL)
 242:Generated_Source\PSoC6/ADC_1.h ****     #define ADC_1_CFG2_RANGE_INTR_MASK         (u)
 243:Generated_Source\PSoC6/ADC_1.h ****     #define ADC_1_CFG2_SATURATE_INTR_MASK      (u)
 244:Generated_Source\PSoC6/ADC_1.h ****     #define ADC_1_CFG2_VNEG_INPUT_SEL          ()
 245:Generated_Source\PSoC6/ADC_1.h ****     #define ADC_1_CFG2_SINGLE_PRESENT          ()
 246:Generated_Source\PSoC6/ADC_1.h ****     #define ADC_1_CFG2_VREF_MV_VALUE           ()
 247:Generated_Source\PSoC6/ADC_1.h ****     #define ADC_1_CFG2_APERTURE_TIME0          (uL)
 248:Generated_Source\PSoC6/ADC_1.h ****     #define ADC_1_CFG2_APERTURE_TIME1          (uL)
 249:Generated_Source\PSoC6/ADC_1.h ****     #define ADC_1_CFG2_APERTURE_TIME2          (uL)
 250:Generated_Source\PSoC6/ADC_1.h ****     #define ADC_1_CFG2_APERTURE_TIME3          (uL)
 251:Generated_Source\PSoC6/ADC_1.h ****     #define ADC_1_CFG2_FREERUNNING             (u)
 252:Generated_Source\PSoC6/ADC_1.h ****     #define ADC_1_CFG2_AVGERAGING_MODE         (uL)
 253:Generated_Source\PSoC6/ADC_1.h ****     #define ADC_1_CFG2_LOW_LIMIT               (u)
 254:Generated_Source\PSoC6/ADC_1.h ****     #define ADC_1_CFG2_HIGH_LIMIT              (u)
 255:Generated_Source\PSoC6/ADC_1.h ****     #define ADC_1_CFG2_RANGE_COND              (uL)
 256:Generated_Source\PSoC6/ADC_1.h ****     #define ADC_1_CFG2_USE_SOC                 (0uL)
 257:Generated_Source\PSoC6/ADC_1.h ****     #define ADC_1_CFG2_VREF_PWR                (uL)
 258:Generated_Source\PSoC6/ADC_1.h ****     #define ADC_1_CFG2_COMP_PWR                (uL)
 259:Generated_Source\PSoC6/ADC_1.h ****     #define ADC_1_CFG2_COMP_DLY                (uL)
 260:Generated_Source\PSoC6/ADC_1.h **** 
 261:Generated_Source\PSoC6/ADC_1.h ****     /* Clock parameters*/
 262:Generated_Source\PSoC6/ADC_1.h ****     #if (ADC_1_CLOCK_INTERNAL)
 263:Generated_Source\PSoC6/ADC_1.h ****         #define ADC_1_CFG2_CLOCKDIVIDER        (((CYDEV_CLK_PERICLK__HZ) / (ADC_1_CFG2_NOMINAL_CLOC
 264:Generated_Source\PSoC6/ADC_1.h ****     #endif /* (ADC_1_CLOCK_INTERNAL) */
 265:Generated_Source\PSoC6/ADC_1.h **** #endif /* (ADC_1_TOTAL_CONFIGS > 2) */
 266:Generated_Source\PSoC6/ADC_1.h **** 
 267:Generated_Source\PSoC6/ADC_1.h **** 
 268:Generated_Source\PSoC6/ADC_1.h **** /* ************************************************************************** */
 269:Generated_Source\PSoC6/ADC_1.h **** /* End configuration 2 customizer defines                                     */
 270:Generated_Source\PSoC6/ADC_1.h **** /* ************************************************************************** */
 271:Generated_Source\PSoC6/ADC_1.h **** 
 272:Generated_Source\PSoC6/ADC_1.h **** /* ************************************************************************** */
 273:Generated_Source\PSoC6/ADC_1.h **** /* Begin configuration 3 customizer defines                                   */
 274:Generated_Source\PSoC6/ADC_1.h **** /* ************************************************************************** */
 275:Generated_Source\PSoC6/ADC_1.h **** #if(ADC_1_TOTAL_CONFIGS > 3)
 276:Generated_Source\PSoC6/ADC_1.h ****     #define ADC_1_CFG3_SAMPLE_RATE             ()
 277:Generated_Source\PSoC6/ADC_1.h ****     #define ADC_1_CFG3_CHANNEL_BASE            (u)
 278:Generated_Source\PSoC6/ADC_1.h ****     #define ADC_1_CFG3_CHANNEL_COUNT           (u)
ARM GAS  C:\Users\dmula\AppData\Local\Temp\ccXnnfAd.s 			page 54


 279:Generated_Source\PSoC6/ADC_1.h ****     #define ADC_1_CFG3_VREF_SEL_MASK           (u)
 280:Generated_Source\PSoC6/ADC_1.h ****     #define ADC_1_CFG3_NOMINAL_CLOCK_FREQ      (u)
 281:Generated_Source\PSoC6/ADC_1.h ****     #define ADC_1_CFG3_CHANNEL_EN              (u)
 282:Generated_Source\PSoC6/ADC_1.h **** 
 283:Generated_Source\PSoC6/ADC_1.h ****     /* Sample Control Register */
 284:Generated_Source\PSoC6/ADC_1.h ****     #define ADC_1_CFG3_SINGLE_ENDED_FORMAT     (uL)
 285:Generated_Source\PSoC6/ADC_1.h ****     #define ADC_1_CFG3_DIFFERENTIAL_FORMAT     (uL)
 286:Generated_Source\PSoC6/ADC_1.h ****     #define ADC_1_CFG3_SAMPLES_AVERAGED        (uL)
 287:Generated_Source\PSoC6/ADC_1.h ****     #define ADC_1_CFG3_RANGE_INTR_MASK         (u)
 288:Generated_Source\PSoC6/ADC_1.h ****     #define ADC_1_CFG3_SATURATE_INTR_MASK      (u)
 289:Generated_Source\PSoC6/ADC_1.h ****     #define ADC_1_CFG3_VNEG_INPUT_SEL          ()
 290:Generated_Source\PSoC6/ADC_1.h ****     #define ADC_1_CFG3_SINGLE_PRESENT          ()
 291:Generated_Source\PSoC6/ADC_1.h ****     #define ADC_1_CFG3_VREF_MV_VALUE           ()
 292:Generated_Source\PSoC6/ADC_1.h ****     #define ADC_1_CFG3_APERTURE_TIME0          (uL)
 293:Generated_Source\PSoC6/ADC_1.h ****     #define ADC_1_CFG3_APERTURE_TIME1          (uL)
 294:Generated_Source\PSoC6/ADC_1.h ****     #define ADC_1_CFG3_APERTURE_TIME2          (uL)
 295:Generated_Source\PSoC6/ADC_1.h ****     #define ADC_1_CFG3_APERTURE_TIME3          (uL)
 296:Generated_Source\PSoC6/ADC_1.h ****     #define ADC_1_CFG3_FREERUNNING             (u)
 297:Generated_Source\PSoC6/ADC_1.h ****     #define ADC_1_CFG3_AVGERAGING_MODE         (uL)
 298:Generated_Source\PSoC6/ADC_1.h ****     #define ADC_1_CFG3_LOW_LIMIT               (u)
 299:Generated_Source\PSoC6/ADC_1.h ****     #define ADC_1_CFG3_HIGH_LIMIT              (u)
 300:Generated_Source\PSoC6/ADC_1.h ****     #define ADC_1_CFG3_RANGE_COND              (uL)
 301:Generated_Source\PSoC6/ADC_1.h ****     #define ADC_1_CFG3_USE_SOC                 (0uL)
 302:Generated_Source\PSoC6/ADC_1.h ****     #define ADC_1_CFG3_VREF_PWR                (uL)
 303:Generated_Source\PSoC6/ADC_1.h ****     #define ADC_1_CFG3_COMP_PWR                (uL)
 304:Generated_Source\PSoC6/ADC_1.h ****     #define ADC_1_CFG3_COMP_DLY                (uL)
 305:Generated_Source\PSoC6/ADC_1.h **** 
 306:Generated_Source\PSoC6/ADC_1.h ****     /* Clock parameters*/
 307:Generated_Source\PSoC6/ADC_1.h ****     #if (ADC_1_CLOCK_INTERNAL)
 308:Generated_Source\PSoC6/ADC_1.h ****         #define ADC_1_CFG3_CLOCKDIVIDER        (((CYDEV_CLK_PERICLK__HZ) / (ADC_1_CFG3_NOMINAL_CLOC
 309:Generated_Source\PSoC6/ADC_1.h ****     #endif /* (ADC_1_CLOCK_INTERNAL) */
 310:Generated_Source\PSoC6/ADC_1.h **** #endif /* (ADC_1_TOTAL_CONFIGS > 3) */
 311:Generated_Source\PSoC6/ADC_1.h **** 
 312:Generated_Source\PSoC6/ADC_1.h **** /* ************************************************************************** */
 313:Generated_Source\PSoC6/ADC_1.h **** /* End configuration 3 customizer defines                                     */
 314:Generated_Source\PSoC6/ADC_1.h **** /* ************************************************************************** */
 315:Generated_Source\PSoC6/ADC_1.h **** 
 316:Generated_Source\PSoC6/ADC_1.h **** #define ADC_1_DEFAULT_SAMPLE_MODE_SEL      (0u)
 317:Generated_Source\PSoC6/ADC_1.h **** #define ADC_1_FREERUNNING                  (1u)
 318:Generated_Source\PSoC6/ADC_1.h **** #define ADC_1_HARDWARESOC                  (1u)
 319:Generated_Source\PSoC6/ADC_1.h **** #define ADC_1_NEG_SEL_VSSA_KELVIN          (0x0uL)
 320:Generated_Source\PSoC6/ADC_1.h **** #define ADC_1_NEG_SEL_VREF                 (0x7uL)
 321:Generated_Source\PSoC6/ADC_1.h **** #define ADC_1_PWR_CTRL_VREF_NORMAL_PWR     (0x0uL)
 322:Generated_Source\PSoC6/ADC_1.h **** 
 323:Generated_Source\PSoC6/ADC_1.h **** /** ADC_1_TOTAL_CHANNELS_NUM
 324:Generated_Source\PSoC6/ADC_1.h **** * This constant represents the number of input channels available for scanning.
 325:Generated_Source\PSoC6/ADC_1.h **** */
 326:Generated_Source\PSoC6/ADC_1.h **** #define ADC_1_TOTAL_CHANNELS_NUM           (1u)
 327:Generated_Source\PSoC6/ADC_1.h **** 
 328:Generated_Source\PSoC6/ADC_1.h **** /*******************************************************************************
 329:Generated_Source\PSoC6/ADC_1.h **** *    Variables with External Linkage
 330:Generated_Source\PSoC6/ADC_1.h **** *******************************************************************************/
 331:Generated_Source\PSoC6/ADC_1.h **** /**
 332:Generated_Source\PSoC6/ADC_1.h **** * \addtogroup group_globals
 333:Generated_Source\PSoC6/ADC_1.h **** * Globals are noted in the descriptions of the functions that use globals.
 334:Generated_Source\PSoC6/ADC_1.h **** * They are marked with (R), (W), or (RW) noting whether the variable is read,
 335:Generated_Source\PSoC6/ADC_1.h **** * write, or read/write.
ARM GAS  C:\Users\dmula\AppData\Local\Temp\ccXnnfAd.s 			page 55


 336:Generated_Source\PSoC6/ADC_1.h **** * @{
 337:Generated_Source\PSoC6/ADC_1.h **** */
 338:Generated_Source\PSoC6/ADC_1.h **** 
 339:Generated_Source\PSoC6/ADC_1.h **** /** ADC_1_initVar
 340:Generated_Source\PSoC6/ADC_1.h **** * The ADC_1_initVar variable is used to indicate
 341:Generated_Source\PSoC6/ADC_1.h **** * initial configuration of this component. The variable is initialized to zero and
 342:Generated_Source\PSoC6/ADC_1.h **** * set to 1 the first time ADC_1_Start() is called. This allows for
 343:Generated_Source\PSoC6/ADC_1.h **** * component initialization without reinitialization in all subsequent calls to the
 344:Generated_Source\PSoC6/ADC_1.h **** * ADC_1_Start() routine.
 345:Generated_Source\PSoC6/ADC_1.h **** *
 346:Generated_Source\PSoC6/ADC_1.h **** * If reinitialization of the component is required, then the ADC_1_Init() function
 347:Generated_Source\PSoC6/ADC_1.h **** * can be called before the ADC_1_Start() or ADC_1_Enable()
 348:Generated_Source\PSoC6/ADC_1.h **** * functions.
 349:Generated_Source\PSoC6/ADC_1.h **** */
 350:Generated_Source\PSoC6/ADC_1.h **** extern uint8_t ADC_1_initVar;
 351:Generated_Source\PSoC6/ADC_1.h **** extern uint8_t ADC_1_selected;
 352:Generated_Source\PSoC6/ADC_1.h **** extern uint32_t ADC_1_currentConfig;
 353:Generated_Source\PSoC6/ADC_1.h **** 
 354:Generated_Source\PSoC6/ADC_1.h **** #define ADC_1_INIT_VAR_INIT_FLAG     (0x01u)
 355:Generated_Source\PSoC6/ADC_1.h **** 
 356:Generated_Source\PSoC6/ADC_1.h **** extern const ADC_1_CONFIG_STRUCT ADC_1_allConfigs[ADC_1_TOTAL_CONFIGS];
 357:Generated_Source\PSoC6/ADC_1.h **** 
 358:Generated_Source\PSoC6/ADC_1.h **** /* SysPm callback structure for deep sleep entry and exit.
 359:Generated_Source\PSoC6/ADC_1.h ****  * Call the Cy_SysPm_RegisterCallback function with this
 360:Generated_Source\PSoC6/ADC_1.h ****  * structure before calling Cy_SysPm_DeepSleep.
 361:Generated_Source\PSoC6/ADC_1.h **** */
 362:Generated_Source\PSoC6/ADC_1.h **** extern cy_stc_syspm_callback_t ADC_1_DeepSleepCallbackStruct;
 363:Generated_Source\PSoC6/ADC_1.h **** 
 364:Generated_Source\PSoC6/ADC_1.h **** /** @} globals */
 365:Generated_Source\PSoC6/ADC_1.h **** 
 366:Generated_Source\PSoC6/ADC_1.h **** /* ************************************************************************** */
 367:Generated_Source\PSoC6/ADC_1.h **** /* *******************Global MUX_SWITCH0 Definitions ************************ */
 368:Generated_Source\PSoC6/ADC_1.h **** /* ************************************************************************** */
 369:Generated_Source\PSoC6/ADC_1.h **** #if(ADC_1_CFG0_VNEG_INPUT_SEL == ADC_1_NEG_SEL_VSSA_KELVIN)
 370:Generated_Source\PSoC6/ADC_1.h ****     /* Do not connect VSSA to VMINUS when one channel in differential mode used */
 371:Generated_Source\PSoC6/ADC_1.h ****     #if((ADC_1_TOTAL_CHANNELS_NUM == 1u) && (ADC_1_CFG0_SINGLE_PRESENT == 0u))
 372:Generated_Source\PSoC6/ADC_1.h ****         #define ADC_1_MUX_SWITCH0_INIT      0u
 373:Generated_Source\PSoC6/ADC_1.h ****     #else    /* multiple channels or one single ended channel */
 374:Generated_Source\PSoC6/ADC_1.h ****         #define ADC_1_MUX_SWITCH0_INIT      1u
 375:Generated_Source\PSoC6/ADC_1.h ****     #endif /* ((ADC_1_TOTAL_CHANNELS_NUM == 1u) && (ADC_1_CFG0_SINGLE_PRESENT == 0u)) */
 376:Generated_Source\PSoC6/ADC_1.h **** #else
 377:Generated_Source\PSoC6/ADC_1.h ****     #define ADC_1_MUX_SWITCH0_INIT          0u
 378:Generated_Source\PSoC6/ADC_1.h **** #endif /* ADC_1_CFG0_VNEG_INPUT_SEL == ADC_1_NEG_SEL_VSSA_KELVIN */
 379:Generated_Source\PSoC6/ADC_1.h **** 
 380:Generated_Source\PSoC6/ADC_1.h **** /* ************************************************************************** */
 381:Generated_Source\PSoC6/ADC_1.h **** /* Begin configuration 0 calculated defines                                   */
 382:Generated_Source\PSoC6/ADC_1.h **** /* ************************************************************************** */
 383:Generated_Source\PSoC6/ADC_1.h **** #define ADC_1_CFG0_SAMPLE_TIME01_INIT \
 384:Generated_Source\PSoC6/ADC_1.h ****         ((ADC_1_CFG0_APERTURE_TIME0 \
 385:Generated_Source\PSoC6/ADC_1.h ****         << SAR_SAMPLE_TIME01_SAMPLE_TIME0_Pos) \
 386:Generated_Source\PSoC6/ADC_1.h ****         | (ADC_1_CFG0_APERTURE_TIME1 \
 387:Generated_Source\PSoC6/ADC_1.h ****         << SAR_SAMPLE_TIME01_SAMPLE_TIME1_Pos))
 388:Generated_Source\PSoC6/ADC_1.h **** 
 389:Generated_Source\PSoC6/ADC_1.h **** #define ADC_1_CFG0_SAMPLE_TIME23_INIT \
 390:Generated_Source\PSoC6/ADC_1.h ****         ((ADC_1_CFG0_APERTURE_TIME2 \
 391:Generated_Source\PSoC6/ADC_1.h ****         << SAR_SAMPLE_TIME23_SAMPLE_TIME2_Pos) \
 392:Generated_Source\PSoC6/ADC_1.h ****         | (ADC_1_CFG0_APERTURE_TIME3 \
ARM GAS  C:\Users\dmula\AppData\Local\Temp\ccXnnfAd.s 			page 56


 393:Generated_Source\PSoC6/ADC_1.h ****         << SAR_SAMPLE_TIME23_SAMPLE_TIME3_Pos))
 394:Generated_Source\PSoC6/ADC_1.h **** 
 395:Generated_Source\PSoC6/ADC_1.h **** /* Enable soc pin if used */
 396:Generated_Source\PSoC6/ADC_1.h **** #define ADC_1_CFG0_DSI_TRIGGER_EN_INIT \
 397:Generated_Source\PSoC6/ADC_1.h ****         (ADC_1_CFG0_USE_SOC \
 398:Generated_Source\PSoC6/ADC_1.h ****         << SAR_SAMPLE_CTRL_DSI_TRIGGER_EN_Pos)
 399:Generated_Source\PSoC6/ADC_1.h **** 
 400:Generated_Source\PSoC6/ADC_1.h **** /* Set soc operation to edge or level based on sample mode */
 401:Generated_Source\PSoC6/ADC_1.h **** #if(ADC_1_CFG0_FREERUNNING == ADC_1_FREERUNNING)
 402:Generated_Source\PSoC6/ADC_1.h ****     #define ADC_1_CFG0_DSI_TRIGGER_LEVEL_INIT    (SAR_SAMPLE_CTRL_DSI_TRIGGER_LEVEL_Msk)
 403:Generated_Source\PSoC6/ADC_1.h **** #else /* Edge trigger */
 404:Generated_Source\PSoC6/ADC_1.h ****     #define ADC_1_CFG0_DSI_TRIGGER_LEVEL_INIT    (0u)
 405:Generated_Source\PSoC6/ADC_1.h **** #endif /* End ADC_1_CFG0_FREERUNNING == ADC_1_FREERUNNING */
 406:Generated_Source\PSoC6/ADC_1.h **** 
 407:Generated_Source\PSoC6/ADC_1.h **** /* Set SE_NEG_INPUT */
 408:Generated_Source\PSoC6/ADC_1.h **** #if(ADC_1_CFG0_VNEG_INPUT_SEL == ADC_1_NEG_SEL_VSSA_KELVIN)
 409:Generated_Source\PSoC6/ADC_1.h ****     #define ADC_1_CFG0_SE_NEG_INPUT_INIT \
 410:Generated_Source\PSoC6/ADC_1.h ****             ((uint32)(ADC_1_NEG_SEL_VSSA_KELVIN \
 411:Generated_Source\PSoC6/ADC_1.h ****             << SAR_CTRL_NEG_SEL_Pos ))
 412:Generated_Source\PSoC6/ADC_1.h **** #elif(ADC_1_CFG0_VNEG_INPUT_SEL == ADC_1_NEG_SEL_VREF)
 413:Generated_Source\PSoC6/ADC_1.h **** 
 414:Generated_Source\PSoC6/ADC_1.h ****     /* Do not connect VNEG to VREF when one channel in differential mode used */
 415:Generated_Source\PSoC6/ADC_1.h ****     /* Only needed for config 0 since 2+ configs == 2+ channels */
 416:Generated_Source\PSoC6/ADC_1.h ****     #if((ADC_1_CFG0_CHANNEL_COUNT == 1u) && (ADC_1_CFG0_SINGLE_PRESENT == 0u))
 417:Generated_Source\PSoC6/ADC_1.h ****         #define ADC_1_CFG0_SE_NEG_INPUT_INIT     0u
 418:Generated_Source\PSoC6/ADC_1.h ****     #else    /* multiple channels or one single channel */
 419:Generated_Source\PSoC6/ADC_1.h ****         #define ADC_1_CFG0_SE_NEG_INPUT_INIT     (ADC_1_NEG_SEL_VREF \
 420:Generated_Source\PSoC6/ADC_1.h ****                                                             << SAR_CTRL_NEG_SEL_Pos )
 421:Generated_Source\PSoC6/ADC_1.h ****     #endif /* (ADC_1_CFG0_CHANNEL_COUNT == 1u) && (ADC_1_CFG0_CHANNELS_MODE != 0u) */
 422:Generated_Source\PSoC6/ADC_1.h **** #elif (ADC_1_CFG0_SINGLE_PRESENT != 0u)
 423:Generated_Source\PSoC6/ADC_1.h ****     #define ADC_1_CFG0_SE_NEG_INPUT_INIT         ADC_1_CFG0_NEG_OTHER
 424:Generated_Source\PSoC6/ADC_1.h **** #else
 425:Generated_Source\PSoC6/ADC_1.h ****     #define ADC_1_CFG0_SE_NEG_INPUT_INIT         0u
 426:Generated_Source\PSoC6/ADC_1.h **** #endif /* ADC_1_CFG0_VNEG_INPUT_SEL == ADC_1_NEG_SEL_VSSA_KELVIN */
 427:Generated_Source\PSoC6/ADC_1.h **** 
 428:Generated_Source\PSoC6/ADC_1.h **** #if(ADC_1_TOTAL_CHANNELS_NUM > 1u)
 429:Generated_Source\PSoC6/ADC_1.h ****     #define ADC_1_CFG0_NEG_OTHER                 (uint16)((uint16)ADC_1_SARMUX__VNEG0 << SAR_CTRL_N
 430:Generated_Source\PSoC6/ADC_1.h ****     #define ADC_1_CFG0_SWITCH_CONF_INIT          0u
 431:Generated_Source\PSoC6/ADC_1.h **** #else /* Disable SAR sequencer from enabling routing switches in single channel mode */
 432:Generated_Source\PSoC6/ADC_1.h ****     #define ADC_1_CFG0_SWITCH_CONF_INIT          SAR_CTRL_SWITCH_DISABLE_Msk
 433:Generated_Source\PSoC6/ADC_1.h ****     #define ADC_1_CFG0_NEG_OTHER                 0u
 434:Generated_Source\PSoC6/ADC_1.h **** #endif /* ADC_1_CFG0_CHANNEL_COUNT > 1u */
 435:Generated_Source\PSoC6/ADC_1.h **** 
 436:Generated_Source\PSoC6/ADC_1.h **** /* If the SAR is configured for multiple channels, always set SAR_HW_CTRL_NEGVREF to 1 */
 437:Generated_Source\PSoC6/ADC_1.h **** #if(ADC_1_TOTAL_CHANNELS_NUM == 1u)
 438:Generated_Source\PSoC6/ADC_1.h ****     #define ADC_1_CFG0_HW_CTRL_NEGVREF_INIT      0u
 439:Generated_Source\PSoC6/ADC_1.h **** #else
 440:Generated_Source\PSoC6/ADC_1.h ****     #define ADC_1_CFG0_HW_CTRL_NEGVREF_INIT      SAR_CTRL_SAR_HW_CTRL_NEGVREF_Msk
 441:Generated_Source\PSoC6/ADC_1.h **** #endif /* ADC_1_CFG0_CHANNEL_COUNT == 1u */
 442:Generated_Source\PSoC6/ADC_1.h **** 
 443:Generated_Source\PSoC6/ADC_1.h **** #define ADC_1_CFG0_POWER_INIT  (ADC_1_PWR_CTRL_VREF_NORMAL_PWR)
 444:Generated_Source\PSoC6/ADC_1.h **** 
 445:Generated_Source\PSoC6/ADC_1.h **** /* SAMPLE_CTRL initial values */
 446:Generated_Source\PSoC6/ADC_1.h **** #define ADC_1_CFG0_SE_RESULT_FORMAT_INIT \
 447:Generated_Source\PSoC6/ADC_1.h ****         (ADC_1_CFG0_SINGLE_ENDED_FORMAT \
 448:Generated_Source\PSoC6/ADC_1.h ****         << SAR_SAMPLE_CTRL_SINGLE_ENDED_SIGNED_Pos)
 449:Generated_Source\PSoC6/ADC_1.h **** 
ARM GAS  C:\Users\dmula\AppData\Local\Temp\ccXnnfAd.s 			page 57


 450:Generated_Source\PSoC6/ADC_1.h **** #define ADC_1_CFG0_DIFF_RESULT_FORMAT_INIT \
 451:Generated_Source\PSoC6/ADC_1.h ****         (ADC_1_CFG0_DIFFERENTIAL_FORMAT \
 452:Generated_Source\PSoC6/ADC_1.h ****         << SAR_SAMPLE_CTRL_DIFFERENTIAL_SIGNED_Pos)
 453:Generated_Source\PSoC6/ADC_1.h **** 
 454:Generated_Source\PSoC6/ADC_1.h **** #define ADC_1_CFG0_AVG_SAMPLES_NUM_INIT \
 455:Generated_Source\PSoC6/ADC_1.h ****         (ADC_1_CFG0_SAMPLES_AVERAGED \
 456:Generated_Source\PSoC6/ADC_1.h ****         << SAR_SAMPLE_CTRL_AVG_CNT_Pos)
 457:Generated_Source\PSoC6/ADC_1.h **** 
 458:Generated_Source\PSoC6/ADC_1.h **** /* Combination of Average Mode and Average Shift */
 459:Generated_Source\PSoC6/ADC_1.h **** #define ADC_1_CFG0_AVG_MODE_INIT \
 460:Generated_Source\PSoC6/ADC_1.h ****         (ADC_1_CFG0_AVGERAGING_MODE \
 461:Generated_Source\PSoC6/ADC_1.h ****         << SAR_SAMPLE_CTRL_AVG_SHIFT_Pos)
 462:Generated_Source\PSoC6/ADC_1.h **** 
 463:Generated_Source\PSoC6/ADC_1.h **** #define ADC_1_CFG0_TRIGGER_OUT_INIT      (0u)
 464:Generated_Source\PSoC6/ADC_1.h **** #define ADC_1_CFG0_UAB_SCAN_MODE_INIT    (0u)
 465:Generated_Source\PSoC6/ADC_1.h **** 
 466:Generated_Source\PSoC6/ADC_1.h **** #define ADC_1_CFG0_VREF_POWER_INIT  \
 467:Generated_Source\PSoC6/ADC_1.h ****         (ADC_1_CFG0_VREF_PWR \
 468:Generated_Source\PSoC6/ADC_1.h ****         << SAR_CTRL_PWR_CTRL_VREF_Pos)
 469:Generated_Source\PSoC6/ADC_1.h **** 
 470:Generated_Source\PSoC6/ADC_1.h **** #define ADC_1_CFG0_COMP_PWR_INIT  \
 471:Generated_Source\PSoC6/ADC_1.h ****         (ADC_1_CFG0_COMP_PWR \
 472:Generated_Source\PSoC6/ADC_1.h ****         << SAR_CTRL_COMP_PWR_Pos)
 473:Generated_Source\PSoC6/ADC_1.h **** 
 474:Generated_Source\PSoC6/ADC_1.h **** #define ADC_1_CFG0_COMP_DLY_INIT  \
 475:Generated_Source\PSoC6/ADC_1.h ****         (ADC_1_CFG0_COMP_DLY \
 476:Generated_Source\PSoC6/ADC_1.h ****         << SAR_CTRL_COMP_DLY_Pos)
 477:Generated_Source\PSoC6/ADC_1.h **** 
 478:Generated_Source\PSoC6/ADC_1.h **** #define ADC_1_CFG0_CTRL_INIT  \
 479:Generated_Source\PSoC6/ADC_1.h ****         (ADC_1_CFG0_VREF_POWER_INIT \
 480:Generated_Source\PSoC6/ADC_1.h ****         | ADC_1_CFG0_VREF_SEL_MASK \
 481:Generated_Source\PSoC6/ADC_1.h ****         | ADC_1_CFG0_SE_NEG_INPUT_INIT \
 482:Generated_Source\PSoC6/ADC_1.h ****         | ADC_1_CFG0_HW_CTRL_NEGVREF_INIT \
 483:Generated_Source\PSoC6/ADC_1.h ****         | ADC_1_CFG0_COMP_DLY_INIT \
 484:Generated_Source\PSoC6/ADC_1.h ****         | SAR_CTRL_REFBUF_EN_Msk \
 485:Generated_Source\PSoC6/ADC_1.h ****         | ADC_1_CFG0_COMP_PWR_INIT \
 486:Generated_Source\PSoC6/ADC_1.h ****         | SAR_CTRL_DSI_SYNC_CONFIG_Msk  \
 487:Generated_Source\PSoC6/ADC_1.h ****         | ADC_1_CFG0_SWITCH_CONF_INIT )
 488:Generated_Source\PSoC6/ADC_1.h **** 
 489:Generated_Source\PSoC6/ADC_1.h **** #define ADC_1_CFG0_SAMPLE_CTRL_INIT \
 490:Generated_Source\PSoC6/ADC_1.h ****         (ADC_1_CFG0_SE_RESULT_FORMAT_INIT \
 491:Generated_Source\PSoC6/ADC_1.h ****         | ADC_1_CFG0_DIFF_RESULT_FORMAT_INIT \
 492:Generated_Source\PSoC6/ADC_1.h ****         | ADC_1_CFG0_AVG_SAMPLES_NUM_INIT \
 493:Generated_Source\PSoC6/ADC_1.h ****         | ADC_1_CFG0_AVG_MODE_INIT \
 494:Generated_Source\PSoC6/ADC_1.h ****         | ADC_1_CFG0_DSI_TRIGGER_LEVEL_INIT \
 495:Generated_Source\PSoC6/ADC_1.h ****         | ADC_1_CFG0_DSI_TRIGGER_EN_INIT \
 496:Generated_Source\PSoC6/ADC_1.h ****         | ADC_1_CFG0_UAB_SCAN_MODE_INIT \
 497:Generated_Source\PSoC6/ADC_1.h ****         | SAR_SAMPLE_CTRL_VALID_IGNORE_Msk \
 498:Generated_Source\PSoC6/ADC_1.h ****         | ADC_1_CFG0_TRIGGER_OUT_INIT \
 499:Generated_Source\PSoC6/ADC_1.h ****         | SAR_SAMPLE_CTRL_EOS_DSI_OUT_EN_Msk \
 500:Generated_Source\PSoC6/ADC_1.h **** )
 501:Generated_Source\PSoC6/ADC_1.h **** 
 502:Generated_Source\PSoC6/ADC_1.h **** #define ADC_1_CFG0_RANGE_THRES_INIT \
 503:Generated_Source\PSoC6/ADC_1.h ****         (ADC_1_CFG0_LOW_LIMIT \
 504:Generated_Source\PSoC6/ADC_1.h ****         | (uint32)((uint32)ADC_1_CFG0_HIGH_LIMIT \
 505:Generated_Source\PSoC6/ADC_1.h ****         << SAR_RANGE_THRES_RANGE_HIGH_Pos))
 506:Generated_Source\PSoC6/ADC_1.h **** 
ARM GAS  C:\Users\dmula\AppData\Local\Temp\ccXnnfAd.s 			page 58


 507:Generated_Source\PSoC6/ADC_1.h **** #define ADC_1_CFG0_RANGE_COND_INIT   (cy_en_sar_range_detect_condition_t)ADC_1_CFG0_RANGE_COND
 508:Generated_Source\PSoC6/ADC_1.h **** 
 509:Generated_Source\PSoC6/ADC_1.h **** /* Misc Config
 510:Generated_Source\PSoC6/ADC_1.h ****     [0] - Freerunning: Set if the sample mode is freerunning
 511:Generated_Source\PSoC6/ADC_1.h **** */
 512:Generated_Source\PSoC6/ADC_1.h **** #define ADC_1_CFG0_MISC_CONFIG_INIT \
 513:Generated_Source\PSoC6/ADC_1.h ****         (ADC_1_CFG0_FREERUNNING)
 514:Generated_Source\PSoC6/ADC_1.h **** 
 515:Generated_Source\PSoC6/ADC_1.h **** /* ************************************************************************** */
 516:Generated_Source\PSoC6/ADC_1.h **** /* End configuration 0 calculated defines                                     */
 517:Generated_Source\PSoC6/ADC_1.h **** /* ************************************************************************** */
 518:Generated_Source\PSoC6/ADC_1.h **** 
 519:Generated_Source\PSoC6/ADC_1.h **** /* ************************************************************************** */
 520:Generated_Source\PSoC6/ADC_1.h **** /* Begin configuration 1 calculated defines                                   */
 521:Generated_Source\PSoC6/ADC_1.h **** /* ************************************************************************** */
 522:Generated_Source\PSoC6/ADC_1.h **** #if(ADC_1_TOTAL_CONFIGS > 1)
 523:Generated_Source\PSoC6/ADC_1.h ****     #define ADC_1_CFG1_SAMPLE_TIME01_INIT \
 524:Generated_Source\PSoC6/ADC_1.h ****             ((ADC_1_CFG1_APERTURE_TIME0 \
 525:Generated_Source\PSoC6/ADC_1.h ****             << SAR_SAMPLE_TIME01_SAMPLE_TIME0_Pos) \
 526:Generated_Source\PSoC6/ADC_1.h ****             | (ADC_1_CFG1_APERTURE_TIME1 \
 527:Generated_Source\PSoC6/ADC_1.h ****             << SAR_SAMPLE_TIME01_SAMPLE_TIME1_Pos))
 528:Generated_Source\PSoC6/ADC_1.h **** 
 529:Generated_Source\PSoC6/ADC_1.h ****     #define ADC_1_CFG1_SAMPLE_TIME23_INIT \
 530:Generated_Source\PSoC6/ADC_1.h ****             ((ADC_1_CFG1_APERTURE_TIME2 \
 531:Generated_Source\PSoC6/ADC_1.h ****             << SAR_SAMPLE_TIME23_SAMPLE_TIME2_Pos) \
 532:Generated_Source\PSoC6/ADC_1.h ****             | (ADC_1_CFG1_APERTURE_TIME3 \
 533:Generated_Source\PSoC6/ADC_1.h ****             << SAR_SAMPLE_TIME23_SAMPLE_TIME3_Pos))
 534:Generated_Source\PSoC6/ADC_1.h **** 
 535:Generated_Source\PSoC6/ADC_1.h ****     /* Enable soc pin if used */
 536:Generated_Source\PSoC6/ADC_1.h ****     #define ADC_1_CFG1_DSI_TRIGGER_EN_INIT \
 537:Generated_Source\PSoC6/ADC_1.h ****             (ADC_1_CFG1_USE_SOC \
 538:Generated_Source\PSoC6/ADC_1.h ****             << SAR_SAMPLE_CTRL_DSI_TRIGGER_EN_Pos)
 539:Generated_Source\PSoC6/ADC_1.h **** 
 540:Generated_Source\PSoC6/ADC_1.h ****     /* Set soc operation to edge or level based on sample mode */
 541:Generated_Source\PSoC6/ADC_1.h ****     #if(ADC_1_CFG1_FREERUNNING == ADC_1_FREERUNNING)
 542:Generated_Source\PSoC6/ADC_1.h ****         #define ADC_1_CFG1_DSI_TRIGGER_LEVEL_INIT    (SAR_SAMPLE_CTRL_DSI_TRIGGER_LEVEL_Msk)
 543:Generated_Source\PSoC6/ADC_1.h ****     #else /* Edge trigger */
 544:Generated_Source\PSoC6/ADC_1.h ****         #define ADC_1_CFG1_DSI_TRIGGER_LEVEL_INIT    (0u)
 545:Generated_Source\PSoC6/ADC_1.h ****     #endif /* End ADC_1_CFG1_FREERUNNING == ADC_1_FREERUNNING */
 546:Generated_Source\PSoC6/ADC_1.h **** 
 547:Generated_Source\PSoC6/ADC_1.h ****     /* Set SE_NEG_INPUT */
 548:Generated_Source\PSoC6/ADC_1.h ****     #if(ADC_1_CFG1_VNEG_INPUT_SEL == ADC_1_NEG_SEL_VSSA_KELVIN)
 549:Generated_Source\PSoC6/ADC_1.h ****         #define ADC_1_CFG1_SE_NEG_INPUT_INIT \
 550:Generated_Source\PSoC6/ADC_1.h ****             ((uint32)(ADC_1_NEG_SEL_VSSA_KELVIN \
 551:Generated_Source\PSoC6/ADC_1.h ****             << SAR_CTRL_NEG_SEL_Pos ))
 552:Generated_Source\PSoC6/ADC_1.h ****     #elif(ADC_1_CFG1_VNEG_INPUT_SEL == ADC_1_NEG_SEL_VREF)
 553:Generated_Source\PSoC6/ADC_1.h ****         #define ADC_1_CFG1_SE_NEG_INPUT_INIT     (ADC_1_NEG_SEL_VREF \
 554:Generated_Source\PSoC6/ADC_1.h ****                                                             << SAR_CTRL_NEG_SEL_Pos )
 555:Generated_Source\PSoC6/ADC_1.h ****     #elif (ADC_1_CFG1_SINGLE_PRESENT != 0u)
 556:Generated_Source\PSoC6/ADC_1.h ****         #define ADC_1_CFG1_SE_NEG_INPUT_INIT         ADC_1_CFG1_NEG_OTHER
 557:Generated_Source\PSoC6/ADC_1.h ****     #else
 558:Generated_Source\PSoC6/ADC_1.h ****         #define ADC_1_CFG1_SE_NEG_INPUT_INIT         0u
 559:Generated_Source\PSoC6/ADC_1.h ****     #endif /* ADC_1_CFG1_VNEG_INPUT_SEL == ADC_1_NEG_SEL_VSSA_KELVIN */
 560:Generated_Source\PSoC6/ADC_1.h **** 
 561:Generated_Source\PSoC6/ADC_1.h ****     #define ADC_1_CFG1_NEG_OTHER                 (uint16)((uint16)ADC_1_SARMUX__VNEG1 << SAR_CTRL_N
 562:Generated_Source\PSoC6/ADC_1.h ****     #define ADC_1_CFG1_SWITCH_CONF_INIT          0u
 563:Generated_Source\PSoC6/ADC_1.h **** 
ARM GAS  C:\Users\dmula\AppData\Local\Temp\ccXnnfAd.s 			page 59


 564:Generated_Source\PSoC6/ADC_1.h ****     /* If the SAR is configured for multiple channels, always set SAR_HW_CTRL_NEGVREF to 1 */
 565:Generated_Source\PSoC6/ADC_1.h ****     #define ADC_1_CFG1_HW_CTRL_NEGVREF_INIT      SAR_CTRL_SAR_HW_CTRL_NEGVREF_Msk
 566:Generated_Source\PSoC6/ADC_1.h **** 
 567:Generated_Source\PSoC6/ADC_1.h ****     #define ADC_1_CFG1_POWER_INIT  (ADC_1_PWR_CTRL_VREF_NORMAL_PWR)
 568:Generated_Source\PSoC6/ADC_1.h **** 
 569:Generated_Source\PSoC6/ADC_1.h ****     /* SAMPLE_CTRL initial values */
 570:Generated_Source\PSoC6/ADC_1.h ****     #define ADC_1_CFG1_SE_RESULT_FORMAT_INIT \
 571:Generated_Source\PSoC6/ADC_1.h ****             (ADC_1_CFG1_SINGLE_ENDED_FORMAT \
 572:Generated_Source\PSoC6/ADC_1.h ****             << SAR_SAMPLE_CTRL_SINGLE_ENDED_SIGNED_Pos)
 573:Generated_Source\PSoC6/ADC_1.h **** 
 574:Generated_Source\PSoC6/ADC_1.h ****     #define ADC_1_CFG1_DIFF_RESULT_FORMAT_INIT \
 575:Generated_Source\PSoC6/ADC_1.h ****             (ADC_1_CFG1_DIFFERENTIAL_FORMAT \
 576:Generated_Source\PSoC6/ADC_1.h ****             << SAR_SAMPLE_CTRL_DIFFERENTIAL_SIGNED_Pos)
 577:Generated_Source\PSoC6/ADC_1.h **** 
 578:Generated_Source\PSoC6/ADC_1.h ****     #define ADC_1_CFG1_AVG_SAMPLES_NUM_INIT \
 579:Generated_Source\PSoC6/ADC_1.h ****             (ADC_1_CFG1_SAMPLES_AVERAGED \
 580:Generated_Source\PSoC6/ADC_1.h ****             << SAR_SAMPLE_CTRL_AVG_CNT_Pos)
 581:Generated_Source\PSoC6/ADC_1.h **** 
 582:Generated_Source\PSoC6/ADC_1.h ****     /* Combination of Average Mode and Average Shift */
 583:Generated_Source\PSoC6/ADC_1.h ****     #define ADC_1_CFG1_AVG_MODE_INIT \
 584:Generated_Source\PSoC6/ADC_1.h ****             (ADC_1_CFG1_AVGERAGING_MODE \
 585:Generated_Source\PSoC6/ADC_1.h ****             << SAR_SAMPLE_CTRL_AVG_SHIFT_Pos)
 586:Generated_Source\PSoC6/ADC_1.h **** 
 587:Generated_Source\PSoC6/ADC_1.h ****     #define ADC_1_CFG1_TRIGGER_OUT_INIT      (0u)
 588:Generated_Source\PSoC6/ADC_1.h ****     #define ADC_1_CFG1_UAB_SCAN_MODE_INIT    (0u)
 589:Generated_Source\PSoC6/ADC_1.h **** 
 590:Generated_Source\PSoC6/ADC_1.h ****     #define ADC_1_CFG1_VREF_POWER_INIT  \
 591:Generated_Source\PSoC6/ADC_1.h ****             (ADC_1_CFG1_VREF_PWR \
 592:Generated_Source\PSoC6/ADC_1.h ****             << SAR_CTRL_PWR_CTRL_VREF_Pos)
 593:Generated_Source\PSoC6/ADC_1.h **** 
 594:Generated_Source\PSoC6/ADC_1.h ****     #define ADC_1_CFG1_COMP_PWR_INIT  \
 595:Generated_Source\PSoC6/ADC_1.h ****             (ADC_1_CFG1_COMP_PWR \
 596:Generated_Source\PSoC6/ADC_1.h ****             << SAR_CTRL_COMP_PWR_Pos)
 597:Generated_Source\PSoC6/ADC_1.h **** 
 598:Generated_Source\PSoC6/ADC_1.h ****     #define ADC_1_CFG1_COMP_DLY_INIT  \
 599:Generated_Source\PSoC6/ADC_1.h ****             (ADC_1_CFG1_COMP_DLY \
 600:Generated_Source\PSoC6/ADC_1.h ****             << SAR_CTRL_COMP_DLY_Pos)
 601:Generated_Source\PSoC6/ADC_1.h **** 
 602:Generated_Source\PSoC6/ADC_1.h ****     #define ADC_1_CFG1_CTRL_INIT  \
 603:Generated_Source\PSoC6/ADC_1.h ****             (ADC_1_CFG1_VREF_POWER_INIT \
 604:Generated_Source\PSoC6/ADC_1.h ****             | ADC_1_CFG1_VREF_SEL_MASK \
 605:Generated_Source\PSoC6/ADC_1.h ****             | ADC_1_CFG1_SE_NEG_INPUT_INIT \
 606:Generated_Source\PSoC6/ADC_1.h ****             | ADC_1_CFG1_HW_CTRL_NEGVREF_INIT \
 607:Generated_Source\PSoC6/ADC_1.h ****             | ADC_1_CFG1_COMP_DLY_INIT \
 608:Generated_Source\PSoC6/ADC_1.h ****             | SAR_CTRL_REFBUF_EN_Msk \
 609:Generated_Source\PSoC6/ADC_1.h ****             | ADC_1_CFG1_COMP_PWR_INIT \
 610:Generated_Source\PSoC6/ADC_1.h ****             | SAR_CTRL_DSI_SYNC_CONFIG_Msk  \
 611:Generated_Source\PSoC6/ADC_1.h ****             | ADC_1_CFG1_SWITCH_CONF_INIT )
 612:Generated_Source\PSoC6/ADC_1.h **** 
 613:Generated_Source\PSoC6/ADC_1.h ****     #define ADC_1_CFG1_SAMPLE_CTRL_INIT \
 614:Generated_Source\PSoC6/ADC_1.h ****             (ADC_1_CFG1_SE_RESULT_FORMAT_INIT \
 615:Generated_Source\PSoC6/ADC_1.h ****             | ADC_1_CFG1_DIFF_RESULT_FORMAT_INIT \
 616:Generated_Source\PSoC6/ADC_1.h ****             | ADC_1_CFG1_AVG_SAMPLES_NUM_INIT \
 617:Generated_Source\PSoC6/ADC_1.h ****             | ADC_1_CFG1_AVG_MODE_INIT \
 618:Generated_Source\PSoC6/ADC_1.h ****             | ADC_1_CFG1_DSI_TRIGGER_LEVEL_INIT \
 619:Generated_Source\PSoC6/ADC_1.h ****             | ADC_1_CFG1_DSI_TRIGGER_EN_INIT \
 620:Generated_Source\PSoC6/ADC_1.h ****             | ADC_1_CFG1_UAB_SCAN_MODE_INIT \
ARM GAS  C:\Users\dmula\AppData\Local\Temp\ccXnnfAd.s 			page 60


 621:Generated_Source\PSoC6/ADC_1.h ****             | SAR_SAMPLE_CTRL_VALID_IGNORE_Msk \
 622:Generated_Source\PSoC6/ADC_1.h ****             | ADC_1_CFG1_TRIGGER_OUT_INIT \
 623:Generated_Source\PSoC6/ADC_1.h ****             | SAR_SAMPLE_CTRL_EOS_DSI_OUT_EN_Msk \
 624:Generated_Source\PSoC6/ADC_1.h ****     )
 625:Generated_Source\PSoC6/ADC_1.h **** 
 626:Generated_Source\PSoC6/ADC_1.h ****     #define ADC_1_CFG1_RANGE_THRES_INIT \
 627:Generated_Source\PSoC6/ADC_1.h ****             (ADC_1_CFG1_LOW_LIMIT \
 628:Generated_Source\PSoC6/ADC_1.h ****             | (uint32)((uint32)ADC_1_CFG1_HIGH_LIMIT \
 629:Generated_Source\PSoC6/ADC_1.h ****             << SAR_RANGE_THRES_RANGE_HIGH_Pos))
 630:Generated_Source\PSoC6/ADC_1.h **** 
 631:Generated_Source\PSoC6/ADC_1.h ****     #define ADC_1_CFG1_RANGE_COND_INIT   (cy_en_sar_range_detect_condition_t)ADC_1_CFG1_RANGE_COND
 632:Generated_Source\PSoC6/ADC_1.h **** 
 633:Generated_Source\PSoC6/ADC_1.h ****     /* Misc Config
 634:Generated_Source\PSoC6/ADC_1.h ****         [0] - Freerunning: Set if the sample mode is freerunning
 635:Generated_Source\PSoC6/ADC_1.h ****     */
 636:Generated_Source\PSoC6/ADC_1.h ****     #define ADC_1_CFG1_MISC_CONFIG_INIT \
 637:Generated_Source\PSoC6/ADC_1.h ****             (ADC_1_CFG1_FREERUNNING)
 638:Generated_Source\PSoC6/ADC_1.h **** #endif /* ADC_1_TOTAL_CONFIGS > 1 */
 639:Generated_Source\PSoC6/ADC_1.h **** 
 640:Generated_Source\PSoC6/ADC_1.h **** /* ************************************************************************** */
 641:Generated_Source\PSoC6/ADC_1.h **** /* End configuration 1 calculated defines                                     */
 642:Generated_Source\PSoC6/ADC_1.h **** /* ************************************************************************** */
 643:Generated_Source\PSoC6/ADC_1.h **** 
 644:Generated_Source\PSoC6/ADC_1.h **** /* ************************************************************************** */
 645:Generated_Source\PSoC6/ADC_1.h **** /* Begin configuration 2 calculated defines                                   */
 646:Generated_Source\PSoC6/ADC_1.h **** /* ************************************************************************** */
 647:Generated_Source\PSoC6/ADC_1.h **** #if(ADC_1_TOTAL_CONFIGS > 2)
 648:Generated_Source\PSoC6/ADC_1.h ****     #define ADC_1_CFG2_SAMPLE_TIME01_INIT \
 649:Generated_Source\PSoC6/ADC_1.h ****             ((ADC_1_CFG2_APERTURE_TIME0 \
 650:Generated_Source\PSoC6/ADC_1.h ****             << SAR_SAMPLE_TIME01_SAMPLE_TIME0_Pos) \
 651:Generated_Source\PSoC6/ADC_1.h ****             | (ADC_1_CFG2_APERTURE_TIME1 \
 652:Generated_Source\PSoC6/ADC_1.h ****             << SAR_SAMPLE_TIME01_SAMPLE_TIME1_Pos))
 653:Generated_Source\PSoC6/ADC_1.h **** 
 654:Generated_Source\PSoC6/ADC_1.h ****     #define ADC_1_CFG2_SAMPLE_TIME23_INIT \
 655:Generated_Source\PSoC6/ADC_1.h ****             ((ADC_1_CFG2_APERTURE_TIME2 \
 656:Generated_Source\PSoC6/ADC_1.h ****             << SAR_SAMPLE_TIME23_SAMPLE_TIME2_Pos) \
 657:Generated_Source\PSoC6/ADC_1.h ****             | (ADC_1_CFG2_APERTURE_TIME3 \
 658:Generated_Source\PSoC6/ADC_1.h ****             << SAR_SAMPLE_TIME23_SAMPLE_TIME3_Pos))
 659:Generated_Source\PSoC6/ADC_1.h **** 
 660:Generated_Source\PSoC6/ADC_1.h ****     /* Enable soc pin if used */
 661:Generated_Source\PSoC6/ADC_1.h ****     #define ADC_1_CFG2_DSI_TRIGGER_EN_INIT \
 662:Generated_Source\PSoC6/ADC_1.h ****             (ADC_1_CFG2_USE_SOC \
 663:Generated_Source\PSoC6/ADC_1.h ****             << SAR_SAMPLE_CTRL_DSI_TRIGGER_EN_Pos)
 664:Generated_Source\PSoC6/ADC_1.h **** 
 665:Generated_Source\PSoC6/ADC_1.h ****     /* Set soc operation to edge or level based on sample mode */
 666:Generated_Source\PSoC6/ADC_1.h ****     #if(ADC_1_CFG2_FREERUNNING == ADC_1_FREERUNNING)
 667:Generated_Source\PSoC6/ADC_1.h ****         #define ADC_1_CFG2_DSI_TRIGGER_LEVEL_INIT    (SAR_SAMPLE_CTRL_DSI_TRIGGER_LEVEL_Msk)
 668:Generated_Source\PSoC6/ADC_1.h ****     #else /* Edge trigger */
 669:Generated_Source\PSoC6/ADC_1.h ****         #define ADC_1_CFG2_DSI_TRIGGER_LEVEL_INIT    (0u)
 670:Generated_Source\PSoC6/ADC_1.h ****     #endif /* End ADC_1_CFG2_FREERUNNING == ADC_1_FREERUNNING */
 671:Generated_Source\PSoC6/ADC_1.h **** 
 672:Generated_Source\PSoC6/ADC_1.h ****     /* Set SE_NEG_INPUT */
 673:Generated_Source\PSoC6/ADC_1.h ****     #if(ADC_1_CFG2_VNEG_INPUT_SEL == ADC_1_NEG_SEL_VSSA_KELVIN)
 674:Generated_Source\PSoC6/ADC_1.h ****         #define ADC_1_CFG2_SE_NEG_INPUT_INIT \
 675:Generated_Source\PSoC6/ADC_1.h ****             ((uint32)(ADC_1_NEG_SEL_VSSA_KELVIN \
 676:Generated_Source\PSoC6/ADC_1.h ****             << SAR_CTRL_NEG_SEL_Pos ))
 677:Generated_Source\PSoC6/ADC_1.h ****     #elif(ADC_1_CFG2_VNEG_INPUT_SEL == ADC_1_NEG_SEL_VREF)
ARM GAS  C:\Users\dmula\AppData\Local\Temp\ccXnnfAd.s 			page 61


 678:Generated_Source\PSoC6/ADC_1.h ****         #define ADC_1_CFG2_SE_NEG_INPUT_INIT     (ADC_1_NEG_SEL_VREF \
 679:Generated_Source\PSoC6/ADC_1.h ****                                                                 << SAR_CTRL_NEG_SEL_Pos )
 680:Generated_Source\PSoC6/ADC_1.h ****     #elif (ADC_1_CFG2_SINGLE_PRESENT != 0u)
 681:Generated_Source\PSoC6/ADC_1.h ****         #define ADC_1_CFG2_SE_NEG_INPUT_INIT         ADC_1_CFG2_NEG_OTHER
 682:Generated_Source\PSoC6/ADC_1.h ****     #else
 683:Generated_Source\PSoC6/ADC_1.h ****         #define ADC_1_CFG2_SE_NEG_INPUT_INIT         0u
 684:Generated_Source\PSoC6/ADC_1.h ****     #endif /* ADC_1_CFG2_VNEG_INPUT_SEL == ADC_1_NEG_SEL_VSSA_KELVIN */
 685:Generated_Source\PSoC6/ADC_1.h **** 
 686:Generated_Source\PSoC6/ADC_1.h ****    #define ADC_1_CFG2_NEG_OTHER                 (uint16)((uint16)ADC_1_SARMUX__VNEG2 << SAR_CTRL_NE
 687:Generated_Source\PSoC6/ADC_1.h **** 
 688:Generated_Source\PSoC6/ADC_1.h ****     #define ADC_1_CFG2_SWITCH_CONF_INIT          0u
 689:Generated_Source\PSoC6/ADC_1.h **** 
 690:Generated_Source\PSoC6/ADC_1.h ****     /* If the SAR is configured for multiple channels, always set SAR_HW_CTRL_NEGVREF to 1 */
 691:Generated_Source\PSoC6/ADC_1.h ****     #define ADC_1_CFG2_HW_CTRL_NEGVREF_INIT      SAR_CTRL_SAR_HW_CTRL_NEGVREF_Msk
 692:Generated_Source\PSoC6/ADC_1.h **** 
 693:Generated_Source\PSoC6/ADC_1.h ****     #define ADC_1_CFG2_POWER_INIT  (ADC_1_PWR_CTRL_VREF_NORMAL_PWR)
 694:Generated_Source\PSoC6/ADC_1.h **** 
 695:Generated_Source\PSoC6/ADC_1.h ****     /* SAMPLE_CTRL initial values */
 696:Generated_Source\PSoC6/ADC_1.h ****     #define ADC_1_CFG2_SE_RESULT_FORMAT_INIT \
 697:Generated_Source\PSoC6/ADC_1.h ****             (ADC_1_CFG2_SINGLE_ENDED_FORMAT \
 698:Generated_Source\PSoC6/ADC_1.h ****             << SAR_SAMPLE_CTRL_SINGLE_ENDED_SIGNED_Pos)
 699:Generated_Source\PSoC6/ADC_1.h **** 
 700:Generated_Source\PSoC6/ADC_1.h ****     #define ADC_1_CFG2_DIFF_RESULT_FORMAT_INIT \
 701:Generated_Source\PSoC6/ADC_1.h ****             (ADC_1_CFG2_DIFFERENTIAL_FORMAT \
 702:Generated_Source\PSoC6/ADC_1.h ****             << SAR_SAMPLE_CTRL_DIFFERENTIAL_SIGNED_Pos)
 703:Generated_Source\PSoC6/ADC_1.h **** 
 704:Generated_Source\PSoC6/ADC_1.h ****     #define ADC_1_CFG2_AVG_SAMPLES_NUM_INIT \
 705:Generated_Source\PSoC6/ADC_1.h ****             (ADC_1_CFG2_SAMPLES_AVERAGED \
 706:Generated_Source\PSoC6/ADC_1.h ****             << SAR_SAMPLE_CTRL_AVG_CNT_Pos)
 707:Generated_Source\PSoC6/ADC_1.h **** 
 708:Generated_Source\PSoC6/ADC_1.h ****     /* Combination of Average Mode and Average Shift */
 709:Generated_Source\PSoC6/ADC_1.h ****     #define ADC_1_CFG2_AVG_MODE_INIT \
 710:Generated_Source\PSoC6/ADC_1.h ****             (ADC_1_CFG2_AVGERAGING_MODE \
 711:Generated_Source\PSoC6/ADC_1.h ****             << SAR_SAMPLE_CTRL_AVG_SHIFT_Pos)
 712:Generated_Source\PSoC6/ADC_1.h **** 
 713:Generated_Source\PSoC6/ADC_1.h ****     #define ADC_1_CFG2_TRIGGER_OUT_INIT      (0u)
 714:Generated_Source\PSoC6/ADC_1.h ****     #define ADC_1_CFG2_UAB_SCAN_MODE_INIT    (0u)
 715:Generated_Source\PSoC6/ADC_1.h **** 
 716:Generated_Source\PSoC6/ADC_1.h **** 
 717:Generated_Source\PSoC6/ADC_1.h ****     #define ADC_1_CFG2_VREF_POWER_INIT  \
 718:Generated_Source\PSoC6/ADC_1.h ****             (ADC_1_CFG2_VREF_PWR \
 719:Generated_Source\PSoC6/ADC_1.h ****             << SAR_CTRL_PWR_CTRL_VREF_Pos)
 720:Generated_Source\PSoC6/ADC_1.h **** 
 721:Generated_Source\PSoC6/ADC_1.h ****     #define ADC_1_CFG2_COMP_PWR_INIT  \
 722:Generated_Source\PSoC6/ADC_1.h ****             (ADC_1_CFG2_COMP_PWR \
 723:Generated_Source\PSoC6/ADC_1.h ****             << SAR_CTRL_COMP_PWR_Pos)
 724:Generated_Source\PSoC6/ADC_1.h **** 
 725:Generated_Source\PSoC6/ADC_1.h ****     #define ADC_1_CFG2_COMP_DLY_INIT  \
 726:Generated_Source\PSoC6/ADC_1.h ****             (ADC_1_CFG2_COMP_DLY \
 727:Generated_Source\PSoC6/ADC_1.h ****             << SAR_CTRL_COMP_DLY_Pos)
 728:Generated_Source\PSoC6/ADC_1.h **** 
 729:Generated_Source\PSoC6/ADC_1.h ****     #define ADC_1_CFG2_CTRL_INIT  \
 730:Generated_Source\PSoC6/ADC_1.h ****             (ADC_1_CFG2_VREF_POWER_INIT \
 731:Generated_Source\PSoC6/ADC_1.h ****             | ADC_1_CFG2_VREF_SEL_MASK \
 732:Generated_Source\PSoC6/ADC_1.h ****             | ADC_1_CFG2_SE_NEG_INPUT_INIT \
 733:Generated_Source\PSoC6/ADC_1.h ****             | ADC_1_CFG2_HW_CTRL_NEGVREF_INIT \
 734:Generated_Source\PSoC6/ADC_1.h ****             | ADC_1_CFG2_COMP_DLY_INIT \
ARM GAS  C:\Users\dmula\AppData\Local\Temp\ccXnnfAd.s 			page 62


 735:Generated_Source\PSoC6/ADC_1.h ****             | SAR_CTRL_REFBUF_EN_Msk \
 736:Generated_Source\PSoC6/ADC_1.h ****             | ADC_1_CFG2_COMP_PWR_INIT \
 737:Generated_Source\PSoC6/ADC_1.h ****             | SAR_CTRL_DSI_SYNC_CONFIG_Msk  \
 738:Generated_Source\PSoC6/ADC_1.h ****             | ADC_1_CFG2_SWITCH_CONF_INIT )
 739:Generated_Source\PSoC6/ADC_1.h **** 
 740:Generated_Source\PSoC6/ADC_1.h **** 
 741:Generated_Source\PSoC6/ADC_1.h ****     #define ADC_1_CFG2_SAMPLE_CTRL_INIT \
 742:Generated_Source\PSoC6/ADC_1.h ****             (ADC_1_CFG2_SE_RESULT_FORMAT_INIT \
 743:Generated_Source\PSoC6/ADC_1.h ****             | ADC_1_CFG2_DIFF_RESULT_FORMAT_INIT \
 744:Generated_Source\PSoC6/ADC_1.h ****             | ADC_1_CFG2_AVG_SAMPLES_NUM_INIT \
 745:Generated_Source\PSoC6/ADC_1.h ****             | ADC_1_CFG2_AVG_MODE_INIT \
 746:Generated_Source\PSoC6/ADC_1.h ****             | ADC_1_CFG2_DSI_TRIGGER_LEVEL_INIT \
 747:Generated_Source\PSoC6/ADC_1.h ****             | ADC_1_CFG2_DSI_TRIGGER_EN_INIT \
 748:Generated_Source\PSoC6/ADC_1.h ****             | ADC_1_CFG2_UAB_SCAN_MODE_INIT \
 749:Generated_Source\PSoC6/ADC_1.h ****             | SAR_SAMPLE_CTRL_VALID_IGNORE_Msk \
 750:Generated_Source\PSoC6/ADC_1.h ****             | ADC_1_CFG2_TRIGGER_OUT_INIT \
 751:Generated_Source\PSoC6/ADC_1.h ****             | SAR_SAMPLE_CTRL_EOS_DSI_OUT_EN_Msk \
 752:Generated_Source\PSoC6/ADC_1.h ****     )
 753:Generated_Source\PSoC6/ADC_1.h **** 
 754:Generated_Source\PSoC6/ADC_1.h ****     #define ADC_1_CFG2_RANGE_THRES_INIT \
 755:Generated_Source\PSoC6/ADC_1.h ****             (ADC_1_CFG2_LOW_LIMIT \
 756:Generated_Source\PSoC6/ADC_1.h ****             | (uint32)((uint32)ADC_1_CFG2_HIGH_LIMIT \
 757:Generated_Source\PSoC6/ADC_1.h ****             << SAR_RANGE_THRES_RANGE_HIGH_Pos))
 758:Generated_Source\PSoC6/ADC_1.h **** 
 759:Generated_Source\PSoC6/ADC_1.h ****     #define ADC_1_CFG2_RANGE_COND_INIT   (cy_en_sar_range_detect_condition_t)ADC_1_CFG2_RANGE_COND
 760:Generated_Source\PSoC6/ADC_1.h **** 
 761:Generated_Source\PSoC6/ADC_1.h ****     /* Misc Config
 762:Generated_Source\PSoC6/ADC_1.h ****         [0] - Freerunning: Set if the sample mode is freerunning
 763:Generated_Source\PSoC6/ADC_1.h ****     */
 764:Generated_Source\PSoC6/ADC_1.h ****     #define ADC_1_CFG2_MISC_CONFIG_INIT \
 765:Generated_Source\PSoC6/ADC_1.h ****             (ADC_1_CFG2_FREERUNNING)
 766:Generated_Source\PSoC6/ADC_1.h **** #endif /* ADC_1_TOTAL_CONFIGS > 2 */
 767:Generated_Source\PSoC6/ADC_1.h **** 
 768:Generated_Source\PSoC6/ADC_1.h **** /* ************************************************************************** */
 769:Generated_Source\PSoC6/ADC_1.h **** /* End configuration 2 calculated defines                                     */
 770:Generated_Source\PSoC6/ADC_1.h **** /* ************************************************************************** */
 771:Generated_Source\PSoC6/ADC_1.h **** 
 772:Generated_Source\PSoC6/ADC_1.h **** /* ************************************************************************** */
 773:Generated_Source\PSoC6/ADC_1.h **** /* Begin configuration 3 calculated defines                                   */
 774:Generated_Source\PSoC6/ADC_1.h **** /* ************************************************************************** */
 775:Generated_Source\PSoC6/ADC_1.h **** #if(ADC_1_TOTAL_CONFIGS > 3)
 776:Generated_Source\PSoC6/ADC_1.h ****     #define ADC_1_CFG3_SAMPLE_TIME01_INIT \
 777:Generated_Source\PSoC6/ADC_1.h ****             ((ADC_1_CFG3_APERTURE_TIME0 \
 778:Generated_Source\PSoC6/ADC_1.h ****             << SAR_SAMPLE_TIME01_SAMPLE_TIME0_Pos) \
 779:Generated_Source\PSoC6/ADC_1.h ****             | (ADC_1_CFG3_APERTURE_TIME1 \
 780:Generated_Source\PSoC6/ADC_1.h ****             << SAR_SAMPLE_TIME01_SAMPLE_TIME1_Pos))
 781:Generated_Source\PSoC6/ADC_1.h **** 
 782:Generated_Source\PSoC6/ADC_1.h ****     #define ADC_1_CFG3_SAMPLE_TIME23_INIT \
 783:Generated_Source\PSoC6/ADC_1.h ****             ((ADC_1_CFG3_APERTURE_TIME2 \
 784:Generated_Source\PSoC6/ADC_1.h ****             << SAR_SAMPLE_TIME23_SAMPLE_TIME2_Pos) \
 785:Generated_Source\PSoC6/ADC_1.h ****             | (ADC_1_CFG3_APERTURE_TIME3 \
 786:Generated_Source\PSoC6/ADC_1.h ****             << SAR_SAMPLE_TIME23_SAMPLE_TIME3_Pos))
 787:Generated_Source\PSoC6/ADC_1.h **** 
 788:Generated_Source\PSoC6/ADC_1.h ****     /* Enable soc pin if used */
 789:Generated_Source\PSoC6/ADC_1.h ****     #define ADC_1_CFG3_DSI_TRIGGER_EN_INIT \
 790:Generated_Source\PSoC6/ADC_1.h ****             (ADC_1_CFG3_USE_SOC \
 791:Generated_Source\PSoC6/ADC_1.h ****              << SAR_SAMPLE_CTRL_DSI_TRIGGER_EN_Pos)
ARM GAS  C:\Users\dmula\AppData\Local\Temp\ccXnnfAd.s 			page 63


 792:Generated_Source\PSoC6/ADC_1.h **** 
 793:Generated_Source\PSoC6/ADC_1.h ****     /* Set soc operation to edge or level based on sample mode */
 794:Generated_Source\PSoC6/ADC_1.h ****     #if(ADC_1_CFG3_FREERUNNING == ADC_1_FREERUNNING)
 795:Generated_Source\PSoC6/ADC_1.h ****         #define ADC_1_CFG3_DSI_TRIGGER_LEVEL_INIT    (SAR_SAMPLE_CTRL_DSI_TRIGGER_LEVEL_Msk)
 796:Generated_Source\PSoC6/ADC_1.h ****     #else /* Edge trigger */
 797:Generated_Source\PSoC6/ADC_1.h ****         #define ADC_1_CFG3_DSI_TRIGGER_LEVEL_INIT    (0u)
 798:Generated_Source\PSoC6/ADC_1.h ****     #endif /* End ADC_1_CFG3_FREERUNNING == ADC_1_FREERUNNING */
 799:Generated_Source\PSoC6/ADC_1.h **** 
 800:Generated_Source\PSoC6/ADC_1.h ****     /* Set SE_NEG_INPUT  */
 801:Generated_Source\PSoC6/ADC_1.h ****     #if(ADC_1_CFG3_VNEG_INPUT_SEL == ADC_1_NEG_SEL_VSSA_KELVIN)
 802:Generated_Source\PSoC6/ADC_1.h ****         #define ADC_1_CFG3_SE_NEG_INPUT_INIT \
 803:Generated_Source\PSoC6/ADC_1.h ****             ((uint32)(ADC_1_NEG_SEL_VSSA_KELVIN \
 804:Generated_Source\PSoC6/ADC_1.h ****             << SAR_CTRL_NEG_SEL_Pos ))
 805:Generated_Source\PSoC6/ADC_1.h ****     #elif(ADC_1_CFG3_VNEG_INPUT_SEL == ADC_1_NEG_SEL_VREF)
 806:Generated_Source\PSoC6/ADC_1.h ****         #define ADC_1_CFG3_SE_NEG_INPUT_INIT     (ADC_1_NEG_SEL_VREF \
 807:Generated_Source\PSoC6/ADC_1.h ****                                                                 << SAR_CTRL_NEG_SEL_Pos )
 808:Generated_Source\PSoC6/ADC_1.h ****     #elif (ADC_1_CFG3_SINGLE_PRESENT != 0u)
 809:Generated_Source\PSoC6/ADC_1.h ****         #define ADC_1_CFG3_SE_NEG_INPUT_INIT         ADC_1_CFG3_NEG_OTHER
 810:Generated_Source\PSoC6/ADC_1.h ****     #else
 811:Generated_Source\PSoC6/ADC_1.h ****         #define ADC_1_CFG3_SE_NEG_INPUT_INIT         0u
 812:Generated_Source\PSoC6/ADC_1.h ****     #endif /* ADC_1_CFG3_VNEG_INPUT_SEL == ADC_1_NEG_SEL_VSSA_KELVIN */
 813:Generated_Source\PSoC6/ADC_1.h **** 
 814:Generated_Source\PSoC6/ADC_1.h ****     #define ADC_1_CFG3_NEG_OTHER                 (uint16)((uint16)ADC_1_SARMUX__VNEG3 << SAR_CTRL_N
 815:Generated_Source\PSoC6/ADC_1.h **** 
 816:Generated_Source\PSoC6/ADC_1.h ****     #define ADC_1_CFG3_SWITCH_CONF_INIT          0u
 817:Generated_Source\PSoC6/ADC_1.h **** 
 818:Generated_Source\PSoC6/ADC_1.h ****     /* If the SAR is configured for multiple channels, always set SAR_HW_CTRL_NEGVREF to 1 */
 819:Generated_Source\PSoC6/ADC_1.h ****     #define ADC_1_CFG3_HW_CTRL_NEGVREF_INIT      SAR_CTRL_SAR_HW_CTRL_NEGVREF_Msk
 820:Generated_Source\PSoC6/ADC_1.h **** 
 821:Generated_Source\PSoC6/ADC_1.h ****     #define ADC_1_CFG3_POWER_INIT  (ADC_1_PWR_CTRL_VREF_NORMAL_PWR)
 822:Generated_Source\PSoC6/ADC_1.h **** 
 823:Generated_Source\PSoC6/ADC_1.h ****     /* SAMPLE_CTRL initial values */
 824:Generated_Source\PSoC6/ADC_1.h ****     #define ADC_1_CFG3_SE_RESULT_FORMAT_INIT \
 825:Generated_Source\PSoC6/ADC_1.h ****             (ADC_1_CFG3_SINGLE_ENDED_FORMAT \
 826:Generated_Source\PSoC6/ADC_1.h ****             << SAR_SAMPLE_CTRL_SINGLE_ENDED_SIGNED_Pos)
 827:Generated_Source\PSoC6/ADC_1.h **** 
 828:Generated_Source\PSoC6/ADC_1.h ****     #define ADC_1_CFG3_DIFF_RESULT_FORMAT_INIT \
 829:Generated_Source\PSoC6/ADC_1.h ****             (ADC_1_CFG3_DIFFERENTIAL_FORMAT \
 830:Generated_Source\PSoC6/ADC_1.h ****             << SAR_SAMPLE_CTRL_DIFFERENTIAL_SIGNED_Pos)
 831:Generated_Source\PSoC6/ADC_1.h **** 
 832:Generated_Source\PSoC6/ADC_1.h ****     #define ADC_1_CFG3_AVG_SAMPLES_NUM_INIT \
 833:Generated_Source\PSoC6/ADC_1.h ****             (ADC_1_CFG3_SAMPLES_AVERAGED \
 834:Generated_Source\PSoC6/ADC_1.h ****             << SAR_SAMPLE_CTRL_AVG_CNT_Pos)
 835:Generated_Source\PSoC6/ADC_1.h **** 
 836:Generated_Source\PSoC6/ADC_1.h ****     /* Combination of Average Mode and Average Shift */
 837:Generated_Source\PSoC6/ADC_1.h ****     #define ADC_1_CFG3_AVG_MODE_INIT \
 838:Generated_Source\PSoC6/ADC_1.h ****             (ADC_1_CFG3_AVGERAGING_MODE \
 839:Generated_Source\PSoC6/ADC_1.h ****             << SAR_SAMPLE_CTRL_AVG_SHIFT_Pos)
 840:Generated_Source\PSoC6/ADC_1.h **** 
 841:Generated_Source\PSoC6/ADC_1.h ****     #define ADC_1_CFG3_TRIGGER_OUT_INIT      (0u)
 842:Generated_Source\PSoC6/ADC_1.h ****     #define ADC_1_CFG3_UAB_SCAN_MODE_INIT    (0u)
 843:Generated_Source\PSoC6/ADC_1.h **** 
 844:Generated_Source\PSoC6/ADC_1.h ****     #define ADC_1_CFG3_VREF_POWER_INIT  \
 845:Generated_Source\PSoC6/ADC_1.h ****             (ADC_1_CFG3_VREF_PWR \
 846:Generated_Source\PSoC6/ADC_1.h ****             << SAR_CTRL_PWR_CTRL_VREF_Pos)
 847:Generated_Source\PSoC6/ADC_1.h **** 
 848:Generated_Source\PSoC6/ADC_1.h ****     #define ADC_1_CFG3_COMP_PWR_INIT  \
ARM GAS  C:\Users\dmula\AppData\Local\Temp\ccXnnfAd.s 			page 64


 849:Generated_Source\PSoC6/ADC_1.h ****             (ADC_1_CFG3_COMP_PWR \
 850:Generated_Source\PSoC6/ADC_1.h ****             << SAR_CTRL_COMP_PWR_Pos)
 851:Generated_Source\PSoC6/ADC_1.h **** 
 852:Generated_Source\PSoC6/ADC_1.h ****     #define ADC_1_CFG3_COMP_DLY_INIT  \
 853:Generated_Source\PSoC6/ADC_1.h ****             (ADC_1_CFG3_COMP_DLY \
 854:Generated_Source\PSoC6/ADC_1.h ****             << SAR_CTRL_COMP_DLY_Pos)
 855:Generated_Source\PSoC6/ADC_1.h **** 
 856:Generated_Source\PSoC6/ADC_1.h ****     #define ADC_1_CFG3_CTRL_INIT  \
 857:Generated_Source\PSoC6/ADC_1.h ****             (ADC_1_CFG3_VREF_POWER_INIT \
 858:Generated_Source\PSoC6/ADC_1.h ****             | ADC_1_CFG3_VREF_SEL_MASK \
 859:Generated_Source\PSoC6/ADC_1.h ****             | ADC_1_CFG3_SE_NEG_INPUT_INIT \
 860:Generated_Source\PSoC6/ADC_1.h ****             | ADC_1_CFG3_HW_CTRL_NEGVREF_INIT \
 861:Generated_Source\PSoC6/ADC_1.h ****             | ADC_1_CFG3_COMP_DLY_INIT \
 862:Generated_Source\PSoC6/ADC_1.h ****             | SAR_CTRL_REFBUF_EN_Msk \
 863:Generated_Source\PSoC6/ADC_1.h ****             | ADC_1_CFG3_COMP_PWR_INIT \
 864:Generated_Source\PSoC6/ADC_1.h ****             | SAR_CTRL_DSI_SYNC_CONFIG_Msk  \
 865:Generated_Source\PSoC6/ADC_1.h ****             | ADC_1_CFG3_SWITCH_CONF_INIT )
 866:Generated_Source\PSoC6/ADC_1.h **** 
 867:Generated_Source\PSoC6/ADC_1.h **** 
 868:Generated_Source\PSoC6/ADC_1.h ****     #define ADC_1_CFG3_SAMPLE_CTRL_INIT \
 869:Generated_Source\PSoC6/ADC_1.h ****             (ADC_1_CFG3_SE_RESULT_FORMAT_INIT \
 870:Generated_Source\PSoC6/ADC_1.h ****             | ADC_1_CFG3_DIFF_RESULT_FORMAT_INIT \
 871:Generated_Source\PSoC6/ADC_1.h ****             | ADC_1_CFG3_AVG_SAMPLES_NUM_INIT \
 872:Generated_Source\PSoC6/ADC_1.h ****             | ADC_1_CFG3_AVG_MODE_INIT \
 873:Generated_Source\PSoC6/ADC_1.h ****             | ADC_1_CFG3_DSI_TRIGGER_LEVEL_INIT \
 874:Generated_Source\PSoC6/ADC_1.h ****             | ADC_1_CFG3_DSI_TRIGGER_EN_INIT \
 875:Generated_Source\PSoC6/ADC_1.h ****             | ADC_1_CFG3_UAB_SCAN_MODE_INIT \
 876:Generated_Source\PSoC6/ADC_1.h ****             | SAR_SAMPLE_CTRL_VALID_IGNORE_Msk \
 877:Generated_Source\PSoC6/ADC_1.h ****             | ADC_1_CFG3_TRIGGER_OUT_INIT \
 878:Generated_Source\PSoC6/ADC_1.h ****             | SAR_SAMPLE_CTRL_EOS_DSI_OUT_EN_Msk \
 879:Generated_Source\PSoC6/ADC_1.h ****     )
 880:Generated_Source\PSoC6/ADC_1.h **** 
 881:Generated_Source\PSoC6/ADC_1.h ****     #define ADC_1_CFG3_RANGE_THRES_INIT \
 882:Generated_Source\PSoC6/ADC_1.h ****             (ADC_1_CFG3_LOW_LIMIT \
 883:Generated_Source\PSoC6/ADC_1.h ****             | (uint32)((uint32)ADC_1_CFG3_HIGH_LIMIT \
 884:Generated_Source\PSoC6/ADC_1.h ****             << SAR_RANGE_THRES_RANGE_HIGH_Pos))
 885:Generated_Source\PSoC6/ADC_1.h **** 
 886:Generated_Source\PSoC6/ADC_1.h ****     #define ADC_1_CFG3_RANGE_COND_INIT   (cy_en_sar_range_detect_condition_t)ADC_1_CFG3_RANGE_COND
 887:Generated_Source\PSoC6/ADC_1.h **** 
 888:Generated_Source\PSoC6/ADC_1.h ****     /* Misc Config
 889:Generated_Source\PSoC6/ADC_1.h ****         [0] - Freerunning: Set if the sample mode is freerunning
 890:Generated_Source\PSoC6/ADC_1.h ****     */
 891:Generated_Source\PSoC6/ADC_1.h ****     #define ADC_1_CFG3_MISC_CONFIG_INIT \
 892:Generated_Source\PSoC6/ADC_1.h ****             (ADC_1_CFG3_FREERUNNING )
 893:Generated_Source\PSoC6/ADC_1.h **** 
 894:Generated_Source\PSoC6/ADC_1.h **** #endif /* ADC_1_TOTAL_CONFIGS > 3 */
 895:Generated_Source\PSoC6/ADC_1.h **** 
 896:Generated_Source\PSoC6/ADC_1.h **** /* ************************************************************************** */
 897:Generated_Source\PSoC6/ADC_1.h **** /* End configuration 3 calculated defines                                     */
 898:Generated_Source\PSoC6/ADC_1.h **** /* ************************************************************************** */
 899:Generated_Source\PSoC6/ADC_1.h **** 
 900:Generated_Source\PSoC6/ADC_1.h **** /******************************************************************************
 901:Generated_Source\PSoC6/ADC_1.h **** * Function Name: ADC_1_Enable
 902:Generated_Source\PSoC6/ADC_1.h **** ****************************************************************************//*
 903:Generated_Source\PSoC6/ADC_1.h **** *
 904:Generated_Source\PSoC6/ADC_1.h **** * \brief Enables the component.
 905:Generated_Source\PSoC6/ADC_1.h **** *
ARM GAS  C:\Users\dmula\AppData\Local\Temp\ccXnnfAd.s 			page 65


 906:Generated_Source\PSoC6/ADC_1.h **** * \param None
 907:Generated_Source\PSoC6/ADC_1.h **** *
 908:Generated_Source\PSoC6/ADC_1.h **** * \return None
 909:Generated_Source\PSoC6/ADC_1.h **** *
 910:Generated_Source\PSoC6/ADC_1.h **** * \sideeffect
 911:Generated_Source\PSoC6/ADC_1.h **** *  None
 912:Generated_Source\PSoC6/ADC_1.h **** *
 913:Generated_Source\PSoC6/ADC_1.h **** *******************************************************************************/
 914:Generated_Source\PSoC6/ADC_1.h **** __STATIC_INLINE void ADC_1_Enable(void)
 915:Generated_Source\PSoC6/ADC_1.h **** {
 916:Generated_Source\PSoC6/ADC_1.h ****     Cy_SAR_Enable(ADC_1_SAR__HW);
 917:Generated_Source\PSoC6/ADC_1.h **** }
 918:Generated_Source\PSoC6/ADC_1.h **** 
 919:Generated_Source\PSoC6/ADC_1.h **** /*******************************************************************************
 920:Generated_Source\PSoC6/ADC_1.h **** * Function Name: ADC_1_Stop
 921:Generated_Source\PSoC6/ADC_1.h **** ****************************************************************************//**
 922:Generated_Source\PSoC6/ADC_1.h **** *
 923:Generated_Source\PSoC6/ADC_1.h **** * \brief This function stops ADC conversions and puts the ADC into its lowest
 924:Generated_Source\PSoC6/ADC_1.h **** * power mode.
 925:Generated_Source\PSoC6/ADC_1.h **** *
 926:Generated_Source\PSoC6/ADC_1.h **** * \param None
 927:Generated_Source\PSoC6/ADC_1.h **** *
 928:Generated_Source\PSoC6/ADC_1.h **** * \return None
 929:Generated_Source\PSoC6/ADC_1.h **** *
 930:Generated_Source\PSoC6/ADC_1.h **** * \sideeffect
 931:Generated_Source\PSoC6/ADC_1.h **** * Do not use the ADC_1_Stop() API to halt conversions. Instead use the
 932:Generated_Source\PSoC6/ADC_1.h **** * ADC_1_StopConvert() API. If you use the ADC_1_Stop() API
 933:Generated_Source\PSoC6/ADC_1.h **** * to halt conversions then later use the ADC_1_Start() and
 934:Generated_Source\PSoC6/ADC_1.h **** * ADC_1_StartConvert() APIs to resume conversions, the first channel
 935:Generated_Source\PSoC6/ADC_1.h **** * of the scan may be corrupt. The ADC_1_StopConvert() API will enable
 936:Generated_Source\PSoC6/ADC_1.h **** * the ADC_1 to complete the current scan of channels. After the
 937:Generated_Source\PSoC6/ADC_1.h **** * channel scan is complete, the ADC_1 will stop all conversions, which
 938:Generated_Source\PSoC6/ADC_1.h **** * can be detected by the use of an ISR or the ADC_1_IsEndConversion()
 939:Generated_Source\PSoC6/ADC_1.h **** * function.
 940:Generated_Source\PSoC6/ADC_1.h **** *
 941:Generated_Source\PSoC6/ADC_1.h **** *******************************************************************************/
 942:Generated_Source\PSoC6/ADC_1.h **** __STATIC_INLINE void ADC_1_Stop(void)
 943:Generated_Source\PSoC6/ADC_1.h **** {
 944:Generated_Source\PSoC6/ADC_1.h ****     Cy_SAR_Disable(ADC_1_SAR__HW);
 945:Generated_Source\PSoC6/ADC_1.h **** }
 946:Generated_Source\PSoC6/ADC_1.h **** 
 947:Generated_Source\PSoC6/ADC_1.h **** /*******************************************************************************
 948:Generated_Source\PSoC6/ADC_1.h **** * Function Name: ADC_1_StopConvert
 949:Generated_Source\PSoC6/ADC_1.h **** ****************************************************************************//**
 950:Generated_Source\PSoC6/ADC_1.h **** *
 951:Generated_Source\PSoC6/ADC_1.h **** * \brief Forces the ADC_1 to stop conversions. If a conversion is
 952:Generated_Source\PSoC6/ADC_1.h **** * currently executing, that conversion will complete, but no further conversions
 953:Generated_Source\PSoC6/ADC_1.h **** * will occur.
 954:Generated_Source\PSoC6/ADC_1.h **** *
 955:Generated_Source\PSoC6/ADC_1.h **** * \param None
 956:Generated_Source\PSoC6/ADC_1.h **** *
 957:Generated_Source\PSoC6/ADC_1.h **** * \return None
 958:Generated_Source\PSoC6/ADC_1.h **** *
 959:Generated_Source\PSoC6/ADC_1.h **** * \sideeffect None
 960:Generated_Source\PSoC6/ADC_1.h **** *
 961:Generated_Source\PSoC6/ADC_1.h **** *******************************************************************************/
 962:Generated_Source\PSoC6/ADC_1.h **** __STATIC_INLINE void ADC_1_StopConvert(void)
ARM GAS  C:\Users\dmula\AppData\Local\Temp\ccXnnfAd.s 			page 66


 963:Generated_Source\PSoC6/ADC_1.h **** {
 964:Generated_Source\PSoC6/ADC_1.h ****     Cy_SAR_StopConvert(ADC_1_SAR__HW);
 965:Generated_Source\PSoC6/ADC_1.h **** }
 966:Generated_Source\PSoC6/ADC_1.h **** 
 967:Generated_Source\PSoC6/ADC_1.h **** /*******************************************************************************
 968:Generated_Source\PSoC6/ADC_1.h **** * Function Name: ADC_1_GetResult16
 969:Generated_Source\PSoC6/ADC_1.h **** ****************************************************************************//**
 970:Generated_Source\PSoC6/ADC_1.h **** *
 971:Generated_Source\PSoC6/ADC_1.h **** * \brief Gets the data available in the channel result data register
 972:Generated_Source\PSoC6/ADC_1.h **** *
 973:Generated_Source\PSoC6/ADC_1.h **** * \param chan The ADC_1 channel to read the result from. The first
 974:Generated_Source\PSoC6/ADC_1.h **** * channel is 0.
 975:Generated_Source\PSoC6/ADC_1.h **** *
 976:Generated_Source\PSoC6/ADC_1.h **** * \return Returns converted data as a signed 16-bit integer.
 977:Generated_Source\PSoC6/ADC_1.h **** *
 978:Generated_Source\PSoC6/ADC_1.h **** * \sideeffect None
 979:Generated_Source\PSoC6/ADC_1.h **** *
 980:Generated_Source\PSoC6/ADC_1.h **** *******************************************************************************/
 981:Generated_Source\PSoC6/ADC_1.h **** __STATIC_INLINE int16_t ADC_1_GetResult16(uint32_t chan)
 982:Generated_Source\PSoC6/ADC_1.h **** {
 983:Generated_Source\PSoC6/ADC_1.h ****     /* Halt CPU in debug mode if channel is out of valid range */
 984:Generated_Source\PSoC6/ADC_1.h ****     CY_ASSERT(chan < ADC_1_allConfigs[ADC_1_currentConfig].numChannels);
 1420              		.loc 4 984 0 discriminator 3
 1421 0076 1A4B     		ldr	r3, .L56+20
 1422 0078 1B68     		ldr	r3, [r3]
 1423 007a 03EB8303 		add	r3, r3, r3, lsl #2
 1424 007e 9A00     		lsls	r2, r3, #2
 1425 0080 184B     		ldr	r3, .L56+24
 1426 0082 1A44     		add	r2, r2, r3
 1427 0084 5368     		ldr	r3, [r2, #4]
 1428 0086 23B9     		cbnz	r3, .L52
 1429              		.loc 4 984 0 is_stmt 0
 1430 0088 4FF47671 		mov	r1, #984
 1431 008c 1648     		ldr	r0, .L56+28
 1432 008e FFF7FEFF 		bl	Cy_SysLib_AssertFailed
 1433              	.LVL166:
 1434              	.L52:
 985:Generated_Source\PSoC6/ADC_1.h **** 
 986:Generated_Source\PSoC6/ADC_1.h ****     return Cy_SAR_GetResult16(ADC_1_SAR__HW, chan);
 1435              		.loc 4 986 0 is_stmt 1
 1436 0092 0021     		movs	r1, #0
 1437 0094 1548     		ldr	r0, .L56+32
 1438 0096 FFF7FEFF 		bl	Cy_SAR_GetResult16
 1439              	.LVL167:
 1440              	.LBE567:
 1441              	.LBE566:
 317:main_cm4.c    ****                         //adc data printed to UART
 318:main_cm4.c    ****                         actualValue = ADC_1_GetResult16(0);
 319:main_cm4.c    ****                         //sprintf(myString, "%d", actualValue);
 320:main_cm4.c    ****                         printf("%d %d %f \n\r", i, j, actualValue);
 1442              		.loc 1 320 0
 1443 009a 07EE900A 		vmov	s15, r0	@ int
 1444 009e F8EEE77A 		vcvt.f32.s32	s15, s15
 1445              	.LVL168:
 1446 00a2 17EE900A 		vmov	r0, s15
 1447 00a6 FFF7FEFF 		bl	__aeabi_f2d
 1448              	.LVL169:
ARM GAS  C:\Users\dmula\AppData\Local\Temp\ccXnnfAd.s 			page 67


 1449 00aa CDE90001 		strd	r0, [sp]
 1450 00ae 2246     		mov	r2, r4
 1451 00b0 2946     		mov	r1, r5
 1452 00b2 0F48     		ldr	r0, .L56+36
 1453 00b4 FFF7FEFF 		bl	printf
 1454              	.LVL170:
 307:main_cm4.c    ****                 { 
 1455              		.loc 1 307 0
 1456 00b8 0134     		adds	r4, r4, #1
 1457              	.LVL171:
 1458              	.L51:
 307:main_cm4.c    ****                 { 
 1459              		.loc 1 307 0 is_stmt 0 discriminator 1
 1460 00ba 072C     		cmp	r4, #7
 1461 00bc D0DD     		ble	.L53
 303:main_cm4.c    ****             {
 1462              		.loc 1 303 0 is_stmt 1 discriminator 2
 1463 00be 0135     		adds	r5, r5, #1
 1464              	.LVL172:
 1465              	.L50:
 303:main_cm4.c    ****             {
 1466              		.loc 1 303 0 is_stmt 0 discriminator 1
 1467 00c0 072D     		cmp	r5, #7
 1468 00c2 C5DD     		ble	.L54
 321:main_cm4.c    ****                         //UART_PutString(myString);
 322:main_cm4.c    ****                 }
 323:main_cm4.c    ****                 
 324:main_cm4.c    ****             }
 325:main_cm4.c    ****               // UART_PutString("e ");
 326:main_cm4.c    ****                //CLCD_Clear();
 327:main_cm4.c    ****                //CLCD_PutString("Done");
 328:main_cm4.c    ****                 
 329:main_cm4.c    ****                 CyDelay(100);
 1469              		.loc 1 329 0 is_stmt 1
 1470 00c4 6420     		movs	r0, #100
 1471 00c6 FFF7FEFF 		bl	Cy_SysLib_Delay
 1472              	.LVL173:
 1473 00ca ACE7     		b	.L47
 1474              	.L57:
 1475              		.align	2
 1476              	.L56:
 1477 00cc 00000000 		.word	_impure_ptr
 1478 00d0 00000000 		.word	.LC0
 1479 00d4 00003240 		.word	1077018624
 1480 00d8 0C000000 		.word	.LC1
 1481 00dc 1C000000 		.word	.LC2
 1482 00e0 00000000 		.word	ADC_1_currentConfig
 1483 00e4 00000000 		.word	ADC_1_allConfigs
 1484 00e8 24000000 		.word	.LC3
 1485 00ec 00001D41 		.word	1092419584
 1486 00f0 44000000 		.word	.LC4
 1487              	.LBE565:
 1488              		.cfi_endproc
 1489              	.LFE532:
 1490              		.size	main, .-main
 1491              		.comm	column,16,4
 1492              		.comm	row,16,4
ARM GAS  C:\Users\dmula\AppData\Local\Temp\ccXnnfAd.s 			page 68


 1493              		.section	.rodata.str1.4,"aMS",%progbits,1
 1494              		.align	2
 1495              	.LC0:
 1496 0000 73746172 		.ascii	"started \012\015\000"
 1496      74656420 
 1496      0A0D00
 1497 000b 00       		.space	1
 1498              	.LC1:
 1499 000c 6E6F7420 		.ascii	"not pressed \012\015\000"
 1499      70726573 
 1499      73656420 
 1499      0A0D00
 1500 001b 00       		.space	1
 1501              	.LC2:
 1502 001c 70726573 		.ascii	"pressed\000"
 1502      73656400 
 1503              	.LC3:
 1504 0024 47656E65 		.ascii	"Generated_Source\\PSoC6/ADC_1.h\000"
 1504      72617465 
 1504      645F536F 
 1504      75726365 
 1504      5C50536F 
 1505 0043 00       		.space	1
 1506              	.LC4:
 1507 0044 25642025 		.ascii	"%d %d %f \012\015\000"
 1507      64202566 
 1507      200A0D00 
 1508              		.text
 1509              	.Letext0:
 1510              		.file 5 "c:\\program files (x86)\\cypress\\psoc creator\\4.4\\psoc creator\\import\\gnu\\arm\\5.4.
 1511              		.file 6 "c:\\program files (x86)\\cypress\\psoc creator\\4.4\\psoc creator\\import\\gnu\\arm\\5.4.
 1512              		.file 7 "Generated_Source\\PSoC6\\pdl\\devices/psoc6/include/ip/cyip_gpio.h"
 1513              		.file 8 "Generated_Source\\PSoC6\\pdl\\devices/psoc6/include/ip/cyip_sar.h"
 1514              		.file 9 "Generated_Source\\PSoC6\\pdl\\devices/psoc6/include/psoc6_01_config.h"
 1515              		.file 10 "Generated_Source\\PSoC6\\pdl\\drivers/peripheral/device/cy_device.h"
 1516              		.file 11 "Generated_Source\\PSoC6\\pdl\\drivers/peripheral/syslib/cy_syslib.h"
 1517              		.file 12 "Generated_Source\\PSoC6\\pdl\\drivers/peripheral/sar/cy_sar.h"
 1518              		.file 13 "Generated_Source\\PSoC6\\pdl\\drivers/peripheral/scb/cy_scb_uart.h"
 1519              		.file 14 "c:\\program files (x86)\\cypress\\psoc creator\\4.4\\psoc creator\\import\\gnu\\arm\\5.4
 1520              		.file 15 "c:\\program files (x86)\\cypress\\psoc creator\\4.4\\psoc creator\\import\\gnu\\arm\\5.4
 1521              		.file 16 "c:\\program files (x86)\\cypress\\psoc creator\\4.4\\psoc creator\\import\\gnu\\arm\\5.4
 1522              		.file 17 "c:\\program files (x86)\\cypress\\psoc creator\\4.4\\psoc creator\\import\\gnu\\arm\\5.4
 1523              		.file 18 "Generated_Source\\PSoC6\\pdl\\cmsis/include/core_cm4.h"
 1524              		.file 19 "Generated_Source\\PSoC6/UART.h"
 1525              		.file 20 "c:\\program files (x86)\\cypress\\psoc creator\\4.4\\psoc creator\\import\\gnu\\arm\\5.4
 1526              		.section	.debug_info,"",%progbits
 1527              	.Ldebug_info0:
 1528 0000 E3310000 		.4byte	0x31e3
 1529 0004 0400     		.2byte	0x4
 1530 0006 00000000 		.4byte	.Ldebug_abbrev0
 1531 000a 04       		.byte	0x4
 1532 000b 01       		.uleb128 0x1
 1533 000c 22030000 		.4byte	.LASF365
 1534 0010 0C       		.byte	0xc
 1535 0011 77000000 		.4byte	.LASF366
 1536 0015 4B0D0000 		.4byte	.LASF367
 1537 0019 00000000 		.4byte	.Ldebug_ranges0+0
ARM GAS  C:\Users\dmula\AppData\Local\Temp\ccXnnfAd.s 			page 69


 1538 001d 00000000 		.4byte	0
 1539 0021 00000000 		.4byte	.Ldebug_line0
 1540 0025 02       		.uleb128 0x2
 1541 0026 04       		.byte	0x4
 1542 0027 05       		.byte	0x5
 1543 0028 696E7400 		.ascii	"int\000"
 1544 002c 03       		.uleb128 0x3
 1545 002d 04       		.byte	0x4
 1546 002e 04       		.byte	0x4
 1547 002f CD040000 		.4byte	.LASF0
 1548 0033 03       		.uleb128 0x3
 1549 0034 02       		.byte	0x2
 1550 0035 05       		.byte	0x5
 1551 0036 2E020000 		.4byte	.LASF1
 1552 003a 03       		.uleb128 0x3
 1553 003b 01       		.byte	0x1
 1554 003c 06       		.byte	0x6
 1555 003d ED100000 		.4byte	.LASF2
 1556 0041 04       		.uleb128 0x4
 1557 0042 390E0000 		.4byte	.LASF4
 1558 0046 05       		.byte	0x5
 1559 0047 1D       		.byte	0x1d
 1560 0048 4C000000 		.4byte	0x4c
 1561 004c 03       		.uleb128 0x3
 1562 004d 01       		.byte	0x1
 1563 004e 08       		.byte	0x8
 1564 004f C30F0000 		.4byte	.LASF3
 1565 0053 04       		.uleb128 0x4
 1566 0054 0C0A0000 		.4byte	.LASF5
 1567 0058 05       		.byte	0x5
 1568 0059 29       		.byte	0x29
 1569 005a 33000000 		.4byte	0x33
 1570 005e 04       		.uleb128 0x4
 1571 005f 72070000 		.4byte	.LASF6
 1572 0063 05       		.byte	0x5
 1573 0064 2B       		.byte	0x2b
 1574 0065 69000000 		.4byte	0x69
 1575 0069 03       		.uleb128 0x3
 1576 006a 02       		.byte	0x2
 1577 006b 07       		.byte	0x7
 1578 006c 5A0B0000 		.4byte	.LASF7
 1579 0070 04       		.uleb128 0x4
 1580 0071 B5010000 		.4byte	.LASF8
 1581 0075 05       		.byte	0x5
 1582 0076 3F       		.byte	0x3f
 1583 0077 7B000000 		.4byte	0x7b
 1584 007b 03       		.uleb128 0x3
 1585 007c 04       		.byte	0x4
 1586 007d 05       		.byte	0x5
 1587 007e D60C0000 		.4byte	.LASF9
 1588 0082 04       		.uleb128 0x4
 1589 0083 E50F0000 		.4byte	.LASF10
 1590 0087 05       		.byte	0x5
 1591 0088 41       		.byte	0x41
 1592 0089 8D000000 		.4byte	0x8d
 1593 008d 03       		.uleb128 0x3
 1594 008e 04       		.byte	0x4
ARM GAS  C:\Users\dmula\AppData\Local\Temp\ccXnnfAd.s 			page 70


 1595 008f 07       		.byte	0x7
 1596 0090 030F0000 		.4byte	.LASF11
 1597 0094 03       		.uleb128 0x3
 1598 0095 08       		.byte	0x8
 1599 0096 05       		.byte	0x5
 1600 0097 89090000 		.4byte	.LASF12
 1601 009b 03       		.uleb128 0x3
 1602 009c 08       		.byte	0x8
 1603 009d 07       		.byte	0x7
 1604 009e B6040000 		.4byte	.LASF13
 1605 00a2 03       		.uleb128 0x3
 1606 00a3 04       		.byte	0x4
 1607 00a4 07       		.byte	0x7
 1608 00a5 54020000 		.4byte	.LASF14
 1609 00a9 04       		.uleb128 0x4
 1610 00aa ED080000 		.4byte	.LASF15
 1611 00ae 06       		.byte	0x6
 1612 00af 18       		.byte	0x18
 1613 00b0 41000000 		.4byte	0x41
 1614 00b4 04       		.uleb128 0x4
 1615 00b5 34050000 		.4byte	.LASF16
 1616 00b9 06       		.byte	0x6
 1617 00ba 20       		.byte	0x20
 1618 00bb 53000000 		.4byte	0x53
 1619 00bf 04       		.uleb128 0x4
 1620 00c0 830B0000 		.4byte	.LASF17
 1621 00c4 06       		.byte	0x6
 1622 00c5 24       		.byte	0x24
 1623 00c6 5E000000 		.4byte	0x5e
 1624 00ca 04       		.uleb128 0x4
 1625 00cb 4D0F0000 		.4byte	.LASF18
 1626 00cf 06       		.byte	0x6
 1627 00d0 2C       		.byte	0x2c
 1628 00d1 70000000 		.4byte	0x70
 1629 00d5 04       		.uleb128 0x4
 1630 00d6 7A040000 		.4byte	.LASF19
 1631 00da 06       		.byte	0x6
 1632 00db 30       		.byte	0x30
 1633 00dc 82000000 		.4byte	0x82
 1634 00e0 03       		.uleb128 0x3
 1635 00e1 04       		.byte	0x4
 1636 00e2 07       		.byte	0x7
 1637 00e3 1D0C0000 		.4byte	.LASF20
 1638 00e7 05       		.uleb128 0x5
 1639 00e8 D5000000 		.4byte	0xd5
 1640 00ec 06       		.uleb128 0x6
 1641 00ed E7000000 		.4byte	0xe7
 1642 00f1 07       		.uleb128 0x7
 1643 00f2 EC000000 		.4byte	0xec
 1644 00f6 01010000 		.4byte	0x101
 1645 00fa 08       		.uleb128 0x8
 1646 00fb E0000000 		.4byte	0xe0
 1647 00ff 01       		.byte	0x1
 1648 0100 00       		.byte	0
 1649 0101 07       		.uleb128 0x7
 1650 0102 E7000000 		.4byte	0xe7
 1651 0106 11010000 		.4byte	0x111
ARM GAS  C:\Users\dmula\AppData\Local\Temp\ccXnnfAd.s 			page 71


 1652 010a 08       		.uleb128 0x8
 1653 010b E0000000 		.4byte	0xe0
 1654 010f 0F       		.byte	0xf
 1655 0110 00       		.byte	0
 1656 0111 07       		.uleb128 0x7
 1657 0112 EC000000 		.4byte	0xec
 1658 0116 21010000 		.4byte	0x121
 1659 011a 08       		.uleb128 0x8
 1660 011b E0000000 		.4byte	0xe0
 1661 011f 0F       		.byte	0xf
 1662 0120 00       		.byte	0
 1663 0121 07       		.uleb128 0x7
 1664 0122 EC000000 		.4byte	0xec
 1665 0126 31010000 		.4byte	0x131
 1666 012a 08       		.uleb128 0x8
 1667 012b E0000000 		.4byte	0xe0
 1668 012f 02       		.byte	0x2
 1669 0130 00       		.byte	0
 1670 0131 07       		.uleb128 0x7
 1671 0132 EC000000 		.4byte	0xec
 1672 0136 41010000 		.4byte	0x141
 1673 013a 08       		.uleb128 0x8
 1674 013b E0000000 		.4byte	0xe0
 1675 013f 0E       		.byte	0xe
 1676 0140 00       		.byte	0
 1677 0141 09       		.uleb128 0x9
 1678 0142 80       		.byte	0x80
 1679 0143 07       		.byte	0x7
 1680 0144 22       		.byte	0x22
 1681 0145 15020000 		.4byte	0x215
 1682 0149 0A       		.uleb128 0xa
 1683 014a 4F555400 		.ascii	"OUT\000"
 1684 014e 07       		.byte	0x7
 1685 014f 23       		.byte	0x23
 1686 0150 E7000000 		.4byte	0xe7
 1687 0154 00       		.byte	0
 1688 0155 0B       		.uleb128 0xb
 1689 0156 21050000 		.4byte	.LASF21
 1690 015a 07       		.byte	0x7
 1691 015b 24       		.byte	0x24
 1692 015c E7000000 		.4byte	0xe7
 1693 0160 04       		.byte	0x4
 1694 0161 0B       		.uleb128 0xb
 1695 0162 7F060000 		.4byte	.LASF22
 1696 0166 07       		.byte	0x7
 1697 0167 25       		.byte	0x25
 1698 0168 E7000000 		.4byte	0xe7
 1699 016c 08       		.byte	0x8
 1700 016d 0B       		.uleb128 0xb
 1701 016e 1C0E0000 		.4byte	.LASF23
 1702 0172 07       		.byte	0x7
 1703 0173 26       		.byte	0x26
 1704 0174 E7000000 		.4byte	0xe7
 1705 0178 0C       		.byte	0xc
 1706 0179 0A       		.uleb128 0xa
 1707 017a 494E00   		.ascii	"IN\000"
 1708 017d 07       		.byte	0x7
ARM GAS  C:\Users\dmula\AppData\Local\Temp\ccXnnfAd.s 			page 72


 1709 017e 27       		.byte	0x27
 1710 017f EC000000 		.4byte	0xec
 1711 0183 10       		.byte	0x10
 1712 0184 0B       		.uleb128 0xb
 1713 0185 46070000 		.4byte	.LASF24
 1714 0189 07       		.byte	0x7
 1715 018a 28       		.byte	0x28
 1716 018b E7000000 		.4byte	0xe7
 1717 018f 14       		.byte	0x14
 1718 0190 0B       		.uleb128 0xb
 1719 0191 7F0A0000 		.4byte	.LASF25
 1720 0195 07       		.byte	0x7
 1721 0196 29       		.byte	0x29
 1722 0197 E7000000 		.4byte	0xe7
 1723 019b 18       		.byte	0x18
 1724 019c 0B       		.uleb128 0xb
 1725 019d AB0E0000 		.4byte	.LASF26
 1726 01a1 07       		.byte	0x7
 1727 01a2 2A       		.byte	0x2a
 1728 01a3 EC000000 		.4byte	0xec
 1729 01a7 1C       		.byte	0x1c
 1730 01a8 0B       		.uleb128 0xb
 1731 01a9 A8020000 		.4byte	.LASF27
 1732 01ad 07       		.byte	0x7
 1733 01ae 2B       		.byte	0x2b
 1734 01af E7000000 		.4byte	0xe7
 1735 01b3 20       		.byte	0x20
 1736 01b4 0B       		.uleb128 0xb
 1737 01b5 0E100000 		.4byte	.LASF28
 1738 01b9 07       		.byte	0x7
 1739 01ba 2C       		.byte	0x2c
 1740 01bb E7000000 		.4byte	0xe7
 1741 01bf 24       		.byte	0x24
 1742 01c0 0A       		.uleb128 0xa
 1743 01c1 43464700 		.ascii	"CFG\000"
 1744 01c5 07       		.byte	0x7
 1745 01c6 2D       		.byte	0x2d
 1746 01c7 E7000000 		.4byte	0xe7
 1747 01cb 28       		.byte	0x28
 1748 01cc 0B       		.uleb128 0xb
 1749 01cd 45040000 		.4byte	.LASF29
 1750 01d1 07       		.byte	0x7
 1751 01d2 2E       		.byte	0x2e
 1752 01d3 E7000000 		.4byte	0xe7
 1753 01d7 2C       		.byte	0x2c
 1754 01d8 0B       		.uleb128 0xb
 1755 01d9 32060000 		.4byte	.LASF30
 1756 01dd 07       		.byte	0x7
 1757 01de 2F       		.byte	0x2f
 1758 01df E7000000 		.4byte	0xe7
 1759 01e3 30       		.byte	0x30
 1760 01e4 0B       		.uleb128 0xb
 1761 01e5 05120000 		.4byte	.LASF31
 1762 01e9 07       		.byte	0x7
 1763 01ea 30       		.byte	0x30
 1764 01eb E7000000 		.4byte	0xe7
 1765 01ef 34       		.byte	0x34
ARM GAS  C:\Users\dmula\AppData\Local\Temp\ccXnnfAd.s 			page 73


 1766 01f0 0B       		.uleb128 0xb
 1767 01f1 09000000 		.4byte	.LASF32
 1768 01f5 07       		.byte	0x7
 1769 01f6 31       		.byte	0x31
 1770 01f7 EC000000 		.4byte	0xec
 1771 01fb 38       		.byte	0x38
 1772 01fc 0B       		.uleb128 0xb
 1773 01fd ED0D0000 		.4byte	.LASF33
 1774 0201 07       		.byte	0x7
 1775 0202 32       		.byte	0x32
 1776 0203 E7000000 		.4byte	0xe7
 1777 0207 3C       		.byte	0x3c
 1778 0208 0B       		.uleb128 0xb
 1779 0209 E5110000 		.4byte	.LASF34
 1780 020d 07       		.byte	0x7
 1781 020e 33       		.byte	0x33
 1782 020f 1A020000 		.4byte	0x21a
 1783 0213 40       		.byte	0x40
 1784 0214 00       		.byte	0
 1785 0215 05       		.uleb128 0x5
 1786 0216 11010000 		.4byte	0x111
 1787 021a 06       		.uleb128 0x6
 1788 021b 15020000 		.4byte	0x215
 1789 021f 04       		.uleb128 0x4
 1790 0220 3A0D0000 		.4byte	.LASF35
 1791 0224 07       		.byte	0x7
 1792 0225 34       		.byte	0x34
 1793 0226 41010000 		.4byte	0x141
 1794 022a 0C       		.uleb128 0xc
 1795 022b 2440     		.2byte	0x4024
 1796 022d 07       		.byte	0x7
 1797 022e 39       		.byte	0x39
 1798 022f B5020000 		.4byte	0x2b5
 1799 0233 0A       		.uleb128 0xa
 1800 0234 50525400 		.ascii	"PRT\000"
 1801 0238 07       		.byte	0x7
 1802 0239 3A       		.byte	0x3a
 1803 023a B5020000 		.4byte	0x2b5
 1804 023e 00       		.byte	0
 1805 023f 0D       		.uleb128 0xd
 1806 0240 1D000000 		.4byte	.LASF36
 1807 0244 07       		.byte	0x7
 1808 0245 3B       		.byte	0x3b
 1809 0246 EC000000 		.4byte	0xec
 1810 024a 0040     		.2byte	0x4000
 1811 024c 0D       		.uleb128 0xd
 1812 024d 29000000 		.4byte	.LASF37
 1813 0251 07       		.byte	0x7
 1814 0252 3C       		.byte	0x3c
 1815 0253 EC000000 		.4byte	0xec
 1816 0257 0440     		.2byte	0x4004
 1817 0259 0D       		.uleb128 0xd
 1818 025a 35000000 		.4byte	.LASF38
 1819 025e 07       		.byte	0x7
 1820 025f 3D       		.byte	0x3d
 1821 0260 EC000000 		.4byte	0xec
 1822 0264 0840     		.2byte	0x4008
ARM GAS  C:\Users\dmula\AppData\Local\Temp\ccXnnfAd.s 			page 74


 1823 0266 0D       		.uleb128 0xd
 1824 0267 41000000 		.4byte	.LASF39
 1825 026b 07       		.byte	0x7
 1826 026c 3E       		.byte	0x3e
 1827 026d EC000000 		.4byte	0xec
 1828 0271 0C40     		.2byte	0x400c
 1829 0273 0D       		.uleb128 0xd
 1830 0274 12000000 		.4byte	.LASF40
 1831 0278 07       		.byte	0x7
 1832 0279 3F       		.byte	0x3f
 1833 027a EC000000 		.4byte	0xec
 1834 027e 1040     		.2byte	0x4010
 1835 0280 0D       		.uleb128 0xd
 1836 0281 0E070000 		.4byte	.LASF41
 1837 0285 07       		.byte	0x7
 1838 0286 40       		.byte	0x40
 1839 0287 E7000000 		.4byte	0xe7
 1840 028b 1440     		.2byte	0x4014
 1841 028d 0D       		.uleb128 0xd
 1842 028e D7100000 		.4byte	.LASF42
 1843 0292 07       		.byte	0x7
 1844 0293 41       		.byte	0x41
 1845 0294 E7000000 		.4byte	0xe7
 1846 0298 1840     		.2byte	0x4018
 1847 029a 0D       		.uleb128 0xd
 1848 029b 100B0000 		.4byte	.LASF43
 1849 029f 07       		.byte	0x7
 1850 02a0 42       		.byte	0x42
 1851 02a1 EC000000 		.4byte	0xec
 1852 02a5 1C40     		.2byte	0x401c
 1853 02a7 0D       		.uleb128 0xd
 1854 02a8 950B0000 		.4byte	.LASF44
 1855 02ac 07       		.byte	0x7
 1856 02ad 43       		.byte	0x43
 1857 02ae E7000000 		.4byte	0xe7
 1858 02b2 2040     		.2byte	0x4020
 1859 02b4 00       		.byte	0
 1860 02b5 07       		.uleb128 0x7
 1861 02b6 1F020000 		.4byte	0x21f
 1862 02ba C5020000 		.4byte	0x2c5
 1863 02be 08       		.uleb128 0x8
 1864 02bf E0000000 		.4byte	0xe0
 1865 02c3 7F       		.byte	0x7f
 1866 02c4 00       		.byte	0
 1867 02c5 04       		.uleb128 0x4
 1868 02c6 8D040000 		.4byte	.LASF45
 1869 02ca 07       		.byte	0x7
 1870 02cb 44       		.byte	0x44
 1871 02cc 2A020000 		.4byte	0x22a
 1872 02d0 0C       		.uleb128 0xc
 1873 02d1 080F     		.2byte	0xf08
 1874 02d3 08       		.byte	0x8
 1875 02d4 21       		.byte	0x21
 1876 02d5 58050000 		.4byte	0x558
 1877 02d9 0B       		.uleb128 0xb
 1878 02da B1120000 		.4byte	.LASF46
 1879 02de 08       		.byte	0x8
ARM GAS  C:\Users\dmula\AppData\Local\Temp\ccXnnfAd.s 			page 75


 1880 02df 22       		.byte	0x22
 1881 02e0 E7000000 		.4byte	0xe7
 1882 02e4 00       		.byte	0
 1883 02e5 0B       		.uleb128 0xb
 1884 02e6 890A0000 		.4byte	.LASF47
 1885 02ea 08       		.byte	0x8
 1886 02eb 23       		.byte	0x23
 1887 02ec E7000000 		.4byte	0xe7
 1888 02f0 04       		.byte	0x4
 1889 02f1 0B       		.uleb128 0xb
 1890 02f2 09000000 		.4byte	.LASF32
 1891 02f6 08       		.byte	0x8
 1892 02f7 24       		.byte	0x24
 1893 02f8 5D050000 		.4byte	0x55d
 1894 02fc 08       		.byte	0x8
 1895 02fd 0B       		.uleb128 0xb
 1896 02fe 73020000 		.4byte	.LASF48
 1897 0302 08       		.byte	0x8
 1898 0303 25       		.byte	0x25
 1899 0304 E7000000 		.4byte	0xe7
 1900 0308 10       		.byte	0x10
 1901 0309 0B       		.uleb128 0xb
 1902 030a C2050000 		.4byte	.LASF49
 1903 030e 08       		.byte	0x8
 1904 030f 26       		.byte	0x26
 1905 0310 E7000000 		.4byte	0xe7
 1906 0314 14       		.byte	0x14
 1907 0315 0B       		.uleb128 0xb
 1908 0316 AC0D0000 		.4byte	.LASF50
 1909 031a 08       		.byte	0x8
 1910 031b 27       		.byte	0x27
 1911 031c E7000000 		.4byte	0xe7
 1912 0320 18       		.byte	0x18
 1913 0321 0B       		.uleb128 0xb
 1914 0322 EF060000 		.4byte	.LASF51
 1915 0326 08       		.byte	0x8
 1916 0327 28       		.byte	0x28
 1917 0328 E7000000 		.4byte	0xe7
 1918 032c 1C       		.byte	0x1c
 1919 032d 0B       		.uleb128 0xb
 1920 032e E9000000 		.4byte	.LASF52
 1921 0332 08       		.byte	0x8
 1922 0333 29       		.byte	0x29
 1923 0334 E7000000 		.4byte	0xe7
 1924 0338 20       		.byte	0x20
 1925 0339 0B       		.uleb128 0xb
 1926 033a FF0A0000 		.4byte	.LASF53
 1927 033e 08       		.byte	0x8
 1928 033f 2A       		.byte	0x2a
 1929 0340 E7000000 		.4byte	0xe7
 1930 0344 24       		.byte	0x24
 1931 0345 0B       		.uleb128 0xb
 1932 0346 E5110000 		.4byte	.LASF34
 1933 034a 08       		.byte	0x8
 1934 034b 2B       		.byte	0x2b
 1935 034c 77050000 		.4byte	0x577
 1936 0350 28       		.byte	0x28
ARM GAS  C:\Users\dmula\AppData\Local\Temp\ccXnnfAd.s 			page 76


 1937 0351 0B       		.uleb128 0xb
 1938 0352 9A0F0000 		.4byte	.LASF54
 1939 0356 08       		.byte	0x8
 1940 0357 2C       		.byte	0x2c
 1941 0358 7C050000 		.4byte	0x57c
 1942 035c 80       		.byte	0x80
 1943 035d 0B       		.uleb128 0xb
 1944 035e 730C0000 		.4byte	.LASF55
 1945 0362 08       		.byte	0x8
 1946 0363 2D       		.byte	0x2d
 1947 0364 86050000 		.4byte	0x586
 1948 0368 C0       		.byte	0xc0
 1949 0369 0D       		.uleb128 0xd
 1950 036a D50D0000 		.4byte	.LASF56
 1951 036e 08       		.byte	0x8
 1952 036f 2E       		.byte	0x2e
 1953 0370 90050000 		.4byte	0x590
 1954 0374 0001     		.2byte	0x100
 1955 0376 0D       		.uleb128 0xd
 1956 0377 7D0C0000 		.4byte	.LASF57
 1957 037b 08       		.byte	0x8
 1958 037c 2F       		.byte	0x2f
 1959 037d 9A050000 		.4byte	0x59a
 1960 0381 4001     		.2byte	0x140
 1961 0383 0D       		.uleb128 0xd
 1962 0384 200A0000 		.4byte	.LASF58
 1963 0388 08       		.byte	0x8
 1964 0389 30       		.byte	0x30
 1965 038a A4050000 		.4byte	0x5a4
 1966 038e 8001     		.2byte	0x180
 1967 0390 0D       		.uleb128 0xd
 1968 0391 870C0000 		.4byte	.LASF59
 1969 0395 08       		.byte	0x8
 1970 0396 31       		.byte	0x31
 1971 0397 AE050000 		.4byte	0x5ae
 1972 039b C001     		.2byte	0x1c0
 1973 039d 0D       		.uleb128 0xd
 1974 039e 4D000000 		.4byte	.LASF60
 1975 03a2 08       		.byte	0x8
 1976 03a3 32       		.byte	0x32
 1977 03a4 EC000000 		.4byte	0xec
 1978 03a8 0002     		.2byte	0x200
 1979 03aa 0D       		.uleb128 0xd
 1980 03ab 7A0F0000 		.4byte	.LASF61
 1981 03af 08       		.byte	0x8
 1982 03b0 33       		.byte	0x33
 1983 03b1 EC000000 		.4byte	0xec
 1984 03b5 0402     		.2byte	0x204
 1985 03b7 0D       		.uleb128 0xd
 1986 03b8 BF010000 		.4byte	.LASF62
 1987 03bc 08       		.byte	0x8
 1988 03bd 34       		.byte	0x34
 1989 03be EC000000 		.4byte	0xec
 1990 03c2 0802     		.2byte	0x208
 1991 03c4 0D       		.uleb128 0xd
 1992 03c5 93080000 		.4byte	.LASF63
 1993 03c9 08       		.byte	0x8
ARM GAS  C:\Users\dmula\AppData\Local\Temp\ccXnnfAd.s 			page 77


 1994 03ca 35       		.byte	0x35
 1995 03cb EC000000 		.4byte	0xec
 1996 03cf 0C02     		.2byte	0x20c
 1997 03d1 0D       		.uleb128 0xd
 1998 03d2 46070000 		.4byte	.LASF24
 1999 03d6 08       		.byte	0x8
 2000 03d7 36       		.byte	0x36
 2001 03d8 E7000000 		.4byte	0xe7
 2002 03dc 1002     		.2byte	0x210
 2003 03de 0D       		.uleb128 0xd
 2004 03df A8020000 		.4byte	.LASF27
 2005 03e3 08       		.byte	0x8
 2006 03e4 37       		.byte	0x37
 2007 03e5 E7000000 		.4byte	0xe7
 2008 03e9 1402     		.2byte	0x214
 2009 03eb 0D       		.uleb128 0xd
 2010 03ec 7F0A0000 		.4byte	.LASF25
 2011 03f0 08       		.byte	0x8
 2012 03f1 38       		.byte	0x38
 2013 03f2 E7000000 		.4byte	0xe7
 2014 03f6 1802     		.2byte	0x218
 2015 03f8 0D       		.uleb128 0xd
 2016 03f9 AB0E0000 		.4byte	.LASF26
 2017 03fd 08       		.byte	0x8
 2018 03fe 39       		.byte	0x39
 2019 03ff EC000000 		.4byte	0xec
 2020 0403 1C02     		.2byte	0x21c
 2021 0405 0D       		.uleb128 0xd
 2022 0406 46020000 		.4byte	.LASF64
 2023 040a 08       		.byte	0x8
 2024 040b 3A       		.byte	0x3a
 2025 040c E7000000 		.4byte	0xe7
 2026 0410 2002     		.2byte	0x220
 2027 0412 0D       		.uleb128 0xd
 2028 0413 D0070000 		.4byte	.LASF65
 2029 0417 08       		.byte	0x8
 2030 0418 3B       		.byte	0x3b
 2031 0419 E7000000 		.4byte	0xe7
 2032 041d 2402     		.2byte	0x224
 2033 041f 0D       		.uleb128 0xd
 2034 0420 24100000 		.4byte	.LASF66
 2035 0424 08       		.byte	0x8
 2036 0425 3C       		.byte	0x3c
 2037 0426 E7000000 		.4byte	0xe7
 2038 042a 2802     		.2byte	0x228
 2039 042c 0D       		.uleb128 0xd
 2040 042d A7070000 		.4byte	.LASF67
 2041 0431 08       		.byte	0x8
 2042 0432 3D       		.byte	0x3d
 2043 0433 EC000000 		.4byte	0xec
 2044 0437 2C02     		.2byte	0x22c
 2045 0439 0D       		.uleb128 0xd
 2046 043a 5A0A0000 		.4byte	.LASF68
 2047 043e 08       		.byte	0x8
 2048 043f 3E       		.byte	0x3e
 2049 0440 E7000000 		.4byte	0xe7
 2050 0444 3002     		.2byte	0x230
ARM GAS  C:\Users\dmula\AppData\Local\Temp\ccXnnfAd.s 			page 78


 2051 0446 0D       		.uleb128 0xd
 2052 0447 1D090000 		.4byte	.LASF69
 2053 044b 08       		.byte	0x8
 2054 044c 3F       		.byte	0x3f
 2055 044d E7000000 		.4byte	0xe7
 2056 0451 3402     		.2byte	0x234
 2057 0453 0D       		.uleb128 0xd
 2058 0454 1F010000 		.4byte	.LASF70
 2059 0458 08       		.byte	0x8
 2060 0459 40       		.byte	0x40
 2061 045a E7000000 		.4byte	0xe7
 2062 045e 3802     		.2byte	0x238
 2063 0460 0D       		.uleb128 0xd
 2064 0461 D0090000 		.4byte	.LASF71
 2065 0465 08       		.byte	0x8
 2066 0466 41       		.byte	0x41
 2067 0467 EC000000 		.4byte	0xec
 2068 046b 3C02     		.2byte	0x23c
 2069 046d 0D       		.uleb128 0xd
 2070 046e 5C010000 		.4byte	.LASF72
 2071 0472 08       		.byte	0x8
 2072 0473 42       		.byte	0x42
 2073 0474 EC000000 		.4byte	0xec
 2074 0478 4002     		.2byte	0x240
 2075 047a 0D       		.uleb128 0xd
 2076 047b 910C0000 		.4byte	.LASF73
 2077 047f 08       		.byte	0x8
 2078 0480 43       		.byte	0x43
 2079 0481 B8050000 		.4byte	0x5b8
 2080 0485 4402     		.2byte	0x244
 2081 0487 0D       		.uleb128 0xd
 2082 0488 BB080000 		.4byte	.LASF74
 2083 048c 08       		.byte	0x8
 2084 048d 44       		.byte	0x44
 2085 048e E7000000 		.4byte	0xe7
 2086 0492 8002     		.2byte	0x280
 2087 0494 0D       		.uleb128 0xd
 2088 0495 9B0C0000 		.4byte	.LASF75
 2089 0499 08       		.byte	0x8
 2090 049a 45       		.byte	0x45
 2091 049b C2050000 		.4byte	0x5c2
 2092 049f 8402     		.2byte	0x284
 2093 04a1 0D       		.uleb128 0xd
 2094 04a2 81020000 		.4byte	.LASF76
 2095 04a6 08       		.byte	0x8
 2096 04a7 46       		.byte	0x46
 2097 04a8 EC000000 		.4byte	0xec
 2098 04ac 9002     		.2byte	0x290
 2099 04ae 0D       		.uleb128 0xd
 2100 04af A50C0000 		.4byte	.LASF77
 2101 04b3 08       		.byte	0x8
 2102 04b4 47       		.byte	0x47
 2103 04b5 CC050000 		.4byte	0x5cc
 2104 04b9 9402     		.2byte	0x294
 2105 04bb 0D       		.uleb128 0xd
 2106 04bc FE110000 		.4byte	.LASF78
 2107 04c0 08       		.byte	0x8
ARM GAS  C:\Users\dmula\AppData\Local\Temp\ccXnnfAd.s 			page 79


 2108 04c1 48       		.byte	0x48
 2109 04c2 EC000000 		.4byte	0xec
 2110 04c6 A002     		.2byte	0x2a0
 2111 04c8 0D       		.uleb128 0xd
 2112 04c9 D3080000 		.4byte	.LASF79
 2113 04cd 08       		.byte	0x8
 2114 04ce 49       		.byte	0x49
 2115 04cf EC000000 		.4byte	0xec
 2116 04d3 A402     		.2byte	0x2a4
 2117 04d5 0D       		.uleb128 0xd
 2118 04d6 AF0C0000 		.4byte	.LASF80
 2119 04da 08       		.byte	0x8
 2120 04db 4A       		.byte	0x4a
 2121 04dc D6050000 		.4byte	0x5d6
 2122 04e0 A802     		.2byte	0x2a8
 2123 04e2 0D       		.uleb128 0xd
 2124 04e3 650F0000 		.4byte	.LASF81
 2125 04e7 08       		.byte	0x8
 2126 04e8 4B       		.byte	0x4b
 2127 04e9 E7000000 		.4byte	0xe7
 2128 04ed 0003     		.2byte	0x300
 2129 04ef 0D       		.uleb128 0xd
 2130 04f0 B50A0000 		.4byte	.LASF82
 2131 04f4 08       		.byte	0x8
 2132 04f5 4C       		.byte	0x4c
 2133 04f6 E7000000 		.4byte	0xe7
 2134 04fa 0403     		.2byte	0x304
 2135 04fc 0D       		.uleb128 0xd
 2136 04fd B90C0000 		.4byte	.LASF83
 2137 0501 08       		.byte	0x8
 2138 0502 4D       		.byte	0x4d
 2139 0503 F0050000 		.4byte	0x5f0
 2140 0507 0803     		.2byte	0x308
 2141 0509 0D       		.uleb128 0xd
 2142 050a 34110000 		.4byte	.LASF84
 2143 050e 08       		.byte	0x8
 2144 050f 4E       		.byte	0x4e
 2145 0510 E7000000 		.4byte	0xe7
 2146 0514 4003     		.2byte	0x340
 2147 0516 0D       		.uleb128 0xd
 2148 0517 C30C0000 		.4byte	.LASF85
 2149 051b 08       		.byte	0x8
 2150 051c 4F       		.byte	0x4f
 2151 051d E7000000 		.4byte	0xe7
 2152 0521 4403     		.2byte	0x344
 2153 0523 0D       		.uleb128 0xd
 2154 0524 80110000 		.4byte	.LASF86
 2155 0528 08       		.byte	0x8
 2156 0529 50       		.byte	0x50
 2157 052a EC000000 		.4byte	0xec
 2158 052e 4803     		.2byte	0x348
 2159 0530 0D       		.uleb128 0xd
 2160 0531 37100000 		.4byte	.LASF87
 2161 0535 08       		.byte	0x8
 2162 0536 51       		.byte	0x51
 2163 0537 0B060000 		.4byte	0x60b
 2164 053b 4C03     		.2byte	0x34c
ARM GAS  C:\Users\dmula\AppData\Local\Temp\ccXnnfAd.s 			page 80


 2165 053d 0D       		.uleb128 0xd
 2166 053e D10F0000 		.4byte	.LASF88
 2167 0542 08       		.byte	0x8
 2168 0543 52       		.byte	0x52
 2169 0544 E7000000 		.4byte	0xe7
 2170 0548 000F     		.2byte	0xf00
 2171 054a 0D       		.uleb128 0xd
 2172 054b DB0F0000 		.4byte	.LASF89
 2173 054f 08       		.byte	0x8
 2174 0550 53       		.byte	0x53
 2175 0551 E7000000 		.4byte	0xe7
 2176 0555 040F     		.2byte	0xf04
 2177 0557 00       		.byte	0
 2178 0558 05       		.uleb128 0x5
 2179 0559 F1000000 		.4byte	0xf1
 2180 055d 06       		.uleb128 0x6
 2181 055e 58050000 		.4byte	0x558
 2182 0562 07       		.uleb128 0x7
 2183 0563 EC000000 		.4byte	0xec
 2184 0567 72050000 		.4byte	0x572
 2185 056b 08       		.uleb128 0x8
 2186 056c E0000000 		.4byte	0xe0
 2187 0570 15       		.byte	0x15
 2188 0571 00       		.byte	0
 2189 0572 05       		.uleb128 0x5
 2190 0573 62050000 		.4byte	0x562
 2191 0577 06       		.uleb128 0x6
 2192 0578 72050000 		.4byte	0x572
 2193 057c 05       		.uleb128 0x5
 2194 057d 01010000 		.4byte	0x101
 2195 0581 05       		.uleb128 0x5
 2196 0582 11010000 		.4byte	0x111
 2197 0586 06       		.uleb128 0x6
 2198 0587 81050000 		.4byte	0x581
 2199 058b 05       		.uleb128 0x5
 2200 058c 11010000 		.4byte	0x111
 2201 0590 06       		.uleb128 0x6
 2202 0591 8B050000 		.4byte	0x58b
 2203 0595 05       		.uleb128 0x5
 2204 0596 11010000 		.4byte	0x111
 2205 059a 06       		.uleb128 0x6
 2206 059b 95050000 		.4byte	0x595
 2207 059f 05       		.uleb128 0x5
 2208 05a0 11010000 		.4byte	0x111
 2209 05a4 06       		.uleb128 0x6
 2210 05a5 9F050000 		.4byte	0x59f
 2211 05a9 05       		.uleb128 0x5
 2212 05aa 11010000 		.4byte	0x111
 2213 05ae 06       		.uleb128 0x6
 2214 05af A9050000 		.4byte	0x5a9
 2215 05b3 05       		.uleb128 0x5
 2216 05b4 31010000 		.4byte	0x131
 2217 05b8 06       		.uleb128 0x6
 2218 05b9 B3050000 		.4byte	0x5b3
 2219 05bd 05       		.uleb128 0x5
 2220 05be 21010000 		.4byte	0x121
 2221 05c2 06       		.uleb128 0x6
ARM GAS  C:\Users\dmula\AppData\Local\Temp\ccXnnfAd.s 			page 81


 2222 05c3 BD050000 		.4byte	0x5bd
 2223 05c7 05       		.uleb128 0x5
 2224 05c8 21010000 		.4byte	0x121
 2225 05cc 06       		.uleb128 0x6
 2226 05cd C7050000 		.4byte	0x5c7
 2227 05d1 05       		.uleb128 0x5
 2228 05d2 62050000 		.4byte	0x562
 2229 05d6 06       		.uleb128 0x6
 2230 05d7 D1050000 		.4byte	0x5d1
 2231 05db 07       		.uleb128 0x7
 2232 05dc EC000000 		.4byte	0xec
 2233 05e0 EB050000 		.4byte	0x5eb
 2234 05e4 08       		.uleb128 0x8
 2235 05e5 E0000000 		.4byte	0xe0
 2236 05e9 0D       		.byte	0xd
 2237 05ea 00       		.byte	0
 2238 05eb 05       		.uleb128 0x5
 2239 05ec DB050000 		.4byte	0x5db
 2240 05f0 06       		.uleb128 0x6
 2241 05f1 EB050000 		.4byte	0x5eb
 2242 05f5 07       		.uleb128 0x7
 2243 05f6 EC000000 		.4byte	0xec
 2244 05fa 06060000 		.4byte	0x606
 2245 05fe 0E       		.uleb128 0xe
 2246 05ff E0000000 		.4byte	0xe0
 2247 0603 EC02     		.2byte	0x2ec
 2248 0605 00       		.byte	0
 2249 0606 05       		.uleb128 0x5
 2250 0607 F5050000 		.4byte	0x5f5
 2251 060b 06       		.uleb128 0x6
 2252 060c 06060000 		.4byte	0x606
 2253 0610 04       		.uleb128 0x4
 2254 0611 E3060000 		.4byte	.LASF90
 2255 0615 08       		.byte	0x8
 2256 0616 54       		.byte	0x54
 2257 0617 D0020000 		.4byte	0x2d0
 2258 061b 0F       		.uleb128 0xf
 2259 061c 4B070000 		.4byte	.LASF91
 2260 0620 09       		.byte	0x9
 2261 0621 3106     		.2byte	0x631
 2262 0623 1F020000 		.4byte	0x21f
 2263 0627 0F       		.uleb128 0xf
 2264 0628 F00F0000 		.4byte	.LASF92
 2265 062c 09       		.byte	0x9
 2266 062d 3206     		.2byte	0x632
 2267 062f C5020000 		.4byte	0x2c5
 2268 0633 0F       		.uleb128 0xf
 2269 0634 76060000 		.4byte	.LASF93
 2270 0638 09       		.byte	0x9
 2271 0639 5206     		.2byte	0x652
 2272 063b 10060000 		.4byte	0x610
 2273 063f 03       		.uleb128 0x3
 2274 0640 08       		.byte	0x8
 2275 0641 04       		.byte	0x4
 2276 0642 770B0000 		.4byte	.LASF94
 2277 0646 09       		.uleb128 0x9
 2278 0647 B8       		.byte	0xb8
ARM GAS  C:\Users\dmula\AppData\Local\Temp\ccXnnfAd.s 			page 82


 2279 0648 0A       		.byte	0xa
 2280 0649 34       		.byte	0x34
 2281 064a 570A0000 		.4byte	0xa57
 2282 064e 0B       		.uleb128 0xb
 2283 064f D9010000 		.4byte	.LASF95
 2284 0653 0A       		.byte	0xa
 2285 0654 37       		.byte	0x37
 2286 0655 D5000000 		.4byte	0xd5
 2287 0659 00       		.byte	0
 2288 065a 0B       		.uleb128 0xb
 2289 065b 29050000 		.4byte	.LASF96
 2290 065f 0A       		.byte	0xa
 2291 0660 38       		.byte	0x38
 2292 0661 D5000000 		.4byte	0xd5
 2293 0665 04       		.byte	0x4
 2294 0666 0B       		.uleb128 0xb
 2295 0667 FA000000 		.4byte	.LASF97
 2296 066b 0A       		.byte	0xa
 2297 066c 39       		.byte	0x39
 2298 066d D5000000 		.4byte	0xd5
 2299 0671 08       		.byte	0x8
 2300 0672 0B       		.uleb128 0xb
 2301 0673 DA000000 		.4byte	.LASF98
 2302 0677 0A       		.byte	0xa
 2303 0678 3A       		.byte	0x3a
 2304 0679 D5000000 		.4byte	0xd5
 2305 067d 0C       		.byte	0xc
 2306 067e 0B       		.uleb128 0xb
 2307 067f 8C0B0000 		.4byte	.LASF99
 2308 0683 0A       		.byte	0xa
 2309 0684 3B       		.byte	0x3b
 2310 0685 D5000000 		.4byte	0xd5
 2311 0689 10       		.byte	0x10
 2312 068a 0B       		.uleb128 0xb
 2313 068b 160A0000 		.4byte	.LASF100
 2314 068f 0A       		.byte	0xa
 2315 0690 3C       		.byte	0x3c
 2316 0691 D5000000 		.4byte	0xd5
 2317 0695 14       		.byte	0x14
 2318 0696 0B       		.uleb128 0xb
 2319 0697 17070000 		.4byte	.LASF101
 2320 069b 0A       		.byte	0xa
 2321 069c 3D       		.byte	0x3d
 2322 069d D5000000 		.4byte	0xd5
 2323 06a1 18       		.byte	0x18
 2324 06a2 0B       		.uleb128 0xb
 2325 06a3 CC110000 		.4byte	.LASF102
 2326 06a7 0A       		.byte	0xa
 2327 06a8 3E       		.byte	0x3e
 2328 06a9 D5000000 		.4byte	0xd5
 2329 06ad 1C       		.byte	0x1c
 2330 06ae 0B       		.uleb128 0xb
 2331 06af 97090000 		.4byte	.LASF103
 2332 06b3 0A       		.byte	0xa
 2333 06b4 3F       		.byte	0x3f
 2334 06b5 D5000000 		.4byte	0xd5
 2335 06b9 20       		.byte	0x20
ARM GAS  C:\Users\dmula\AppData\Local\Temp\ccXnnfAd.s 			page 83


 2336 06ba 0B       		.uleb128 0xb
 2337 06bb AE090000 		.4byte	.LASF104
 2338 06bf 0A       		.byte	0xa
 2339 06c0 40       		.byte	0x40
 2340 06c1 D5000000 		.4byte	0xd5
 2341 06c5 24       		.byte	0x24
 2342 06c6 0B       		.uleb128 0xb
 2343 06c7 DF0C0000 		.4byte	.LASF105
 2344 06cb 0A       		.byte	0xa
 2345 06cc 43       		.byte	0x43
 2346 06cd A9000000 		.4byte	0xa9
 2347 06d1 28       		.byte	0x28
 2348 06d2 0B       		.uleb128 0xb
 2349 06d3 D3040000 		.4byte	.LASF106
 2350 06d7 0A       		.byte	0xa
 2351 06d8 44       		.byte	0x44
 2352 06d9 A9000000 		.4byte	0xa9
 2353 06dd 29       		.byte	0x29
 2354 06de 0B       		.uleb128 0xb
 2355 06df D80B0000 		.4byte	.LASF107
 2356 06e3 0A       		.byte	0xa
 2357 06e4 45       		.byte	0x45
 2358 06e5 A9000000 		.4byte	0xa9
 2359 06e9 2A       		.byte	0x2a
 2360 06ea 0B       		.uleb128 0xb
 2361 06eb 050D0000 		.4byte	.LASF108
 2362 06ef 0A       		.byte	0xa
 2363 06f0 46       		.byte	0x46
 2364 06f1 A9000000 		.4byte	0xa9
 2365 06f5 2B       		.byte	0x2b
 2366 06f6 0B       		.uleb128 0xb
 2367 06f7 F90C0000 		.4byte	.LASF109
 2368 06fb 0A       		.byte	0xa
 2369 06fc 47       		.byte	0x47
 2370 06fd A9000000 		.4byte	0xa9
 2371 0701 2C       		.byte	0x2c
 2372 0702 0B       		.uleb128 0xb
 2373 0703 F60E0000 		.4byte	.LASF110
 2374 0707 0A       		.byte	0xa
 2375 0708 48       		.byte	0x48
 2376 0709 A9000000 		.4byte	0xa9
 2377 070d 2D       		.byte	0x2d
 2378 070e 0B       		.uleb128 0xb
 2379 070f 85120000 		.4byte	.LASF111
 2380 0713 0A       		.byte	0xa
 2381 0714 49       		.byte	0x49
 2382 0715 A9000000 		.4byte	0xa9
 2383 0719 2E       		.byte	0x2e
 2384 071a 0B       		.uleb128 0xb
 2385 071b 9B110000 		.4byte	.LASF112
 2386 071f 0A       		.byte	0xa
 2387 0720 4A       		.byte	0x4a
 2388 0721 A9000000 		.4byte	0xa9
 2389 0725 2F       		.byte	0x2f
 2390 0726 0B       		.uleb128 0xb
 2391 0727 D5030000 		.4byte	.LASF113
 2392 072b 0A       		.byte	0xa
ARM GAS  C:\Users\dmula\AppData\Local\Temp\ccXnnfAd.s 			page 84


 2393 072c 4B       		.byte	0x4b
 2394 072d A9000000 		.4byte	0xa9
 2395 0731 30       		.byte	0x30
 2396 0732 0B       		.uleb128 0xb
 2397 0733 7D070000 		.4byte	.LASF114
 2398 0737 0A       		.byte	0xa
 2399 0738 4E       		.byte	0x4e
 2400 0739 A9000000 		.4byte	0xa9
 2401 073d 31       		.byte	0x31
 2402 073e 0B       		.uleb128 0xb
 2403 073f 0B110000 		.4byte	.LASF115
 2404 0743 0A       		.byte	0xa
 2405 0744 4F       		.byte	0x4f
 2406 0745 A9000000 		.4byte	0xa9
 2407 0749 32       		.byte	0x32
 2408 074a 0B       		.uleb128 0xb
 2409 074b 730A0000 		.4byte	.LASF116
 2410 074f 0A       		.byte	0xa
 2411 0750 50       		.byte	0x50
 2412 0751 A9000000 		.4byte	0xa9
 2413 0755 33       		.byte	0x33
 2414 0756 0B       		.uleb128 0xb
 2415 0757 DF0E0000 		.4byte	.LASF117
 2416 075b 0A       		.byte	0xa
 2417 075c 51       		.byte	0x51
 2418 075d A9000000 		.4byte	0xa9
 2419 0761 34       		.byte	0x34
 2420 0762 0B       		.uleb128 0xb
 2421 0763 10090000 		.4byte	.LASF118
 2422 0767 0A       		.byte	0xa
 2423 0768 52       		.byte	0x52
 2424 0769 B4000000 		.4byte	0xb4
 2425 076d 36       		.byte	0x36
 2426 076e 0B       		.uleb128 0xb
 2427 076f F9010000 		.4byte	.LASF119
 2428 0773 0A       		.byte	0xa
 2429 0774 53       		.byte	0x53
 2430 0775 B4000000 		.4byte	0xb4
 2431 0779 38       		.byte	0x38
 2432 077a 0B       		.uleb128 0xb
 2433 077b 450A0000 		.4byte	.LASF120
 2434 077f 0A       		.byte	0xa
 2435 0780 54       		.byte	0x54
 2436 0781 B4000000 		.4byte	0xb4
 2437 0785 3A       		.byte	0x3a
 2438 0786 0B       		.uleb128 0xb
 2439 0787 EF110000 		.4byte	.LASF121
 2440 078b 0A       		.byte	0xa
 2441 078c 55       		.byte	0x55
 2442 078d A9000000 		.4byte	0xa9
 2443 0791 3C       		.byte	0x3c
 2444 0792 0B       		.uleb128 0xb
 2445 0793 E8020000 		.4byte	.LASF122
 2446 0797 0A       		.byte	0xa
 2447 0798 56       		.byte	0x56
 2448 0799 A9000000 		.4byte	0xa9
 2449 079d 3D       		.byte	0x3d
ARM GAS  C:\Users\dmula\AppData\Local\Temp\ccXnnfAd.s 			page 85


 2450 079e 0B       		.uleb128 0xb
 2451 079f CA0B0000 		.4byte	.LASF123
 2452 07a3 0A       		.byte	0xa
 2453 07a4 57       		.byte	0x57
 2454 07a5 A9000000 		.4byte	0xa9
 2455 07a9 3E       		.byte	0x3e
 2456 07aa 0B       		.uleb128 0xb
 2457 07ab B0000000 		.4byte	.LASF124
 2458 07af 0A       		.byte	0xa
 2459 07b0 58       		.byte	0x58
 2460 07b1 A9000000 		.4byte	0xa9
 2461 07b5 3F       		.byte	0x3f
 2462 07b6 0B       		.uleb128 0xb
 2463 07b7 67010000 		.4byte	.LASF125
 2464 07bb 0A       		.byte	0xa
 2465 07bc 59       		.byte	0x59
 2466 07bd A9000000 		.4byte	0xa9
 2467 07c1 40       		.byte	0x40
 2468 07c2 0B       		.uleb128 0xb
 2469 07c3 D80A0000 		.4byte	.LASF126
 2470 07c7 0A       		.byte	0xa
 2471 07c8 5A       		.byte	0x5a
 2472 07c9 A9000000 		.4byte	0xa9
 2473 07cd 41       		.byte	0x41
 2474 07ce 0B       		.uleb128 0xb
 2475 07cf BE100000 		.4byte	.LASF127
 2476 07d3 0A       		.byte	0xa
 2477 07d4 5B       		.byte	0x5b
 2478 07d5 A9000000 		.4byte	0xa9
 2479 07d9 42       		.byte	0x42
 2480 07da 0B       		.uleb128 0xb
 2481 07db 6E080000 		.4byte	.LASF128
 2482 07df 0A       		.byte	0xa
 2483 07e0 5C       		.byte	0x5c
 2484 07e1 A9000000 		.4byte	0xa9
 2485 07e5 43       		.byte	0x43
 2486 07e6 0B       		.uleb128 0xb
 2487 07e7 79080000 		.4byte	.LASF129
 2488 07eb 0A       		.byte	0xa
 2489 07ec 5D       		.byte	0x5d
 2490 07ed A9000000 		.4byte	0xa9
 2491 07f1 44       		.byte	0x44
 2492 07f2 0B       		.uleb128 0xb
 2493 07f3 130D0000 		.4byte	.LASF130
 2494 07f7 0A       		.byte	0xa
 2495 07f8 5E       		.byte	0x5e
 2496 07f9 D5000000 		.4byte	0xd5
 2497 07fd 48       		.byte	0x48
 2498 07fe 0B       		.uleb128 0xb
 2499 07ff B1020000 		.4byte	.LASF131
 2500 0803 0A       		.byte	0xa
 2501 0804 5F       		.byte	0x5f
 2502 0805 D5000000 		.4byte	0xd5
 2503 0809 4C       		.byte	0x4c
 2504 080a 0B       		.uleb128 0xb
 2505 080b 7A100000 		.4byte	.LASF132
 2506 080f 0A       		.byte	0xa
ARM GAS  C:\Users\dmula\AppData\Local\Temp\ccXnnfAd.s 			page 86


 2507 0810 60       		.byte	0x60
 2508 0811 A9000000 		.4byte	0xa9
 2509 0815 50       		.byte	0x50
 2510 0816 0B       		.uleb128 0xb
 2511 0817 87060000 		.4byte	.LASF133
 2512 081b 0A       		.byte	0xa
 2513 081c 61       		.byte	0x61
 2514 081d A9000000 		.4byte	0xa9
 2515 0821 51       		.byte	0x51
 2516 0822 0B       		.uleb128 0xb
 2517 0823 E7090000 		.4byte	.LASF134
 2518 0827 0A       		.byte	0xa
 2519 0828 62       		.byte	0x62
 2520 0829 A9000000 		.4byte	0xa9
 2521 082d 52       		.byte	0x52
 2522 082e 0B       		.uleb128 0xb
 2523 082f 03050000 		.4byte	.LASF135
 2524 0833 0A       		.byte	0xa
 2525 0834 63       		.byte	0x63
 2526 0835 A9000000 		.4byte	0xa9
 2527 0839 53       		.byte	0x53
 2528 083a 0B       		.uleb128 0xb
 2529 083b 42100000 		.4byte	.LASF136
 2530 083f 0A       		.byte	0xa
 2531 0840 64       		.byte	0x64
 2532 0841 A9000000 		.4byte	0xa9
 2533 0845 54       		.byte	0x54
 2534 0846 0B       		.uleb128 0xb
 2535 0847 FA060000 		.4byte	.LASF137
 2536 084b 0A       		.byte	0xa
 2537 084c 65       		.byte	0x65
 2538 084d A9000000 		.4byte	0xa9
 2539 0851 55       		.byte	0x55
 2540 0852 0B       		.uleb128 0xb
 2541 0853 330B0000 		.4byte	.LASF138
 2542 0857 0A       		.byte	0xa
 2543 0858 66       		.byte	0x66
 2544 0859 A9000000 		.4byte	0xa9
 2545 085d 56       		.byte	0x56
 2546 085e 0B       		.uleb128 0xb
 2547 085f E20B0000 		.4byte	.LASF139
 2548 0863 0A       		.byte	0xa
 2549 0864 67       		.byte	0x67
 2550 0865 A9000000 		.4byte	0xa9
 2551 0869 57       		.byte	0x57
 2552 086a 0B       		.uleb128 0xb
 2553 086b 4E060000 		.4byte	.LASF140
 2554 086f 0A       		.byte	0xa
 2555 0870 68       		.byte	0x68
 2556 0871 A9000000 		.4byte	0xa9
 2557 0875 58       		.byte	0x58
 2558 0876 0B       		.uleb128 0xb
 2559 0877 0D120000 		.4byte	.LASF141
 2560 087b 0A       		.byte	0xa
 2561 087c 69       		.byte	0x69
 2562 087d A9000000 		.4byte	0xa9
 2563 0881 59       		.byte	0x59
ARM GAS  C:\Users\dmula\AppData\Local\Temp\ccXnnfAd.s 			page 87


 2564 0882 0B       		.uleb128 0xb
 2565 0883 F9100000 		.4byte	.LASF142
 2566 0887 0A       		.byte	0xa
 2567 0888 6E       		.byte	0x6e
 2568 0889 BF000000 		.4byte	0xbf
 2569 088d 5A       		.byte	0x5a
 2570 088e 0B       		.uleb128 0xb
 2571 088f 16010000 		.4byte	.LASF143
 2572 0893 0A       		.byte	0xa
 2573 0894 6F       		.byte	0x6f
 2574 0895 BF000000 		.4byte	0xbf
 2575 0899 5C       		.byte	0x5c
 2576 089a 0B       		.uleb128 0xb
 2577 089b 9F090000 		.4byte	.LASF144
 2578 089f 0A       		.byte	0xa
 2579 08a0 70       		.byte	0x70
 2580 08a1 A9000000 		.4byte	0xa9
 2581 08a5 5E       		.byte	0x5e
 2582 08a6 0B       		.uleb128 0xb
 2583 08a7 19110000 		.4byte	.LASF145
 2584 08ab 0A       		.byte	0xa
 2585 08ac 71       		.byte	0x71
 2586 08ad A9000000 		.4byte	0xa9
 2587 08b1 5F       		.byte	0x5f
 2588 08b2 0B       		.uleb128 0xb
 2589 08b3 61070000 		.4byte	.LASF146
 2590 08b7 0A       		.byte	0xa
 2591 08b8 72       		.byte	0x72
 2592 08b9 A9000000 		.4byte	0xa9
 2593 08bd 60       		.byte	0x60
 2594 08be 0B       		.uleb128 0xb
 2595 08bf DC080000 		.4byte	.LASF147
 2596 08c3 0A       		.byte	0xa
 2597 08c4 73       		.byte	0x73
 2598 08c5 D5000000 		.4byte	0xd5
 2599 08c9 64       		.byte	0x64
 2600 08ca 0B       		.uleb128 0xb
 2601 08cb F60B0000 		.4byte	.LASF148
 2602 08cf 0A       		.byte	0xa
 2603 08d0 76       		.byte	0x76
 2604 08d1 BF000000 		.4byte	0xbf
 2605 08d5 68       		.byte	0x68
 2606 08d6 0B       		.uleb128 0xb
 2607 08d7 A20B0000 		.4byte	.LASF149
 2608 08db 0A       		.byte	0xa
 2609 08dc 77       		.byte	0x77
 2610 08dd BF000000 		.4byte	0xbf
 2611 08e1 6A       		.byte	0x6a
 2612 08e2 0B       		.uleb128 0xb
 2613 08e3 2C0A0000 		.4byte	.LASF150
 2614 08e7 0A       		.byte	0xa
 2615 08e8 78       		.byte	0x78
 2616 08e9 BF000000 		.4byte	0xbf
 2617 08ed 6C       		.byte	0x6c
 2618 08ee 0B       		.uleb128 0xb
 2619 08ef DB020000 		.4byte	.LASF151
 2620 08f3 0A       		.byte	0xa
ARM GAS  C:\Users\dmula\AppData\Local\Temp\ccXnnfAd.s 			page 88


 2621 08f4 79       		.byte	0x79
 2622 08f5 BF000000 		.4byte	0xbf
 2623 08f9 6E       		.byte	0x6e
 2624 08fa 0B       		.uleb128 0xb
 2625 08fb FC080000 		.4byte	.LASF152
 2626 08ff 0A       		.byte	0xa
 2627 0900 7B       		.byte	0x7b
 2628 0901 A9000000 		.4byte	0xa9
 2629 0905 70       		.byte	0x70
 2630 0906 0B       		.uleb128 0xb
 2631 0907 1A040000 		.4byte	.LASF153
 2632 090b 0A       		.byte	0xa
 2633 090c 7C       		.byte	0x7c
 2634 090d A9000000 		.4byte	0xa9
 2635 0911 71       		.byte	0x71
 2636 0912 0B       		.uleb128 0xb
 2637 0913 8C020000 		.4byte	.LASF154
 2638 0917 0A       		.byte	0xa
 2639 0918 7D       		.byte	0x7d
 2640 0919 A9000000 		.4byte	0xa9
 2641 091d 72       		.byte	0x72
 2642 091e 0B       		.uleb128 0xb
 2643 091f 8E010000 		.4byte	.LASF155
 2644 0923 0A       		.byte	0xa
 2645 0924 7E       		.byte	0x7e
 2646 0925 A9000000 		.4byte	0xa9
 2647 0929 73       		.byte	0x73
 2648 092a 0B       		.uleb128 0xb
 2649 092b 610C0000 		.4byte	.LASF156
 2650 092f 0A       		.byte	0xa
 2651 0930 80       		.byte	0x80
 2652 0931 BF000000 		.4byte	0xbf
 2653 0935 74       		.byte	0x74
 2654 0936 0B       		.uleb128 0xb
 2655 0937 200B0000 		.4byte	.LASF157
 2656 093b 0A       		.byte	0xa
 2657 093c 81       		.byte	0x81
 2658 093d BF000000 		.4byte	0xbf
 2659 0941 76       		.byte	0x76
 2660 0942 0B       		.uleb128 0xb
 2661 0943 59080000 		.4byte	.LASF158
 2662 0947 0A       		.byte	0xa
 2663 0948 82       		.byte	0x82
 2664 0949 BF000000 		.4byte	0xbf
 2665 094d 78       		.byte	0x78
 2666 094e 0B       		.uleb128 0xb
 2667 094f 77050000 		.4byte	.LASF159
 2668 0953 0A       		.byte	0xa
 2669 0954 83       		.byte	0x83
 2670 0955 BF000000 		.4byte	0xbf
 2671 0959 7A       		.byte	0x7a
 2672 095a 0B       		.uleb128 0xb
 2673 095b 6A0E0000 		.4byte	.LASF160
 2674 095f 0A       		.byte	0xa
 2675 0960 86       		.byte	0x86
 2676 0961 A9000000 		.4byte	0xa9
 2677 0965 7C       		.byte	0x7c
ARM GAS  C:\Users\dmula\AppData\Local\Temp\ccXnnfAd.s 			page 89


 2678 0966 0B       		.uleb128 0xb
 2679 0967 A6100000 		.4byte	.LASF161
 2680 096b 0A       		.byte	0xa
 2681 096c 87       		.byte	0x87
 2682 096d A9000000 		.4byte	0xa9
 2683 0971 7D       		.byte	0x7d
 2684 0972 0B       		.uleb128 0xb
 2685 0973 4D050000 		.4byte	.LASF162
 2686 0977 0A       		.byte	0xa
 2687 0978 88       		.byte	0x88
 2688 0979 A9000000 		.4byte	0xa9
 2689 097d 7E       		.byte	0x7e
 2690 097e 0B       		.uleb128 0xb
 2691 097f 9A040000 		.4byte	.LASF163
 2692 0983 0A       		.byte	0xa
 2693 0984 89       		.byte	0x89
 2694 0985 A9000000 		.4byte	0xa9
 2695 0989 7F       		.byte	0x7f
 2696 098a 0B       		.uleb128 0xb
 2697 098b 8C050000 		.4byte	.LASF164
 2698 098f 0A       		.byte	0xa
 2699 0990 8A       		.byte	0x8a
 2700 0991 A9000000 		.4byte	0xa9
 2701 0995 80       		.byte	0x80
 2702 0996 0B       		.uleb128 0xb
 2703 0997 99000000 		.4byte	.LASF165
 2704 099b 0A       		.byte	0xa
 2705 099c 8D       		.byte	0x8d
 2706 099d D5000000 		.4byte	0xd5
 2707 09a1 84       		.byte	0x84
 2708 09a2 0B       		.uleb128 0xb
 2709 09a3 940E0000 		.4byte	.LASF166
 2710 09a7 0A       		.byte	0xa
 2711 09a8 8E       		.byte	0x8e
 2712 09a9 D5000000 		.4byte	0xd5
 2713 09ad 88       		.byte	0x88
 2714 09ae 0B       		.uleb128 0xb
 2715 09af 47110000 		.4byte	.LASF167
 2716 09b3 0A       		.byte	0xa
 2717 09b4 8F       		.byte	0x8f
 2718 09b5 D5000000 		.4byte	0xd5
 2719 09b9 8C       		.byte	0x8c
 2720 09ba 0B       		.uleb128 0xb
 2721 09bb 4C0C0000 		.4byte	.LASF168
 2722 09bf 0A       		.byte	0xa
 2723 09c0 90       		.byte	0x90
 2724 09c1 D5000000 		.4byte	0xd5
 2725 09c5 90       		.byte	0x90
 2726 09c6 0B       		.uleb128 0xb
 2727 09c7 240E0000 		.4byte	.LASF169
 2728 09cb 0A       		.byte	0xa
 2729 09cc 91       		.byte	0x91
 2730 09cd D5000000 		.4byte	0xd5
 2731 09d1 94       		.byte	0x94
 2732 09d2 0B       		.uleb128 0xb
 2733 09d3 2F040000 		.4byte	.LASF170
 2734 09d7 0A       		.byte	0xa
ARM GAS  C:\Users\dmula\AppData\Local\Temp\ccXnnfAd.s 			page 90


 2735 09d8 92       		.byte	0x92
 2736 09d9 D5000000 		.4byte	0xd5
 2737 09dd 98       		.byte	0x98
 2738 09de 0B       		.uleb128 0xb
 2739 09df B70E0000 		.4byte	.LASF171
 2740 09e3 0A       		.byte	0xa
 2741 09e4 93       		.byte	0x93
 2742 09e5 D5000000 		.4byte	0xd5
 2743 09e9 9C       		.byte	0x9c
 2744 09ea 0B       		.uleb128 0xb
 2745 09eb 30070000 		.4byte	.LASF172
 2746 09ef 0A       		.byte	0xa
 2747 09f0 94       		.byte	0x94
 2748 09f1 D5000000 		.4byte	0xd5
 2749 09f5 A0       		.byte	0xa0
 2750 09f6 0B       		.uleb128 0xb
 2751 09f7 7F0E0000 		.4byte	.LASF173
 2752 09fb 0A       		.byte	0xa
 2753 09fc 95       		.byte	0x95
 2754 09fd BF000000 		.4byte	0xbf
 2755 0a01 A4       		.byte	0xa4
 2756 0a02 0B       		.uleb128 0xb
 2757 0a03 370C0000 		.4byte	.LASF174
 2758 0a07 0A       		.byte	0xa
 2759 0a08 96       		.byte	0x96
 2760 0a09 BF000000 		.4byte	0xbf
 2761 0a0d A6       		.byte	0xa6
 2762 0a0e 0B       		.uleb128 0xb
 2763 0a0f 150F0000 		.4byte	.LASF175
 2764 0a13 0A       		.byte	0xa
 2765 0a14 97       		.byte	0x97
 2766 0a15 BF000000 		.4byte	0xbf
 2767 0a19 A8       		.byte	0xa8
 2768 0a1a 0B       		.uleb128 0xb
 2769 0a1b 7B090000 		.4byte	.LASF176
 2770 0a1f 0A       		.byte	0xa
 2771 0a20 98       		.byte	0x98
 2772 0a21 BF000000 		.4byte	0xbf
 2773 0a25 AA       		.byte	0xaa
 2774 0a26 0B       		.uleb128 0xb
 2775 0a27 CD020000 		.4byte	.LASF177
 2776 0a2b 0A       		.byte	0xa
 2777 0a2c 99       		.byte	0x99
 2778 0a2d BF000000 		.4byte	0xbf
 2779 0a31 AC       		.byte	0xac
 2780 0a32 0B       		.uleb128 0xb
 2781 0a33 E80A0000 		.4byte	.LASF178
 2782 0a37 0A       		.byte	0xa
 2783 0a38 9A       		.byte	0x9a
 2784 0a39 BF000000 		.4byte	0xbf
 2785 0a3d AE       		.byte	0xae
 2786 0a3e 0B       		.uleb128 0xb
 2787 0a3f F3020000 		.4byte	.LASF179
 2788 0a43 0A       		.byte	0xa
 2789 0a44 9D       		.byte	0x9d
 2790 0a45 BF000000 		.4byte	0xbf
 2791 0a49 B0       		.byte	0xb0
ARM GAS  C:\Users\dmula\AppData\Local\Temp\ccXnnfAd.s 			page 91


 2792 0a4a 0B       		.uleb128 0xb
 2793 0a4b FA0F0000 		.4byte	.LASF180
 2794 0a4f 0A       		.byte	0xa
 2795 0a50 9E       		.byte	0x9e
 2796 0a51 D5000000 		.4byte	0xd5
 2797 0a55 B4       		.byte	0xb4
 2798 0a56 00       		.byte	0
 2799 0a57 04       		.uleb128 0x4
 2800 0a58 550F0000 		.4byte	.LASF181
 2801 0a5c 0A       		.byte	0xa
 2802 0a5d 9F       		.byte	0x9f
 2803 0a5e 46060000 		.4byte	0x646
 2804 0a62 10       		.uleb128 0x10
 2805 0a63 04       		.byte	0x4
 2806 0a64 680A0000 		.4byte	0xa68
 2807 0a68 11       		.uleb128 0x11
 2808 0a69 0F       		.uleb128 0xf
 2809 0a6a C80D0000 		.4byte	.LASF182
 2810 0a6e 0B       		.byte	0xb
 2811 0a6f F601     		.2byte	0x1f6
 2812 0a71 750A0000 		.4byte	0xa75
 2813 0a75 03       		.uleb128 0x3
 2814 0a76 01       		.byte	0x1
 2815 0a77 08       		.byte	0x8
 2816 0a78 FA070000 		.4byte	.LASF183
 2817 0a7c 03       		.uleb128 0x3
 2818 0a7d 08       		.byte	0x8
 2819 0a7e 04       		.byte	0x4
 2820 0a7f B4060000 		.4byte	.LASF184
 2821 0a83 12       		.uleb128 0x12
 2822 0a84 04       		.byte	0x4
 2823 0a85 03       		.uleb128 0x3
 2824 0a86 01       		.byte	0x1
 2825 0a87 02       		.byte	0x2
 2826 0a88 D2060000 		.4byte	.LASF185
 2827 0a8c 13       		.uleb128 0x13
 2828 0a8d 01       		.byte	0x1
 2829 0a8e 4C000000 		.4byte	0x4c
 2830 0a92 0C       		.byte	0xc
 2831 0a93 1304     		.2byte	0x413
 2832 0a95 B20A0000 		.4byte	0xab2
 2833 0a99 14       		.uleb128 0x14
 2834 0a9a E1030000 		.4byte	.LASF186
 2835 0a9e 00       		.byte	0
 2836 0a9f 14       		.uleb128 0x14
 2837 0aa0 EA050000 		.4byte	.LASF187
 2838 0aa4 01       		.byte	0x1
 2839 0aa5 14       		.uleb128 0x14
 2840 0aa6 E2070000 		.4byte	.LASF188
 2841 0aaa 02       		.byte	0x2
 2842 0aab 14       		.uleb128 0x14
 2843 0aac 74010000 		.4byte	.LASF189
 2844 0ab0 03       		.byte	0x3
 2845 0ab1 00       		.byte	0
 2846 0ab2 0F       		.uleb128 0xf
 2847 0ab3 2F120000 		.4byte	.LASF190
 2848 0ab7 0C       		.byte	0xc
ARM GAS  C:\Users\dmula\AppData\Local\Temp\ccXnnfAd.s 			page 92


 2849 0ab8 1804     		.2byte	0x418
 2850 0aba 8C0A0000 		.4byte	0xa8c
 2851 0abe 15       		.uleb128 0x15
 2852 0abf 78       		.byte	0x78
 2853 0ac0 0C       		.byte	0xc
 2854 0ac1 0205     		.2byte	0x502
 2855 0ac3 8B0B0000 		.4byte	0xb8b
 2856 0ac7 16       		.uleb128 0x16
 2857 0ac8 17060000 		.4byte	.LASF191
 2858 0acc 0C       		.byte	0xc
 2859 0acd 0405     		.2byte	0x504
 2860 0acf D5000000 		.4byte	0xd5
 2861 0ad3 00       		.byte	0
 2862 0ad4 16       		.uleb128 0x16
 2863 0ad5 A60F0000 		.4byte	.LASF192
 2864 0ad9 0C       		.byte	0xc
 2865 0ada 0505     		.2byte	0x505
 2866 0adc D5000000 		.4byte	0xd5
 2867 0ae0 04       		.byte	0x4
 2868 0ae1 16       		.uleb128 0x16
 2869 0ae2 BD0B0000 		.4byte	.LASF193
 2870 0ae6 0C       		.byte	0xc
 2871 0ae7 0605     		.2byte	0x506
 2872 0ae9 D5000000 		.4byte	0xd5
 2873 0aed 08       		.byte	0x8
 2874 0aee 16       		.uleb128 0x16
 2875 0aef CD0E0000 		.4byte	.LASF194
 2876 0af3 0C       		.byte	0xc
 2877 0af4 0705     		.2byte	0x507
 2878 0af6 D5000000 		.4byte	0xd5
 2879 0afa 0C       		.byte	0xc
 2880 0afb 16       		.uleb128 0x16
 2881 0afc D0050000 		.4byte	.LASF195
 2882 0b00 0C       		.byte	0xc
 2883 0b01 0805     		.2byte	0x508
 2884 0b03 D5000000 		.4byte	0xd5
 2885 0b07 10       		.byte	0x10
 2886 0b08 16       		.uleb128 0x16
 2887 0b09 5B090000 		.4byte	.LASF196
 2888 0b0d 0C       		.byte	0xc
 2889 0b0e 0905     		.2byte	0x509
 2890 0b10 B20A0000 		.4byte	0xab2
 2891 0b14 14       		.byte	0x14
 2892 0b15 16       		.uleb128 0x16
 2893 0b16 BB050000 		.4byte	.LASF197
 2894 0b1a 0C       		.byte	0xc
 2895 0b1b 0A05     		.2byte	0x50a
 2896 0b1d D5000000 		.4byte	0xd5
 2897 0b21 18       		.byte	0x18
 2898 0b22 16       		.uleb128 0x16
 2899 0b23 5C110000 		.4byte	.LASF198
 2900 0b27 0C       		.byte	0xc
 2901 0b28 0B05     		.2byte	0x50b
 2902 0b2a 8B0B0000 		.4byte	0xb8b
 2903 0b2e 1C       		.byte	0x1c
 2904 0b2f 16       		.uleb128 0x16
 2905 0b30 BC000000 		.4byte	.LASF199
ARM GAS  C:\Users\dmula\AppData\Local\Temp\ccXnnfAd.s 			page 93


 2906 0b34 0C       		.byte	0xc
 2907 0b35 0C05     		.2byte	0x50c
 2908 0b37 D5000000 		.4byte	0xd5
 2909 0b3b 5C       		.byte	0x5c
 2910 0b3c 16       		.uleb128 0x16
 2911 0b3d 67110000 		.4byte	.LASF200
 2912 0b41 0C       		.byte	0xc
 2913 0b42 0D05     		.2byte	0x50d
 2914 0b44 D5000000 		.4byte	0xd5
 2915 0b48 60       		.byte	0x60
 2916 0b49 16       		.uleb128 0x16
 2917 0b4a 21120000 		.4byte	.LASF201
 2918 0b4e 0C       		.byte	0xc
 2919 0b4f 0E05     		.2byte	0x50e
 2920 0b51 D5000000 		.4byte	0xd5
 2921 0b55 64       		.byte	0x64
 2922 0b56 16       		.uleb128 0x16
 2923 0b57 500B0000 		.4byte	.LASF202
 2924 0b5b 0C       		.byte	0xc
 2925 0b5c 0F05     		.2byte	0x50f
 2926 0b5e D5000000 		.4byte	0xd5
 2927 0b62 68       		.byte	0x68
 2928 0b63 16       		.uleb128 0x16
 2929 0b64 2C090000 		.4byte	.LASF203
 2930 0b68 0C       		.byte	0xc
 2931 0b69 1005     		.2byte	0x510
 2932 0b6b D5000000 		.4byte	0xd5
 2933 0b6f 6C       		.byte	0x6c
 2934 0b70 16       		.uleb128 0x16
 2935 0b71 BE110000 		.4byte	.LASF204
 2936 0b75 0C       		.byte	0xc
 2937 0b76 1105     		.2byte	0x511
 2938 0b78 850A0000 		.4byte	0xa85
 2939 0b7c 70       		.byte	0x70
 2940 0b7d 16       		.uleb128 0x16
 2941 0b7e 8D070000 		.4byte	.LASF205
 2942 0b82 0C       		.byte	0xc
 2943 0b83 1205     		.2byte	0x512
 2944 0b85 D5000000 		.4byte	0xd5
 2945 0b89 74       		.byte	0x74
 2946 0b8a 00       		.byte	0
 2947 0b8b 07       		.uleb128 0x7
 2948 0b8c D5000000 		.4byte	0xd5
 2949 0b90 9B0B0000 		.4byte	0xb9b
 2950 0b94 08       		.uleb128 0x8
 2951 0b95 E0000000 		.4byte	0xe0
 2952 0b99 0F       		.byte	0xf
 2953 0b9a 00       		.byte	0
 2954 0b9b 0F       		.uleb128 0xf
 2955 0b9c 03060000 		.4byte	.LASF206
 2956 0ba0 0C       		.byte	0xc
 2957 0ba1 1305     		.2byte	0x513
 2958 0ba3 BE0A0000 		.4byte	0xabe
 2959 0ba7 10       		.uleb128 0x10
 2960 0ba8 04       		.byte	0x4
 2961 0ba9 AD0B0000 		.4byte	0xbad
 2962 0bad 17       		.uleb128 0x17
ARM GAS  C:\Users\dmula\AppData\Local\Temp\ccXnnfAd.s 			page 94


 2963 0bae B80B0000 		.4byte	0xbb8
 2964 0bb2 18       		.uleb128 0x18
 2965 0bb3 D5000000 		.4byte	0xd5
 2966 0bb7 00       		.byte	0
 2967 0bb8 0F       		.uleb128 0xf
 2968 0bb9 3C090000 		.4byte	.LASF207
 2969 0bbd 0D       		.byte	0xd
 2970 0bbe D901     		.2byte	0x1d9
 2971 0bc0 A70B0000 		.4byte	0xba7
 2972 0bc4 19       		.uleb128 0x19
 2973 0bc5 5F000000 		.4byte	.LASF240
 2974 0bc9 38       		.byte	0x38
 2975 0bca 0D       		.byte	0xd
 2976 0bcb 7502     		.2byte	0x275
 2977 0bcd 880C0000 		.4byte	0xc88
 2978 0bd1 16       		.uleb128 0x16
 2979 0bd2 F1000000 		.4byte	.LASF208
 2980 0bd6 0D       		.byte	0xd
 2981 0bd7 7802     		.2byte	0x278
 2982 0bd9 E7000000 		.4byte	0xe7
 2983 0bdd 00       		.byte	0
 2984 0bde 16       		.uleb128 0x16
 2985 0bdf 3A060000 		.4byte	.LASF209
 2986 0be3 0D       		.byte	0xd
 2987 0be4 7902     		.2byte	0x279
 2988 0be6 E7000000 		.4byte	0xe7
 2989 0bea 04       		.byte	0x4
 2990 0beb 16       		.uleb128 0x16
 2991 0bec 6D0B0000 		.4byte	.LASF210
 2992 0bf0 0D       		.byte	0xd
 2993 0bf1 7B02     		.2byte	0x27b
 2994 0bf3 830A0000 		.4byte	0xa83
 2995 0bf7 08       		.byte	0x8
 2996 0bf8 16       		.uleb128 0x16
 2997 0bf9 38020000 		.4byte	.LASF211
 2998 0bfd 0D       		.byte	0xd
 2999 0bfe 7C02     		.2byte	0x27c
 3000 0c00 D5000000 		.4byte	0xd5
 3001 0c04 0C       		.byte	0xc
 3002 0c05 16       		.uleb128 0x16
 3003 0c06 650A0000 		.4byte	.LASF212
 3004 0c0a 0D       		.byte	0xd
 3005 0c0b 7D02     		.2byte	0x27d
 3006 0c0d E7000000 		.4byte	0xe7
 3007 0c11 10       		.byte	0x10
 3008 0c12 16       		.uleb128 0x16
 3009 0c13 4B080000 		.4byte	.LASF213
 3010 0c17 0D       		.byte	0xd
 3011 0c18 7E02     		.2byte	0x27e
 3012 0c1a E7000000 		.4byte	0xe7
 3013 0c1e 14       		.byte	0x14
 3014 0c1f 16       		.uleb128 0x16
 3015 0c20 62120000 		.4byte	.LASF214
 3016 0c24 0D       		.byte	0xd
 3017 0c25 8002     		.2byte	0x280
 3018 0c27 830A0000 		.4byte	0xa83
 3019 0c2b 18       		.byte	0x18
ARM GAS  C:\Users\dmula\AppData\Local\Temp\ccXnnfAd.s 			page 95


 3020 0c2c 16       		.uleb128 0x16
 3021 0c2d A7120000 		.4byte	.LASF215
 3022 0c31 0D       		.byte	0xd
 3023 0c32 8102     		.2byte	0x281
 3024 0c34 D5000000 		.4byte	0xd5
 3025 0c38 1C       		.byte	0x1c
 3026 0c39 16       		.uleb128 0x16
 3027 0c3a B2080000 		.4byte	.LASF216
 3028 0c3e 0D       		.byte	0xd
 3029 0c3f 8202     		.2byte	0x282
 3030 0c41 E7000000 		.4byte	0xe7
 3031 0c45 20       		.byte	0x20
 3032 0c46 16       		.uleb128 0x16
 3033 0c47 0A0B0000 		.4byte	.LASF217
 3034 0c4b 0D       		.byte	0xd
 3035 0c4c 8402     		.2byte	0x284
 3036 0c4e 830A0000 		.4byte	0xa83
 3037 0c52 24       		.byte	0x24
 3038 0c53 16       		.uleb128 0x16
 3039 0c54 9A0A0000 		.4byte	.LASF218
 3040 0c58 0D       		.byte	0xd
 3041 0c59 8502     		.2byte	0x285
 3042 0c5b D5000000 		.4byte	0xd5
 3043 0c5f 28       		.byte	0x28
 3044 0c60 16       		.uleb128 0x16
 3045 0c61 260C0000 		.4byte	.LASF219
 3046 0c65 0D       		.byte	0xd
 3047 0c66 8602     		.2byte	0x286
 3048 0c68 E7000000 		.4byte	0xe7
 3049 0c6c 2C       		.byte	0x2c
 3050 0c6d 16       		.uleb128 0x16
 3051 0c6e 99060000 		.4byte	.LASF220
 3052 0c72 0D       		.byte	0xd
 3053 0c73 8B02     		.2byte	0x28b
 3054 0c75 B80B0000 		.4byte	0xbb8
 3055 0c79 30       		.byte	0x30
 3056 0c7a 16       		.uleb128 0x16
 3057 0c7b CB080000 		.4byte	.LASF221
 3058 0c7f 0D       		.byte	0xd
 3059 0c80 8E02     		.2byte	0x28e
 3060 0c82 D5000000 		.4byte	0xd5
 3061 0c86 34       		.byte	0x34
 3062 0c87 00       		.byte	0
 3063 0c88 0F       		.uleb128 0xf
 3064 0c89 E9040000 		.4byte	.LASF222
 3065 0c8d 0D       		.byte	0xd
 3066 0c8e 9102     		.2byte	0x291
 3067 0c90 C40B0000 		.4byte	0xbc4
 3068 0c94 09       		.uleb128 0x9
 3069 0c95 14       		.byte	0x14
 3070 0c96 04       		.byte	0x4
 3071 0c97 3B       		.byte	0x3b
 3072 0c98 D90C0000 		.4byte	0xcd9
 3073 0c9c 0B       		.uleb128 0xb
 3074 0c9d B6120000 		.4byte	.LASF223
 3075 0ca1 04       		.byte	0x4
 3076 0ca2 3D       		.byte	0x3d
ARM GAS  C:\Users\dmula\AppData\Local\Temp\ccXnnfAd.s 			page 96


 3077 0ca3 D5000000 		.4byte	0xd5
 3078 0ca7 00       		.byte	0
 3079 0ca8 0B       		.uleb128 0xb
 3080 0ca9 60050000 		.4byte	.LASF224
 3081 0cad 04       		.byte	0x4
 3082 0cae 3E       		.byte	0x3e
 3083 0caf D5000000 		.4byte	0xd5
 3084 0cb3 04       		.byte	0x4
 3085 0cb4 0B       		.uleb128 0xb
 3086 0cb5 04020000 		.4byte	.LASF225
 3087 0cb9 04       		.byte	0x4
 3088 0cba 3F       		.byte	0x3f
 3089 0cbb D90C0000 		.4byte	0xcd9
 3090 0cbf 08       		.byte	0x8
 3091 0cc0 0B       		.uleb128 0xb
 3092 0cc1 480E0000 		.4byte	.LASF226
 3093 0cc5 04       		.byte	0x4
 3094 0cc6 40       		.byte	0x40
 3095 0cc7 D5000000 		.4byte	0xd5
 3096 0ccb 0C       		.byte	0xc
 3097 0ccc 0B       		.uleb128 0xb
 3098 0ccd 5A100000 		.4byte	.LASF227
 3099 0cd1 04       		.byte	0x4
 3100 0cd2 45       		.byte	0x45
 3101 0cd3 D5000000 		.4byte	0xd5
 3102 0cd7 10       		.byte	0x10
 3103 0cd8 00       		.byte	0
 3104 0cd9 10       		.uleb128 0x10
 3105 0cda 04       		.byte	0x4
 3106 0cdb DF0C0000 		.4byte	0xcdf
 3107 0cdf 06       		.uleb128 0x6
 3108 0ce0 9B0B0000 		.4byte	0xb9b
 3109 0ce4 04       		.uleb128 0x4
 3110 0ce5 62060000 		.4byte	.LASF228
 3111 0ce9 04       		.byte	0x4
 3112 0cea 48       		.byte	0x48
 3113 0ceb 940C0000 		.4byte	0xc94
 3114 0cef 04       		.uleb128 0x4
 3115 0cf0 61020000 		.4byte	.LASF229
 3116 0cf4 0E       		.byte	0xe
 3117 0cf5 07       		.byte	0x7
 3118 0cf6 25000000 		.4byte	0x25
 3119 0cfa 04       		.uleb128 0x4
 3120 0cfb D2010000 		.4byte	.LASF230
 3121 0cff 0F       		.byte	0xf
 3122 0d00 2C       		.byte	0x2c
 3123 0d01 7B000000 		.4byte	0x7b
 3124 0d05 04       		.uleb128 0x4
 3125 0d06 F9030000 		.4byte	.LASF231
 3126 0d0a 0F       		.byte	0xf
 3127 0d0b 72       		.byte	0x72
 3128 0d0c 7B000000 		.4byte	0x7b
 3129 0d10 0F       		.uleb128 0xf
 3130 0d11 6B040000 		.4byte	.LASF232
 3131 0d15 10       		.byte	0x10
 3132 0d16 6501     		.2byte	0x165
 3133 0d18 A2000000 		.4byte	0xa2
ARM GAS  C:\Users\dmula\AppData\Local\Temp\ccXnnfAd.s 			page 97


 3134 0d1c 1A       		.uleb128 0x1a
 3135 0d1d 04       		.byte	0x4
 3136 0d1e 0F       		.byte	0xf
 3137 0d1f A6       		.byte	0xa6
 3138 0d20 3B0D0000 		.4byte	0xd3b
 3139 0d24 1B       		.uleb128 0x1b
 3140 0d25 170C0000 		.4byte	.LASF233
 3141 0d29 0F       		.byte	0xf
 3142 0d2a A8       		.byte	0xa8
 3143 0d2b 100D0000 		.4byte	0xd10
 3144 0d2f 1B       		.uleb128 0x1b
 3145 0d30 DF0D0000 		.4byte	.LASF234
 3146 0d34 0F       		.byte	0xf
 3147 0d35 A9       		.byte	0xa9
 3148 0d36 3B0D0000 		.4byte	0xd3b
 3149 0d3a 00       		.byte	0
 3150 0d3b 07       		.uleb128 0x7
 3151 0d3c 4C000000 		.4byte	0x4c
 3152 0d40 4B0D0000 		.4byte	0xd4b
 3153 0d44 08       		.uleb128 0x8
 3154 0d45 E0000000 		.4byte	0xe0
 3155 0d49 03       		.byte	0x3
 3156 0d4a 00       		.byte	0
 3157 0d4b 09       		.uleb128 0x9
 3158 0d4c 08       		.byte	0x8
 3159 0d4d 0F       		.byte	0xf
 3160 0d4e A3       		.byte	0xa3
 3161 0d4f 6C0D0000 		.4byte	0xd6c
 3162 0d53 0B       		.uleb128 0xb
 3163 0d54 AE040000 		.4byte	.LASF235
 3164 0d58 0F       		.byte	0xf
 3165 0d59 A5       		.byte	0xa5
 3166 0d5a 25000000 		.4byte	0x25
 3167 0d5e 00       		.byte	0
 3168 0d5f 0B       		.uleb128 0xb
 3169 0d60 59070000 		.4byte	.LASF236
 3170 0d64 0F       		.byte	0xf
 3171 0d65 AA       		.byte	0xaa
 3172 0d66 1C0D0000 		.4byte	0xd1c
 3173 0d6a 04       		.byte	0x4
 3174 0d6b 00       		.byte	0
 3175 0d6c 04       		.uleb128 0x4
 3176 0d6d D8060000 		.4byte	.LASF237
 3177 0d71 0F       		.byte	0xf
 3178 0d72 AB       		.byte	0xab
 3179 0d73 4B0D0000 		.4byte	0xd4b
 3180 0d77 04       		.uleb128 0x4
 3181 0d78 00000000 		.4byte	.LASF238
 3182 0d7c 0F       		.byte	0xf
 3183 0d7d AF       		.byte	0xaf
 3184 0d7e EF0C0000 		.4byte	0xcef
 3185 0d82 04       		.uleb128 0x4
 3186 0d83 9F070000 		.4byte	.LASF239
 3187 0d87 11       		.byte	0x11
 3188 0d88 16       		.byte	0x16
 3189 0d89 8D000000 		.4byte	0x8d
 3190 0d8d 1C       		.uleb128 0x1c
ARM GAS  C:\Users\dmula\AppData\Local\Temp\ccXnnfAd.s 			page 98


 3191 0d8e 4C040000 		.4byte	.LASF241
 3192 0d92 18       		.byte	0x18
 3193 0d93 11       		.byte	0x11
 3194 0d94 2D       		.byte	0x2d
 3195 0d95 E00D0000 		.4byte	0xde0
 3196 0d99 0B       		.uleb128 0xb
 3197 0d9a 7F120000 		.4byte	.LASF242
 3198 0d9e 11       		.byte	0x11
 3199 0d9f 2F       		.byte	0x2f
 3200 0da0 E00D0000 		.4byte	0xde0
 3201 0da4 00       		.byte	0
 3202 0da5 0A       		.uleb128 0xa
 3203 0da6 5F6B00   		.ascii	"_k\000"
 3204 0da9 11       		.byte	0x11
 3205 0daa 30       		.byte	0x30
 3206 0dab 25000000 		.4byte	0x25
 3207 0daf 04       		.byte	0x4
 3208 0db0 0B       		.uleb128 0xb
 3209 0db1 580E0000 		.4byte	.LASF243
 3210 0db5 11       		.byte	0x11
 3211 0db6 30       		.byte	0x30
 3212 0db7 25000000 		.4byte	0x25
 3213 0dbb 08       		.byte	0x8
 3214 0dbc 0B       		.uleb128 0xb
 3215 0dbd 340D0000 		.4byte	.LASF244
 3216 0dc1 11       		.byte	0x11
 3217 0dc2 30       		.byte	0x30
 3218 0dc3 25000000 		.4byte	0x25
 3219 0dc7 0C       		.byte	0xc
 3220 0dc8 0B       		.uleb128 0xb
 3221 0dc9 B6050000 		.4byte	.LASF245
 3222 0dcd 11       		.byte	0x11
 3223 0dce 30       		.byte	0x30
 3224 0dcf 25000000 		.4byte	0x25
 3225 0dd3 10       		.byte	0x10
 3226 0dd4 0A       		.uleb128 0xa
 3227 0dd5 5F7800   		.ascii	"_x\000"
 3228 0dd8 11       		.byte	0x11
 3229 0dd9 31       		.byte	0x31
 3230 0dda E60D0000 		.4byte	0xde6
 3231 0dde 14       		.byte	0x14
 3232 0ddf 00       		.byte	0
 3233 0de0 10       		.uleb128 0x10
 3234 0de1 04       		.byte	0x4
 3235 0de2 8D0D0000 		.4byte	0xd8d
 3236 0de6 07       		.uleb128 0x7
 3237 0de7 820D0000 		.4byte	0xd82
 3238 0deb F60D0000 		.4byte	0xdf6
 3239 0def 08       		.uleb128 0x8
 3240 0df0 E0000000 		.4byte	0xe0
 3241 0df4 00       		.byte	0
 3242 0df5 00       		.byte	0
 3243 0df6 1C       		.uleb128 0x1c
 3244 0df7 DA0E0000 		.4byte	.LASF246
 3245 0dfb 24       		.byte	0x24
 3246 0dfc 11       		.byte	0x11
 3247 0dfd 35       		.byte	0x35
ARM GAS  C:\Users\dmula\AppData\Local\Temp\ccXnnfAd.s 			page 99


 3248 0dfe 6F0E0000 		.4byte	0xe6f
 3249 0e02 0B       		.uleb128 0xb
 3250 0e03 2F010000 		.4byte	.LASF247
 3251 0e07 11       		.byte	0x11
 3252 0e08 37       		.byte	0x37
 3253 0e09 25000000 		.4byte	0x25
 3254 0e0d 00       		.byte	0
 3255 0e0e 0B       		.uleb128 0xb
 3256 0e0f 710F0000 		.4byte	.LASF248
 3257 0e13 11       		.byte	0x11
 3258 0e14 38       		.byte	0x38
 3259 0e15 25000000 		.4byte	0x25
 3260 0e19 04       		.byte	0x4
 3261 0e1a 0B       		.uleb128 0xb
 3262 0e1b 83040000 		.4byte	.LASF249
 3263 0e1f 11       		.byte	0x11
 3264 0e20 39       		.byte	0x39
 3265 0e21 25000000 		.4byte	0x25
 3266 0e25 08       		.byte	0x8
 3267 0e26 0B       		.uleb128 0xb
 3268 0e27 16080000 		.4byte	.LASF250
 3269 0e2b 11       		.byte	0x11
 3270 0e2c 3A       		.byte	0x3a
 3271 0e2d 25000000 		.4byte	0x25
 3272 0e31 0C       		.byte	0xc
 3273 0e32 0B       		.uleb128 0xb
 3274 0e33 470B0000 		.4byte	.LASF251
 3275 0e37 11       		.byte	0x11
 3276 0e38 3B       		.byte	0x3b
 3277 0e39 25000000 		.4byte	0x25
 3278 0e3d 10       		.byte	0x10
 3279 0e3e 0B       		.uleb128 0xb
 3280 0e3f FB0D0000 		.4byte	.LASF252
 3281 0e43 11       		.byte	0x11
 3282 0e44 3C       		.byte	0x3c
 3283 0e45 25000000 		.4byte	0x25
 3284 0e49 14       		.byte	0x14
 3285 0e4a 0B       		.uleb128 0xb
 3286 0e4b 54040000 		.4byte	.LASF253
 3287 0e4f 11       		.byte	0x11
 3288 0e50 3D       		.byte	0x3d
 3289 0e51 25000000 		.4byte	0x25
 3290 0e55 18       		.byte	0x18
 3291 0e56 0B       		.uleb128 0xb
 3292 0e57 26070000 		.4byte	.LASF254
 3293 0e5b 11       		.byte	0x11
 3294 0e5c 3E       		.byte	0x3e
 3295 0e5d 25000000 		.4byte	0x25
 3296 0e61 1C       		.byte	0x1c
 3297 0e62 0B       		.uleb128 0xb
 3298 0e63 A40A0000 		.4byte	.LASF255
 3299 0e67 11       		.byte	0x11
 3300 0e68 3F       		.byte	0x3f
 3301 0e69 25000000 		.4byte	0x25
 3302 0e6d 20       		.byte	0x20
 3303 0e6e 00       		.byte	0
 3304 0e6f 1D       		.uleb128 0x1d
ARM GAS  C:\Users\dmula\AppData\Local\Temp\ccXnnfAd.s 			page 100


 3305 0e70 CC000000 		.4byte	.LASF256
 3306 0e74 0801     		.2byte	0x108
 3307 0e76 11       		.byte	0x11
 3308 0e77 48       		.byte	0x48
 3309 0e78 AF0E0000 		.4byte	0xeaf
 3310 0e7c 0B       		.uleb128 0xb
 3311 0e7d E5100000 		.4byte	.LASF257
 3312 0e81 11       		.byte	0x11
 3313 0e82 49       		.byte	0x49
 3314 0e83 AF0E0000 		.4byte	0xeaf
 3315 0e87 00       		.byte	0
 3316 0e88 0B       		.uleb128 0xb
 3317 0e89 8E0F0000 		.4byte	.LASF258
 3318 0e8d 11       		.byte	0x11
 3319 0e8e 4A       		.byte	0x4a
 3320 0e8f AF0E0000 		.4byte	0xeaf
 3321 0e93 80       		.byte	0x80
 3322 0e94 0D       		.uleb128 0xd
 3323 0e95 92110000 		.4byte	.LASF259
 3324 0e99 11       		.byte	0x11
 3325 0e9a 4C       		.byte	0x4c
 3326 0e9b 820D0000 		.4byte	0xd82
 3327 0e9f 0001     		.2byte	0x100
 3328 0ea1 0D       		.uleb128 0xd
 3329 0ea2 5A120000 		.4byte	.LASF260
 3330 0ea6 11       		.byte	0x11
 3331 0ea7 4F       		.byte	0x4f
 3332 0ea8 820D0000 		.4byte	0xd82
 3333 0eac 0401     		.2byte	0x104
 3334 0eae 00       		.byte	0
 3335 0eaf 07       		.uleb128 0x7
 3336 0eb0 830A0000 		.4byte	0xa83
 3337 0eb4 BF0E0000 		.4byte	0xebf
 3338 0eb8 08       		.uleb128 0x8
 3339 0eb9 E0000000 		.4byte	0xe0
 3340 0ebd 1F       		.byte	0x1f
 3341 0ebe 00       		.byte	0
 3342 0ebf 1D       		.uleb128 0x1d
 3343 0ec0 060C0000 		.4byte	.LASF261
 3344 0ec4 9001     		.2byte	0x190
 3345 0ec6 11       		.byte	0x11
 3346 0ec7 5B       		.byte	0x5b
 3347 0ec8 FD0E0000 		.4byte	0xefd
 3348 0ecc 0B       		.uleb128 0xb
 3349 0ecd 7F120000 		.4byte	.LASF242
 3350 0ed1 11       		.byte	0x11
 3351 0ed2 5C       		.byte	0x5c
 3352 0ed3 FD0E0000 		.4byte	0xefd
 3353 0ed7 00       		.byte	0
 3354 0ed8 0B       		.uleb128 0xb
 3355 0ed9 A2060000 		.4byte	.LASF262
 3356 0edd 11       		.byte	0x11
 3357 0ede 5D       		.byte	0x5d
 3358 0edf 25000000 		.4byte	0x25
 3359 0ee3 04       		.byte	0x4
 3360 0ee4 0B       		.uleb128 0xb
 3361 0ee5 0D040000 		.4byte	.LASF263
ARM GAS  C:\Users\dmula\AppData\Local\Temp\ccXnnfAd.s 			page 101


 3362 0ee9 11       		.byte	0x11
 3363 0eea 5F       		.byte	0x5f
 3364 0eeb 030F0000 		.4byte	0xf03
 3365 0eef 08       		.byte	0x8
 3366 0ef0 0B       		.uleb128 0xb
 3367 0ef1 CC000000 		.4byte	.LASF256
 3368 0ef5 11       		.byte	0x11
 3369 0ef6 60       		.byte	0x60
 3370 0ef7 6F0E0000 		.4byte	0xe6f
 3371 0efb 88       		.byte	0x88
 3372 0efc 00       		.byte	0
 3373 0efd 10       		.uleb128 0x10
 3374 0efe 04       		.byte	0x4
 3375 0eff BF0E0000 		.4byte	0xebf
 3376 0f03 07       		.uleb128 0x7
 3377 0f04 620A0000 		.4byte	0xa62
 3378 0f08 130F0000 		.4byte	0xf13
 3379 0f0c 08       		.uleb128 0x8
 3380 0f0d E0000000 		.4byte	0xe0
 3381 0f11 1F       		.byte	0x1f
 3382 0f12 00       		.byte	0
 3383 0f13 1C       		.uleb128 0x1c
 3384 0f14 65100000 		.4byte	.LASF264
 3385 0f18 08       		.byte	0x8
 3386 0f19 11       		.byte	0x11
 3387 0f1a 73       		.byte	0x73
 3388 0f1b 380F0000 		.4byte	0xf38
 3389 0f1f 0B       		.uleb128 0xb
 3390 0f20 C0090000 		.4byte	.LASF265
 3391 0f24 11       		.byte	0x11
 3392 0f25 74       		.byte	0x74
 3393 0f26 380F0000 		.4byte	0xf38
 3394 0f2a 00       		.byte	0
 3395 0f2b 0B       		.uleb128 0xb
 3396 0f2c B8110000 		.4byte	.LASF266
 3397 0f30 11       		.byte	0x11
 3398 0f31 75       		.byte	0x75
 3399 0f32 25000000 		.4byte	0x25
 3400 0f36 04       		.byte	0x4
 3401 0f37 00       		.byte	0
 3402 0f38 10       		.uleb128 0x10
 3403 0f39 04       		.byte	0x4
 3404 0f3a 4C000000 		.4byte	0x4c
 3405 0f3e 1C       		.uleb128 0x1c
 3406 0f3f AE050000 		.4byte	.LASF267
 3407 0f43 68       		.byte	0x68
 3408 0f44 11       		.byte	0x11
 3409 0f45 B3       		.byte	0xb3
 3410 0f46 68100000 		.4byte	0x1068
 3411 0f4a 0A       		.uleb128 0xa
 3412 0f4b 5F7000   		.ascii	"_p\000"
 3413 0f4e 11       		.byte	0x11
 3414 0f4f B4       		.byte	0xb4
 3415 0f50 380F0000 		.4byte	0xf38
 3416 0f54 00       		.byte	0
 3417 0f55 0A       		.uleb128 0xa
 3418 0f56 5F7200   		.ascii	"_r\000"
ARM GAS  C:\Users\dmula\AppData\Local\Temp\ccXnnfAd.s 			page 102


 3419 0f59 11       		.byte	0x11
 3420 0f5a B5       		.byte	0xb5
 3421 0f5b 25000000 		.4byte	0x25
 3422 0f5f 04       		.byte	0x4
 3423 0f60 0A       		.uleb128 0xa
 3424 0f61 5F7700   		.ascii	"_w\000"
 3425 0f64 11       		.byte	0x11
 3426 0f65 B6       		.byte	0xb6
 3427 0f66 25000000 		.4byte	0x25
 3428 0f6a 08       		.byte	0x8
 3429 0f6b 0B       		.uleb128 0xb
 3430 0f6c AE010000 		.4byte	.LASF268
 3431 0f70 11       		.byte	0x11
 3432 0f71 B7       		.byte	0xb7
 3433 0f72 33000000 		.4byte	0x33
 3434 0f76 0C       		.byte	0xc
 3435 0f77 0B       		.uleb128 0xb
 3436 0f78 060A0000 		.4byte	.LASF269
 3437 0f7c 11       		.byte	0x11
 3438 0f7d B8       		.byte	0xb8
 3439 0f7e 33000000 		.4byte	0x33
 3440 0f82 0E       		.byte	0xe
 3441 0f83 0A       		.uleb128 0xa
 3442 0f84 5F626600 		.ascii	"_bf\000"
 3443 0f88 11       		.byte	0x11
 3444 0f89 B9       		.byte	0xb9
 3445 0f8a 130F0000 		.4byte	0xf13
 3446 0f8e 10       		.byte	0x10
 3447 0f8f 0B       		.uleb128 0xb
 3448 0f90 A5010000 		.4byte	.LASF270
 3449 0f94 11       		.byte	0x11
 3450 0f95 BA       		.byte	0xba
 3451 0f96 25000000 		.4byte	0x25
 3452 0f9a 18       		.byte	0x18
 3453 0f9b 0B       		.uleb128 0xb
 3454 0f9c 12040000 		.4byte	.LASF271
 3455 0fa0 11       		.byte	0x11
 3456 0fa1 C1       		.byte	0xc1
 3457 0fa2 830A0000 		.4byte	0xa83
 3458 0fa6 1C       		.byte	0x1c
 3459 0fa7 0B       		.uleb128 0xb
 3460 0fa8 A2020000 		.4byte	.LASF272
 3461 0fac 11       		.byte	0x11
 3462 0fad C3       		.byte	0xc3
 3463 0fae C4110000 		.4byte	0x11c4
 3464 0fb2 20       		.byte	0x20
 3465 0fb3 0B       		.uleb128 0xb
 3466 0fb4 E2000000 		.4byte	.LASF273
 3467 0fb8 11       		.byte	0x11
 3468 0fb9 C5       		.byte	0xc5
 3469 0fba F3110000 		.4byte	0x11f3
 3470 0fbe 24       		.byte	0x24
 3471 0fbf 0B       		.uleb128 0xb
 3472 0fc0 79120000 		.4byte	.LASF274
 3473 0fc4 11       		.byte	0x11
 3474 0fc5 C8       		.byte	0xc8
 3475 0fc6 17120000 		.4byte	0x1217
ARM GAS  C:\Users\dmula\AppData\Local\Temp\ccXnnfAd.s 			page 103


 3476 0fca 28       		.byte	0x28
 3477 0fcb 0B       		.uleb128 0xb
 3478 0fcc F5080000 		.4byte	.LASF275
 3479 0fd0 11       		.byte	0x11
 3480 0fd1 C9       		.byte	0xc9
 3481 0fd2 31120000 		.4byte	0x1231
 3482 0fd6 2C       		.byte	0x2c
 3483 0fd7 0A       		.uleb128 0xa
 3484 0fd8 5F756200 		.ascii	"_ub\000"
 3485 0fdc 11       		.byte	0x11
 3486 0fdd CC       		.byte	0xcc
 3487 0fde 130F0000 		.4byte	0xf13
 3488 0fe2 30       		.byte	0x30
 3489 0fe3 0A       		.uleb128 0xa
 3490 0fe4 5F757000 		.ascii	"_up\000"
 3491 0fe8 11       		.byte	0x11
 3492 0fe9 CD       		.byte	0xcd
 3493 0fea 380F0000 		.4byte	0xf38
 3494 0fee 38       		.byte	0x38
 3495 0fef 0A       		.uleb128 0xa
 3496 0ff0 5F757200 		.ascii	"_ur\000"
 3497 0ff4 11       		.byte	0x11
 3498 0ff5 CE       		.byte	0xce
 3499 0ff6 25000000 		.4byte	0x25
 3500 0ffa 3C       		.byte	0x3c
 3501 0ffb 0B       		.uleb128 0xb
 3502 0ffc AF0A0000 		.4byte	.LASF276
 3503 1000 11       		.byte	0x11
 3504 1001 D1       		.byte	0xd1
 3505 1002 37120000 		.4byte	0x1237
 3506 1006 40       		.byte	0x40
 3507 1007 0B       		.uleb128 0xb
 3508 1008 20070000 		.4byte	.LASF277
 3509 100c 11       		.byte	0x11
 3510 100d D2       		.byte	0xd2
 3511 100e 47120000 		.4byte	0x1247
 3512 1012 43       		.byte	0x43
 3513 1013 0A       		.uleb128 0xa
 3514 1014 5F6C6200 		.ascii	"_lb\000"
 3515 1018 11       		.byte	0x11
 3516 1019 D5       		.byte	0xd5
 3517 101a 130F0000 		.4byte	0xf13
 3518 101e 44       		.byte	0x44
 3519 101f 0B       		.uleb128 0xb
 3520 1020 8A080000 		.4byte	.LASF278
 3521 1024 11       		.byte	0x11
 3522 1025 D8       		.byte	0xd8
 3523 1026 25000000 		.4byte	0x25
 3524 102a 4C       		.byte	0x4c
 3525 102b 0B       		.uleb128 0xb
 3526 102c 050E0000 		.4byte	.LASF279
 3527 1030 11       		.byte	0x11
 3528 1031 D9       		.byte	0xd9
 3529 1032 FA0C0000 		.4byte	0xcfa
 3530 1036 50       		.byte	0x50
 3531 1037 0B       		.uleb128 0xb
 3532 1038 CF0D0000 		.4byte	.LASF280
ARM GAS  C:\Users\dmula\AppData\Local\Temp\ccXnnfAd.s 			page 104


 3533 103c 11       		.byte	0x11
 3534 103d DC       		.byte	0xdc
 3535 103e 86100000 		.4byte	0x1086
 3536 1042 54       		.byte	0x54
 3537 1043 0B       		.uleb128 0xb
 3538 1044 F00E0000 		.4byte	.LASF281
 3539 1048 11       		.byte	0x11
 3540 1049 E0       		.byte	0xe0
 3541 104a 770D0000 		.4byte	0xd77
 3542 104e 58       		.byte	0x58
 3543 104f 0B       		.uleb128 0xb
 3544 1050 0E0C0000 		.4byte	.LASF282
 3545 1054 11       		.byte	0x11
 3546 1055 E2       		.byte	0xe2
 3547 1056 6C0D0000 		.4byte	0xd6c
 3548 105a 5C       		.byte	0x5c
 3549 105b 0B       		.uleb128 0xb
 3550 105c 52120000 		.4byte	.LASF283
 3551 1060 11       		.byte	0x11
 3552 1061 E3       		.byte	0xe3
 3553 1062 25000000 		.4byte	0x25
 3554 1066 64       		.byte	0x64
 3555 1067 00       		.byte	0
 3556 1068 1E       		.uleb128 0x1e
 3557 1069 25000000 		.4byte	0x25
 3558 106d 86100000 		.4byte	0x1086
 3559 1071 18       		.uleb128 0x18
 3560 1072 86100000 		.4byte	0x1086
 3561 1076 18       		.uleb128 0x18
 3562 1077 830A0000 		.4byte	0xa83
 3563 107b 18       		.uleb128 0x18
 3564 107c BE110000 		.4byte	0x11be
 3565 1080 18       		.uleb128 0x18
 3566 1081 25000000 		.4byte	0x25
 3567 1085 00       		.byte	0
 3568 1086 10       		.uleb128 0x10
 3569 1087 04       		.byte	0x4
 3570 1088 8C100000 		.4byte	0x108c
 3571 108c 1F       		.uleb128 0x1f
 3572 108d 04110000 		.4byte	.LASF284
 3573 1091 2804     		.2byte	0x428
 3574 1093 11       		.byte	0x11
 3575 1094 3802     		.2byte	0x238
 3576 1096 BE110000 		.4byte	0x11be
 3577 109a 16       		.uleb128 0x16
 3578 109b C5000000 		.4byte	.LASF285
 3579 109f 11       		.byte	0x11
 3580 10a0 3A02     		.2byte	0x23a
 3581 10a2 25000000 		.4byte	0x25
 3582 10a6 00       		.byte	0
 3583 10a7 16       		.uleb128 0x16
 3584 10a8 65090000 		.4byte	.LASF286
 3585 10ac 11       		.byte	0x11
 3586 10ad 3F02     		.2byte	0x23f
 3587 10af 9E120000 		.4byte	0x129e
 3588 10b3 04       		.byte	0x4
 3589 10b4 16       		.uleb128 0x16
ARM GAS  C:\Users\dmula\AppData\Local\Temp\ccXnnfAd.s 			page 105


 3590 10b5 1A030000 		.4byte	.LASF287
 3591 10b9 11       		.byte	0x11
 3592 10ba 3F02     		.2byte	0x23f
 3593 10bc 9E120000 		.4byte	0x129e
 3594 10c0 08       		.byte	0x8
 3595 10c1 16       		.uleb128 0x16
 3596 10c2 90120000 		.4byte	.LASF288
 3597 10c6 11       		.byte	0x11
 3598 10c7 3F02     		.2byte	0x23f
 3599 10c9 9E120000 		.4byte	0x129e
 3600 10cd 0C       		.byte	0xc
 3601 10ce 16       		.uleb128 0x16
 3602 10cf CD060000 		.4byte	.LASF289
 3603 10d3 11       		.byte	0x11
 3604 10d4 4102     		.2byte	0x241
 3605 10d6 25000000 		.4byte	0x25
 3606 10da 10       		.byte	0x10
 3607 10db 16       		.uleb128 0x16
 3608 10dc 43060000 		.4byte	.LASF290
 3609 10e0 11       		.byte	0x11
 3610 10e1 4202     		.2byte	0x242
 3611 10e3 80140000 		.4byte	0x1480
 3612 10e7 14       		.byte	0x14
 3613 10e8 16       		.uleb128 0x16
 3614 10e9 280F0000 		.4byte	.LASF291
 3615 10ed 11       		.byte	0x11
 3616 10ee 4402     		.2byte	0x244
 3617 10f0 25000000 		.4byte	0x25
 3618 10f4 30       		.byte	0x30
 3619 10f5 16       		.uleb128 0x16
 3620 10f6 B80D0000 		.4byte	.LASF292
 3621 10fa 11       		.byte	0x11
 3622 10fb 4502     		.2byte	0x245
 3623 10fd E8110000 		.4byte	0x11e8
 3624 1101 34       		.byte	0x34
 3625 1102 16       		.uleb128 0x16
 3626 1103 10020000 		.4byte	.LASF293
 3627 1107 11       		.byte	0x11
 3628 1108 4702     		.2byte	0x247
 3629 110a 25000000 		.4byte	0x25
 3630 110e 38       		.byte	0x38
 3631 110f 16       		.uleb128 0x16
 3632 1110 3B0A0000 		.4byte	.LASF294
 3633 1114 11       		.byte	0x11
 3634 1115 4902     		.2byte	0x249
 3635 1117 9B140000 		.4byte	0x149b
 3636 111b 3C       		.byte	0x3c
 3637 111c 16       		.uleb128 0x16
 3638 111d 72040000 		.4byte	.LASF295
 3639 1121 11       		.byte	0x11
 3640 1122 4C02     		.2byte	0x24c
 3641 1124 E00D0000 		.4byte	0xde0
 3642 1128 40       		.byte	0x40
 3643 1129 16       		.uleb128 0x16
 3644 112a A8080000 		.4byte	.LASF296
 3645 112e 11       		.byte	0x11
 3646 112f 4D02     		.2byte	0x24d
ARM GAS  C:\Users\dmula\AppData\Local\Temp\ccXnnfAd.s 			page 106


 3647 1131 25000000 		.4byte	0x25
 3648 1135 44       		.byte	0x44
 3649 1136 16       		.uleb128 0x16
 3650 1137 88070000 		.4byte	.LASF297
 3651 113b 11       		.byte	0x11
 3652 113c 4E02     		.2byte	0x24e
 3653 113e E00D0000 		.4byte	0xde0
 3654 1142 48       		.byte	0x48
 3655 1143 16       		.uleb128 0x16
 3656 1144 C6090000 		.4byte	.LASF298
 3657 1148 11       		.byte	0x11
 3658 1149 4F02     		.2byte	0x24f
 3659 114b A1140000 		.4byte	0x14a1
 3660 114f 4C       		.byte	0x4c
 3661 1150 16       		.uleb128 0x16
 3662 1151 DB050000 		.4byte	.LASF299
 3663 1155 11       		.byte	0x11
 3664 1156 5202     		.2byte	0x252
 3665 1158 25000000 		.4byte	0x25
 3666 115c 50       		.byte	0x50
 3667 115d 16       		.uleb128 0x16
 3668 115e BB0F0000 		.4byte	.LASF300
 3669 1162 11       		.byte	0x11
 3670 1163 5302     		.2byte	0x253
 3671 1165 BE110000 		.4byte	0x11be
 3672 1169 54       		.byte	0x54
 3673 116a 16       		.uleb128 0x16
 3674 116b 430E0000 		.4byte	.LASF301
 3675 116f 11       		.byte	0x11
 3676 1170 7602     		.2byte	0x276
 3677 1172 5E140000 		.4byte	0x145e
 3678 1176 58       		.byte	0x58
 3679 1177 20       		.uleb128 0x20
 3680 1178 060C0000 		.4byte	.LASF261
 3681 117c 11       		.byte	0x11
 3682 117d 7A02     		.2byte	0x27a
 3683 117f FD0E0000 		.4byte	0xefd
 3684 1183 4801     		.2byte	0x148
 3685 1185 20       		.uleb128 0x20
 3686 1186 B40B0000 		.4byte	.LASF302
 3687 118a 11       		.byte	0x11
 3688 118b 7B02     		.2byte	0x27b
 3689 118d BF0E0000 		.4byte	0xebf
 3690 1191 4C01     		.2byte	0x14c
 3691 1193 20       		.uleb128 0x20
 3692 1194 20080000 		.4byte	.LASF303
 3693 1198 11       		.byte	0x11
 3694 1199 7F02     		.2byte	0x27f
 3695 119b B2140000 		.4byte	0x14b2
 3696 119f DC02     		.2byte	0x2dc
 3697 11a1 20       		.uleb128 0x20
 3698 11a2 72100000 		.4byte	.LASF304
 3699 11a6 11       		.byte	0x11
 3700 11a7 8402     		.2byte	0x284
 3701 11a9 63120000 		.4byte	0x1263
 3702 11ad E002     		.2byte	0x2e0
 3703 11af 20       		.uleb128 0x20
ARM GAS  C:\Users\dmula\AppData\Local\Temp\ccXnnfAd.s 			page 107


 3704 11b0 530E0000 		.4byte	.LASF305
 3705 11b4 11       		.byte	0x11
 3706 11b5 8502     		.2byte	0x285
 3707 11b7 BE140000 		.4byte	0x14be
 3708 11bb EC02     		.2byte	0x2ec
 3709 11bd 00       		.byte	0
 3710 11be 10       		.uleb128 0x10
 3711 11bf 04       		.byte	0x4
 3712 11c0 750A0000 		.4byte	0xa75
 3713 11c4 10       		.uleb128 0x10
 3714 11c5 04       		.byte	0x4
 3715 11c6 68100000 		.4byte	0x1068
 3716 11ca 1E       		.uleb128 0x1e
 3717 11cb 25000000 		.4byte	0x25
 3718 11cf E8110000 		.4byte	0x11e8
 3719 11d3 18       		.uleb128 0x18
 3720 11d4 86100000 		.4byte	0x1086
 3721 11d8 18       		.uleb128 0x18
 3722 11d9 830A0000 		.4byte	0xa83
 3723 11dd 18       		.uleb128 0x18
 3724 11de E8110000 		.4byte	0x11e8
 3725 11e2 18       		.uleb128 0x18
 3726 11e3 25000000 		.4byte	0x25
 3727 11e7 00       		.byte	0
 3728 11e8 10       		.uleb128 0x10
 3729 11e9 04       		.byte	0x4
 3730 11ea EE110000 		.4byte	0x11ee
 3731 11ee 06       		.uleb128 0x6
 3732 11ef 750A0000 		.4byte	0xa75
 3733 11f3 10       		.uleb128 0x10
 3734 11f4 04       		.byte	0x4
 3735 11f5 CA110000 		.4byte	0x11ca
 3736 11f9 1E       		.uleb128 0x1e
 3737 11fa 050D0000 		.4byte	0xd05
 3738 11fe 17120000 		.4byte	0x1217
 3739 1202 18       		.uleb128 0x18
 3740 1203 86100000 		.4byte	0x1086
 3741 1207 18       		.uleb128 0x18
 3742 1208 830A0000 		.4byte	0xa83
 3743 120c 18       		.uleb128 0x18
 3744 120d 050D0000 		.4byte	0xd05
 3745 1211 18       		.uleb128 0x18
 3746 1212 25000000 		.4byte	0x25
 3747 1216 00       		.byte	0
 3748 1217 10       		.uleb128 0x10
 3749 1218 04       		.byte	0x4
 3750 1219 F9110000 		.4byte	0x11f9
 3751 121d 1E       		.uleb128 0x1e
 3752 121e 25000000 		.4byte	0x25
 3753 1222 31120000 		.4byte	0x1231
 3754 1226 18       		.uleb128 0x18
 3755 1227 86100000 		.4byte	0x1086
 3756 122b 18       		.uleb128 0x18
 3757 122c 830A0000 		.4byte	0xa83
 3758 1230 00       		.byte	0
 3759 1231 10       		.uleb128 0x10
 3760 1232 04       		.byte	0x4
ARM GAS  C:\Users\dmula\AppData\Local\Temp\ccXnnfAd.s 			page 108


 3761 1233 1D120000 		.4byte	0x121d
 3762 1237 07       		.uleb128 0x7
 3763 1238 4C000000 		.4byte	0x4c
 3764 123c 47120000 		.4byte	0x1247
 3765 1240 08       		.uleb128 0x8
 3766 1241 E0000000 		.4byte	0xe0
 3767 1245 02       		.byte	0x2
 3768 1246 00       		.byte	0
 3769 1247 07       		.uleb128 0x7
 3770 1248 4C000000 		.4byte	0x4c
 3771 124c 57120000 		.4byte	0x1257
 3772 1250 08       		.uleb128 0x8
 3773 1251 E0000000 		.4byte	0xe0
 3774 1255 00       		.byte	0
 3775 1256 00       		.byte	0
 3776 1257 0F       		.uleb128 0xf
 3777 1258 E3050000 		.4byte	.LASF306
 3778 125c 11       		.byte	0x11
 3779 125d 1D01     		.2byte	0x11d
 3780 125f 3E0F0000 		.4byte	0xf3e
 3781 1263 19       		.uleb128 0x19
 3782 1264 6C100000 		.4byte	.LASF307
 3783 1268 0C       		.byte	0xc
 3784 1269 11       		.byte	0x11
 3785 126a 2101     		.2byte	0x121
 3786 126c 98120000 		.4byte	0x1298
 3787 1270 16       		.uleb128 0x16
 3788 1271 7F120000 		.4byte	.LASF242
 3789 1275 11       		.byte	0x11
 3790 1276 2301     		.2byte	0x123
 3791 1278 98120000 		.4byte	0x1298
 3792 127c 00       		.byte	0
 3793 127d 16       		.uleb128 0x16
 3794 127e 210F0000 		.4byte	.LASF308
 3795 1282 11       		.byte	0x11
 3796 1283 2401     		.2byte	0x124
 3797 1285 25000000 		.4byte	0x25
 3798 1289 04       		.byte	0x4
 3799 128a 16       		.uleb128 0x16
 3800 128b A1120000 		.4byte	.LASF309
 3801 128f 11       		.byte	0x11
 3802 1290 2501     		.2byte	0x125
 3803 1292 9E120000 		.4byte	0x129e
 3804 1296 08       		.byte	0x8
 3805 1297 00       		.byte	0
 3806 1298 10       		.uleb128 0x10
 3807 1299 04       		.byte	0x4
 3808 129a 63120000 		.4byte	0x1263
 3809 129e 10       		.uleb128 0x10
 3810 129f 04       		.byte	0x4
 3811 12a0 57120000 		.4byte	0x1257
 3812 12a4 19       		.uleb128 0x19
 3813 12a5 E1040000 		.4byte	.LASF310
 3814 12a9 0E       		.byte	0xe
 3815 12aa 11       		.byte	0x11
 3816 12ab 3D01     		.2byte	0x13d
 3817 12ad D9120000 		.4byte	0x12d9
ARM GAS  C:\Users\dmula\AppData\Local\Temp\ccXnnfAd.s 			page 109


 3818 12b1 16       		.uleb128 0x16
 3819 12b2 68120000 		.4byte	.LASF311
 3820 12b6 11       		.byte	0x11
 3821 12b7 3E01     		.2byte	0x13e
 3822 12b9 D9120000 		.4byte	0x12d9
 3823 12bd 00       		.byte	0
 3824 12be 16       		.uleb128 0x16
 3825 12bf BB060000 		.4byte	.LASF312
 3826 12c3 11       		.byte	0x11
 3827 12c4 3F01     		.2byte	0x13f
 3828 12c6 D9120000 		.4byte	0x12d9
 3829 12ca 06       		.byte	0x6
 3830 12cb 16       		.uleb128 0x16
 3831 12cc E2090000 		.4byte	.LASF313
 3832 12d0 11       		.byte	0x11
 3833 12d1 4001     		.2byte	0x140
 3834 12d3 69000000 		.4byte	0x69
 3835 12d7 0C       		.byte	0xc
 3836 12d8 00       		.byte	0
 3837 12d9 07       		.uleb128 0x7
 3838 12da 69000000 		.4byte	0x69
 3839 12de E9120000 		.4byte	0x12e9
 3840 12e2 08       		.uleb128 0x8
 3841 12e3 E0000000 		.4byte	0xe0
 3842 12e7 02       		.byte	0x2
 3843 12e8 00       		.byte	0
 3844 12e9 15       		.uleb128 0x15
 3845 12ea D0       		.byte	0xd0
 3846 12eb 11       		.byte	0x11
 3847 12ec 5702     		.2byte	0x257
 3848 12ee EA130000 		.4byte	0x13ea
 3849 12f2 16       		.uleb128 0x16
 3850 12f3 0D030000 		.4byte	.LASF314
 3851 12f7 11       		.byte	0x11
 3852 12f8 5902     		.2byte	0x259
 3853 12fa A2000000 		.4byte	0xa2
 3854 12fe 00       		.byte	0
 3855 12ff 16       		.uleb128 0x16
 3856 1300 8B100000 		.4byte	.LASF315
 3857 1304 11       		.byte	0x11
 3858 1305 5A02     		.2byte	0x25a
 3859 1307 BE110000 		.4byte	0x11be
 3860 130b 04       		.byte	0x4
 3861 130c 16       		.uleb128 0x16
 3862 130d A7060000 		.4byte	.LASF316
 3863 1311 11       		.byte	0x11
 3864 1312 5B02     		.2byte	0x25b
 3865 1314 EA130000 		.4byte	0x13ea
 3866 1318 08       		.byte	0x8
 3867 1319 16       		.uleb128 0x16
 3868 131a 0D0E0000 		.4byte	.LASF317
 3869 131e 11       		.byte	0x11
 3870 131f 5C02     		.2byte	0x25c
 3871 1321 F60D0000 		.4byte	0xdf6
 3872 1325 24       		.byte	0x24
 3873 1326 16       		.uleb128 0x16
 3874 1327 6C090000 		.4byte	.LASF318
ARM GAS  C:\Users\dmula\AppData\Local\Temp\ccXnnfAd.s 			page 110


 3875 132b 11       		.byte	0x11
 3876 132c 5D02     		.2byte	0x25d
 3877 132e 25000000 		.4byte	0x25
 3878 1332 48       		.byte	0x48
 3879 1333 16       		.uleb128 0x16
 3880 1334 6E120000 		.4byte	.LASF319
 3881 1338 11       		.byte	0x11
 3882 1339 5E02     		.2byte	0x25e
 3883 133b 9B000000 		.4byte	0x9b
 3884 133f 50       		.byte	0x50
 3885 1340 16       		.uleb128 0x16
 3886 1341 11010000 		.4byte	.LASF320
 3887 1345 11       		.byte	0x11
 3888 1346 5F02     		.2byte	0x25f
 3889 1348 A4120000 		.4byte	0x12a4
 3890 134c 58       		.byte	0x58
 3891 134d 16       		.uleb128 0x16
 3892 134e BC070000 		.4byte	.LASF321
 3893 1352 11       		.byte	0x11
 3894 1353 6002     		.2byte	0x260
 3895 1355 6C0D0000 		.4byte	0xd6c
 3896 1359 68       		.byte	0x68
 3897 135a 16       		.uleb128 0x16
 3898 135b 98100000 		.4byte	.LASF322
 3899 135f 11       		.byte	0x11
 3900 1360 6102     		.2byte	0x261
 3901 1362 6C0D0000 		.4byte	0xd6c
 3902 1366 70       		.byte	0x70
 3903 1367 16       		.uleb128 0x16
 3904 1368 03010000 		.4byte	.LASF323
 3905 136c 11       		.byte	0x11
 3906 136d 6202     		.2byte	0x262
 3907 136f 6C0D0000 		.4byte	0xd6c
 3908 1373 78       		.byte	0x78
 3909 1374 16       		.uleb128 0x16
 3910 1375 600E0000 		.4byte	.LASF324
 3911 1379 11       		.byte	0x11
 3912 137a 6302     		.2byte	0x263
 3913 137c FA130000 		.4byte	0x13fa
 3914 1380 80       		.byte	0x80
 3915 1381 16       		.uleb128 0x16
 3916 1382 38010000 		.4byte	.LASF325
 3917 1386 11       		.byte	0x11
 3918 1387 6402     		.2byte	0x264
 3919 1389 0A140000 		.4byte	0x140a
 3920 138d 88       		.byte	0x88
 3921 138e 16       		.uleb128 0x16
 3922 138f 17100000 		.4byte	.LASF326
 3923 1393 11       		.byte	0x11
 3924 1394 6502     		.2byte	0x265
 3925 1396 25000000 		.4byte	0x25
 3926 139a A0       		.byte	0xa0
 3927 139b 16       		.uleb128 0x16
 3928 139c BF020000 		.4byte	.LASF327
 3929 13a0 11       		.byte	0x11
 3930 13a1 6602     		.2byte	0x266
 3931 13a3 6C0D0000 		.4byte	0xd6c
ARM GAS  C:\Users\dmula\AppData\Local\Temp\ccXnnfAd.s 			page 111


 3932 13a7 A4       		.byte	0xa4
 3933 13a8 16       		.uleb128 0x16
 3934 13a9 2A080000 		.4byte	.LASF328
 3935 13ad 11       		.byte	0x11
 3936 13ae 6702     		.2byte	0x267
 3937 13b0 6C0D0000 		.4byte	0xd6c
 3938 13b4 AC       		.byte	0xac
 3939 13b5 16       		.uleb128 0x16
 3940 13b6 3C050000 		.4byte	.LASF329
 3941 13ba 11       		.byte	0x11
 3942 13bb 6802     		.2byte	0x268
 3943 13bd 6C0D0000 		.4byte	0xd6c
 3944 13c1 B4       		.byte	0xb4
 3945 13c2 16       		.uleb128 0x16
 3946 13c3 F7090000 		.4byte	.LASF330
 3947 13c7 11       		.byte	0x11
 3948 13c8 6902     		.2byte	0x269
 3949 13ca 6C0D0000 		.4byte	0xd6c
 3950 13ce BC       		.byte	0xbc
 3951 13cf 16       		.uleb128 0x16
 3952 13d0 C70A0000 		.4byte	.LASF331
 3953 13d4 11       		.byte	0x11
 3954 13d5 6A02     		.2byte	0x26a
 3955 13d7 6C0D0000 		.4byte	0xd6c
 3956 13db C4       		.byte	0xc4
 3957 13dc 16       		.uleb128 0x16
 3958 13dd F60A0000 		.4byte	.LASF332
 3959 13e1 11       		.byte	0x11
 3960 13e2 6B02     		.2byte	0x26b
 3961 13e4 25000000 		.4byte	0x25
 3962 13e8 CC       		.byte	0xcc
 3963 13e9 00       		.byte	0
 3964 13ea 07       		.uleb128 0x7
 3965 13eb 750A0000 		.4byte	0xa75
 3966 13ef FA130000 		.4byte	0x13fa
 3967 13f3 08       		.uleb128 0x8
 3968 13f4 E0000000 		.4byte	0xe0
 3969 13f8 19       		.byte	0x19
 3970 13f9 00       		.byte	0
 3971 13fa 07       		.uleb128 0x7
 3972 13fb 750A0000 		.4byte	0xa75
 3973 13ff 0A140000 		.4byte	0x140a
 3974 1403 08       		.uleb128 0x8
 3975 1404 E0000000 		.4byte	0xe0
 3976 1408 07       		.byte	0x7
 3977 1409 00       		.byte	0
 3978 140a 07       		.uleb128 0x7
 3979 140b 750A0000 		.4byte	0xa75
 3980 140f 1A140000 		.4byte	0x141a
 3981 1413 08       		.uleb128 0x8
 3982 1414 E0000000 		.4byte	0xe0
 3983 1418 17       		.byte	0x17
 3984 1419 00       		.byte	0
 3985 141a 15       		.uleb128 0x15
 3986 141b F0       		.byte	0xf0
 3987 141c 11       		.byte	0x11
 3988 141d 7002     		.2byte	0x270
ARM GAS  C:\Users\dmula\AppData\Local\Temp\ccXnnfAd.s 			page 112


 3989 141f 3E140000 		.4byte	0x143e
 3990 1423 16       		.uleb128 0x16
 3991 1424 1A050000 		.4byte	.LASF333
 3992 1428 11       		.byte	0x11
 3993 1429 7302     		.2byte	0x273
 3994 142b 3E140000 		.4byte	0x143e
 3995 142f 00       		.byte	0
 3996 1430 16       		.uleb128 0x16
 3997 1431 98120000 		.4byte	.LASF334
 3998 1435 11       		.byte	0x11
 3999 1436 7402     		.2byte	0x274
 4000 1438 4E140000 		.4byte	0x144e
 4001 143c 78       		.byte	0x78
 4002 143d 00       		.byte	0
 4003 143e 07       		.uleb128 0x7
 4004 143f 380F0000 		.4byte	0xf38
 4005 1443 4E140000 		.4byte	0x144e
 4006 1447 08       		.uleb128 0x8
 4007 1448 E0000000 		.4byte	0xe0
 4008 144c 1D       		.byte	0x1d
 4009 144d 00       		.byte	0
 4010 144e 07       		.uleb128 0x7
 4011 144f A2000000 		.4byte	0xa2
 4012 1453 5E140000 		.4byte	0x145e
 4013 1457 08       		.uleb128 0x8
 4014 1458 E0000000 		.4byte	0xe0
 4015 145c 1D       		.byte	0x1d
 4016 145d 00       		.byte	0
 4017 145e 21       		.uleb128 0x21
 4018 145f F0       		.byte	0xf0
 4019 1460 11       		.byte	0x11
 4020 1461 5502     		.2byte	0x255
 4021 1463 80140000 		.4byte	0x1480
 4022 1467 22       		.uleb128 0x22
 4023 1468 04110000 		.4byte	.LASF284
 4024 146c 11       		.byte	0x11
 4025 146d 6C02     		.2byte	0x26c
 4026 146f E9120000 		.4byte	0x12e9
 4027 1473 22       		.uleb128 0x22
 4028 1474 52100000 		.4byte	.LASF335
 4029 1478 11       		.byte	0x11
 4030 1479 7502     		.2byte	0x275
 4031 147b 1A140000 		.4byte	0x141a
 4032 147f 00       		.byte	0
 4033 1480 07       		.uleb128 0x7
 4034 1481 750A0000 		.4byte	0xa75
 4035 1485 90140000 		.4byte	0x1490
 4036 1489 08       		.uleb128 0x8
 4037 148a E0000000 		.4byte	0xe0
 4038 148e 18       		.byte	0x18
 4039 148f 00       		.byte	0
 4040 1490 17       		.uleb128 0x17
 4041 1491 9B140000 		.4byte	0x149b
 4042 1495 18       		.uleb128 0x18
 4043 1496 86100000 		.4byte	0x1086
 4044 149a 00       		.byte	0
 4045 149b 10       		.uleb128 0x10
ARM GAS  C:\Users\dmula\AppData\Local\Temp\ccXnnfAd.s 			page 113


 4046 149c 04       		.byte	0x4
 4047 149d 90140000 		.4byte	0x1490
 4048 14a1 10       		.uleb128 0x10
 4049 14a2 04       		.byte	0x4
 4050 14a3 E00D0000 		.4byte	0xde0
 4051 14a7 17       		.uleb128 0x17
 4052 14a8 B2140000 		.4byte	0x14b2
 4053 14ac 18       		.uleb128 0x18
 4054 14ad 25000000 		.4byte	0x25
 4055 14b1 00       		.byte	0
 4056 14b2 10       		.uleb128 0x10
 4057 14b3 04       		.byte	0x4
 4058 14b4 B8140000 		.4byte	0x14b8
 4059 14b8 10       		.uleb128 0x10
 4060 14b9 04       		.byte	0x4
 4061 14ba A7140000 		.4byte	0x14a7
 4062 14be 07       		.uleb128 0x7
 4063 14bf 57120000 		.4byte	0x1257
 4064 14c3 CE140000 		.4byte	0x14ce
 4065 14c7 08       		.uleb128 0x8
 4066 14c8 E0000000 		.4byte	0xe0
 4067 14cc 02       		.byte	0x2
 4068 14cd 00       		.byte	0
 4069 14ce 23       		.uleb128 0x23
 4070 14cf A0050000 		.4byte	.LASF368
 4071 14d3 02       		.byte	0x2
 4072 14d4 2503     		.2byte	0x325
 4073 14d6 03       		.byte	0x3
 4074 14d7 00150000 		.4byte	0x1500
 4075 14db 24       		.uleb128 0x24
 4076 14dc 15050000 		.4byte	.LASF336
 4077 14e0 02       		.byte	0x2
 4078 14e1 2503     		.2byte	0x325
 4079 14e3 00150000 		.4byte	0x1500
 4080 14e7 24       		.uleb128 0x24
 4081 14e8 B7100000 		.4byte	.LASF337
 4082 14ec 02       		.byte	0x2
 4083 14ed 2503     		.2byte	0x325
 4084 14ef D5000000 		.4byte	0xd5
 4085 14f3 24       		.uleb128 0x24
 4086 14f4 2C060000 		.4byte	.LASF338
 4087 14f8 02       		.byte	0x2
 4088 14f9 2503     		.2byte	0x325
 4089 14fb D5000000 		.4byte	0xd5
 4090 14ff 00       		.byte	0
 4091 1500 10       		.uleb128 0x10
 4092 1501 04       		.byte	0x4
 4093 1502 1B060000 		.4byte	0x61b
 4094 1506 25       		.uleb128 0x25
 4095 1507 1C060000 		.4byte	.LASF339
 4096 150b 02       		.byte	0x2
 4097 150c 4903     		.2byte	0x349
 4098 150e D5000000 		.4byte	0xd5
 4099 1512 03       		.byte	0x3
 4100 1513 30150000 		.4byte	0x1530
 4101 1517 24       		.uleb128 0x24
 4102 1518 15050000 		.4byte	.LASF336
ARM GAS  C:\Users\dmula\AppData\Local\Temp\ccXnnfAd.s 			page 114


 4103 151c 02       		.byte	0x2
 4104 151d 4903     		.2byte	0x349
 4105 151f 00150000 		.4byte	0x1500
 4106 1523 24       		.uleb128 0x24
 4107 1524 B7100000 		.4byte	.LASF337
 4108 1528 02       		.byte	0x2
 4109 1529 4903     		.2byte	0x349
 4110 152b D5000000 		.4byte	0xd5
 4111 152f 00       		.byte	0
 4112 1530 26       		.uleb128 0x26
 4113 1531 73110000 		.4byte	.LASF369
 4114 1535 03       		.byte	0x3
 4115 1536 81       		.byte	0x81
 4116 1537 03       		.byte	0x3
 4117 1538 25       		.uleb128 0x25
 4118 1539 44010000 		.4byte	.LASF340
 4119 153d 02       		.byte	0x2
 4120 153e 0703     		.2byte	0x307
 4121 1540 D5000000 		.4byte	0xd5
 4122 1544 03       		.byte	0x3
 4123 1545 62150000 		.4byte	0x1562
 4124 1549 24       		.uleb128 0x24
 4125 154a 15050000 		.4byte	.LASF336
 4126 154e 02       		.byte	0x2
 4127 154f 0703     		.2byte	0x307
 4128 1551 00150000 		.4byte	0x1500
 4129 1555 24       		.uleb128 0x24
 4130 1556 B7100000 		.4byte	.LASF337
 4131 155a 02       		.byte	0x2
 4132 155b 0703     		.2byte	0x307
 4133 155d D5000000 		.4byte	0xd5
 4134 1561 00       		.byte	0
 4135 1562 27       		.uleb128 0x27
 4136 1563 B10F0000 		.4byte	.LASF341
 4137 1567 01       		.byte	0x1
 4138 1568 11       		.byte	0x11
 4139 1569 00000000 		.4byte	.LFB529
 4140 156d 60010000 		.4byte	.LFE529-.LFB529
 4141 1571 01       		.uleb128 0x1
 4142 1572 9C       		.byte	0x9c
 4143 1573 40210000 		.4byte	0x2140
 4144 1577 28       		.uleb128 0x28
 4145 1578 696E00   		.ascii	"in\000"
 4146 157b 01       		.byte	0x1
 4147 157c 11       		.byte	0x11
 4148 157d 25000000 		.4byte	0x25
 4149 1581 01       		.uleb128 0x1
 4150 1582 50       		.byte	0x50
 4151 1583 29       		.uleb128 0x29
 4152 1584 CE140000 		.4byte	0x14ce
 4153 1588 1A000000 		.4byte	.LBB282
 4154 158c 06000000 		.4byte	.LBE282-.LBB282
 4155 1590 01       		.byte	0x1
 4156 1591 15       		.byte	0x15
 4157 1592 B2150000 		.4byte	0x15b2
 4158 1596 2A       		.uleb128 0x2a
 4159 1597 F3140000 		.4byte	0x14f3
ARM GAS  C:\Users\dmula\AppData\Local\Temp\ccXnnfAd.s 			page 115


 4160 159b 00000000 		.4byte	.LLST0
 4161 159f 2A       		.uleb128 0x2a
 4162 15a0 E7140000 		.4byte	0x14e7
 4163 15a4 00000000 		.4byte	.LLST0
 4164 15a8 2A       		.uleb128 0x2a
 4165 15a9 DB140000 		.4byte	0x14db
 4166 15ad 14000000 		.4byte	.LLST2
 4167 15b1 00       		.byte	0
 4168 15b2 29       		.uleb128 0x29
 4169 15b3 CE140000 		.4byte	0x14ce
 4170 15b7 20000000 		.4byte	.LBB284
 4171 15bb 04000000 		.4byte	.LBE284-.LBB284
 4172 15bf 01       		.byte	0x1
 4173 15c0 16       		.byte	0x16
 4174 15c1 E1150000 		.4byte	0x15e1
 4175 15c5 2A       		.uleb128 0x2a
 4176 15c6 F3140000 		.4byte	0x14f3
 4177 15ca 2C000000 		.4byte	.LLST3
 4178 15ce 2A       		.uleb128 0x2a
 4179 15cf E7140000 		.4byte	0x14e7
 4180 15d3 40000000 		.4byte	.LLST4
 4181 15d7 2A       		.uleb128 0x2a
 4182 15d8 DB140000 		.4byte	0x14db
 4183 15dc 54000000 		.4byte	.LLST5
 4184 15e0 00       		.byte	0
 4185 15e1 29       		.uleb128 0x29
 4186 15e2 CE140000 		.4byte	0x14ce
 4187 15e6 24000000 		.4byte	.LBB286
 4188 15ea 04000000 		.4byte	.LBE286-.LBB286
 4189 15ee 01       		.byte	0x1
 4190 15ef 17       		.byte	0x17
 4191 15f0 10160000 		.4byte	0x1610
 4192 15f4 2A       		.uleb128 0x2a
 4193 15f5 F3140000 		.4byte	0x14f3
 4194 15f9 6C000000 		.4byte	.LLST6
 4195 15fd 2A       		.uleb128 0x2a
 4196 15fe E7140000 		.4byte	0x14e7
 4197 1602 80000000 		.4byte	.LLST7
 4198 1606 2A       		.uleb128 0x2a
 4199 1607 DB140000 		.4byte	0x14db
 4200 160b 94000000 		.4byte	.LLST8
 4201 160f 00       		.byte	0
 4202 1610 29       		.uleb128 0x29
 4203 1611 CE140000 		.4byte	0x14ce
 4204 1615 28000000 		.4byte	.LBB288
 4205 1619 06000000 		.4byte	.LBE288-.LBB288
 4206 161d 01       		.byte	0x1
 4207 161e 18       		.byte	0x18
 4208 161f 3F160000 		.4byte	0x163f
 4209 1623 2A       		.uleb128 0x2a
 4210 1624 F3140000 		.4byte	0x14f3
 4211 1628 AC000000 		.4byte	.LLST9
 4212 162c 2A       		.uleb128 0x2a
 4213 162d E7140000 		.4byte	0x14e7
 4214 1631 C0000000 		.4byte	.LLST10
 4215 1635 2A       		.uleb128 0x2a
 4216 1636 DB140000 		.4byte	0x14db
ARM GAS  C:\Users\dmula\AppData\Local\Temp\ccXnnfAd.s 			page 116


 4217 163a D4000000 		.4byte	.LLST11
 4218 163e 00       		.byte	0
 4219 163f 29       		.uleb128 0x29
 4220 1640 CE140000 		.4byte	0x14ce
 4221 1644 2E000000 		.4byte	.LBB290
 4222 1648 06000000 		.4byte	.LBE290-.LBB290
 4223 164c 01       		.byte	0x1
 4224 164d 1C       		.byte	0x1c
 4225 164e 6E160000 		.4byte	0x166e
 4226 1652 2A       		.uleb128 0x2a
 4227 1653 F3140000 		.4byte	0x14f3
 4228 1657 EC000000 		.4byte	.LLST12
 4229 165b 2A       		.uleb128 0x2a
 4230 165c E7140000 		.4byte	0x14e7
 4231 1660 00010000 		.4byte	.LLST13
 4232 1664 2A       		.uleb128 0x2a
 4233 1665 DB140000 		.4byte	0x14db
 4234 1669 14010000 		.4byte	.LLST14
 4235 166d 00       		.byte	0
 4236 166e 29       		.uleb128 0x29
 4237 166f CE140000 		.4byte	0x14ce
 4238 1673 34000000 		.4byte	.LBB292
 4239 1677 04000000 		.4byte	.LBE292-.LBB292
 4240 167b 01       		.byte	0x1
 4241 167c 1D       		.byte	0x1d
 4242 167d 9D160000 		.4byte	0x169d
 4243 1681 2A       		.uleb128 0x2a
 4244 1682 F3140000 		.4byte	0x14f3
 4245 1686 2C010000 		.4byte	.LLST15
 4246 168a 2A       		.uleb128 0x2a
 4247 168b E7140000 		.4byte	0x14e7
 4248 168f 40010000 		.4byte	.LLST16
 4249 1693 2A       		.uleb128 0x2a
 4250 1694 DB140000 		.4byte	0x14db
 4251 1698 54010000 		.4byte	.LLST17
 4252 169c 00       		.byte	0
 4253 169d 29       		.uleb128 0x29
 4254 169e CE140000 		.4byte	0x14ce
 4255 16a2 38000000 		.4byte	.LBB294
 4256 16a6 04000000 		.4byte	.LBE294-.LBB294
 4257 16aa 01       		.byte	0x1
 4258 16ab 1E       		.byte	0x1e
 4259 16ac CC160000 		.4byte	0x16cc
 4260 16b0 2A       		.uleb128 0x2a
 4261 16b1 F3140000 		.4byte	0x14f3
 4262 16b5 6C010000 		.4byte	.LLST18
 4263 16b9 2A       		.uleb128 0x2a
 4264 16ba E7140000 		.4byte	0x14e7
 4265 16be 80010000 		.4byte	.LLST19
 4266 16c2 2A       		.uleb128 0x2a
 4267 16c3 DB140000 		.4byte	0x14db
 4268 16c7 94010000 		.4byte	.LLST20
 4269 16cb 00       		.byte	0
 4270 16cc 29       		.uleb128 0x29
 4271 16cd CE140000 		.4byte	0x14ce
 4272 16d1 3C000000 		.4byte	.LBB296
 4273 16d5 06000000 		.4byte	.LBE296-.LBB296
ARM GAS  C:\Users\dmula\AppData\Local\Temp\ccXnnfAd.s 			page 117


 4274 16d9 01       		.byte	0x1
 4275 16da 1F       		.byte	0x1f
 4276 16db FB160000 		.4byte	0x16fb
 4277 16df 2A       		.uleb128 0x2a
 4278 16e0 F3140000 		.4byte	0x14f3
 4279 16e4 AC010000 		.4byte	.LLST21
 4280 16e8 2A       		.uleb128 0x2a
 4281 16e9 E7140000 		.4byte	0x14e7
 4282 16ed C0010000 		.4byte	.LLST22
 4283 16f1 2A       		.uleb128 0x2a
 4284 16f2 DB140000 		.4byte	0x14db
 4285 16f6 D4010000 		.4byte	.LLST23
 4286 16fa 00       		.byte	0
 4287 16fb 29       		.uleb128 0x29
 4288 16fc CE140000 		.4byte	0x14ce
 4289 1700 42000000 		.4byte	.LBB298
 4290 1704 06000000 		.4byte	.LBE298-.LBB298
 4291 1708 01       		.byte	0x1
 4292 1709 23       		.byte	0x23
 4293 170a 2A170000 		.4byte	0x172a
 4294 170e 2A       		.uleb128 0x2a
 4295 170f F3140000 		.4byte	0x14f3
 4296 1713 EC010000 		.4byte	.LLST24
 4297 1717 2A       		.uleb128 0x2a
 4298 1718 E7140000 		.4byte	0x14e7
 4299 171c EC010000 		.4byte	.LLST24
 4300 1720 2A       		.uleb128 0x2a
 4301 1721 DB140000 		.4byte	0x14db
 4302 1725 00020000 		.4byte	.LLST26
 4303 1729 00       		.byte	0
 4304 172a 29       		.uleb128 0x29
 4305 172b CE140000 		.4byte	0x14ce
 4306 172f 48000000 		.4byte	.LBB300
 4307 1733 04000000 		.4byte	.LBE300-.LBB300
 4308 1737 01       		.byte	0x1
 4309 1738 24       		.byte	0x24
 4310 1739 59170000 		.4byte	0x1759
 4311 173d 2A       		.uleb128 0x2a
 4312 173e F3140000 		.4byte	0x14f3
 4313 1742 18020000 		.4byte	.LLST27
 4314 1746 2A       		.uleb128 0x2a
 4315 1747 E7140000 		.4byte	0x14e7
 4316 174b 18020000 		.4byte	.LLST27
 4317 174f 2A       		.uleb128 0x2a
 4318 1750 DB140000 		.4byte	0x14db
 4319 1754 2C020000 		.4byte	.LLST29
 4320 1758 00       		.byte	0
 4321 1759 29       		.uleb128 0x29
 4322 175a CE140000 		.4byte	0x14ce
 4323 175e 4C000000 		.4byte	.LBB302
 4324 1762 04000000 		.4byte	.LBE302-.LBB302
 4325 1766 01       		.byte	0x1
 4326 1767 25       		.byte	0x25
 4327 1768 88170000 		.4byte	0x1788
 4328 176c 2A       		.uleb128 0x2a
 4329 176d F3140000 		.4byte	0x14f3
 4330 1771 44020000 		.4byte	.LLST30
ARM GAS  C:\Users\dmula\AppData\Local\Temp\ccXnnfAd.s 			page 118


 4331 1775 2A       		.uleb128 0x2a
 4332 1776 E7140000 		.4byte	0x14e7
 4333 177a 58020000 		.4byte	.LLST31
 4334 177e 2A       		.uleb128 0x2a
 4335 177f DB140000 		.4byte	0x14db
 4336 1783 6C020000 		.4byte	.LLST32
 4337 1787 00       		.byte	0
 4338 1788 29       		.uleb128 0x29
 4339 1789 CE140000 		.4byte	0x14ce
 4340 178d 50000000 		.4byte	.LBB304
 4341 1791 06000000 		.4byte	.LBE304-.LBB304
 4342 1795 01       		.byte	0x1
 4343 1796 26       		.byte	0x26
 4344 1797 B7170000 		.4byte	0x17b7
 4345 179b 2A       		.uleb128 0x2a
 4346 179c F3140000 		.4byte	0x14f3
 4347 17a0 84020000 		.4byte	.LLST33
 4348 17a4 2A       		.uleb128 0x2a
 4349 17a5 E7140000 		.4byte	0x14e7
 4350 17a9 98020000 		.4byte	.LLST34
 4351 17ad 2A       		.uleb128 0x2a
 4352 17ae DB140000 		.4byte	0x14db
 4353 17b2 AC020000 		.4byte	.LLST35
 4354 17b6 00       		.byte	0
 4355 17b7 29       		.uleb128 0x29
 4356 17b8 CE140000 		.4byte	0x14ce
 4357 17bc 56000000 		.4byte	.LBB306
 4358 17c0 06000000 		.4byte	.LBE306-.LBB306
 4359 17c4 01       		.byte	0x1
 4360 17c5 2A       		.byte	0x2a
 4361 17c6 E6170000 		.4byte	0x17e6
 4362 17ca 2A       		.uleb128 0x2a
 4363 17cb F3140000 		.4byte	0x14f3
 4364 17cf C4020000 		.4byte	.LLST36
 4365 17d3 2A       		.uleb128 0x2a
 4366 17d4 E7140000 		.4byte	0x14e7
 4367 17d8 D8020000 		.4byte	.LLST37
 4368 17dc 2A       		.uleb128 0x2a
 4369 17dd DB140000 		.4byte	0x14db
 4370 17e1 EC020000 		.4byte	.LLST38
 4371 17e5 00       		.byte	0
 4372 17e6 29       		.uleb128 0x29
 4373 17e7 CE140000 		.4byte	0x14ce
 4374 17eb 5C000000 		.4byte	.LBB308
 4375 17ef 04000000 		.4byte	.LBE308-.LBB308
 4376 17f3 01       		.byte	0x1
 4377 17f4 2B       		.byte	0x2b
 4378 17f5 15180000 		.4byte	0x1815
 4379 17f9 2A       		.uleb128 0x2a
 4380 17fa F3140000 		.4byte	0x14f3
 4381 17fe 04030000 		.4byte	.LLST39
 4382 1802 2A       		.uleb128 0x2a
 4383 1803 E7140000 		.4byte	0x14e7
 4384 1807 04030000 		.4byte	.LLST39
 4385 180b 2A       		.uleb128 0x2a
 4386 180c DB140000 		.4byte	0x14db
 4387 1810 18030000 		.4byte	.LLST41
ARM GAS  C:\Users\dmula\AppData\Local\Temp\ccXnnfAd.s 			page 119


 4388 1814 00       		.byte	0
 4389 1815 29       		.uleb128 0x29
 4390 1816 CE140000 		.4byte	0x14ce
 4391 181a 60000000 		.4byte	.LBB310
 4392 181e 04000000 		.4byte	.LBE310-.LBB310
 4393 1822 01       		.byte	0x1
 4394 1823 2C       		.byte	0x2c
 4395 1824 44180000 		.4byte	0x1844
 4396 1828 2A       		.uleb128 0x2a
 4397 1829 F3140000 		.4byte	0x14f3
 4398 182d 30030000 		.4byte	.LLST42
 4399 1831 2A       		.uleb128 0x2a
 4400 1832 E7140000 		.4byte	0x14e7
 4401 1836 44030000 		.4byte	.LLST43
 4402 183a 2A       		.uleb128 0x2a
 4403 183b DB140000 		.4byte	0x14db
 4404 183f 58030000 		.4byte	.LLST44
 4405 1843 00       		.byte	0
 4406 1844 29       		.uleb128 0x29
 4407 1845 CE140000 		.4byte	0x14ce
 4408 1849 64000000 		.4byte	.LBB312
 4409 184d 06000000 		.4byte	.LBE312-.LBB312
 4410 1851 01       		.byte	0x1
 4411 1852 2D       		.byte	0x2d
 4412 1853 73180000 		.4byte	0x1873
 4413 1857 2A       		.uleb128 0x2a
 4414 1858 F3140000 		.4byte	0x14f3
 4415 185c 70030000 		.4byte	.LLST45
 4416 1860 2A       		.uleb128 0x2a
 4417 1861 E7140000 		.4byte	0x14e7
 4418 1865 84030000 		.4byte	.LLST46
 4419 1869 2A       		.uleb128 0x2a
 4420 186a DB140000 		.4byte	0x14db
 4421 186e 98030000 		.4byte	.LLST47
 4422 1872 00       		.byte	0
 4423 1873 29       		.uleb128 0x29
 4424 1874 CE140000 		.4byte	0x14ce
 4425 1878 6A000000 		.4byte	.LBB314
 4426 187c 06000000 		.4byte	.LBE314-.LBB314
 4427 1880 01       		.byte	0x1
 4428 1881 31       		.byte	0x31
 4429 1882 A2180000 		.4byte	0x18a2
 4430 1886 2A       		.uleb128 0x2a
 4431 1887 F3140000 		.4byte	0x14f3
 4432 188b B0030000 		.4byte	.LLST48
 4433 188f 2A       		.uleb128 0x2a
 4434 1890 E7140000 		.4byte	0x14e7
 4435 1894 B0030000 		.4byte	.LLST48
 4436 1898 2A       		.uleb128 0x2a
 4437 1899 DB140000 		.4byte	0x14db
 4438 189d C4030000 		.4byte	.LLST50
 4439 18a1 00       		.byte	0
 4440 18a2 29       		.uleb128 0x29
 4441 18a3 CE140000 		.4byte	0x14ce
 4442 18a7 70000000 		.4byte	.LBB316
 4443 18ab 04000000 		.4byte	.LBE316-.LBB316
 4444 18af 01       		.byte	0x1
ARM GAS  C:\Users\dmula\AppData\Local\Temp\ccXnnfAd.s 			page 120


 4445 18b0 32       		.byte	0x32
 4446 18b1 D1180000 		.4byte	0x18d1
 4447 18b5 2A       		.uleb128 0x2a
 4448 18b6 F3140000 		.4byte	0x14f3
 4449 18ba DC030000 		.4byte	.LLST51
 4450 18be 2A       		.uleb128 0x2a
 4451 18bf E7140000 		.4byte	0x14e7
 4452 18c3 F0030000 		.4byte	.LLST52
 4453 18c7 2A       		.uleb128 0x2a
 4454 18c8 DB140000 		.4byte	0x14db
 4455 18cc 04040000 		.4byte	.LLST53
 4456 18d0 00       		.byte	0
 4457 18d1 29       		.uleb128 0x29
 4458 18d2 CE140000 		.4byte	0x14ce
 4459 18d6 74000000 		.4byte	.LBB318
 4460 18da 04000000 		.4byte	.LBE318-.LBB318
 4461 18de 01       		.byte	0x1
 4462 18df 33       		.byte	0x33
 4463 18e0 00190000 		.4byte	0x1900
 4464 18e4 2A       		.uleb128 0x2a
 4465 18e5 F3140000 		.4byte	0x14f3
 4466 18e9 1C040000 		.4byte	.LLST54
 4467 18ed 2A       		.uleb128 0x2a
 4468 18ee E7140000 		.4byte	0x14e7
 4469 18f2 30040000 		.4byte	.LLST55
 4470 18f6 2A       		.uleb128 0x2a
 4471 18f7 DB140000 		.4byte	0x14db
 4472 18fb 44040000 		.4byte	.LLST56
 4473 18ff 00       		.byte	0
 4474 1900 29       		.uleb128 0x29
 4475 1901 CE140000 		.4byte	0x14ce
 4476 1905 78000000 		.4byte	.LBB320
 4477 1909 06000000 		.4byte	.LBE320-.LBB320
 4478 190d 01       		.byte	0x1
 4479 190e 34       		.byte	0x34
 4480 190f 2F190000 		.4byte	0x192f
 4481 1913 2A       		.uleb128 0x2a
 4482 1914 F3140000 		.4byte	0x14f3
 4483 1918 5C040000 		.4byte	.LLST57
 4484 191c 2A       		.uleb128 0x2a
 4485 191d E7140000 		.4byte	0x14e7
 4486 1921 70040000 		.4byte	.LLST58
 4487 1925 2A       		.uleb128 0x2a
 4488 1926 DB140000 		.4byte	0x14db
 4489 192a 84040000 		.4byte	.LLST59
 4490 192e 00       		.byte	0
 4491 192f 29       		.uleb128 0x29
 4492 1930 CE140000 		.4byte	0x14ce
 4493 1934 7E000000 		.4byte	.LBB322
 4494 1938 06000000 		.4byte	.LBE322-.LBB322
 4495 193c 01       		.byte	0x1
 4496 193d 37       		.byte	0x37
 4497 193e 5E190000 		.4byte	0x195e
 4498 1942 2A       		.uleb128 0x2a
 4499 1943 F3140000 		.4byte	0x14f3
 4500 1947 9C040000 		.4byte	.LLST60
 4501 194b 2A       		.uleb128 0x2a
ARM GAS  C:\Users\dmula\AppData\Local\Temp\ccXnnfAd.s 			page 121


 4502 194c E7140000 		.4byte	0x14e7
 4503 1950 B0040000 		.4byte	.LLST61
 4504 1954 2A       		.uleb128 0x2a
 4505 1955 DB140000 		.4byte	0x14db
 4506 1959 C4040000 		.4byte	.LLST62
 4507 195d 00       		.byte	0
 4508 195e 29       		.uleb128 0x29
 4509 195f CE140000 		.4byte	0x14ce
 4510 1963 84000000 		.4byte	.LBB324
 4511 1967 04000000 		.4byte	.LBE324-.LBB324
 4512 196b 01       		.byte	0x1
 4513 196c 38       		.byte	0x38
 4514 196d 8D190000 		.4byte	0x198d
 4515 1971 2A       		.uleb128 0x2a
 4516 1972 F3140000 		.4byte	0x14f3
 4517 1976 DC040000 		.4byte	.LLST63
 4518 197a 2A       		.uleb128 0x2a
 4519 197b E7140000 		.4byte	0x14e7
 4520 197f F0040000 		.4byte	.LLST64
 4521 1983 2A       		.uleb128 0x2a
 4522 1984 DB140000 		.4byte	0x14db
 4523 1988 04050000 		.4byte	.LLST65
 4524 198c 00       		.byte	0
 4525 198d 29       		.uleb128 0x29
 4526 198e CE140000 		.4byte	0x14ce
 4527 1992 88000000 		.4byte	.LBB326
 4528 1996 04000000 		.4byte	.LBE326-.LBB326
 4529 199a 01       		.byte	0x1
 4530 199b 39       		.byte	0x39
 4531 199c BC190000 		.4byte	0x19bc
 4532 19a0 2A       		.uleb128 0x2a
 4533 19a1 F3140000 		.4byte	0x14f3
 4534 19a5 1C050000 		.4byte	.LLST66
 4535 19a9 2A       		.uleb128 0x2a
 4536 19aa E7140000 		.4byte	0x14e7
 4537 19ae 30050000 		.4byte	.LLST67
 4538 19b2 2A       		.uleb128 0x2a
 4539 19b3 DB140000 		.4byte	0x14db
 4540 19b7 44050000 		.4byte	.LLST68
 4541 19bb 00       		.byte	0
 4542 19bc 29       		.uleb128 0x29
 4543 19bd CE140000 		.4byte	0x14ce
 4544 19c1 8C000000 		.4byte	.LBB328
 4545 19c5 06000000 		.4byte	.LBE328-.LBB328
 4546 19c9 01       		.byte	0x1
 4547 19ca 3A       		.byte	0x3a
 4548 19cb EB190000 		.4byte	0x19eb
 4549 19cf 2A       		.uleb128 0x2a
 4550 19d0 F3140000 		.4byte	0x14f3
 4551 19d4 5C050000 		.4byte	.LLST69
 4552 19d8 2A       		.uleb128 0x2a
 4553 19d9 E7140000 		.4byte	0x14e7
 4554 19dd 70050000 		.4byte	.LLST70
 4555 19e1 2A       		.uleb128 0x2a
 4556 19e2 DB140000 		.4byte	0x14db
 4557 19e6 84050000 		.4byte	.LLST71
 4558 19ea 00       		.byte	0
ARM GAS  C:\Users\dmula\AppData\Local\Temp\ccXnnfAd.s 			page 122


 4559 19eb 29       		.uleb128 0x29
 4560 19ec CE140000 		.4byte	0x14ce
 4561 19f0 92000000 		.4byte	.LBB330
 4562 19f4 06000000 		.4byte	.LBE330-.LBB330
 4563 19f8 01       		.byte	0x1
 4564 19f9 3E       		.byte	0x3e
 4565 19fa 1A1A0000 		.4byte	0x1a1a
 4566 19fe 2A       		.uleb128 0x2a
 4567 19ff F3140000 		.4byte	0x14f3
 4568 1a03 9C050000 		.4byte	.LLST72
 4569 1a07 2A       		.uleb128 0x2a
 4570 1a08 E7140000 		.4byte	0x14e7
 4571 1a0c 9C050000 		.4byte	.LLST72
 4572 1a10 2A       		.uleb128 0x2a
 4573 1a11 DB140000 		.4byte	0x14db
 4574 1a15 B0050000 		.4byte	.LLST74
 4575 1a19 00       		.byte	0
 4576 1a1a 29       		.uleb128 0x29
 4577 1a1b CE140000 		.4byte	0x14ce
 4578 1a1f 98000000 		.4byte	.LBB332
 4579 1a23 04000000 		.4byte	.LBE332-.LBB332
 4580 1a27 01       		.byte	0x1
 4581 1a28 3F       		.byte	0x3f
 4582 1a29 491A0000 		.4byte	0x1a49
 4583 1a2d 2A       		.uleb128 0x2a
 4584 1a2e F3140000 		.4byte	0x14f3
 4585 1a32 C8050000 		.4byte	.LLST75
 4586 1a36 2A       		.uleb128 0x2a
 4587 1a37 E7140000 		.4byte	0x14e7
 4588 1a3b C8050000 		.4byte	.LLST75
 4589 1a3f 2A       		.uleb128 0x2a
 4590 1a40 DB140000 		.4byte	0x14db
 4591 1a44 DC050000 		.4byte	.LLST77
 4592 1a48 00       		.byte	0
 4593 1a49 29       		.uleb128 0x29
 4594 1a4a CE140000 		.4byte	0x14ce
 4595 1a4e 9C000000 		.4byte	.LBB334
 4596 1a52 04000000 		.4byte	.LBE334-.LBB334
 4597 1a56 01       		.byte	0x1
 4598 1a57 40       		.byte	0x40
 4599 1a58 781A0000 		.4byte	0x1a78
 4600 1a5c 2A       		.uleb128 0x2a
 4601 1a5d F3140000 		.4byte	0x14f3
 4602 1a61 F4050000 		.4byte	.LLST78
 4603 1a65 2A       		.uleb128 0x2a
 4604 1a66 E7140000 		.4byte	0x14e7
 4605 1a6a 08060000 		.4byte	.LLST79
 4606 1a6e 2A       		.uleb128 0x2a
 4607 1a6f DB140000 		.4byte	0x14db
 4608 1a73 1C060000 		.4byte	.LLST80
 4609 1a77 00       		.byte	0
 4610 1a78 29       		.uleb128 0x29
 4611 1a79 CE140000 		.4byte	0x14ce
 4612 1a7d A0000000 		.4byte	.LBB336
 4613 1a81 06000000 		.4byte	.LBE336-.LBB336
 4614 1a85 01       		.byte	0x1
 4615 1a86 41       		.byte	0x41
ARM GAS  C:\Users\dmula\AppData\Local\Temp\ccXnnfAd.s 			page 123


 4616 1a87 A71A0000 		.4byte	0x1aa7
 4617 1a8b 2A       		.uleb128 0x2a
 4618 1a8c F3140000 		.4byte	0x14f3
 4619 1a90 34060000 		.4byte	.LLST81
 4620 1a94 2A       		.uleb128 0x2a
 4621 1a95 E7140000 		.4byte	0x14e7
 4622 1a99 48060000 		.4byte	.LLST82
 4623 1a9d 2A       		.uleb128 0x2a
 4624 1a9e DB140000 		.4byte	0x14db
 4625 1aa2 5C060000 		.4byte	.LLST83
 4626 1aa6 00       		.byte	0
 4627 1aa7 29       		.uleb128 0x29
 4628 1aa8 CE140000 		.4byte	0x14ce
 4629 1aac A6000000 		.4byte	.LBB338
 4630 1ab0 06000000 		.4byte	.LBE338-.LBB338
 4631 1ab4 01       		.byte	0x1
 4632 1ab5 45       		.byte	0x45
 4633 1ab6 D61A0000 		.4byte	0x1ad6
 4634 1aba 2A       		.uleb128 0x2a
 4635 1abb F3140000 		.4byte	0x14f3
 4636 1abf 74060000 		.4byte	.LLST84
 4637 1ac3 2A       		.uleb128 0x2a
 4638 1ac4 E7140000 		.4byte	0x14e7
 4639 1ac8 88060000 		.4byte	.LLST85
 4640 1acc 2A       		.uleb128 0x2a
 4641 1acd DB140000 		.4byte	0x14db
 4642 1ad1 9C060000 		.4byte	.LLST86
 4643 1ad5 00       		.byte	0
 4644 1ad6 29       		.uleb128 0x29
 4645 1ad7 CE140000 		.4byte	0x14ce
 4646 1adb AC000000 		.4byte	.LBB340
 4647 1adf 04000000 		.4byte	.LBE340-.LBB340
 4648 1ae3 01       		.byte	0x1
 4649 1ae4 46       		.byte	0x46
 4650 1ae5 051B0000 		.4byte	0x1b05
 4651 1ae9 2A       		.uleb128 0x2a
 4652 1aea F3140000 		.4byte	0x14f3
 4653 1aee B4060000 		.4byte	.LLST87
 4654 1af2 2A       		.uleb128 0x2a
 4655 1af3 E7140000 		.4byte	0x14e7
 4656 1af7 B4060000 		.4byte	.LLST87
 4657 1afb 2A       		.uleb128 0x2a
 4658 1afc DB140000 		.4byte	0x14db
 4659 1b00 C8060000 		.4byte	.LLST89
 4660 1b04 00       		.byte	0
 4661 1b05 29       		.uleb128 0x29
 4662 1b06 CE140000 		.4byte	0x14ce
 4663 1b0a B0000000 		.4byte	.LBB342
 4664 1b0e 04000000 		.4byte	.LBE342-.LBB342
 4665 1b12 01       		.byte	0x1
 4666 1b13 47       		.byte	0x47
 4667 1b14 341B0000 		.4byte	0x1b34
 4668 1b18 2A       		.uleb128 0x2a
 4669 1b19 F3140000 		.4byte	0x14f3
 4670 1b1d E0060000 		.4byte	.LLST90
 4671 1b21 2A       		.uleb128 0x2a
 4672 1b22 E7140000 		.4byte	0x14e7
ARM GAS  C:\Users\dmula\AppData\Local\Temp\ccXnnfAd.s 			page 124


 4673 1b26 F4060000 		.4byte	.LLST91
 4674 1b2a 2A       		.uleb128 0x2a
 4675 1b2b DB140000 		.4byte	0x14db
 4676 1b2f 08070000 		.4byte	.LLST92
 4677 1b33 00       		.byte	0
 4678 1b34 29       		.uleb128 0x29
 4679 1b35 CE140000 		.4byte	0x14ce
 4680 1b39 B4000000 		.4byte	.LBB344
 4681 1b3d 06000000 		.4byte	.LBE344-.LBB344
 4682 1b41 01       		.byte	0x1
 4683 1b42 48       		.byte	0x48
 4684 1b43 631B0000 		.4byte	0x1b63
 4685 1b47 2A       		.uleb128 0x2a
 4686 1b48 F3140000 		.4byte	0x14f3
 4687 1b4c 20070000 		.4byte	.LLST93
 4688 1b50 2A       		.uleb128 0x2a
 4689 1b51 E7140000 		.4byte	0x14e7
 4690 1b55 34070000 		.4byte	.LLST94
 4691 1b59 2A       		.uleb128 0x2a
 4692 1b5a DB140000 		.4byte	0x14db
 4693 1b5e 48070000 		.4byte	.LLST95
 4694 1b62 00       		.byte	0
 4695 1b63 29       		.uleb128 0x29
 4696 1b64 CE140000 		.4byte	0x14ce
 4697 1b68 BA000000 		.4byte	.LBB346
 4698 1b6c 06000000 		.4byte	.LBE346-.LBB346
 4699 1b70 01       		.byte	0x1
 4700 1b71 4C       		.byte	0x4c
 4701 1b72 921B0000 		.4byte	0x1b92
 4702 1b76 2A       		.uleb128 0x2a
 4703 1b77 F3140000 		.4byte	0x14f3
 4704 1b7b 60070000 		.4byte	.LLST96
 4705 1b7f 2A       		.uleb128 0x2a
 4706 1b80 E7140000 		.4byte	0x14e7
 4707 1b84 60070000 		.4byte	.LLST96
 4708 1b88 2A       		.uleb128 0x2a
 4709 1b89 DB140000 		.4byte	0x14db
 4710 1b8d 74070000 		.4byte	.LLST98
 4711 1b91 00       		.byte	0
 4712 1b92 29       		.uleb128 0x29
 4713 1b93 CE140000 		.4byte	0x14ce
 4714 1b97 C0000000 		.4byte	.LBB348
 4715 1b9b 04000000 		.4byte	.LBE348-.LBB348
 4716 1b9f 01       		.byte	0x1
 4717 1ba0 4D       		.byte	0x4d
 4718 1ba1 C11B0000 		.4byte	0x1bc1
 4719 1ba5 2A       		.uleb128 0x2a
 4720 1ba6 F3140000 		.4byte	0x14f3
 4721 1baa 8C070000 		.4byte	.LLST99
 4722 1bae 2A       		.uleb128 0x2a
 4723 1baf E7140000 		.4byte	0x14e7
 4724 1bb3 A0070000 		.4byte	.LLST100
 4725 1bb7 2A       		.uleb128 0x2a
 4726 1bb8 DB140000 		.4byte	0x14db
 4727 1bbc B4070000 		.4byte	.LLST101
 4728 1bc0 00       		.byte	0
 4729 1bc1 29       		.uleb128 0x29
ARM GAS  C:\Users\dmula\AppData\Local\Temp\ccXnnfAd.s 			page 125


 4730 1bc2 CE140000 		.4byte	0x14ce
 4731 1bc6 C4000000 		.4byte	.LBB350
 4732 1bca 04000000 		.4byte	.LBE350-.LBB350
 4733 1bce 01       		.byte	0x1
 4734 1bcf 4E       		.byte	0x4e
 4735 1bd0 F01B0000 		.4byte	0x1bf0
 4736 1bd4 2A       		.uleb128 0x2a
 4737 1bd5 F3140000 		.4byte	0x14f3
 4738 1bd9 CC070000 		.4byte	.LLST102
 4739 1bdd 2A       		.uleb128 0x2a
 4740 1bde E7140000 		.4byte	0x14e7
 4741 1be2 E0070000 		.4byte	.LLST103
 4742 1be6 2A       		.uleb128 0x2a
 4743 1be7 DB140000 		.4byte	0x14db
 4744 1beb F4070000 		.4byte	.LLST104
 4745 1bef 00       		.byte	0
 4746 1bf0 29       		.uleb128 0x29
 4747 1bf1 CE140000 		.4byte	0x14ce
 4748 1bf5 C8000000 		.4byte	.LBB352
 4749 1bf9 06000000 		.4byte	.LBE352-.LBB352
 4750 1bfd 01       		.byte	0x1
 4751 1bfe 4F       		.byte	0x4f
 4752 1bff 1F1C0000 		.4byte	0x1c1f
 4753 1c03 2A       		.uleb128 0x2a
 4754 1c04 F3140000 		.4byte	0x14f3
 4755 1c08 0C080000 		.4byte	.LLST105
 4756 1c0c 2A       		.uleb128 0x2a
 4757 1c0d E7140000 		.4byte	0x14e7
 4758 1c11 20080000 		.4byte	.LLST106
 4759 1c15 2A       		.uleb128 0x2a
 4760 1c16 DB140000 		.4byte	0x14db
 4761 1c1a 34080000 		.4byte	.LLST107
 4762 1c1e 00       		.byte	0
 4763 1c1f 29       		.uleb128 0x29
 4764 1c20 CE140000 		.4byte	0x14ce
 4765 1c24 CE000000 		.4byte	.LBB354
 4766 1c28 06000000 		.4byte	.LBE354-.LBB354
 4767 1c2c 01       		.byte	0x1
 4768 1c2d 53       		.byte	0x53
 4769 1c2e 4E1C0000 		.4byte	0x1c4e
 4770 1c32 2A       		.uleb128 0x2a
 4771 1c33 F3140000 		.4byte	0x14f3
 4772 1c37 4C080000 		.4byte	.LLST108
 4773 1c3b 2A       		.uleb128 0x2a
 4774 1c3c E7140000 		.4byte	0x14e7
 4775 1c40 60080000 		.4byte	.LLST109
 4776 1c44 2A       		.uleb128 0x2a
 4777 1c45 DB140000 		.4byte	0x14db
 4778 1c49 74080000 		.4byte	.LLST110
 4779 1c4d 00       		.byte	0
 4780 1c4e 29       		.uleb128 0x29
 4781 1c4f CE140000 		.4byte	0x14ce
 4782 1c53 D4000000 		.4byte	.LBB356
 4783 1c57 04000000 		.4byte	.LBE356-.LBB356
 4784 1c5b 01       		.byte	0x1
 4785 1c5c 54       		.byte	0x54
 4786 1c5d 7D1C0000 		.4byte	0x1c7d
ARM GAS  C:\Users\dmula\AppData\Local\Temp\ccXnnfAd.s 			page 126


 4787 1c61 2A       		.uleb128 0x2a
 4788 1c62 F3140000 		.4byte	0x14f3
 4789 1c66 8C080000 		.4byte	.LLST111
 4790 1c6a 2A       		.uleb128 0x2a
 4791 1c6b E7140000 		.4byte	0x14e7
 4792 1c6f A0080000 		.4byte	.LLST112
 4793 1c73 2A       		.uleb128 0x2a
 4794 1c74 DB140000 		.4byte	0x14db
 4795 1c78 B4080000 		.4byte	.LLST113
 4796 1c7c 00       		.byte	0
 4797 1c7d 29       		.uleb128 0x29
 4798 1c7e CE140000 		.4byte	0x14ce
 4799 1c82 D8000000 		.4byte	.LBB358
 4800 1c86 04000000 		.4byte	.LBE358-.LBB358
 4801 1c8a 01       		.byte	0x1
 4802 1c8b 55       		.byte	0x55
 4803 1c8c AC1C0000 		.4byte	0x1cac
 4804 1c90 2A       		.uleb128 0x2a
 4805 1c91 F3140000 		.4byte	0x14f3
 4806 1c95 CC080000 		.4byte	.LLST114
 4807 1c99 2A       		.uleb128 0x2a
 4808 1c9a E7140000 		.4byte	0x14e7
 4809 1c9e E0080000 		.4byte	.LLST115
 4810 1ca2 2A       		.uleb128 0x2a
 4811 1ca3 DB140000 		.4byte	0x14db
 4812 1ca7 F4080000 		.4byte	.LLST116
 4813 1cab 00       		.byte	0
 4814 1cac 29       		.uleb128 0x29
 4815 1cad CE140000 		.4byte	0x14ce
 4816 1cb1 DC000000 		.4byte	.LBB360
 4817 1cb5 06000000 		.4byte	.LBE360-.LBB360
 4818 1cb9 01       		.byte	0x1
 4819 1cba 56       		.byte	0x56
 4820 1cbb DB1C0000 		.4byte	0x1cdb
 4821 1cbf 2A       		.uleb128 0x2a
 4822 1cc0 F3140000 		.4byte	0x14f3
 4823 1cc4 0C090000 		.4byte	.LLST117
 4824 1cc8 2A       		.uleb128 0x2a
 4825 1cc9 E7140000 		.4byte	0x14e7
 4826 1ccd 20090000 		.4byte	.LLST118
 4827 1cd1 2A       		.uleb128 0x2a
 4828 1cd2 DB140000 		.4byte	0x14db
 4829 1cd6 34090000 		.4byte	.LLST119
 4830 1cda 00       		.byte	0
 4831 1cdb 29       		.uleb128 0x29
 4832 1cdc CE140000 		.4byte	0x14ce
 4833 1ce0 E2000000 		.4byte	.LBB362
 4834 1ce4 06000000 		.4byte	.LBE362-.LBB362
 4835 1ce8 01       		.byte	0x1
 4836 1ce9 5A       		.byte	0x5a
 4837 1cea 0A1D0000 		.4byte	0x1d0a
 4838 1cee 2A       		.uleb128 0x2a
 4839 1cef F3140000 		.4byte	0x14f3
 4840 1cf3 4C090000 		.4byte	.LLST120
 4841 1cf7 2A       		.uleb128 0x2a
 4842 1cf8 E7140000 		.4byte	0x14e7
 4843 1cfc 4C090000 		.4byte	.LLST120
ARM GAS  C:\Users\dmula\AppData\Local\Temp\ccXnnfAd.s 			page 127


 4844 1d00 2A       		.uleb128 0x2a
 4845 1d01 DB140000 		.4byte	0x14db
 4846 1d05 60090000 		.4byte	.LLST122
 4847 1d09 00       		.byte	0
 4848 1d0a 29       		.uleb128 0x29
 4849 1d0b CE140000 		.4byte	0x14ce
 4850 1d0f E8000000 		.4byte	.LBB364
 4851 1d13 04000000 		.4byte	.LBE364-.LBB364
 4852 1d17 01       		.byte	0x1
 4853 1d18 5B       		.byte	0x5b
 4854 1d19 391D0000 		.4byte	0x1d39
 4855 1d1d 2A       		.uleb128 0x2a
 4856 1d1e F3140000 		.4byte	0x14f3
 4857 1d22 78090000 		.4byte	.LLST123
 4858 1d26 2A       		.uleb128 0x2a
 4859 1d27 E7140000 		.4byte	0x14e7
 4860 1d2b 78090000 		.4byte	.LLST123
 4861 1d2f 2A       		.uleb128 0x2a
 4862 1d30 DB140000 		.4byte	0x14db
 4863 1d34 8C090000 		.4byte	.LLST125
 4864 1d38 00       		.byte	0
 4865 1d39 29       		.uleb128 0x29
 4866 1d3a CE140000 		.4byte	0x14ce
 4867 1d3e EC000000 		.4byte	.LBB366
 4868 1d42 04000000 		.4byte	.LBE366-.LBB366
 4869 1d46 01       		.byte	0x1
 4870 1d47 5C       		.byte	0x5c
 4871 1d48 681D0000 		.4byte	0x1d68
 4872 1d4c 2A       		.uleb128 0x2a
 4873 1d4d F3140000 		.4byte	0x14f3
 4874 1d51 A4090000 		.4byte	.LLST126
 4875 1d55 2A       		.uleb128 0x2a
 4876 1d56 E7140000 		.4byte	0x14e7
 4877 1d5a B8090000 		.4byte	.LLST127
 4878 1d5e 2A       		.uleb128 0x2a
 4879 1d5f DB140000 		.4byte	0x14db
 4880 1d63 CC090000 		.4byte	.LLST128
 4881 1d67 00       		.byte	0
 4882 1d68 29       		.uleb128 0x29
 4883 1d69 CE140000 		.4byte	0x14ce
 4884 1d6d F0000000 		.4byte	.LBB368
 4885 1d71 06000000 		.4byte	.LBE368-.LBB368
 4886 1d75 01       		.byte	0x1
 4887 1d76 5D       		.byte	0x5d
 4888 1d77 971D0000 		.4byte	0x1d97
 4889 1d7b 2A       		.uleb128 0x2a
 4890 1d7c F3140000 		.4byte	0x14f3
 4891 1d80 E4090000 		.4byte	.LLST129
 4892 1d84 2A       		.uleb128 0x2a
 4893 1d85 E7140000 		.4byte	0x14e7
 4894 1d89 F8090000 		.4byte	.LLST130
 4895 1d8d 2A       		.uleb128 0x2a
 4896 1d8e DB140000 		.4byte	0x14db
 4897 1d92 0C0A0000 		.4byte	.LLST131
 4898 1d96 00       		.byte	0
 4899 1d97 29       		.uleb128 0x29
 4900 1d98 CE140000 		.4byte	0x14ce
ARM GAS  C:\Users\dmula\AppData\Local\Temp\ccXnnfAd.s 			page 128


 4901 1d9c F6000000 		.4byte	.LBB370
 4902 1da0 06000000 		.4byte	.LBE370-.LBB370
 4903 1da4 01       		.byte	0x1
 4904 1da5 61       		.byte	0x61
 4905 1da6 C61D0000 		.4byte	0x1dc6
 4906 1daa 2A       		.uleb128 0x2a
 4907 1dab F3140000 		.4byte	0x14f3
 4908 1daf 240A0000 		.4byte	.LLST132
 4909 1db3 2A       		.uleb128 0x2a
 4910 1db4 E7140000 		.4byte	0x14e7
 4911 1db8 380A0000 		.4byte	.LLST133
 4912 1dbc 2A       		.uleb128 0x2a
 4913 1dbd DB140000 		.4byte	0x14db
 4914 1dc1 4C0A0000 		.4byte	.LLST134
 4915 1dc5 00       		.byte	0
 4916 1dc6 29       		.uleb128 0x29
 4917 1dc7 CE140000 		.4byte	0x14ce
 4918 1dcb FC000000 		.4byte	.LBB372
 4919 1dcf 04000000 		.4byte	.LBE372-.LBB372
 4920 1dd3 01       		.byte	0x1
 4921 1dd4 62       		.byte	0x62
 4922 1dd5 F51D0000 		.4byte	0x1df5
 4923 1dd9 2A       		.uleb128 0x2a
 4924 1dda F3140000 		.4byte	0x14f3
 4925 1dde 640A0000 		.4byte	.LLST135
 4926 1de2 2A       		.uleb128 0x2a
 4927 1de3 E7140000 		.4byte	0x14e7
 4928 1de7 640A0000 		.4byte	.LLST135
 4929 1deb 2A       		.uleb128 0x2a
 4930 1dec DB140000 		.4byte	0x14db
 4931 1df0 780A0000 		.4byte	.LLST137
 4932 1df4 00       		.byte	0
 4933 1df5 29       		.uleb128 0x29
 4934 1df6 CE140000 		.4byte	0x14ce
 4935 1dfa 00010000 		.4byte	.LBB374
 4936 1dfe 04000000 		.4byte	.LBE374-.LBB374
 4937 1e02 01       		.byte	0x1
 4938 1e03 63       		.byte	0x63
 4939 1e04 241E0000 		.4byte	0x1e24
 4940 1e08 2A       		.uleb128 0x2a
 4941 1e09 F3140000 		.4byte	0x14f3
 4942 1e0d 900A0000 		.4byte	.LLST138
 4943 1e11 2A       		.uleb128 0x2a
 4944 1e12 E7140000 		.4byte	0x14e7
 4945 1e16 A40A0000 		.4byte	.LLST139
 4946 1e1a 2A       		.uleb128 0x2a
 4947 1e1b DB140000 		.4byte	0x14db
 4948 1e1f B80A0000 		.4byte	.LLST140
 4949 1e23 00       		.byte	0
 4950 1e24 29       		.uleb128 0x29
 4951 1e25 CE140000 		.4byte	0x14ce
 4952 1e29 04010000 		.4byte	.LBB376
 4953 1e2d 06000000 		.4byte	.LBE376-.LBB376
 4954 1e31 01       		.byte	0x1
 4955 1e32 64       		.byte	0x64
 4956 1e33 531E0000 		.4byte	0x1e53
 4957 1e37 2A       		.uleb128 0x2a
ARM GAS  C:\Users\dmula\AppData\Local\Temp\ccXnnfAd.s 			page 129


 4958 1e38 F3140000 		.4byte	0x14f3
 4959 1e3c D00A0000 		.4byte	.LLST141
 4960 1e40 2A       		.uleb128 0x2a
 4961 1e41 E7140000 		.4byte	0x14e7
 4962 1e45 E40A0000 		.4byte	.LLST142
 4963 1e49 2A       		.uleb128 0x2a
 4964 1e4a DB140000 		.4byte	0x14db
 4965 1e4e F80A0000 		.4byte	.LLST143
 4966 1e52 00       		.byte	0
 4967 1e53 29       		.uleb128 0x29
 4968 1e54 CE140000 		.4byte	0x14ce
 4969 1e58 0A010000 		.4byte	.LBB378
 4970 1e5c 06000000 		.4byte	.LBE378-.LBB378
 4971 1e60 01       		.byte	0x1
 4972 1e61 68       		.byte	0x68
 4973 1e62 821E0000 		.4byte	0x1e82
 4974 1e66 2A       		.uleb128 0x2a
 4975 1e67 F3140000 		.4byte	0x14f3
 4976 1e6b 100B0000 		.4byte	.LLST144
 4977 1e6f 2A       		.uleb128 0x2a
 4978 1e70 E7140000 		.4byte	0x14e7
 4979 1e74 100B0000 		.4byte	.LLST144
 4980 1e78 2A       		.uleb128 0x2a
 4981 1e79 DB140000 		.4byte	0x14db
 4982 1e7d 240B0000 		.4byte	.LLST146
 4983 1e81 00       		.byte	0
 4984 1e82 29       		.uleb128 0x29
 4985 1e83 CE140000 		.4byte	0x14ce
 4986 1e87 10010000 		.4byte	.LBB380
 4987 1e8b 04000000 		.4byte	.LBE380-.LBB380
 4988 1e8f 01       		.byte	0x1
 4989 1e90 69       		.byte	0x69
 4990 1e91 B11E0000 		.4byte	0x1eb1
 4991 1e95 2A       		.uleb128 0x2a
 4992 1e96 F3140000 		.4byte	0x14f3
 4993 1e9a 3C0B0000 		.4byte	.LLST147
 4994 1e9e 2A       		.uleb128 0x2a
 4995 1e9f E7140000 		.4byte	0x14e7
 4996 1ea3 500B0000 		.4byte	.LLST148
 4997 1ea7 2A       		.uleb128 0x2a
 4998 1ea8 DB140000 		.4byte	0x14db
 4999 1eac 640B0000 		.4byte	.LLST149
 5000 1eb0 00       		.byte	0
 5001 1eb1 29       		.uleb128 0x29
 5002 1eb2 CE140000 		.4byte	0x14ce
 5003 1eb6 14010000 		.4byte	.LBB382
 5004 1eba 04000000 		.4byte	.LBE382-.LBB382
 5005 1ebe 01       		.byte	0x1
 5006 1ebf 6A       		.byte	0x6a
 5007 1ec0 E01E0000 		.4byte	0x1ee0
 5008 1ec4 2A       		.uleb128 0x2a
 5009 1ec5 F3140000 		.4byte	0x14f3
 5010 1ec9 7C0B0000 		.4byte	.LLST150
 5011 1ecd 2A       		.uleb128 0x2a
 5012 1ece E7140000 		.4byte	0x14e7
 5013 1ed2 900B0000 		.4byte	.LLST151
 5014 1ed6 2A       		.uleb128 0x2a
ARM GAS  C:\Users\dmula\AppData\Local\Temp\ccXnnfAd.s 			page 130


 5015 1ed7 DB140000 		.4byte	0x14db
 5016 1edb A40B0000 		.4byte	.LLST152
 5017 1edf 00       		.byte	0
 5018 1ee0 29       		.uleb128 0x29
 5019 1ee1 CE140000 		.4byte	0x14ce
 5020 1ee5 18010000 		.4byte	.LBB384
 5021 1ee9 06000000 		.4byte	.LBE384-.LBB384
 5022 1eed 01       		.byte	0x1
 5023 1eee 6B       		.byte	0x6b
 5024 1eef 0F1F0000 		.4byte	0x1f0f
 5025 1ef3 2A       		.uleb128 0x2a
 5026 1ef4 F3140000 		.4byte	0x14f3
 5027 1ef8 BC0B0000 		.4byte	.LLST153
 5028 1efc 2A       		.uleb128 0x2a
 5029 1efd E7140000 		.4byte	0x14e7
 5030 1f01 D00B0000 		.4byte	.LLST154
 5031 1f05 2A       		.uleb128 0x2a
 5032 1f06 DB140000 		.4byte	0x14db
 5033 1f0a E40B0000 		.4byte	.LLST155
 5034 1f0e 00       		.byte	0
 5035 1f0f 29       		.uleb128 0x29
 5036 1f10 CE140000 		.4byte	0x14ce
 5037 1f14 1E010000 		.4byte	.LBB386
 5038 1f18 06000000 		.4byte	.LBE386-.LBB386
 5039 1f1c 01       		.byte	0x1
 5040 1f1d 6F       		.byte	0x6f
 5041 1f1e 3E1F0000 		.4byte	0x1f3e
 5042 1f22 2A       		.uleb128 0x2a
 5043 1f23 F3140000 		.4byte	0x14f3
 5044 1f27 FC0B0000 		.4byte	.LLST156
 5045 1f2b 2A       		.uleb128 0x2a
 5046 1f2c E7140000 		.4byte	0x14e7
 5047 1f30 100C0000 		.4byte	.LLST157
 5048 1f34 2A       		.uleb128 0x2a
 5049 1f35 DB140000 		.4byte	0x14db
 5050 1f39 240C0000 		.4byte	.LLST158
 5051 1f3d 00       		.byte	0
 5052 1f3e 29       		.uleb128 0x29
 5053 1f3f CE140000 		.4byte	0x14ce
 5054 1f43 24010000 		.4byte	.LBB388
 5055 1f47 04000000 		.4byte	.LBE388-.LBB388
 5056 1f4b 01       		.byte	0x1
 5057 1f4c 70       		.byte	0x70
 5058 1f4d 6D1F0000 		.4byte	0x1f6d
 5059 1f51 2A       		.uleb128 0x2a
 5060 1f52 F3140000 		.4byte	0x14f3
 5061 1f56 3C0C0000 		.4byte	.LLST159
 5062 1f5a 2A       		.uleb128 0x2a
 5063 1f5b E7140000 		.4byte	0x14e7
 5064 1f5f 500C0000 		.4byte	.LLST160
 5065 1f63 2A       		.uleb128 0x2a
 5066 1f64 DB140000 		.4byte	0x14db
 5067 1f68 640C0000 		.4byte	.LLST161
 5068 1f6c 00       		.byte	0
 5069 1f6d 29       		.uleb128 0x29
 5070 1f6e CE140000 		.4byte	0x14ce
 5071 1f72 28010000 		.4byte	.LBB390
ARM GAS  C:\Users\dmula\AppData\Local\Temp\ccXnnfAd.s 			page 131


 5072 1f76 04000000 		.4byte	.LBE390-.LBB390
 5073 1f7a 01       		.byte	0x1
 5074 1f7b 71       		.byte	0x71
 5075 1f7c 9C1F0000 		.4byte	0x1f9c
 5076 1f80 2A       		.uleb128 0x2a
 5077 1f81 F3140000 		.4byte	0x14f3
 5078 1f85 7C0C0000 		.4byte	.LLST162
 5079 1f89 2A       		.uleb128 0x2a
 5080 1f8a E7140000 		.4byte	0x14e7
 5081 1f8e 900C0000 		.4byte	.LLST163
 5082 1f92 2A       		.uleb128 0x2a
 5083 1f93 DB140000 		.4byte	0x14db
 5084 1f97 A40C0000 		.4byte	.LLST164
 5085 1f9b 00       		.byte	0
 5086 1f9c 29       		.uleb128 0x29
 5087 1f9d CE140000 		.4byte	0x14ce
 5088 1fa1 2C010000 		.4byte	.LBB392
 5089 1fa5 06000000 		.4byte	.LBE392-.LBB392
 5090 1fa9 01       		.byte	0x1
 5091 1faa 72       		.byte	0x72
 5092 1fab CB1F0000 		.4byte	0x1fcb
 5093 1faf 2A       		.uleb128 0x2a
 5094 1fb0 F3140000 		.4byte	0x14f3
 5095 1fb4 BC0C0000 		.4byte	.LLST165
 5096 1fb8 2A       		.uleb128 0x2a
 5097 1fb9 E7140000 		.4byte	0x14e7
 5098 1fbd D00C0000 		.4byte	.LLST166
 5099 1fc1 2A       		.uleb128 0x2a
 5100 1fc2 DB140000 		.4byte	0x14db
 5101 1fc6 E40C0000 		.4byte	.LLST167
 5102 1fca 00       		.byte	0
 5103 1fcb 29       		.uleb128 0x29
 5104 1fcc CE140000 		.4byte	0x14ce
 5105 1fd0 32010000 		.4byte	.LBB394
 5106 1fd4 06000000 		.4byte	.LBE394-.LBB394
 5107 1fd8 01       		.byte	0x1
 5108 1fd9 76       		.byte	0x76
 5109 1fda FA1F0000 		.4byte	0x1ffa
 5110 1fde 2A       		.uleb128 0x2a
 5111 1fdf F3140000 		.4byte	0x14f3
 5112 1fe3 FC0C0000 		.4byte	.LLST168
 5113 1fe7 2A       		.uleb128 0x2a
 5114 1fe8 E7140000 		.4byte	0x14e7
 5115 1fec FC0C0000 		.4byte	.LLST168
 5116 1ff0 2A       		.uleb128 0x2a
 5117 1ff1 DB140000 		.4byte	0x14db
 5118 1ff5 100D0000 		.4byte	.LLST170
 5119 1ff9 00       		.byte	0
 5120 1ffa 29       		.uleb128 0x29
 5121 1ffb CE140000 		.4byte	0x14ce
 5122 1fff 38010000 		.4byte	.LBB396
 5123 2003 04000000 		.4byte	.LBE396-.LBB396
 5124 2007 01       		.byte	0x1
 5125 2008 77       		.byte	0x77
 5126 2009 29200000 		.4byte	0x2029
 5127 200d 2A       		.uleb128 0x2a
 5128 200e F3140000 		.4byte	0x14f3
ARM GAS  C:\Users\dmula\AppData\Local\Temp\ccXnnfAd.s 			page 132


 5129 2012 280D0000 		.4byte	.LLST171
 5130 2016 2A       		.uleb128 0x2a
 5131 2017 E7140000 		.4byte	0x14e7
 5132 201b 280D0000 		.4byte	.LLST171
 5133 201f 2A       		.uleb128 0x2a
 5134 2020 DB140000 		.4byte	0x14db
 5135 2024 3C0D0000 		.4byte	.LLST173
 5136 2028 00       		.byte	0
 5137 2029 29       		.uleb128 0x29
 5138 202a CE140000 		.4byte	0x14ce
 5139 202e 3C010000 		.4byte	.LBB398
 5140 2032 04000000 		.4byte	.LBE398-.LBB398
 5141 2036 01       		.byte	0x1
 5142 2037 78       		.byte	0x78
 5143 2038 58200000 		.4byte	0x2058
 5144 203c 2A       		.uleb128 0x2a
 5145 203d F3140000 		.4byte	0x14f3
 5146 2041 540D0000 		.4byte	.LLST174
 5147 2045 2A       		.uleb128 0x2a
 5148 2046 E7140000 		.4byte	0x14e7
 5149 204a 680D0000 		.4byte	.LLST175
 5150 204e 2A       		.uleb128 0x2a
 5151 204f DB140000 		.4byte	0x14db
 5152 2053 7C0D0000 		.4byte	.LLST176
 5153 2057 00       		.byte	0
 5154 2058 29       		.uleb128 0x29
 5155 2059 CE140000 		.4byte	0x14ce
 5156 205d 40010000 		.4byte	.LBB400
 5157 2061 06000000 		.4byte	.LBE400-.LBB400
 5158 2065 01       		.byte	0x1
 5159 2066 79       		.byte	0x79
 5160 2067 87200000 		.4byte	0x2087
 5161 206b 2A       		.uleb128 0x2a
 5162 206c F3140000 		.4byte	0x14f3
 5163 2070 940D0000 		.4byte	.LLST177
 5164 2074 2A       		.uleb128 0x2a
 5165 2075 E7140000 		.4byte	0x14e7
 5166 2079 A80D0000 		.4byte	.LLST178
 5167 207d 2A       		.uleb128 0x2a
 5168 207e DB140000 		.4byte	0x14db
 5169 2082 BC0D0000 		.4byte	.LLST179
 5170 2086 00       		.byte	0
 5171 2087 29       		.uleb128 0x29
 5172 2088 CE140000 		.4byte	0x14ce
 5173 208c 46010000 		.4byte	.LBB402
 5174 2090 06000000 		.4byte	.LBE402-.LBB402
 5175 2094 01       		.byte	0x1
 5176 2095 7D       		.byte	0x7d
 5177 2096 B6200000 		.4byte	0x20b6
 5178 209a 2A       		.uleb128 0x2a
 5179 209b F3140000 		.4byte	0x14f3
 5180 209f D40D0000 		.4byte	.LLST180
 5181 20a3 2A       		.uleb128 0x2a
 5182 20a4 E7140000 		.4byte	0x14e7
 5183 20a8 E80D0000 		.4byte	.LLST181
 5184 20ac 2A       		.uleb128 0x2a
 5185 20ad DB140000 		.4byte	0x14db
ARM GAS  C:\Users\dmula\AppData\Local\Temp\ccXnnfAd.s 			page 133


 5186 20b1 FC0D0000 		.4byte	.LLST182
 5187 20b5 00       		.byte	0
 5188 20b6 29       		.uleb128 0x29
 5189 20b7 CE140000 		.4byte	0x14ce
 5190 20bb 4C010000 		.4byte	.LBB404
 5191 20bf 04000000 		.4byte	.LBE404-.LBB404
 5192 20c3 01       		.byte	0x1
 5193 20c4 7E       		.byte	0x7e
 5194 20c5 E5200000 		.4byte	0x20e5
 5195 20c9 2A       		.uleb128 0x2a
 5196 20ca F3140000 		.4byte	0x14f3
 5197 20ce 140E0000 		.4byte	.LLST183
 5198 20d2 2A       		.uleb128 0x2a
 5199 20d3 E7140000 		.4byte	0x14e7
 5200 20d7 140E0000 		.4byte	.LLST183
 5201 20db 2A       		.uleb128 0x2a
 5202 20dc DB140000 		.4byte	0x14db
 5203 20e0 280E0000 		.4byte	.LLST185
 5204 20e4 00       		.byte	0
 5205 20e5 29       		.uleb128 0x29
 5206 20e6 CE140000 		.4byte	0x14ce
 5207 20ea 50010000 		.4byte	.LBB406
 5208 20ee 04000000 		.4byte	.LBE406-.LBB406
 5209 20f2 01       		.byte	0x1
 5210 20f3 7F       		.byte	0x7f
 5211 20f4 14210000 		.4byte	0x2114
 5212 20f8 2A       		.uleb128 0x2a
 5213 20f9 F3140000 		.4byte	0x14f3
 5214 20fd 400E0000 		.4byte	.LLST186
 5215 2101 2A       		.uleb128 0x2a
 5216 2102 E7140000 		.4byte	0x14e7
 5217 2106 540E0000 		.4byte	.LLST187
 5218 210a 2A       		.uleb128 0x2a
 5219 210b DB140000 		.4byte	0x14db
 5220 210f 680E0000 		.4byte	.LLST188
 5221 2113 00       		.byte	0
 5222 2114 2B       		.uleb128 0x2b
 5223 2115 CE140000 		.4byte	0x14ce
 5224 2119 54010000 		.4byte	.LBB408
 5225 211d 0C000000 		.4byte	.LBE408-.LBB408
 5226 2121 01       		.byte	0x1
 5227 2122 80       		.byte	0x80
 5228 2123 2A       		.uleb128 0x2a
 5229 2124 F3140000 		.4byte	0x14f3
 5230 2128 800E0000 		.4byte	.LLST189
 5231 212c 2A       		.uleb128 0x2a
 5232 212d E7140000 		.4byte	0x14e7
 5233 2131 940E0000 		.4byte	.LLST190
 5234 2135 2A       		.uleb128 0x2a
 5235 2136 DB140000 		.4byte	0x14db
 5236 213a A80E0000 		.4byte	.LLST191
 5237 213e 00       		.byte	0
 5238 213f 00       		.byte	0
 5239 2140 27       		.uleb128 0x27
 5240 2141 5E040000 		.4byte	.LASF342
 5241 2145 01       		.byte	0x1
 5242 2146 86       		.byte	0x86
ARM GAS  C:\Users\dmula\AppData\Local\Temp\ccXnnfAd.s 			page 134


 5243 2147 00000000 		.4byte	.LFB530
 5244 214b B0010000 		.4byte	.LFE530-.LFB530
 5245 214f 01       		.uleb128 0x1
 5246 2150 9C       		.byte	0x9c
 5247 2151 1E2D0000 		.4byte	0x2d1e
 5248 2155 28       		.uleb128 0x28
 5249 2156 696E00   		.ascii	"in\000"
 5250 2159 01       		.byte	0x1
 5251 215a 86       		.byte	0x86
 5252 215b 25000000 		.4byte	0x25
 5253 215f 01       		.uleb128 0x1
 5254 2160 50       		.byte	0x50
 5255 2161 29       		.uleb128 0x29
 5256 2162 CE140000 		.4byte	0x14ce
 5257 2166 2A000000 		.4byte	.LBB410
 5258 216a 06000000 		.4byte	.LBE410-.LBB410
 5259 216e 01       		.byte	0x1
 5260 216f 8A       		.byte	0x8a
 5261 2170 90210000 		.4byte	0x2190
 5262 2174 2A       		.uleb128 0x2a
 5263 2175 F3140000 		.4byte	0x14f3
 5264 2179 C00E0000 		.4byte	.LLST192
 5265 217d 2A       		.uleb128 0x2a
 5266 217e E7140000 		.4byte	0x14e7
 5267 2182 D40E0000 		.4byte	.LLST193
 5268 2186 2A       		.uleb128 0x2a
 5269 2187 DB140000 		.4byte	0x14db
 5270 218b E80E0000 		.4byte	.LLST194
 5271 218f 00       		.byte	0
 5272 2190 29       		.uleb128 0x29
 5273 2191 CE140000 		.4byte	0x14ce
 5274 2195 30000000 		.4byte	.LBB412
 5275 2199 04000000 		.4byte	.LBE412-.LBB412
 5276 219d 01       		.byte	0x1
 5277 219e 8B       		.byte	0x8b
 5278 219f BF210000 		.4byte	0x21bf
 5279 21a3 2A       		.uleb128 0x2a
 5280 21a4 F3140000 		.4byte	0x14f3
 5281 21a8 000F0000 		.4byte	.LLST195
 5282 21ac 2A       		.uleb128 0x2a
 5283 21ad E7140000 		.4byte	0x14e7
 5284 21b1 140F0000 		.4byte	.LLST196
 5285 21b5 2A       		.uleb128 0x2a
 5286 21b6 DB140000 		.4byte	0x14db
 5287 21ba 280F0000 		.4byte	.LLST197
 5288 21be 00       		.byte	0
 5289 21bf 29       		.uleb128 0x29
 5290 21c0 CE140000 		.4byte	0x14ce
 5291 21c4 34000000 		.4byte	.LBB414
 5292 21c8 08000000 		.4byte	.LBE414-.LBB414
 5293 21cc 01       		.byte	0x1
 5294 21cd 8C       		.byte	0x8c
 5295 21ce EE210000 		.4byte	0x21ee
 5296 21d2 2A       		.uleb128 0x2a
 5297 21d3 F3140000 		.4byte	0x14f3
 5298 21d7 400F0000 		.4byte	.LLST198
 5299 21db 2A       		.uleb128 0x2a
ARM GAS  C:\Users\dmula\AppData\Local\Temp\ccXnnfAd.s 			page 135


 5300 21dc E7140000 		.4byte	0x14e7
 5301 21e0 540F0000 		.4byte	.LLST199
 5302 21e4 2A       		.uleb128 0x2a
 5303 21e5 DB140000 		.4byte	0x14db
 5304 21e9 680F0000 		.4byte	.LLST200
 5305 21ed 00       		.byte	0
 5306 21ee 29       		.uleb128 0x29
 5307 21ef CE140000 		.4byte	0x14ce
 5308 21f3 3C000000 		.4byte	.LBB416
 5309 21f7 06000000 		.4byte	.LBE416-.LBB416
 5310 21fb 01       		.byte	0x1
 5311 21fc 8D       		.byte	0x8d
 5312 21fd 1D220000 		.4byte	0x221d
 5313 2201 2A       		.uleb128 0x2a
 5314 2202 F3140000 		.4byte	0x14f3
 5315 2206 800F0000 		.4byte	.LLST201
 5316 220a 2A       		.uleb128 0x2a
 5317 220b E7140000 		.4byte	0x14e7
 5318 220f 940F0000 		.4byte	.LLST202
 5319 2213 2A       		.uleb128 0x2a
 5320 2214 DB140000 		.4byte	0x14db
 5321 2218 A80F0000 		.4byte	.LLST203
 5322 221c 00       		.byte	0
 5323 221d 29       		.uleb128 0x29
 5324 221e CE140000 		.4byte	0x14ce
 5325 2222 42000000 		.4byte	.LBB418
 5326 2226 06000000 		.4byte	.LBE418-.LBB418
 5327 222a 01       		.byte	0x1
 5328 222b 91       		.byte	0x91
 5329 222c 4C220000 		.4byte	0x224c
 5330 2230 2A       		.uleb128 0x2a
 5331 2231 F3140000 		.4byte	0x14f3
 5332 2235 C00F0000 		.4byte	.LLST204
 5333 2239 2A       		.uleb128 0x2a
 5334 223a E7140000 		.4byte	0x14e7
 5335 223e D40F0000 		.4byte	.LLST205
 5336 2242 2A       		.uleb128 0x2a
 5337 2243 DB140000 		.4byte	0x14db
 5338 2247 E80F0000 		.4byte	.LLST206
 5339 224b 00       		.byte	0
 5340 224c 29       		.uleb128 0x29
 5341 224d CE140000 		.4byte	0x14ce
 5342 2251 48000000 		.4byte	.LBB420
 5343 2255 04000000 		.4byte	.LBE420-.LBB420
 5344 2259 01       		.byte	0x1
 5345 225a 92       		.byte	0x92
 5346 225b 7B220000 		.4byte	0x227b
 5347 225f 2A       		.uleb128 0x2a
 5348 2260 F3140000 		.4byte	0x14f3
 5349 2264 00100000 		.4byte	.LLST207
 5350 2268 2A       		.uleb128 0x2a
 5351 2269 E7140000 		.4byte	0x14e7
 5352 226d 14100000 		.4byte	.LLST208
 5353 2271 2A       		.uleb128 0x2a
 5354 2272 DB140000 		.4byte	0x14db
 5355 2276 28100000 		.4byte	.LLST209
 5356 227a 00       		.byte	0
ARM GAS  C:\Users\dmula\AppData\Local\Temp\ccXnnfAd.s 			page 136


 5357 227b 29       		.uleb128 0x29
 5358 227c CE140000 		.4byte	0x14ce
 5359 2280 4C000000 		.4byte	.LBB422
 5360 2284 08000000 		.4byte	.LBE422-.LBB422
 5361 2288 01       		.byte	0x1
 5362 2289 93       		.byte	0x93
 5363 228a AA220000 		.4byte	0x22aa
 5364 228e 2A       		.uleb128 0x2a
 5365 228f F3140000 		.4byte	0x14f3
 5366 2293 40100000 		.4byte	.LLST210
 5367 2297 2A       		.uleb128 0x2a
 5368 2298 E7140000 		.4byte	0x14e7
 5369 229c 54100000 		.4byte	.LLST211
 5370 22a0 2A       		.uleb128 0x2a
 5371 22a1 DB140000 		.4byte	0x14db
 5372 22a5 68100000 		.4byte	.LLST212
 5373 22a9 00       		.byte	0
 5374 22aa 29       		.uleb128 0x29
 5375 22ab CE140000 		.4byte	0x14ce
 5376 22af 54000000 		.4byte	.LBB424
 5377 22b3 06000000 		.4byte	.LBE424-.LBB424
 5378 22b7 01       		.byte	0x1
 5379 22b8 94       		.byte	0x94
 5380 22b9 D9220000 		.4byte	0x22d9
 5381 22bd 2A       		.uleb128 0x2a
 5382 22be F3140000 		.4byte	0x14f3
 5383 22c2 80100000 		.4byte	.LLST213
 5384 22c6 2A       		.uleb128 0x2a
 5385 22c7 E7140000 		.4byte	0x14e7
 5386 22cb 94100000 		.4byte	.LLST214
 5387 22cf 2A       		.uleb128 0x2a
 5388 22d0 DB140000 		.4byte	0x14db
 5389 22d4 A8100000 		.4byte	.LLST215
 5390 22d8 00       		.byte	0
 5391 22d9 29       		.uleb128 0x29
 5392 22da CE140000 		.4byte	0x14ce
 5393 22de 5A000000 		.4byte	.LBB426
 5394 22e2 06000000 		.4byte	.LBE426-.LBB426
 5395 22e6 01       		.byte	0x1
 5396 22e7 98       		.byte	0x98
 5397 22e8 08230000 		.4byte	0x2308
 5398 22ec 2A       		.uleb128 0x2a
 5399 22ed F3140000 		.4byte	0x14f3
 5400 22f1 C0100000 		.4byte	.LLST216
 5401 22f5 2A       		.uleb128 0x2a
 5402 22f6 E7140000 		.4byte	0x14e7
 5403 22fa D4100000 		.4byte	.LLST217
 5404 22fe 2A       		.uleb128 0x2a
 5405 22ff DB140000 		.4byte	0x14db
 5406 2303 E8100000 		.4byte	.LLST218
 5407 2307 00       		.byte	0
 5408 2308 29       		.uleb128 0x29
 5409 2309 CE140000 		.4byte	0x14ce
 5410 230d 60000000 		.4byte	.LBB428
 5411 2311 04000000 		.4byte	.LBE428-.LBB428
 5412 2315 01       		.byte	0x1
 5413 2316 99       		.byte	0x99
ARM GAS  C:\Users\dmula\AppData\Local\Temp\ccXnnfAd.s 			page 137


 5414 2317 37230000 		.4byte	0x2337
 5415 231b 2A       		.uleb128 0x2a
 5416 231c F3140000 		.4byte	0x14f3
 5417 2320 00110000 		.4byte	.LLST219
 5418 2324 2A       		.uleb128 0x2a
 5419 2325 E7140000 		.4byte	0x14e7
 5420 2329 14110000 		.4byte	.LLST220
 5421 232d 2A       		.uleb128 0x2a
 5422 232e DB140000 		.4byte	0x14db
 5423 2332 28110000 		.4byte	.LLST221
 5424 2336 00       		.byte	0
 5425 2337 29       		.uleb128 0x29
 5426 2338 CE140000 		.4byte	0x14ce
 5427 233c 64000000 		.4byte	.LBB430
 5428 2340 08000000 		.4byte	.LBE430-.LBB430
 5429 2344 01       		.byte	0x1
 5430 2345 9A       		.byte	0x9a
 5431 2346 66230000 		.4byte	0x2366
 5432 234a 2A       		.uleb128 0x2a
 5433 234b F3140000 		.4byte	0x14f3
 5434 234f 40110000 		.4byte	.LLST222
 5435 2353 2A       		.uleb128 0x2a
 5436 2354 E7140000 		.4byte	0x14e7
 5437 2358 54110000 		.4byte	.LLST223
 5438 235c 2A       		.uleb128 0x2a
 5439 235d DB140000 		.4byte	0x14db
 5440 2361 68110000 		.4byte	.LLST224
 5441 2365 00       		.byte	0
 5442 2366 29       		.uleb128 0x29
 5443 2367 CE140000 		.4byte	0x14ce
 5444 236b 6C000000 		.4byte	.LBB432
 5445 236f 06000000 		.4byte	.LBE432-.LBB432
 5446 2373 01       		.byte	0x1
 5447 2374 9B       		.byte	0x9b
 5448 2375 95230000 		.4byte	0x2395
 5449 2379 2A       		.uleb128 0x2a
 5450 237a F3140000 		.4byte	0x14f3
 5451 237e 80110000 		.4byte	.LLST225
 5452 2382 2A       		.uleb128 0x2a
 5453 2383 E7140000 		.4byte	0x14e7
 5454 2387 94110000 		.4byte	.LLST226
 5455 238b 2A       		.uleb128 0x2a
 5456 238c DB140000 		.4byte	0x14db
 5457 2390 A8110000 		.4byte	.LLST227
 5458 2394 00       		.byte	0
 5459 2395 29       		.uleb128 0x29
 5460 2396 CE140000 		.4byte	0x14ce
 5461 239a 72000000 		.4byte	.LBB434
 5462 239e 06000000 		.4byte	.LBE434-.LBB434
 5463 23a2 01       		.byte	0x1
 5464 23a3 9F       		.byte	0x9f
 5465 23a4 C4230000 		.4byte	0x23c4
 5466 23a8 2A       		.uleb128 0x2a
 5467 23a9 F3140000 		.4byte	0x14f3
 5468 23ad C0110000 		.4byte	.LLST228
 5469 23b1 2A       		.uleb128 0x2a
 5470 23b2 E7140000 		.4byte	0x14e7
ARM GAS  C:\Users\dmula\AppData\Local\Temp\ccXnnfAd.s 			page 138


 5471 23b6 D4110000 		.4byte	.LLST229
 5472 23ba 2A       		.uleb128 0x2a
 5473 23bb DB140000 		.4byte	0x14db
 5474 23bf E8110000 		.4byte	.LLST230
 5475 23c3 00       		.byte	0
 5476 23c4 29       		.uleb128 0x29
 5477 23c5 CE140000 		.4byte	0x14ce
 5478 23c9 78000000 		.4byte	.LBB436
 5479 23cd 04000000 		.4byte	.LBE436-.LBB436
 5480 23d1 01       		.byte	0x1
 5481 23d2 A0       		.byte	0xa0
 5482 23d3 F3230000 		.4byte	0x23f3
 5483 23d7 2A       		.uleb128 0x2a
 5484 23d8 F3140000 		.4byte	0x14f3
 5485 23dc 00120000 		.4byte	.LLST231
 5486 23e0 2A       		.uleb128 0x2a
 5487 23e1 E7140000 		.4byte	0x14e7
 5488 23e5 14120000 		.4byte	.LLST232
 5489 23e9 2A       		.uleb128 0x2a
 5490 23ea DB140000 		.4byte	0x14db
 5491 23ee 28120000 		.4byte	.LLST233
 5492 23f2 00       		.byte	0
 5493 23f3 29       		.uleb128 0x29
 5494 23f4 CE140000 		.4byte	0x14ce
 5495 23f8 7C000000 		.4byte	.LBB438
 5496 23fc 08000000 		.4byte	.LBE438-.LBB438
 5497 2400 01       		.byte	0x1
 5498 2401 A1       		.byte	0xa1
 5499 2402 22240000 		.4byte	0x2422
 5500 2406 2A       		.uleb128 0x2a
 5501 2407 F3140000 		.4byte	0x14f3
 5502 240b 40120000 		.4byte	.LLST234
 5503 240f 2A       		.uleb128 0x2a
 5504 2410 E7140000 		.4byte	0x14e7
 5505 2414 54120000 		.4byte	.LLST235
 5506 2418 2A       		.uleb128 0x2a
 5507 2419 DB140000 		.4byte	0x14db
 5508 241d 68120000 		.4byte	.LLST236
 5509 2421 00       		.byte	0
 5510 2422 29       		.uleb128 0x29
 5511 2423 CE140000 		.4byte	0x14ce
 5512 2427 84000000 		.4byte	.LBB440
 5513 242b 06000000 		.4byte	.LBE440-.LBB440
 5514 242f 01       		.byte	0x1
 5515 2430 A2       		.byte	0xa2
 5516 2431 51240000 		.4byte	0x2451
 5517 2435 2A       		.uleb128 0x2a
 5518 2436 F3140000 		.4byte	0x14f3
 5519 243a 80120000 		.4byte	.LLST237
 5520 243e 2A       		.uleb128 0x2a
 5521 243f E7140000 		.4byte	0x14e7
 5522 2443 94120000 		.4byte	.LLST238
 5523 2447 2A       		.uleb128 0x2a
 5524 2448 DB140000 		.4byte	0x14db
 5525 244c A8120000 		.4byte	.LLST239
 5526 2450 00       		.byte	0
 5527 2451 29       		.uleb128 0x29
ARM GAS  C:\Users\dmula\AppData\Local\Temp\ccXnnfAd.s 			page 139


 5528 2452 CE140000 		.4byte	0x14ce
 5529 2456 8A000000 		.4byte	.LBB442
 5530 245a 06000000 		.4byte	.LBE442-.LBB442
 5531 245e 01       		.byte	0x1
 5532 245f A6       		.byte	0xa6
 5533 2460 80240000 		.4byte	0x2480
 5534 2464 2A       		.uleb128 0x2a
 5535 2465 F3140000 		.4byte	0x14f3
 5536 2469 C0120000 		.4byte	.LLST240
 5537 246d 2A       		.uleb128 0x2a
 5538 246e E7140000 		.4byte	0x14e7
 5539 2472 D4120000 		.4byte	.LLST241
 5540 2476 2A       		.uleb128 0x2a
 5541 2477 DB140000 		.4byte	0x14db
 5542 247b E8120000 		.4byte	.LLST242
 5543 247f 00       		.byte	0
 5544 2480 29       		.uleb128 0x29
 5545 2481 CE140000 		.4byte	0x14ce
 5546 2485 90000000 		.4byte	.LBB444
 5547 2489 04000000 		.4byte	.LBE444-.LBB444
 5548 248d 01       		.byte	0x1
 5549 248e A7       		.byte	0xa7
 5550 248f AF240000 		.4byte	0x24af
 5551 2493 2A       		.uleb128 0x2a
 5552 2494 F3140000 		.4byte	0x14f3
 5553 2498 00130000 		.4byte	.LLST243
 5554 249c 2A       		.uleb128 0x2a
 5555 249d E7140000 		.4byte	0x14e7
 5556 24a1 14130000 		.4byte	.LLST244
 5557 24a5 2A       		.uleb128 0x2a
 5558 24a6 DB140000 		.4byte	0x14db
 5559 24aa 28130000 		.4byte	.LLST245
 5560 24ae 00       		.byte	0
 5561 24af 29       		.uleb128 0x29
 5562 24b0 CE140000 		.4byte	0x14ce
 5563 24b4 94000000 		.4byte	.LBB446
 5564 24b8 08000000 		.4byte	.LBE446-.LBB446
 5565 24bc 01       		.byte	0x1
 5566 24bd A8       		.byte	0xa8
 5567 24be DE240000 		.4byte	0x24de
 5568 24c2 2A       		.uleb128 0x2a
 5569 24c3 F3140000 		.4byte	0x14f3
 5570 24c7 40130000 		.4byte	.LLST246
 5571 24cb 2A       		.uleb128 0x2a
 5572 24cc E7140000 		.4byte	0x14e7
 5573 24d0 54130000 		.4byte	.LLST247
 5574 24d4 2A       		.uleb128 0x2a
 5575 24d5 DB140000 		.4byte	0x14db
 5576 24d9 68130000 		.4byte	.LLST248
 5577 24dd 00       		.byte	0
 5578 24de 29       		.uleb128 0x29
 5579 24df CE140000 		.4byte	0x14ce
 5580 24e3 9C000000 		.4byte	.LBB448
 5581 24e7 06000000 		.4byte	.LBE448-.LBB448
 5582 24eb 01       		.byte	0x1
 5583 24ec A9       		.byte	0xa9
 5584 24ed 0D250000 		.4byte	0x250d
ARM GAS  C:\Users\dmula\AppData\Local\Temp\ccXnnfAd.s 			page 140


 5585 24f1 2A       		.uleb128 0x2a
 5586 24f2 F3140000 		.4byte	0x14f3
 5587 24f6 80130000 		.4byte	.LLST249
 5588 24fa 2A       		.uleb128 0x2a
 5589 24fb E7140000 		.4byte	0x14e7
 5590 24ff 94130000 		.4byte	.LLST250
 5591 2503 2A       		.uleb128 0x2a
 5592 2504 DB140000 		.4byte	0x14db
 5593 2508 A8130000 		.4byte	.LLST251
 5594 250c 00       		.byte	0
 5595 250d 29       		.uleb128 0x29
 5596 250e CE140000 		.4byte	0x14ce
 5597 2512 A2000000 		.4byte	.LBB450
 5598 2516 06000000 		.4byte	.LBE450-.LBB450
 5599 251a 01       		.byte	0x1
 5600 251b AD       		.byte	0xad
 5601 251c 3C250000 		.4byte	0x253c
 5602 2520 2A       		.uleb128 0x2a
 5603 2521 F3140000 		.4byte	0x14f3
 5604 2525 C0130000 		.4byte	.LLST252
 5605 2529 2A       		.uleb128 0x2a
 5606 252a E7140000 		.4byte	0x14e7
 5607 252e D4130000 		.4byte	.LLST253
 5608 2532 2A       		.uleb128 0x2a
 5609 2533 DB140000 		.4byte	0x14db
 5610 2537 E8130000 		.4byte	.LLST254
 5611 253b 00       		.byte	0
 5612 253c 29       		.uleb128 0x29
 5613 253d CE140000 		.4byte	0x14ce
 5614 2541 A8000000 		.4byte	.LBB452
 5615 2545 04000000 		.4byte	.LBE452-.LBB452
 5616 2549 01       		.byte	0x1
 5617 254a AE       		.byte	0xae
 5618 254b 6B250000 		.4byte	0x256b
 5619 254f 2A       		.uleb128 0x2a
 5620 2550 F3140000 		.4byte	0x14f3
 5621 2554 00140000 		.4byte	.LLST255
 5622 2558 2A       		.uleb128 0x2a
 5623 2559 E7140000 		.4byte	0x14e7
 5624 255d 14140000 		.4byte	.LLST256
 5625 2561 2A       		.uleb128 0x2a
 5626 2562 DB140000 		.4byte	0x14db
 5627 2566 28140000 		.4byte	.LLST257
 5628 256a 00       		.byte	0
 5629 256b 29       		.uleb128 0x29
 5630 256c CE140000 		.4byte	0x14ce
 5631 2570 AC000000 		.4byte	.LBB454
 5632 2574 08000000 		.4byte	.LBE454-.LBB454
 5633 2578 01       		.byte	0x1
 5634 2579 AF       		.byte	0xaf
 5635 257a 9A250000 		.4byte	0x259a
 5636 257e 2A       		.uleb128 0x2a
 5637 257f F3140000 		.4byte	0x14f3
 5638 2583 40140000 		.4byte	.LLST258
 5639 2587 2A       		.uleb128 0x2a
 5640 2588 E7140000 		.4byte	0x14e7
 5641 258c 54140000 		.4byte	.LLST259
ARM GAS  C:\Users\dmula\AppData\Local\Temp\ccXnnfAd.s 			page 141


 5642 2590 2A       		.uleb128 0x2a
 5643 2591 DB140000 		.4byte	0x14db
 5644 2595 68140000 		.4byte	.LLST260
 5645 2599 00       		.byte	0
 5646 259a 29       		.uleb128 0x29
 5647 259b CE140000 		.4byte	0x14ce
 5648 259f B4000000 		.4byte	.LBB456
 5649 25a3 06000000 		.4byte	.LBE456-.LBB456
 5650 25a7 01       		.byte	0x1
 5651 25a8 B0       		.byte	0xb0
 5652 25a9 C9250000 		.4byte	0x25c9
 5653 25ad 2A       		.uleb128 0x2a
 5654 25ae F3140000 		.4byte	0x14f3
 5655 25b2 80140000 		.4byte	.LLST261
 5656 25b6 2A       		.uleb128 0x2a
 5657 25b7 E7140000 		.4byte	0x14e7
 5658 25bb 94140000 		.4byte	.LLST262
 5659 25bf 2A       		.uleb128 0x2a
 5660 25c0 DB140000 		.4byte	0x14db
 5661 25c4 A8140000 		.4byte	.LLST263
 5662 25c8 00       		.byte	0
 5663 25c9 29       		.uleb128 0x29
 5664 25ca CE140000 		.4byte	0x14ce
 5665 25ce BA000000 		.4byte	.LBB458
 5666 25d2 06000000 		.4byte	.LBE458-.LBB458
 5667 25d6 01       		.byte	0x1
 5668 25d7 B4       		.byte	0xb4
 5669 25d8 F8250000 		.4byte	0x25f8
 5670 25dc 2A       		.uleb128 0x2a
 5671 25dd F3140000 		.4byte	0x14f3
 5672 25e1 C0140000 		.4byte	.LLST264
 5673 25e5 2A       		.uleb128 0x2a
 5674 25e6 E7140000 		.4byte	0x14e7
 5675 25ea D4140000 		.4byte	.LLST265
 5676 25ee 2A       		.uleb128 0x2a
 5677 25ef DB140000 		.4byte	0x14db
 5678 25f3 E8140000 		.4byte	.LLST266
 5679 25f7 00       		.byte	0
 5680 25f8 29       		.uleb128 0x29
 5681 25f9 CE140000 		.4byte	0x14ce
 5682 25fd C0000000 		.4byte	.LBB460
 5683 2601 04000000 		.4byte	.LBE460-.LBB460
 5684 2605 01       		.byte	0x1
 5685 2606 B5       		.byte	0xb5
 5686 2607 27260000 		.4byte	0x2627
 5687 260b 2A       		.uleb128 0x2a
 5688 260c F3140000 		.4byte	0x14f3
 5689 2610 00150000 		.4byte	.LLST267
 5690 2614 2A       		.uleb128 0x2a
 5691 2615 E7140000 		.4byte	0x14e7
 5692 2619 14150000 		.4byte	.LLST268
 5693 261d 2A       		.uleb128 0x2a
 5694 261e DB140000 		.4byte	0x14db
 5695 2622 28150000 		.4byte	.LLST269
 5696 2626 00       		.byte	0
 5697 2627 29       		.uleb128 0x29
 5698 2628 CE140000 		.4byte	0x14ce
ARM GAS  C:\Users\dmula\AppData\Local\Temp\ccXnnfAd.s 			page 142


 5699 262c C4000000 		.4byte	.LBB462
 5700 2630 08000000 		.4byte	.LBE462-.LBB462
 5701 2634 01       		.byte	0x1
 5702 2635 B6       		.byte	0xb6
 5703 2636 56260000 		.4byte	0x2656
 5704 263a 2A       		.uleb128 0x2a
 5705 263b F3140000 		.4byte	0x14f3
 5706 263f 40150000 		.4byte	.LLST270
 5707 2643 2A       		.uleb128 0x2a
 5708 2644 E7140000 		.4byte	0x14e7
 5709 2648 54150000 		.4byte	.LLST271
 5710 264c 2A       		.uleb128 0x2a
 5711 264d DB140000 		.4byte	0x14db
 5712 2651 68150000 		.4byte	.LLST272
 5713 2655 00       		.byte	0
 5714 2656 29       		.uleb128 0x29
 5715 2657 CE140000 		.4byte	0x14ce
 5716 265b CC000000 		.4byte	.LBB464
 5717 265f 06000000 		.4byte	.LBE464-.LBB464
 5718 2663 01       		.byte	0x1
 5719 2664 B7       		.byte	0xb7
 5720 2665 85260000 		.4byte	0x2685
 5721 2669 2A       		.uleb128 0x2a
 5722 266a F3140000 		.4byte	0x14f3
 5723 266e 80150000 		.4byte	.LLST273
 5724 2672 2A       		.uleb128 0x2a
 5725 2673 E7140000 		.4byte	0x14e7
 5726 2677 94150000 		.4byte	.LLST274
 5727 267b 2A       		.uleb128 0x2a
 5728 267c DB140000 		.4byte	0x14db
 5729 2680 A8150000 		.4byte	.LLST275
 5730 2684 00       		.byte	0
 5731 2685 29       		.uleb128 0x29
 5732 2686 CE140000 		.4byte	0x14ce
 5733 268a D2000000 		.4byte	.LBB466
 5734 268e 06000000 		.4byte	.LBE466-.LBB466
 5735 2692 01       		.byte	0x1
 5736 2693 BB       		.byte	0xbb
 5737 2694 B4260000 		.4byte	0x26b4
 5738 2698 2A       		.uleb128 0x2a
 5739 2699 F3140000 		.4byte	0x14f3
 5740 269d C0150000 		.4byte	.LLST276
 5741 26a1 2A       		.uleb128 0x2a
 5742 26a2 E7140000 		.4byte	0x14e7
 5743 26a6 D4150000 		.4byte	.LLST277
 5744 26aa 2A       		.uleb128 0x2a
 5745 26ab DB140000 		.4byte	0x14db
 5746 26af E8150000 		.4byte	.LLST278
 5747 26b3 00       		.byte	0
 5748 26b4 29       		.uleb128 0x29
 5749 26b5 CE140000 		.4byte	0x14ce
 5750 26b9 D8000000 		.4byte	.LBB468
 5751 26bd 04000000 		.4byte	.LBE468-.LBB468
 5752 26c1 01       		.byte	0x1
 5753 26c2 BC       		.byte	0xbc
 5754 26c3 E3260000 		.4byte	0x26e3
 5755 26c7 2A       		.uleb128 0x2a
ARM GAS  C:\Users\dmula\AppData\Local\Temp\ccXnnfAd.s 			page 143


 5756 26c8 F3140000 		.4byte	0x14f3
 5757 26cc 00160000 		.4byte	.LLST279
 5758 26d0 2A       		.uleb128 0x2a
 5759 26d1 E7140000 		.4byte	0x14e7
 5760 26d5 14160000 		.4byte	.LLST280
 5761 26d9 2A       		.uleb128 0x2a
 5762 26da DB140000 		.4byte	0x14db
 5763 26de 28160000 		.4byte	.LLST281
 5764 26e2 00       		.byte	0
 5765 26e3 29       		.uleb128 0x29
 5766 26e4 CE140000 		.4byte	0x14ce
 5767 26e8 DC000000 		.4byte	.LBB470
 5768 26ec 08000000 		.4byte	.LBE470-.LBB470
 5769 26f0 01       		.byte	0x1
 5770 26f1 BD       		.byte	0xbd
 5771 26f2 12270000 		.4byte	0x2712
 5772 26f6 2A       		.uleb128 0x2a
 5773 26f7 F3140000 		.4byte	0x14f3
 5774 26fb 40160000 		.4byte	.LLST282
 5775 26ff 2A       		.uleb128 0x2a
 5776 2700 E7140000 		.4byte	0x14e7
 5777 2704 54160000 		.4byte	.LLST283
 5778 2708 2A       		.uleb128 0x2a
 5779 2709 DB140000 		.4byte	0x14db
 5780 270d 68160000 		.4byte	.LLST284
 5781 2711 00       		.byte	0
 5782 2712 29       		.uleb128 0x29
 5783 2713 CE140000 		.4byte	0x14ce
 5784 2717 E4000000 		.4byte	.LBB472
 5785 271b 06000000 		.4byte	.LBE472-.LBB472
 5786 271f 01       		.byte	0x1
 5787 2720 BE       		.byte	0xbe
 5788 2721 41270000 		.4byte	0x2741
 5789 2725 2A       		.uleb128 0x2a
 5790 2726 F3140000 		.4byte	0x14f3
 5791 272a 80160000 		.4byte	.LLST285
 5792 272e 2A       		.uleb128 0x2a
 5793 272f E7140000 		.4byte	0x14e7
 5794 2733 94160000 		.4byte	.LLST286
 5795 2737 2A       		.uleb128 0x2a
 5796 2738 DB140000 		.4byte	0x14db
 5797 273c A8160000 		.4byte	.LLST287
 5798 2740 00       		.byte	0
 5799 2741 29       		.uleb128 0x29
 5800 2742 CE140000 		.4byte	0x14ce
 5801 2746 EA000000 		.4byte	.LBB474
 5802 274a 06000000 		.4byte	.LBE474-.LBB474
 5803 274e 01       		.byte	0x1
 5804 274f C2       		.byte	0xc2
 5805 2750 70270000 		.4byte	0x2770
 5806 2754 2A       		.uleb128 0x2a
 5807 2755 F3140000 		.4byte	0x14f3
 5808 2759 C0160000 		.4byte	.LLST288
 5809 275d 2A       		.uleb128 0x2a
 5810 275e E7140000 		.4byte	0x14e7
 5811 2762 D4160000 		.4byte	.LLST289
 5812 2766 2A       		.uleb128 0x2a
ARM GAS  C:\Users\dmula\AppData\Local\Temp\ccXnnfAd.s 			page 144


 5813 2767 DB140000 		.4byte	0x14db
 5814 276b E8160000 		.4byte	.LLST290
 5815 276f 00       		.byte	0
 5816 2770 29       		.uleb128 0x29
 5817 2771 CE140000 		.4byte	0x14ce
 5818 2775 F0000000 		.4byte	.LBB476
 5819 2779 04000000 		.4byte	.LBE476-.LBB476
 5820 277d 01       		.byte	0x1
 5821 277e C3       		.byte	0xc3
 5822 277f 9F270000 		.4byte	0x279f
 5823 2783 2A       		.uleb128 0x2a
 5824 2784 F3140000 		.4byte	0x14f3
 5825 2788 00170000 		.4byte	.LLST291
 5826 278c 2A       		.uleb128 0x2a
 5827 278d E7140000 		.4byte	0x14e7
 5828 2791 14170000 		.4byte	.LLST292
 5829 2795 2A       		.uleb128 0x2a
 5830 2796 DB140000 		.4byte	0x14db
 5831 279a 28170000 		.4byte	.LLST293
 5832 279e 00       		.byte	0
 5833 279f 29       		.uleb128 0x29
 5834 27a0 CE140000 		.4byte	0x14ce
 5835 27a4 F4000000 		.4byte	.LBB478
 5836 27a8 08000000 		.4byte	.LBE478-.LBB478
 5837 27ac 01       		.byte	0x1
 5838 27ad C4       		.byte	0xc4
 5839 27ae CE270000 		.4byte	0x27ce
 5840 27b2 2A       		.uleb128 0x2a
 5841 27b3 F3140000 		.4byte	0x14f3
 5842 27b7 40170000 		.4byte	.LLST294
 5843 27bb 2A       		.uleb128 0x2a
 5844 27bc E7140000 		.4byte	0x14e7
 5845 27c0 54170000 		.4byte	.LLST295
 5846 27c4 2A       		.uleb128 0x2a
 5847 27c5 DB140000 		.4byte	0x14db
 5848 27c9 68170000 		.4byte	.LLST296
 5849 27cd 00       		.byte	0
 5850 27ce 29       		.uleb128 0x29
 5851 27cf CE140000 		.4byte	0x14ce
 5852 27d3 FC000000 		.4byte	.LBB480
 5853 27d7 06000000 		.4byte	.LBE480-.LBB480
 5854 27db 01       		.byte	0x1
 5855 27dc C5       		.byte	0xc5
 5856 27dd FD270000 		.4byte	0x27fd
 5857 27e1 2A       		.uleb128 0x2a
 5858 27e2 F3140000 		.4byte	0x14f3
 5859 27e6 80170000 		.4byte	.LLST297
 5860 27ea 2A       		.uleb128 0x2a
 5861 27eb E7140000 		.4byte	0x14e7
 5862 27ef 94170000 		.4byte	.LLST298
 5863 27f3 2A       		.uleb128 0x2a
 5864 27f4 DB140000 		.4byte	0x14db
 5865 27f8 A8170000 		.4byte	.LLST299
 5866 27fc 00       		.byte	0
 5867 27fd 29       		.uleb128 0x29
 5868 27fe CE140000 		.4byte	0x14ce
 5869 2802 02010000 		.4byte	.LBB482
ARM GAS  C:\Users\dmula\AppData\Local\Temp\ccXnnfAd.s 			page 145


 5870 2806 06000000 		.4byte	.LBE482-.LBB482
 5871 280a 01       		.byte	0x1
 5872 280b C9       		.byte	0xc9
 5873 280c 2C280000 		.4byte	0x282c
 5874 2810 2A       		.uleb128 0x2a
 5875 2811 F3140000 		.4byte	0x14f3
 5876 2815 C0170000 		.4byte	.LLST300
 5877 2819 2A       		.uleb128 0x2a
 5878 281a E7140000 		.4byte	0x14e7
 5879 281e D4170000 		.4byte	.LLST301
 5880 2822 2A       		.uleb128 0x2a
 5881 2823 DB140000 		.4byte	0x14db
 5882 2827 E8170000 		.4byte	.LLST302
 5883 282b 00       		.byte	0
 5884 282c 29       		.uleb128 0x29
 5885 282d CE140000 		.4byte	0x14ce
 5886 2831 08010000 		.4byte	.LBB484
 5887 2835 04000000 		.4byte	.LBE484-.LBB484
 5888 2839 01       		.byte	0x1
 5889 283a CA       		.byte	0xca
 5890 283b 5B280000 		.4byte	0x285b
 5891 283f 2A       		.uleb128 0x2a
 5892 2840 F3140000 		.4byte	0x14f3
 5893 2844 00180000 		.4byte	.LLST303
 5894 2848 2A       		.uleb128 0x2a
 5895 2849 E7140000 		.4byte	0x14e7
 5896 284d 14180000 		.4byte	.LLST304
 5897 2851 2A       		.uleb128 0x2a
 5898 2852 DB140000 		.4byte	0x14db
 5899 2856 28180000 		.4byte	.LLST305
 5900 285a 00       		.byte	0
 5901 285b 29       		.uleb128 0x29
 5902 285c CE140000 		.4byte	0x14ce
 5903 2860 0C010000 		.4byte	.LBB486
 5904 2864 08000000 		.4byte	.LBE486-.LBB486
 5905 2868 01       		.byte	0x1
 5906 2869 CB       		.byte	0xcb
 5907 286a 8A280000 		.4byte	0x288a
 5908 286e 2A       		.uleb128 0x2a
 5909 286f F3140000 		.4byte	0x14f3
 5910 2873 40180000 		.4byte	.LLST306
 5911 2877 2A       		.uleb128 0x2a
 5912 2878 E7140000 		.4byte	0x14e7
 5913 287c 54180000 		.4byte	.LLST307
 5914 2880 2A       		.uleb128 0x2a
 5915 2881 DB140000 		.4byte	0x14db
 5916 2885 68180000 		.4byte	.LLST308
 5917 2889 00       		.byte	0
 5918 288a 29       		.uleb128 0x29
 5919 288b CE140000 		.4byte	0x14ce
 5920 288f 14010000 		.4byte	.LBB488
 5921 2893 06000000 		.4byte	.LBE488-.LBB488
 5922 2897 01       		.byte	0x1
 5923 2898 CC       		.byte	0xcc
 5924 2899 B9280000 		.4byte	0x28b9
 5925 289d 2A       		.uleb128 0x2a
 5926 289e F3140000 		.4byte	0x14f3
ARM GAS  C:\Users\dmula\AppData\Local\Temp\ccXnnfAd.s 			page 146


 5927 28a2 80180000 		.4byte	.LLST309
 5928 28a6 2A       		.uleb128 0x2a
 5929 28a7 E7140000 		.4byte	0x14e7
 5930 28ab 94180000 		.4byte	.LLST310
 5931 28af 2A       		.uleb128 0x2a
 5932 28b0 DB140000 		.4byte	0x14db
 5933 28b4 A8180000 		.4byte	.LLST311
 5934 28b8 00       		.byte	0
 5935 28b9 29       		.uleb128 0x29
 5936 28ba CE140000 		.4byte	0x14ce
 5937 28be 1A010000 		.4byte	.LBB490
 5938 28c2 06000000 		.4byte	.LBE490-.LBB490
 5939 28c6 01       		.byte	0x1
 5940 28c7 D0       		.byte	0xd0
 5941 28c8 E8280000 		.4byte	0x28e8
 5942 28cc 2A       		.uleb128 0x2a
 5943 28cd F3140000 		.4byte	0x14f3
 5944 28d1 C0180000 		.4byte	.LLST312
 5945 28d5 2A       		.uleb128 0x2a
 5946 28d6 E7140000 		.4byte	0x14e7
 5947 28da D4180000 		.4byte	.LLST313
 5948 28de 2A       		.uleb128 0x2a
 5949 28df DB140000 		.4byte	0x14db
 5950 28e3 E8180000 		.4byte	.LLST314
 5951 28e7 00       		.byte	0
 5952 28e8 29       		.uleb128 0x29
 5953 28e9 CE140000 		.4byte	0x14ce
 5954 28ed 20010000 		.4byte	.LBB492
 5955 28f1 04000000 		.4byte	.LBE492-.LBB492
 5956 28f5 01       		.byte	0x1
 5957 28f6 D1       		.byte	0xd1
 5958 28f7 17290000 		.4byte	0x2917
 5959 28fb 2A       		.uleb128 0x2a
 5960 28fc F3140000 		.4byte	0x14f3
 5961 2900 00190000 		.4byte	.LLST315
 5962 2904 2A       		.uleb128 0x2a
 5963 2905 E7140000 		.4byte	0x14e7
 5964 2909 14190000 		.4byte	.LLST316
 5965 290d 2A       		.uleb128 0x2a
 5966 290e DB140000 		.4byte	0x14db
 5967 2912 28190000 		.4byte	.LLST317
 5968 2916 00       		.byte	0
 5969 2917 29       		.uleb128 0x29
 5970 2918 CE140000 		.4byte	0x14ce
 5971 291c 24010000 		.4byte	.LBB494
 5972 2920 08000000 		.4byte	.LBE494-.LBB494
 5973 2924 01       		.byte	0x1
 5974 2925 D2       		.byte	0xd2
 5975 2926 46290000 		.4byte	0x2946
 5976 292a 2A       		.uleb128 0x2a
 5977 292b F3140000 		.4byte	0x14f3
 5978 292f 40190000 		.4byte	.LLST318
 5979 2933 2A       		.uleb128 0x2a
 5980 2934 E7140000 		.4byte	0x14e7
 5981 2938 54190000 		.4byte	.LLST319
 5982 293c 2A       		.uleb128 0x2a
 5983 293d DB140000 		.4byte	0x14db
ARM GAS  C:\Users\dmula\AppData\Local\Temp\ccXnnfAd.s 			page 147


 5984 2941 68190000 		.4byte	.LLST320
 5985 2945 00       		.byte	0
 5986 2946 29       		.uleb128 0x29
 5987 2947 CE140000 		.4byte	0x14ce
 5988 294b 2C010000 		.4byte	.LBB496
 5989 294f 06000000 		.4byte	.LBE496-.LBB496
 5990 2953 01       		.byte	0x1
 5991 2954 D3       		.byte	0xd3
 5992 2955 75290000 		.4byte	0x2975
 5993 2959 2A       		.uleb128 0x2a
 5994 295a F3140000 		.4byte	0x14f3
 5995 295e 80190000 		.4byte	.LLST321
 5996 2962 2A       		.uleb128 0x2a
 5997 2963 E7140000 		.4byte	0x14e7
 5998 2967 94190000 		.4byte	.LLST322
 5999 296b 2A       		.uleb128 0x2a
 6000 296c DB140000 		.4byte	0x14db
 6001 2970 A8190000 		.4byte	.LLST323
 6002 2974 00       		.byte	0
 6003 2975 29       		.uleb128 0x29
 6004 2976 CE140000 		.4byte	0x14ce
 6005 297a 32010000 		.4byte	.LBB498
 6006 297e 06000000 		.4byte	.LBE498-.LBB498
 6007 2982 01       		.byte	0x1
 6008 2983 D7       		.byte	0xd7
 6009 2984 A4290000 		.4byte	0x29a4
 6010 2988 2A       		.uleb128 0x2a
 6011 2989 F3140000 		.4byte	0x14f3
 6012 298d C0190000 		.4byte	.LLST324
 6013 2991 2A       		.uleb128 0x2a
 6014 2992 E7140000 		.4byte	0x14e7
 6015 2996 D4190000 		.4byte	.LLST325
 6016 299a 2A       		.uleb128 0x2a
 6017 299b DB140000 		.4byte	0x14db
 6018 299f E8190000 		.4byte	.LLST326
 6019 29a3 00       		.byte	0
 6020 29a4 29       		.uleb128 0x29
 6021 29a5 CE140000 		.4byte	0x14ce
 6022 29a9 38010000 		.4byte	.LBB500
 6023 29ad 04000000 		.4byte	.LBE500-.LBB500
 6024 29b1 01       		.byte	0x1
 6025 29b2 D8       		.byte	0xd8
 6026 29b3 D3290000 		.4byte	0x29d3
 6027 29b7 2A       		.uleb128 0x2a
 6028 29b8 F3140000 		.4byte	0x14f3
 6029 29bc 001A0000 		.4byte	.LLST327
 6030 29c0 2A       		.uleb128 0x2a
 6031 29c1 E7140000 		.4byte	0x14e7
 6032 29c5 141A0000 		.4byte	.LLST328
 6033 29c9 2A       		.uleb128 0x2a
 6034 29ca DB140000 		.4byte	0x14db
 6035 29ce 281A0000 		.4byte	.LLST329
 6036 29d2 00       		.byte	0
 6037 29d3 29       		.uleb128 0x29
 6038 29d4 CE140000 		.4byte	0x14ce
 6039 29d8 3C010000 		.4byte	.LBB502
 6040 29dc 08000000 		.4byte	.LBE502-.LBB502
ARM GAS  C:\Users\dmula\AppData\Local\Temp\ccXnnfAd.s 			page 148


 6041 29e0 01       		.byte	0x1
 6042 29e1 D9       		.byte	0xd9
 6043 29e2 022A0000 		.4byte	0x2a02
 6044 29e6 2A       		.uleb128 0x2a
 6045 29e7 F3140000 		.4byte	0x14f3
 6046 29eb 401A0000 		.4byte	.LLST330
 6047 29ef 2A       		.uleb128 0x2a
 6048 29f0 E7140000 		.4byte	0x14e7
 6049 29f4 541A0000 		.4byte	.LLST331
 6050 29f8 2A       		.uleb128 0x2a
 6051 29f9 DB140000 		.4byte	0x14db
 6052 29fd 681A0000 		.4byte	.LLST332
 6053 2a01 00       		.byte	0
 6054 2a02 29       		.uleb128 0x29
 6055 2a03 CE140000 		.4byte	0x14ce
 6056 2a07 44010000 		.4byte	.LBB504
 6057 2a0b 06000000 		.4byte	.LBE504-.LBB504
 6058 2a0f 01       		.byte	0x1
 6059 2a10 DA       		.byte	0xda
 6060 2a11 312A0000 		.4byte	0x2a31
 6061 2a15 2A       		.uleb128 0x2a
 6062 2a16 F3140000 		.4byte	0x14f3
 6063 2a1a 801A0000 		.4byte	.LLST333
 6064 2a1e 2A       		.uleb128 0x2a
 6065 2a1f E7140000 		.4byte	0x14e7
 6066 2a23 941A0000 		.4byte	.LLST334
 6067 2a27 2A       		.uleb128 0x2a
 6068 2a28 DB140000 		.4byte	0x14db
 6069 2a2c A81A0000 		.4byte	.LLST335
 6070 2a30 00       		.byte	0
 6071 2a31 29       		.uleb128 0x29
 6072 2a32 CE140000 		.4byte	0x14ce
 6073 2a36 4A010000 		.4byte	.LBB506
 6074 2a3a 06000000 		.4byte	.LBE506-.LBB506
 6075 2a3e 01       		.byte	0x1
 6076 2a3f DD       		.byte	0xdd
 6077 2a40 602A0000 		.4byte	0x2a60
 6078 2a44 2A       		.uleb128 0x2a
 6079 2a45 F3140000 		.4byte	0x14f3
 6080 2a49 C01A0000 		.4byte	.LLST336
 6081 2a4d 2A       		.uleb128 0x2a
 6082 2a4e E7140000 		.4byte	0x14e7
 6083 2a52 D41A0000 		.4byte	.LLST337
 6084 2a56 2A       		.uleb128 0x2a
 6085 2a57 DB140000 		.4byte	0x14db
 6086 2a5b E81A0000 		.4byte	.LLST338
 6087 2a5f 00       		.byte	0
 6088 2a60 29       		.uleb128 0x29
 6089 2a61 CE140000 		.4byte	0x14ce
 6090 2a65 50010000 		.4byte	.LBB508
 6091 2a69 04000000 		.4byte	.LBE508-.LBB508
 6092 2a6d 01       		.byte	0x1
 6093 2a6e DE       		.byte	0xde
 6094 2a6f 8F2A0000 		.4byte	0x2a8f
 6095 2a73 2A       		.uleb128 0x2a
 6096 2a74 F3140000 		.4byte	0x14f3
 6097 2a78 001B0000 		.4byte	.LLST339
ARM GAS  C:\Users\dmula\AppData\Local\Temp\ccXnnfAd.s 			page 149


 6098 2a7c 2A       		.uleb128 0x2a
 6099 2a7d E7140000 		.4byte	0x14e7
 6100 2a81 141B0000 		.4byte	.LLST340
 6101 2a85 2A       		.uleb128 0x2a
 6102 2a86 DB140000 		.4byte	0x14db
 6103 2a8a 281B0000 		.4byte	.LLST341
 6104 2a8e 00       		.byte	0
 6105 2a8f 29       		.uleb128 0x29
 6106 2a90 CE140000 		.4byte	0x14ce
 6107 2a94 54010000 		.4byte	.LBB510
 6108 2a98 08000000 		.4byte	.LBE510-.LBB510
 6109 2a9c 01       		.byte	0x1
 6110 2a9d DF       		.byte	0xdf
 6111 2a9e BE2A0000 		.4byte	0x2abe
 6112 2aa2 2A       		.uleb128 0x2a
 6113 2aa3 F3140000 		.4byte	0x14f3
 6114 2aa7 401B0000 		.4byte	.LLST342
 6115 2aab 2A       		.uleb128 0x2a
 6116 2aac E7140000 		.4byte	0x14e7
 6117 2ab0 541B0000 		.4byte	.LLST343
 6118 2ab4 2A       		.uleb128 0x2a
 6119 2ab5 DB140000 		.4byte	0x14db
 6120 2ab9 681B0000 		.4byte	.LLST344
 6121 2abd 00       		.byte	0
 6122 2abe 29       		.uleb128 0x29
 6123 2abf CE140000 		.4byte	0x14ce
 6124 2ac3 5C010000 		.4byte	.LBB512
 6125 2ac7 06000000 		.4byte	.LBE512-.LBB512
 6126 2acb 01       		.byte	0x1
 6127 2acc E0       		.byte	0xe0
 6128 2acd ED2A0000 		.4byte	0x2aed
 6129 2ad1 2A       		.uleb128 0x2a
 6130 2ad2 F3140000 		.4byte	0x14f3
 6131 2ad6 801B0000 		.4byte	.LLST345
 6132 2ada 2A       		.uleb128 0x2a
 6133 2adb E7140000 		.4byte	0x14e7
 6134 2adf 941B0000 		.4byte	.LLST346
 6135 2ae3 2A       		.uleb128 0x2a
 6136 2ae4 DB140000 		.4byte	0x14db
 6137 2ae8 A81B0000 		.4byte	.LLST347
 6138 2aec 00       		.byte	0
 6139 2aed 29       		.uleb128 0x29
 6140 2aee CE140000 		.4byte	0x14ce
 6141 2af2 62010000 		.4byte	.LBB514
 6142 2af6 06000000 		.4byte	.LBE514-.LBB514
 6143 2afa 01       		.byte	0x1
 6144 2afb E3       		.byte	0xe3
 6145 2afc 1C2B0000 		.4byte	0x2b1c
 6146 2b00 2A       		.uleb128 0x2a
 6147 2b01 F3140000 		.4byte	0x14f3
 6148 2b05 C01B0000 		.4byte	.LLST348
 6149 2b09 2A       		.uleb128 0x2a
 6150 2b0a E7140000 		.4byte	0x14e7
 6151 2b0e D41B0000 		.4byte	.LLST349
 6152 2b12 2A       		.uleb128 0x2a
 6153 2b13 DB140000 		.4byte	0x14db
 6154 2b17 E81B0000 		.4byte	.LLST350
ARM GAS  C:\Users\dmula\AppData\Local\Temp\ccXnnfAd.s 			page 150


 6155 2b1b 00       		.byte	0
 6156 2b1c 29       		.uleb128 0x29
 6157 2b1d CE140000 		.4byte	0x14ce
 6158 2b21 68010000 		.4byte	.LBB516
 6159 2b25 04000000 		.4byte	.LBE516-.LBB516
 6160 2b29 01       		.byte	0x1
 6161 2b2a E4       		.byte	0xe4
 6162 2b2b 4B2B0000 		.4byte	0x2b4b
 6163 2b2f 2A       		.uleb128 0x2a
 6164 2b30 F3140000 		.4byte	0x14f3
 6165 2b34 001C0000 		.4byte	.LLST351
 6166 2b38 2A       		.uleb128 0x2a
 6167 2b39 E7140000 		.4byte	0x14e7
 6168 2b3d 141C0000 		.4byte	.LLST352
 6169 2b41 2A       		.uleb128 0x2a
 6170 2b42 DB140000 		.4byte	0x14db
 6171 2b46 281C0000 		.4byte	.LLST353
 6172 2b4a 00       		.byte	0
 6173 2b4b 29       		.uleb128 0x29
 6174 2b4c CE140000 		.4byte	0x14ce
 6175 2b50 6C010000 		.4byte	.LBB518
 6176 2b54 08000000 		.4byte	.LBE518-.LBB518
 6177 2b58 01       		.byte	0x1
 6178 2b59 E5       		.byte	0xe5
 6179 2b5a 7A2B0000 		.4byte	0x2b7a
 6180 2b5e 2A       		.uleb128 0x2a
 6181 2b5f F3140000 		.4byte	0x14f3
 6182 2b63 401C0000 		.4byte	.LLST354
 6183 2b67 2A       		.uleb128 0x2a
 6184 2b68 E7140000 		.4byte	0x14e7
 6185 2b6c 541C0000 		.4byte	.LLST355
 6186 2b70 2A       		.uleb128 0x2a
 6187 2b71 DB140000 		.4byte	0x14db
 6188 2b75 681C0000 		.4byte	.LLST356
 6189 2b79 00       		.byte	0
 6190 2b7a 29       		.uleb128 0x29
 6191 2b7b CE140000 		.4byte	0x14ce
 6192 2b7f 74010000 		.4byte	.LBB520
 6193 2b83 06000000 		.4byte	.LBE520-.LBB520
 6194 2b87 01       		.byte	0x1
 6195 2b88 E6       		.byte	0xe6
 6196 2b89 A92B0000 		.4byte	0x2ba9
 6197 2b8d 2A       		.uleb128 0x2a
 6198 2b8e F3140000 		.4byte	0x14f3
 6199 2b92 801C0000 		.4byte	.LLST357
 6200 2b96 2A       		.uleb128 0x2a
 6201 2b97 E7140000 		.4byte	0x14e7
 6202 2b9b 941C0000 		.4byte	.LLST358
 6203 2b9f 2A       		.uleb128 0x2a
 6204 2ba0 DB140000 		.4byte	0x14db
 6205 2ba4 A81C0000 		.4byte	.LLST359
 6206 2ba8 00       		.byte	0
 6207 2ba9 29       		.uleb128 0x29
 6208 2baa CE140000 		.4byte	0x14ce
 6209 2bae 7A010000 		.4byte	.LBB522
 6210 2bb2 06000000 		.4byte	.LBE522-.LBB522
 6211 2bb6 01       		.byte	0x1
ARM GAS  C:\Users\dmula\AppData\Local\Temp\ccXnnfAd.s 			page 151


 6212 2bb7 EA       		.byte	0xea
 6213 2bb8 D82B0000 		.4byte	0x2bd8
 6214 2bbc 2A       		.uleb128 0x2a
 6215 2bbd F3140000 		.4byte	0x14f3
 6216 2bc1 C01C0000 		.4byte	.LLST360
 6217 2bc5 2A       		.uleb128 0x2a
 6218 2bc6 E7140000 		.4byte	0x14e7
 6219 2bca D41C0000 		.4byte	.LLST361
 6220 2bce 2A       		.uleb128 0x2a
 6221 2bcf DB140000 		.4byte	0x14db
 6222 2bd3 E81C0000 		.4byte	.LLST362
 6223 2bd7 00       		.byte	0
 6224 2bd8 29       		.uleb128 0x29
 6225 2bd9 CE140000 		.4byte	0x14ce
 6226 2bdd 80010000 		.4byte	.LBB524
 6227 2be1 04000000 		.4byte	.LBE524-.LBB524
 6228 2be5 01       		.byte	0x1
 6229 2be6 EB       		.byte	0xeb
 6230 2be7 072C0000 		.4byte	0x2c07
 6231 2beb 2A       		.uleb128 0x2a
 6232 2bec F3140000 		.4byte	0x14f3
 6233 2bf0 001D0000 		.4byte	.LLST363
 6234 2bf4 2A       		.uleb128 0x2a
 6235 2bf5 E7140000 		.4byte	0x14e7
 6236 2bf9 141D0000 		.4byte	.LLST364
 6237 2bfd 2A       		.uleb128 0x2a
 6238 2bfe DB140000 		.4byte	0x14db
 6239 2c02 281D0000 		.4byte	.LLST365
 6240 2c06 00       		.byte	0
 6241 2c07 29       		.uleb128 0x29
 6242 2c08 CE140000 		.4byte	0x14ce
 6243 2c0c 84010000 		.4byte	.LBB526
 6244 2c10 08000000 		.4byte	.LBE526-.LBB526
 6245 2c14 01       		.byte	0x1
 6246 2c15 EC       		.byte	0xec
 6247 2c16 362C0000 		.4byte	0x2c36
 6248 2c1a 2A       		.uleb128 0x2a
 6249 2c1b F3140000 		.4byte	0x14f3
 6250 2c1f 401D0000 		.4byte	.LLST366
 6251 2c23 2A       		.uleb128 0x2a
 6252 2c24 E7140000 		.4byte	0x14e7
 6253 2c28 541D0000 		.4byte	.LLST367
 6254 2c2c 2A       		.uleb128 0x2a
 6255 2c2d DB140000 		.4byte	0x14db
 6256 2c31 681D0000 		.4byte	.LLST368
 6257 2c35 00       		.byte	0
 6258 2c36 29       		.uleb128 0x29
 6259 2c37 CE140000 		.4byte	0x14ce
 6260 2c3b 8C010000 		.4byte	.LBB528
 6261 2c3f 06000000 		.4byte	.LBE528-.LBB528
 6262 2c43 01       		.byte	0x1
 6263 2c44 ED       		.byte	0xed
 6264 2c45 652C0000 		.4byte	0x2c65
 6265 2c49 2A       		.uleb128 0x2a
 6266 2c4a F3140000 		.4byte	0x14f3
 6267 2c4e 801D0000 		.4byte	.LLST369
 6268 2c52 2A       		.uleb128 0x2a
ARM GAS  C:\Users\dmula\AppData\Local\Temp\ccXnnfAd.s 			page 152


 6269 2c53 E7140000 		.4byte	0x14e7
 6270 2c57 941D0000 		.4byte	.LLST370
 6271 2c5b 2A       		.uleb128 0x2a
 6272 2c5c DB140000 		.4byte	0x14db
 6273 2c60 A81D0000 		.4byte	.LLST371
 6274 2c64 00       		.byte	0
 6275 2c65 29       		.uleb128 0x29
 6276 2c66 CE140000 		.4byte	0x14ce
 6277 2c6a 92010000 		.4byte	.LBB530
 6278 2c6e 06000000 		.4byte	.LBE530-.LBB530
 6279 2c72 01       		.byte	0x1
 6280 2c73 F1       		.byte	0xf1
 6281 2c74 942C0000 		.4byte	0x2c94
 6282 2c78 2A       		.uleb128 0x2a
 6283 2c79 F3140000 		.4byte	0x14f3
 6284 2c7d C01D0000 		.4byte	.LLST372
 6285 2c81 2A       		.uleb128 0x2a
 6286 2c82 E7140000 		.4byte	0x14e7
 6287 2c86 D41D0000 		.4byte	.LLST373
 6288 2c8a 2A       		.uleb128 0x2a
 6289 2c8b DB140000 		.4byte	0x14db
 6290 2c8f E81D0000 		.4byte	.LLST374
 6291 2c93 00       		.byte	0
 6292 2c94 29       		.uleb128 0x29
 6293 2c95 CE140000 		.4byte	0x14ce
 6294 2c99 98010000 		.4byte	.LBB532
 6295 2c9d 04000000 		.4byte	.LBE532-.LBB532
 6296 2ca1 01       		.byte	0x1
 6297 2ca2 F2       		.byte	0xf2
 6298 2ca3 C32C0000 		.4byte	0x2cc3
 6299 2ca7 2A       		.uleb128 0x2a
 6300 2ca8 F3140000 		.4byte	0x14f3
 6301 2cac 001E0000 		.4byte	.LLST375
 6302 2cb0 2A       		.uleb128 0x2a
 6303 2cb1 E7140000 		.4byte	0x14e7
 6304 2cb5 141E0000 		.4byte	.LLST376
 6305 2cb9 2A       		.uleb128 0x2a
 6306 2cba DB140000 		.4byte	0x14db
 6307 2cbe 281E0000 		.4byte	.LLST377
 6308 2cc2 00       		.byte	0
 6309 2cc3 29       		.uleb128 0x29
 6310 2cc4 CE140000 		.4byte	0x14ce
 6311 2cc8 9C010000 		.4byte	.LBB534
 6312 2ccc 08000000 		.4byte	.LBE534-.LBB534
 6313 2cd0 01       		.byte	0x1
 6314 2cd1 F3       		.byte	0xf3
 6315 2cd2 F22C0000 		.4byte	0x2cf2
 6316 2cd6 2A       		.uleb128 0x2a
 6317 2cd7 F3140000 		.4byte	0x14f3
 6318 2cdb 401E0000 		.4byte	.LLST378
 6319 2cdf 2A       		.uleb128 0x2a
 6320 2ce0 E7140000 		.4byte	0x14e7
 6321 2ce4 541E0000 		.4byte	.LLST379
 6322 2ce8 2A       		.uleb128 0x2a
 6323 2ce9 DB140000 		.4byte	0x14db
 6324 2ced 681E0000 		.4byte	.LLST380
 6325 2cf1 00       		.byte	0
ARM GAS  C:\Users\dmula\AppData\Local\Temp\ccXnnfAd.s 			page 153


 6326 2cf2 2B       		.uleb128 0x2b
 6327 2cf3 CE140000 		.4byte	0x14ce
 6328 2cf7 A4010000 		.4byte	.LBB536
 6329 2cfb 0C000000 		.4byte	.LBE536-.LBB536
 6330 2cff 01       		.byte	0x1
 6331 2d00 F4       		.byte	0xf4
 6332 2d01 2A       		.uleb128 0x2a
 6333 2d02 F3140000 		.4byte	0x14f3
 6334 2d06 801E0000 		.4byte	.LLST381
 6335 2d0a 2A       		.uleb128 0x2a
 6336 2d0b E7140000 		.4byte	0x14e7
 6337 2d0f 941E0000 		.4byte	.LLST382
 6338 2d13 2A       		.uleb128 0x2a
 6339 2d14 DB140000 		.4byte	0x14db
 6340 2d18 A81E0000 		.4byte	.LLST383
 6341 2d1c 00       		.byte	0
 6342 2d1d 00       		.byte	0
 6343 2d1e 2C       		.uleb128 0x2c
 6344 2d1f C9070000 		.4byte	.LASF370
 6345 2d23 01       		.byte	0x1
 6346 2d24 FA       		.byte	0xfa
 6347 2d25 00000000 		.4byte	.LFB531
 6348 2d29 5C000000 		.4byte	.LFE531-.LFB531
 6349 2d2d 01       		.uleb128 0x1
 6350 2d2e 9C       		.byte	0x9c
 6351 2d2f 632E0000 		.4byte	0x2e63
 6352 2d33 29       		.uleb128 0x29
 6353 2d34 06150000 		.4byte	0x1506
 6354 2d38 00000000 		.4byte	.LBB538
 6355 2d3c 08000000 		.4byte	.LBE538-.LBB538
 6356 2d40 01       		.byte	0x1
 6357 2d41 FB       		.byte	0xfb
 6358 2d42 592D0000 		.4byte	0x2d59
 6359 2d46 2A       		.uleb128 0x2a
 6360 2d47 23150000 		.4byte	0x1523
 6361 2d4b C01E0000 		.4byte	.LLST384
 6362 2d4f 2A       		.uleb128 0x2a
 6363 2d50 17150000 		.4byte	0x1517
 6364 2d54 D41E0000 		.4byte	.LLST385
 6365 2d58 00       		.byte	0
 6366 2d59 29       		.uleb128 0x29
 6367 2d5a 06150000 		.4byte	0x1506
 6368 2d5e 0C000000 		.4byte	.LBB540
 6369 2d62 06000000 		.4byte	.LBE540-.LBB540
 6370 2d66 01       		.byte	0x1
 6371 2d67 FC       		.byte	0xfc
 6372 2d68 7F2D0000 		.4byte	0x2d7f
 6373 2d6c 2A       		.uleb128 0x2a
 6374 2d6d 23150000 		.4byte	0x1523
 6375 2d71 EC1E0000 		.4byte	.LLST386
 6376 2d75 2A       		.uleb128 0x2a
 6377 2d76 17150000 		.4byte	0x1517
 6378 2d7a 001F0000 		.4byte	.LLST387
 6379 2d7e 00       		.byte	0
 6380 2d7f 29       		.uleb128 0x29
 6381 2d80 06150000 		.4byte	0x1506
 6382 2d84 14000000 		.4byte	.LBB542
ARM GAS  C:\Users\dmula\AppData\Local\Temp\ccXnnfAd.s 			page 154


 6383 2d88 06000000 		.4byte	.LBE542-.LBB542
 6384 2d8c 01       		.byte	0x1
 6385 2d8d FD       		.byte	0xfd
 6386 2d8e A52D0000 		.4byte	0x2da5
 6387 2d92 2A       		.uleb128 0x2a
 6388 2d93 23150000 		.4byte	0x1523
 6389 2d97 181F0000 		.4byte	.LLST388
 6390 2d9b 2A       		.uleb128 0x2a
 6391 2d9c 17150000 		.4byte	0x1517
 6392 2da0 2C1F0000 		.4byte	.LLST389
 6393 2da4 00       		.byte	0
 6394 2da5 29       		.uleb128 0x29
 6395 2da6 06150000 		.4byte	0x1506
 6396 2daa 1C000000 		.4byte	.LBB544
 6397 2dae 06000000 		.4byte	.LBE544-.LBB544
 6398 2db2 01       		.byte	0x1
 6399 2db3 FE       		.byte	0xfe
 6400 2db4 CB2D0000 		.4byte	0x2dcb
 6401 2db8 2A       		.uleb128 0x2a
 6402 2db9 23150000 		.4byte	0x1523
 6403 2dbd 441F0000 		.4byte	.LLST390
 6404 2dc1 2A       		.uleb128 0x2a
 6405 2dc2 17150000 		.4byte	0x1517
 6406 2dc6 581F0000 		.4byte	.LLST391
 6407 2dca 00       		.byte	0
 6408 2dcb 29       		.uleb128 0x29
 6409 2dcc 06150000 		.4byte	0x1506
 6410 2dd0 24000000 		.4byte	.LBB546
 6411 2dd4 06000000 		.4byte	.LBE546-.LBB546
 6412 2dd8 01       		.byte	0x1
 6413 2dd9 FF       		.byte	0xff
 6414 2dda F12D0000 		.4byte	0x2df1
 6415 2dde 2A       		.uleb128 0x2a
 6416 2ddf 23150000 		.4byte	0x1523
 6417 2de3 701F0000 		.4byte	.LLST392
 6418 2de7 2A       		.uleb128 0x2a
 6419 2de8 17150000 		.4byte	0x1517
 6420 2dec 841F0000 		.4byte	.LLST393
 6421 2df0 00       		.byte	0
 6422 2df1 2D       		.uleb128 0x2d
 6423 2df2 06150000 		.4byte	0x1506
 6424 2df6 2E000000 		.4byte	.LBB548
 6425 2dfa 06000000 		.4byte	.LBE548-.LBB548
 6426 2dfe 01       		.byte	0x1
 6427 2dff 0001     		.2byte	0x100
 6428 2e01 182E0000 		.4byte	0x2e18
 6429 2e05 2A       		.uleb128 0x2a
 6430 2e06 23150000 		.4byte	0x1523
 6431 2e0a 9C1F0000 		.4byte	.LLST394
 6432 2e0e 2A       		.uleb128 0x2a
 6433 2e0f 17150000 		.4byte	0x1517
 6434 2e13 B01F0000 		.4byte	.LLST395
 6435 2e17 00       		.byte	0
 6436 2e18 2D       		.uleb128 0x2d
 6437 2e19 06150000 		.4byte	0x1506
 6438 2e1d 36000000 		.4byte	.LBB550
 6439 2e21 08000000 		.4byte	.LBE550-.LBB550
ARM GAS  C:\Users\dmula\AppData\Local\Temp\ccXnnfAd.s 			page 155


 6440 2e25 01       		.byte	0x1
 6441 2e26 0101     		.2byte	0x101
 6442 2e28 3F2E0000 		.4byte	0x2e3f
 6443 2e2c 2A       		.uleb128 0x2a
 6444 2e2d 23150000 		.4byte	0x1523
 6445 2e31 C81F0000 		.4byte	.LLST396
 6446 2e35 2A       		.uleb128 0x2a
 6447 2e36 17150000 		.4byte	0x1517
 6448 2e3a DC1F0000 		.4byte	.LLST397
 6449 2e3e 00       		.byte	0
 6450 2e3f 2E       		.uleb128 0x2e
 6451 2e40 06150000 		.4byte	0x1506
 6452 2e44 40000000 		.4byte	.LBB552
 6453 2e48 06000000 		.4byte	.LBE552-.LBB552
 6454 2e4c 01       		.byte	0x1
 6455 2e4d 0201     		.2byte	0x102
 6456 2e4f 2A       		.uleb128 0x2a
 6457 2e50 23150000 		.4byte	0x1523
 6458 2e54 F41F0000 		.4byte	.LLST398
 6459 2e58 2A       		.uleb128 0x2a
 6460 2e59 17150000 		.4byte	0x1517
 6461 2e5d 08200000 		.4byte	.LLST399
 6462 2e61 00       		.byte	0
 6463 2e62 00       		.byte	0
 6464 2e63 25       		.uleb128 0x25
 6465 2e64 39080000 		.4byte	.LASF343
 6466 2e68 04       		.byte	0x4
 6467 2e69 D503     		.2byte	0x3d5
 6468 2e6b B4000000 		.4byte	0xb4
 6469 2e6f 03       		.byte	0x3
 6470 2e70 812E0000 		.4byte	0x2e81
 6471 2e74 24       		.uleb128 0x24
 6472 2e75 8C000000 		.4byte	.LASF344
 6473 2e79 04       		.byte	0x4
 6474 2e7a D503     		.2byte	0x3d5
 6475 2e7c D5000000 		.4byte	0xd5
 6476 2e80 00       		.byte	0
 6477 2e81 2F       		.uleb128 0x2f
 6478 2e82 2F110000 		.4byte	.LASF371
 6479 2e86 01       		.byte	0x1
 6480 2e87 0601     		.2byte	0x106
 6481 2e89 25000000 		.4byte	0x25
 6482 2e8d 00000000 		.4byte	.LFB532
 6483 2e91 F4000000 		.4byte	.LFE532-.LFB532
 6484 2e95 01       		.uleb128 0x1
 6485 2e96 9C       		.byte	0x9c
 6486 2e97 D3300000 		.4byte	0x30d3
 6487 2e9b 30       		.uleb128 0x30
 6488 2e9c 250D0000 		.4byte	.LASF372
 6489 2ea0 01       		.byte	0x1
 6490 2ea1 1001     		.2byte	0x110
 6491 2ea3 2C000000 		.4byte	0x2c
 6492 2ea7 31       		.uleb128 0x31
 6493 2ea8 01030000 		.4byte	.LASF345
 6494 2eac 01       		.byte	0x1
 6495 2ead 1001     		.2byte	0x110
 6496 2eaf 2C000000 		.4byte	0x2c
ARM GAS  C:\Users\dmula\AppData\Local\Temp\ccXnnfAd.s 			page 156


 6497 2eb3 20200000 		.4byte	.LLST400
 6498 2eb7 32       		.uleb128 0x32
 6499 2eb8 7200     		.ascii	"r\000"
 6500 2eba 01       		.byte	0x1
 6501 2ebb 1101     		.2byte	0x111
 6502 2ebd 25000000 		.4byte	0x25
 6503 2ec1 00       		.byte	0
 6504 2ec2 32       		.uleb128 0x32
 6505 2ec3 6300     		.ascii	"c\000"
 6506 2ec5 01       		.byte	0x1
 6507 2ec6 1201     		.2byte	0x112
 6508 2ec8 25000000 		.4byte	0x25
 6509 2ecc 00       		.byte	0
 6510 2ecd 33       		.uleb128 0x33
 6511 2ece 99070000 		.4byte	.LASF346
 6512 2ed2 01       		.byte	0x1
 6513 2ed3 1301     		.2byte	0x113
 6514 2ed5 25000000 		.4byte	0x25
 6515 2ed9 00       		.byte	0
 6516 2eda 33       		.uleb128 0x33
 6517 2edb 950A0000 		.4byte	.LASF347
 6518 2edf 01       		.byte	0x1
 6519 2ee0 1501     		.2byte	0x115
 6520 2ee2 25000000 		.4byte	0x25
 6521 2ee6 08       		.byte	0x8
 6522 2ee7 34       		.uleb128 0x34
 6523 2ee8 30150000 		.4byte	0x1530
 6524 2eec 04000000 		.4byte	.LBB561
 6525 2ef0 02000000 		.4byte	.LBE561-.LBB561
 6526 2ef4 01       		.byte	0x1
 6527 2ef5 0801     		.2byte	0x108
 6528 2ef7 2D       		.uleb128 0x2d
 6529 2ef8 38150000 		.4byte	0x1538
 6530 2efc 2C000000 		.4byte	.LBB563
 6531 2f00 04000000 		.4byte	.LBE563-.LBB563
 6532 2f04 01       		.byte	0x1
 6533 2f05 2201     		.2byte	0x122
 6534 2f07 1E2F0000 		.4byte	0x2f1e
 6535 2f0b 2A       		.uleb128 0x2a
 6536 2f0c 55150000 		.4byte	0x1555
 6537 2f10 45200000 		.4byte	.LLST401
 6538 2f14 2A       		.uleb128 0x2a
 6539 2f15 49150000 		.4byte	0x1549
 6540 2f19 59200000 		.4byte	.LLST402
 6541 2f1d 00       		.byte	0
 6542 2f1e 35       		.uleb128 0x35
 6543 2f1f 46000000 		.4byte	.LBB565
 6544 2f23 AE000000 		.4byte	.LBE565-.LBB565
 6545 2f27 52300000 		.4byte	0x3052
 6546 2f2b 36       		.uleb128 0x36
 6547 2f2c 6900     		.ascii	"i\000"
 6548 2f2e 01       		.byte	0x1
 6549 2f2f 2D01     		.2byte	0x12d
 6550 2f31 25000000 		.4byte	0x25
 6551 2f35 71200000 		.4byte	.LLST403
 6552 2f39 36       		.uleb128 0x36
 6553 2f3a 6A00     		.ascii	"j\000"
ARM GAS  C:\Users\dmula\AppData\Local\Temp\ccXnnfAd.s 			page 157


 6554 2f3c 01       		.byte	0x1
 6555 2f3d 2D01     		.2byte	0x12d
 6556 2f3f 25000000 		.4byte	0x25
 6557 2f43 90200000 		.4byte	.LLST404
 6558 2f47 2D       		.uleb128 0x2d
 6559 2f48 632E0000 		.4byte	0x2e63
 6560 2f4c 76000000 		.4byte	.LBB566
 6561 2f50 24000000 		.4byte	.LBE566-.LBB566
 6562 2f54 01       		.byte	0x1
 6563 2f55 3E01     		.2byte	0x13e
 6564 2f57 9B2F0000 		.4byte	0x2f9b
 6565 2f5b 2A       		.uleb128 0x2a
 6566 2f5c 742E0000 		.4byte	0x2e74
 6567 2f60 AF200000 		.4byte	.LLST405
 6568 2f64 37       		.uleb128 0x37
 6569 2f65 92000000 		.4byte	.LVL166
 6570 2f69 75310000 		.4byte	0x3175
 6571 2f6d 822F0000 		.4byte	0x2f82
 6572 2f71 38       		.uleb128 0x38
 6573 2f72 01       		.uleb128 0x1
 6574 2f73 50       		.byte	0x50
 6575 2f74 05       		.uleb128 0x5
 6576 2f75 03       		.byte	0x3
 6577 2f76 24000000 		.4byte	.LC3
 6578 2f7a 38       		.uleb128 0x38
 6579 2f7b 01       		.uleb128 0x1
 6580 2f7c 51       		.byte	0x51
 6581 2f7d 03       		.uleb128 0x3
 6582 2f7e 0A       		.byte	0xa
 6583 2f7f D803     		.2byte	0x3d8
 6584 2f81 00       		.byte	0
 6585 2f82 39       		.uleb128 0x39
 6586 2f83 9A000000 		.4byte	.LVL167
 6587 2f87 81310000 		.4byte	0x3181
 6588 2f8b 38       		.uleb128 0x38
 6589 2f8c 01       		.uleb128 0x1
 6590 2f8d 50       		.byte	0x50
 6591 2f8e 05       		.uleb128 0x5
 6592 2f8f 0C       		.byte	0xc
 6593 2f90 00001D41 		.4byte	0x411d0000
 6594 2f94 38       		.uleb128 0x38
 6595 2f95 01       		.uleb128 0x1
 6596 2f96 51       		.byte	0x51
 6597 2f97 01       		.uleb128 0x1
 6598 2f98 30       		.byte	0x30
 6599 2f99 00       		.byte	0
 6600 2f9a 00       		.byte	0
 6601 2f9b 37       		.uleb128 0x37
 6602 2f9c 4C000000 		.4byte	.LVL157
 6603 2fa0 8D310000 		.4byte	0x318d
 6604 2fa4 B22F0000 		.4byte	0x2fb2
 6605 2fa8 38       		.uleb128 0x38
 6606 2fa9 01       		.uleb128 0x1
 6607 2faa 50       		.byte	0x50
 6608 2fab 05       		.uleb128 0x5
 6609 2fac 03       		.byte	0x3
 6610 2fad 1C000000 		.4byte	.LC2
ARM GAS  C:\Users\dmula\AppData\Local\Temp\ccXnnfAd.s 			page 158


 6611 2fb1 00       		.byte	0
 6612 2fb2 37       		.uleb128 0x37
 6613 2fb3 56000000 		.4byte	.LVL159
 6614 2fb7 62150000 		.4byte	0x1562
 6615 2fbb C62F0000 		.4byte	0x2fc6
 6616 2fbf 38       		.uleb128 0x38
 6617 2fc0 01       		.uleb128 0x1
 6618 2fc1 50       		.byte	0x50
 6619 2fc2 02       		.uleb128 0x2
 6620 2fc3 75       		.byte	0x75
 6621 2fc4 00       		.sleb128 0
 6622 2fc5 00       		.byte	0
 6623 2fc6 37       		.uleb128 0x37
 6624 2fc7 5C000000 		.4byte	.LVL160
 6625 2fcb 98310000 		.4byte	0x3198
 6626 2fcf DA2F0000 		.4byte	0x2fda
 6627 2fd3 38       		.uleb128 0x38
 6628 2fd4 01       		.uleb128 0x1
 6629 2fd5 50       		.byte	0x50
 6630 2fd6 02       		.uleb128 0x2
 6631 2fd7 08       		.byte	0x8
 6632 2fd8 C8       		.byte	0xc8
 6633 2fd9 00       		.byte	0
 6634 2fda 37       		.uleb128 0x37
 6635 2fdb 66000000 		.4byte	.LVL162
 6636 2fdf 40210000 		.4byte	0x2140
 6637 2fe3 EE2F0000 		.4byte	0x2fee
 6638 2fe7 38       		.uleb128 0x38
 6639 2fe8 01       		.uleb128 0x1
 6640 2fe9 50       		.byte	0x50
 6641 2fea 02       		.uleb128 0x2
 6642 2feb 74       		.byte	0x74
 6643 2fec 00       		.sleb128 0
 6644 2fed 00       		.byte	0
 6645 2fee 37       		.uleb128 0x37
 6646 2fef 6C000000 		.4byte	.LVL163
 6647 2ff3 98310000 		.4byte	0x3198
 6648 2ff7 02300000 		.4byte	0x3002
 6649 2ffb 38       		.uleb128 0x38
 6650 2ffc 01       		.uleb128 0x1
 6651 2ffd 50       		.byte	0x50
 6652 2ffe 02       		.uleb128 0x2
 6653 2fff 08       		.byte	0x8
 6654 3000 C8       		.byte	0xc8
 6655 3001 00       		.byte	0
 6656 3002 3A       		.uleb128 0x3a
 6657 3003 70000000 		.4byte	.LVL164
 6658 3007 A4310000 		.4byte	0x31a4
 6659 300b 37       		.uleb128 0x37
 6660 300c 76000000 		.4byte	.LVL165
 6661 3010 AF310000 		.4byte	0x31af
 6662 3014 1E300000 		.4byte	0x301e
 6663 3018 38       		.uleb128 0x38
 6664 3019 01       		.uleb128 0x1
 6665 301a 50       		.byte	0x50
 6666 301b 01       		.uleb128 0x1
 6667 301c 31       		.byte	0x31
ARM GAS  C:\Users\dmula\AppData\Local\Temp\ccXnnfAd.s 			page 159


 6668 301d 00       		.byte	0
 6669 301e 37       		.uleb128 0x37
 6670 301f B8000000 		.4byte	.LVL170
 6671 3023 8D310000 		.4byte	0x318d
 6672 3027 41300000 		.4byte	0x3041
 6673 302b 38       		.uleb128 0x38
 6674 302c 01       		.uleb128 0x1
 6675 302d 50       		.byte	0x50
 6676 302e 05       		.uleb128 0x5
 6677 302f 03       		.byte	0x3
 6678 3030 44000000 		.4byte	.LC4
 6679 3034 38       		.uleb128 0x38
 6680 3035 01       		.uleb128 0x1
 6681 3036 51       		.byte	0x51
 6682 3037 02       		.uleb128 0x2
 6683 3038 75       		.byte	0x75
 6684 3039 00       		.sleb128 0
 6685 303a 38       		.uleb128 0x38
 6686 303b 01       		.uleb128 0x1
 6687 303c 52       		.byte	0x52
 6688 303d 02       		.uleb128 0x2
 6689 303e 74       		.byte	0x74
 6690 303f 00       		.sleb128 0
 6691 3040 00       		.byte	0
 6692 3041 39       		.uleb128 0x39
 6693 3042 CA000000 		.4byte	.LVL173
 6694 3046 98310000 		.4byte	0x3198
 6695 304a 38       		.uleb128 0x38
 6696 304b 01       		.uleb128 0x1
 6697 304c 50       		.byte	0x50
 6698 304d 02       		.uleb128 0x2
 6699 304e 08       		.byte	0x8
 6700 304f 64       		.byte	0x64
 6701 3050 00       		.byte	0
 6702 3051 00       		.byte	0
 6703 3052 3A       		.uleb128 0x3a
 6704 3053 0A000000 		.4byte	.LVL148
 6705 3057 BA310000 		.4byte	0x31ba
 6706 305b 3A       		.uleb128 0x3a
 6707 305c 0E000000 		.4byte	.LVL149
 6708 3060 C5310000 		.4byte	0x31c5
 6709 3064 3A       		.uleb128 0x3a
 6710 3065 12000000 		.4byte	.LVL150
 6711 3069 D0310000 		.4byte	0x31d0
 6712 306d 3A       		.uleb128 0x3a
 6713 306e 16000000 		.4byte	.LVL151
 6714 3072 A4310000 		.4byte	0x31a4
 6715 3076 37       		.uleb128 0x37
 6716 3077 26000000 		.4byte	.LVL152
 6717 307b DB310000 		.4byte	0x31db
 6718 307f 93300000 		.4byte	0x3093
 6719 3083 38       		.uleb128 0x38
 6720 3084 01       		.uleb128 0x1
 6721 3085 51       		.byte	0x51
 6722 3086 01       		.uleb128 0x1
 6723 3087 30       		.byte	0x30
 6724 3088 38       		.uleb128 0x38
ARM GAS  C:\Users\dmula\AppData\Local\Temp\ccXnnfAd.s 			page 160


 6725 3089 01       		.uleb128 0x1
 6726 308a 52       		.byte	0x52
 6727 308b 01       		.uleb128 0x1
 6728 308c 32       		.byte	0x32
 6729 308d 38       		.uleb128 0x38
 6730 308e 01       		.uleb128 0x1
 6731 308f 53       		.byte	0x53
 6732 3090 01       		.uleb128 0x1
 6733 3091 30       		.byte	0x30
 6734 3092 00       		.byte	0
 6735 3093 37       		.uleb128 0x37
 6736 3094 2C000000 		.4byte	.LVL153
 6737 3098 8D310000 		.4byte	0x318d
 6738 309c AA300000 		.4byte	0x30aa
 6739 30a0 38       		.uleb128 0x38
 6740 30a1 01       		.uleb128 0x1
 6741 30a2 50       		.byte	0x50
 6742 30a3 05       		.uleb128 0x5
 6743 30a4 03       		.byte	0x3
 6744 30a5 00000000 		.4byte	.LC0
 6745 30a9 00       		.byte	0
 6746 30aa 37       		.uleb128 0x37
 6747 30ab 3C000000 		.4byte	.LVL155
 6748 30af 8D310000 		.4byte	0x318d
 6749 30b3 C1300000 		.4byte	0x30c1
 6750 30b7 38       		.uleb128 0x38
 6751 30b8 01       		.uleb128 0x1
 6752 30b9 50       		.byte	0x50
 6753 30ba 05       		.uleb128 0x5
 6754 30bb 03       		.byte	0x3
 6755 30bc 0C000000 		.4byte	.LC1
 6756 30c0 00       		.byte	0
 6757 30c1 39       		.uleb128 0x39
 6758 30c2 44000000 		.4byte	.LVL156
 6759 30c6 98310000 		.4byte	0x3198
 6760 30ca 38       		.uleb128 0x38
 6761 30cb 01       		.uleb128 0x1
 6762 30cc 50       		.byte	0x50
 6763 30cd 03       		.uleb128 0x3
 6764 30ce 0A       		.byte	0xa
 6765 30cf F401     		.2byte	0x1f4
 6766 30d1 00       		.byte	0
 6767 30d2 00       		.byte	0
 6768 30d3 3B       		.uleb128 0x3b
 6769 30d4 EC0C0000 		.4byte	.LASF348
 6770 30d8 12       		.byte	0x12
 6771 30d9 F907     		.2byte	0x7f9
 6772 30db DF300000 		.4byte	0x30df
 6773 30df 05       		.uleb128 0x5
 6774 30e0 CA000000 		.4byte	0xca
 6775 30e4 3C       		.uleb128 0x3c
 6776 30e5 82000000 		.4byte	.LASF349
 6777 30e9 0A       		.byte	0xa
 6778 30ea A7       		.byte	0xa7
 6779 30eb EF300000 		.4byte	0x30ef
 6780 30ef 10       		.uleb128 0x10
 6781 30f0 04       		.byte	0x4
ARM GAS  C:\Users\dmula\AppData\Local\Temp\ccXnnfAd.s 			page 161


 6782 30f1 F5300000 		.4byte	0x30f5
 6783 30f5 06       		.uleb128 0x6
 6784 30f6 570A0000 		.4byte	0xa57
 6785 30fa 3C       		.uleb128 0x3c
 6786 30fb CA100000 		.4byte	.LASF350
 6787 30ff 13       		.byte	0x13
 6788 3100 87       		.byte	0x87
 6789 3101 880C0000 		.4byte	0xc88
 6790 3105 3B       		.uleb128 0x3b
 6791 3106 980D0000 		.4byte	.LASF351
 6792 310a 04       		.byte	0x4
 6793 310b 6001     		.2byte	0x160
 6794 310d D5000000 		.4byte	0xd5
 6795 3111 07       		.uleb128 0x7
 6796 3112 21310000 		.4byte	0x3121
 6797 3116 21310000 		.4byte	0x3121
 6798 311a 08       		.uleb128 0x8
 6799 311b E0000000 		.4byte	0xe0
 6800 311f 00       		.byte	0
 6801 3120 00       		.byte	0
 6802 3121 06       		.uleb128 0x6
 6803 3122 E40C0000 		.4byte	0xce4
 6804 3126 3B       		.uleb128 0x3b
 6805 3127 A7110000 		.4byte	.LASF352
 6806 312b 04       		.byte	0x4
 6807 312c 6401     		.2byte	0x164
 6808 312e 32310000 		.4byte	0x3132
 6809 3132 06       		.uleb128 0x6
 6810 3133 11310000 		.4byte	0x3111
 6811 3137 3B       		.uleb128 0x3b
 6812 3138 01040000 		.4byte	.LASF353
 6813 313c 11       		.byte	0x11
 6814 313d FD02     		.2byte	0x2fd
 6815 313f 86100000 		.4byte	0x1086
 6816 3143 07       		.uleb128 0x7
 6817 3144 25000000 		.4byte	0x25
 6818 3148 53310000 		.4byte	0x3153
 6819 314c 08       		.uleb128 0x8
 6820 314d E0000000 		.4byte	0xe0
 6821 3151 03       		.byte	0x3
 6822 3152 00       		.byte	0
 6823 3153 3D       		.uleb128 0x3d
 6824 3154 726F7700 		.ascii	"row\000"
 6825 3158 01       		.byte	0x1
 6826 3159 0E       		.byte	0xe
 6827 315a 43310000 		.4byte	0x3143
 6828 315e 05       		.uleb128 0x5
 6829 315f 03       		.byte	0x3
 6830 3160 00000000 		.4byte	row
 6831 3164 3E       		.uleb128 0x3e
 6832 3165 E60D0000 		.4byte	.LASF354
 6833 3169 01       		.byte	0x1
 6834 316a 0F       		.byte	0xf
 6835 316b 43310000 		.4byte	0x3143
 6836 316f 05       		.uleb128 0x5
 6837 3170 03       		.byte	0x3
 6838 3171 00000000 		.4byte	column
ARM GAS  C:\Users\dmula\AppData\Local\Temp\ccXnnfAd.s 			page 162


 6839 3175 3F       		.uleb128 0x3f
 6840 3176 FF070000 		.4byte	.LASF355
 6841 317a FF070000 		.4byte	.LASF355
 6842 317e 0B       		.byte	0xb
 6843 317f 9203     		.2byte	0x392
 6844 3181 3F       		.uleb128 0x3f
 6845 3182 3A0F0000 		.4byte	.LASF356
 6846 3186 3A0F0000 		.4byte	.LASF356
 6847 318a 0C       		.byte	0xc
 6848 318b 3605     		.2byte	0x536
 6849 318d 40       		.uleb128 0x40
 6850 318e B9090000 		.4byte	.LASF357
 6851 3192 B9090000 		.4byte	.LASF357
 6852 3196 14       		.byte	0x14
 6853 3197 BB       		.byte	0xbb
 6854 3198 3F       		.uleb128 0x3f
 6855 3199 D5110000 		.4byte	.LASF358
 6856 319d D5110000 		.4byte	.LASF358
 6857 31a1 0B       		.byte	0xb
 6858 31a2 8903     		.2byte	0x389
 6859 31a4 40       		.uleb128 0x40
 6860 31a5 1B020000 		.4byte	.LASF359
 6861 31a9 1B020000 		.4byte	.LASF359
 6862 31ad 04       		.byte	0x4
 6863 31ae 5A       		.byte	0x5a
 6864 31af 40       		.uleb128 0x40
 6865 31b0 E3010000 		.4byte	.LASF360
 6866 31b4 E3010000 		.4byte	.LASF360
 6867 31b8 04       		.byte	0x4
 6868 31b9 5E       		.byte	0x5e
 6869 31ba 40       		.uleb128 0x40
 6870 31bb 6C050000 		.4byte	.LASF361
 6871 31bf 6C050000 		.4byte	.LASF361
 6872 31c3 13       		.byte	0x13
 6873 31c4 31       		.byte	0x31
 6874 31c5 40       		.uleb128 0x40
 6875 31c6 51010000 		.4byte	.LASF362
 6876 31ca 51010000 		.4byte	.LASF362
 6877 31ce 04       		.byte	0x4
 6878 31cf 50       		.byte	0x50
 6879 31d0 40       		.uleb128 0x40
 6880 31d1 C1060000 		.4byte	.LASF363
 6881 31d5 C1060000 		.4byte	.LASF363
 6882 31d9 04       		.byte	0x4
 6883 31da 57       		.byte	0x57
 6884 31db 40       		.uleb128 0x40
 6885 31dc 91000000 		.4byte	.LASF364
 6886 31e0 91000000 		.4byte	.LASF364
 6887 31e4 14       		.byte	0x14
 6888 31e5 B6       		.byte	0xb6
 6889 31e6 00       		.byte	0
 6890              		.section	.debug_abbrev,"",%progbits
 6891              	.Ldebug_abbrev0:
 6892 0000 01       		.uleb128 0x1
 6893 0001 11       		.uleb128 0x11
 6894 0002 01       		.byte	0x1
 6895 0003 25       		.uleb128 0x25
ARM GAS  C:\Users\dmula\AppData\Local\Temp\ccXnnfAd.s 			page 163


 6896 0004 0E       		.uleb128 0xe
 6897 0005 13       		.uleb128 0x13
 6898 0006 0B       		.uleb128 0xb
 6899 0007 03       		.uleb128 0x3
 6900 0008 0E       		.uleb128 0xe
 6901 0009 1B       		.uleb128 0x1b
 6902 000a 0E       		.uleb128 0xe
 6903 000b 55       		.uleb128 0x55
 6904 000c 17       		.uleb128 0x17
 6905 000d 11       		.uleb128 0x11
 6906 000e 01       		.uleb128 0x1
 6907 000f 10       		.uleb128 0x10
 6908 0010 17       		.uleb128 0x17
 6909 0011 00       		.byte	0
 6910 0012 00       		.byte	0
 6911 0013 02       		.uleb128 0x2
 6912 0014 24       		.uleb128 0x24
 6913 0015 00       		.byte	0
 6914 0016 0B       		.uleb128 0xb
 6915 0017 0B       		.uleb128 0xb
 6916 0018 3E       		.uleb128 0x3e
 6917 0019 0B       		.uleb128 0xb
 6918 001a 03       		.uleb128 0x3
 6919 001b 08       		.uleb128 0x8
 6920 001c 00       		.byte	0
 6921 001d 00       		.byte	0
 6922 001e 03       		.uleb128 0x3
 6923 001f 24       		.uleb128 0x24
 6924 0020 00       		.byte	0
 6925 0021 0B       		.uleb128 0xb
 6926 0022 0B       		.uleb128 0xb
 6927 0023 3E       		.uleb128 0x3e
 6928 0024 0B       		.uleb128 0xb
 6929 0025 03       		.uleb128 0x3
 6930 0026 0E       		.uleb128 0xe
 6931 0027 00       		.byte	0
 6932 0028 00       		.byte	0
 6933 0029 04       		.uleb128 0x4
 6934 002a 16       		.uleb128 0x16
 6935 002b 00       		.byte	0
 6936 002c 03       		.uleb128 0x3
 6937 002d 0E       		.uleb128 0xe
 6938 002e 3A       		.uleb128 0x3a
 6939 002f 0B       		.uleb128 0xb
 6940 0030 3B       		.uleb128 0x3b
 6941 0031 0B       		.uleb128 0xb
 6942 0032 49       		.uleb128 0x49
 6943 0033 13       		.uleb128 0x13
 6944 0034 00       		.byte	0
 6945 0035 00       		.byte	0
 6946 0036 05       		.uleb128 0x5
 6947 0037 35       		.uleb128 0x35
 6948 0038 00       		.byte	0
 6949 0039 49       		.uleb128 0x49
 6950 003a 13       		.uleb128 0x13
 6951 003b 00       		.byte	0
 6952 003c 00       		.byte	0
ARM GAS  C:\Users\dmula\AppData\Local\Temp\ccXnnfAd.s 			page 164


 6953 003d 06       		.uleb128 0x6
 6954 003e 26       		.uleb128 0x26
 6955 003f 00       		.byte	0
 6956 0040 49       		.uleb128 0x49
 6957 0041 13       		.uleb128 0x13
 6958 0042 00       		.byte	0
 6959 0043 00       		.byte	0
 6960 0044 07       		.uleb128 0x7
 6961 0045 01       		.uleb128 0x1
 6962 0046 01       		.byte	0x1
 6963 0047 49       		.uleb128 0x49
 6964 0048 13       		.uleb128 0x13
 6965 0049 01       		.uleb128 0x1
 6966 004a 13       		.uleb128 0x13
 6967 004b 00       		.byte	0
 6968 004c 00       		.byte	0
 6969 004d 08       		.uleb128 0x8
 6970 004e 21       		.uleb128 0x21
 6971 004f 00       		.byte	0
 6972 0050 49       		.uleb128 0x49
 6973 0051 13       		.uleb128 0x13
 6974 0052 2F       		.uleb128 0x2f
 6975 0053 0B       		.uleb128 0xb
 6976 0054 00       		.byte	0
 6977 0055 00       		.byte	0
 6978 0056 09       		.uleb128 0x9
 6979 0057 13       		.uleb128 0x13
 6980 0058 01       		.byte	0x1
 6981 0059 0B       		.uleb128 0xb
 6982 005a 0B       		.uleb128 0xb
 6983 005b 3A       		.uleb128 0x3a
 6984 005c 0B       		.uleb128 0xb
 6985 005d 3B       		.uleb128 0x3b
 6986 005e 0B       		.uleb128 0xb
 6987 005f 01       		.uleb128 0x1
 6988 0060 13       		.uleb128 0x13
 6989 0061 00       		.byte	0
 6990 0062 00       		.byte	0
 6991 0063 0A       		.uleb128 0xa
 6992 0064 0D       		.uleb128 0xd
 6993 0065 00       		.byte	0
 6994 0066 03       		.uleb128 0x3
 6995 0067 08       		.uleb128 0x8
 6996 0068 3A       		.uleb128 0x3a
 6997 0069 0B       		.uleb128 0xb
 6998 006a 3B       		.uleb128 0x3b
 6999 006b 0B       		.uleb128 0xb
 7000 006c 49       		.uleb128 0x49
 7001 006d 13       		.uleb128 0x13
 7002 006e 38       		.uleb128 0x38
 7003 006f 0B       		.uleb128 0xb
 7004 0070 00       		.byte	0
 7005 0071 00       		.byte	0
 7006 0072 0B       		.uleb128 0xb
 7007 0073 0D       		.uleb128 0xd
 7008 0074 00       		.byte	0
 7009 0075 03       		.uleb128 0x3
ARM GAS  C:\Users\dmula\AppData\Local\Temp\ccXnnfAd.s 			page 165


 7010 0076 0E       		.uleb128 0xe
 7011 0077 3A       		.uleb128 0x3a
 7012 0078 0B       		.uleb128 0xb
 7013 0079 3B       		.uleb128 0x3b
 7014 007a 0B       		.uleb128 0xb
 7015 007b 49       		.uleb128 0x49
 7016 007c 13       		.uleb128 0x13
 7017 007d 38       		.uleb128 0x38
 7018 007e 0B       		.uleb128 0xb
 7019 007f 00       		.byte	0
 7020 0080 00       		.byte	0
 7021 0081 0C       		.uleb128 0xc
 7022 0082 13       		.uleb128 0x13
 7023 0083 01       		.byte	0x1
 7024 0084 0B       		.uleb128 0xb
 7025 0085 05       		.uleb128 0x5
 7026 0086 3A       		.uleb128 0x3a
 7027 0087 0B       		.uleb128 0xb
 7028 0088 3B       		.uleb128 0x3b
 7029 0089 0B       		.uleb128 0xb
 7030 008a 01       		.uleb128 0x1
 7031 008b 13       		.uleb128 0x13
 7032 008c 00       		.byte	0
 7033 008d 00       		.byte	0
 7034 008e 0D       		.uleb128 0xd
 7035 008f 0D       		.uleb128 0xd
 7036 0090 00       		.byte	0
 7037 0091 03       		.uleb128 0x3
 7038 0092 0E       		.uleb128 0xe
 7039 0093 3A       		.uleb128 0x3a
 7040 0094 0B       		.uleb128 0xb
 7041 0095 3B       		.uleb128 0x3b
 7042 0096 0B       		.uleb128 0xb
 7043 0097 49       		.uleb128 0x49
 7044 0098 13       		.uleb128 0x13
 7045 0099 38       		.uleb128 0x38
 7046 009a 05       		.uleb128 0x5
 7047 009b 00       		.byte	0
 7048 009c 00       		.byte	0
 7049 009d 0E       		.uleb128 0xe
 7050 009e 21       		.uleb128 0x21
 7051 009f 00       		.byte	0
 7052 00a0 49       		.uleb128 0x49
 7053 00a1 13       		.uleb128 0x13
 7054 00a2 2F       		.uleb128 0x2f
 7055 00a3 05       		.uleb128 0x5
 7056 00a4 00       		.byte	0
 7057 00a5 00       		.byte	0
 7058 00a6 0F       		.uleb128 0xf
 7059 00a7 16       		.uleb128 0x16
 7060 00a8 00       		.byte	0
 7061 00a9 03       		.uleb128 0x3
 7062 00aa 0E       		.uleb128 0xe
 7063 00ab 3A       		.uleb128 0x3a
 7064 00ac 0B       		.uleb128 0xb
 7065 00ad 3B       		.uleb128 0x3b
 7066 00ae 05       		.uleb128 0x5
ARM GAS  C:\Users\dmula\AppData\Local\Temp\ccXnnfAd.s 			page 166


 7067 00af 49       		.uleb128 0x49
 7068 00b0 13       		.uleb128 0x13
 7069 00b1 00       		.byte	0
 7070 00b2 00       		.byte	0
 7071 00b3 10       		.uleb128 0x10
 7072 00b4 0F       		.uleb128 0xf
 7073 00b5 00       		.byte	0
 7074 00b6 0B       		.uleb128 0xb
 7075 00b7 0B       		.uleb128 0xb
 7076 00b8 49       		.uleb128 0x49
 7077 00b9 13       		.uleb128 0x13
 7078 00ba 00       		.byte	0
 7079 00bb 00       		.byte	0
 7080 00bc 11       		.uleb128 0x11
 7081 00bd 15       		.uleb128 0x15
 7082 00be 00       		.byte	0
 7083 00bf 27       		.uleb128 0x27
 7084 00c0 19       		.uleb128 0x19
 7085 00c1 00       		.byte	0
 7086 00c2 00       		.byte	0
 7087 00c3 12       		.uleb128 0x12
 7088 00c4 0F       		.uleb128 0xf
 7089 00c5 00       		.byte	0
 7090 00c6 0B       		.uleb128 0xb
 7091 00c7 0B       		.uleb128 0xb
 7092 00c8 00       		.byte	0
 7093 00c9 00       		.byte	0
 7094 00ca 13       		.uleb128 0x13
 7095 00cb 04       		.uleb128 0x4
 7096 00cc 01       		.byte	0x1
 7097 00cd 0B       		.uleb128 0xb
 7098 00ce 0B       		.uleb128 0xb
 7099 00cf 49       		.uleb128 0x49
 7100 00d0 13       		.uleb128 0x13
 7101 00d1 3A       		.uleb128 0x3a
 7102 00d2 0B       		.uleb128 0xb
 7103 00d3 3B       		.uleb128 0x3b
 7104 00d4 05       		.uleb128 0x5
 7105 00d5 01       		.uleb128 0x1
 7106 00d6 13       		.uleb128 0x13
 7107 00d7 00       		.byte	0
 7108 00d8 00       		.byte	0
 7109 00d9 14       		.uleb128 0x14
 7110 00da 28       		.uleb128 0x28
 7111 00db 00       		.byte	0
 7112 00dc 03       		.uleb128 0x3
 7113 00dd 0E       		.uleb128 0xe
 7114 00de 1C       		.uleb128 0x1c
 7115 00df 0B       		.uleb128 0xb
 7116 00e0 00       		.byte	0
 7117 00e1 00       		.byte	0
 7118 00e2 15       		.uleb128 0x15
 7119 00e3 13       		.uleb128 0x13
 7120 00e4 01       		.byte	0x1
 7121 00e5 0B       		.uleb128 0xb
 7122 00e6 0B       		.uleb128 0xb
 7123 00e7 3A       		.uleb128 0x3a
ARM GAS  C:\Users\dmula\AppData\Local\Temp\ccXnnfAd.s 			page 167


 7124 00e8 0B       		.uleb128 0xb
 7125 00e9 3B       		.uleb128 0x3b
 7126 00ea 05       		.uleb128 0x5
 7127 00eb 01       		.uleb128 0x1
 7128 00ec 13       		.uleb128 0x13
 7129 00ed 00       		.byte	0
 7130 00ee 00       		.byte	0
 7131 00ef 16       		.uleb128 0x16
 7132 00f0 0D       		.uleb128 0xd
 7133 00f1 00       		.byte	0
 7134 00f2 03       		.uleb128 0x3
 7135 00f3 0E       		.uleb128 0xe
 7136 00f4 3A       		.uleb128 0x3a
 7137 00f5 0B       		.uleb128 0xb
 7138 00f6 3B       		.uleb128 0x3b
 7139 00f7 05       		.uleb128 0x5
 7140 00f8 49       		.uleb128 0x49
 7141 00f9 13       		.uleb128 0x13
 7142 00fa 38       		.uleb128 0x38
 7143 00fb 0B       		.uleb128 0xb
 7144 00fc 00       		.byte	0
 7145 00fd 00       		.byte	0
 7146 00fe 17       		.uleb128 0x17
 7147 00ff 15       		.uleb128 0x15
 7148 0100 01       		.byte	0x1
 7149 0101 27       		.uleb128 0x27
 7150 0102 19       		.uleb128 0x19
 7151 0103 01       		.uleb128 0x1
 7152 0104 13       		.uleb128 0x13
 7153 0105 00       		.byte	0
 7154 0106 00       		.byte	0
 7155 0107 18       		.uleb128 0x18
 7156 0108 05       		.uleb128 0x5
 7157 0109 00       		.byte	0
 7158 010a 49       		.uleb128 0x49
 7159 010b 13       		.uleb128 0x13
 7160 010c 00       		.byte	0
 7161 010d 00       		.byte	0
 7162 010e 19       		.uleb128 0x19
 7163 010f 13       		.uleb128 0x13
 7164 0110 01       		.byte	0x1
 7165 0111 03       		.uleb128 0x3
 7166 0112 0E       		.uleb128 0xe
 7167 0113 0B       		.uleb128 0xb
 7168 0114 0B       		.uleb128 0xb
 7169 0115 3A       		.uleb128 0x3a
 7170 0116 0B       		.uleb128 0xb
 7171 0117 3B       		.uleb128 0x3b
 7172 0118 05       		.uleb128 0x5
 7173 0119 01       		.uleb128 0x1
 7174 011a 13       		.uleb128 0x13
 7175 011b 00       		.byte	0
 7176 011c 00       		.byte	0
 7177 011d 1A       		.uleb128 0x1a
 7178 011e 17       		.uleb128 0x17
 7179 011f 01       		.byte	0x1
 7180 0120 0B       		.uleb128 0xb
ARM GAS  C:\Users\dmula\AppData\Local\Temp\ccXnnfAd.s 			page 168


 7181 0121 0B       		.uleb128 0xb
 7182 0122 3A       		.uleb128 0x3a
 7183 0123 0B       		.uleb128 0xb
 7184 0124 3B       		.uleb128 0x3b
 7185 0125 0B       		.uleb128 0xb
 7186 0126 01       		.uleb128 0x1
 7187 0127 13       		.uleb128 0x13
 7188 0128 00       		.byte	0
 7189 0129 00       		.byte	0
 7190 012a 1B       		.uleb128 0x1b
 7191 012b 0D       		.uleb128 0xd
 7192 012c 00       		.byte	0
 7193 012d 03       		.uleb128 0x3
 7194 012e 0E       		.uleb128 0xe
 7195 012f 3A       		.uleb128 0x3a
 7196 0130 0B       		.uleb128 0xb
 7197 0131 3B       		.uleb128 0x3b
 7198 0132 0B       		.uleb128 0xb
 7199 0133 49       		.uleb128 0x49
 7200 0134 13       		.uleb128 0x13
 7201 0135 00       		.byte	0
 7202 0136 00       		.byte	0
 7203 0137 1C       		.uleb128 0x1c
 7204 0138 13       		.uleb128 0x13
 7205 0139 01       		.byte	0x1
 7206 013a 03       		.uleb128 0x3
 7207 013b 0E       		.uleb128 0xe
 7208 013c 0B       		.uleb128 0xb
 7209 013d 0B       		.uleb128 0xb
 7210 013e 3A       		.uleb128 0x3a
 7211 013f 0B       		.uleb128 0xb
 7212 0140 3B       		.uleb128 0x3b
 7213 0141 0B       		.uleb128 0xb
 7214 0142 01       		.uleb128 0x1
 7215 0143 13       		.uleb128 0x13
 7216 0144 00       		.byte	0
 7217 0145 00       		.byte	0
 7218 0146 1D       		.uleb128 0x1d
 7219 0147 13       		.uleb128 0x13
 7220 0148 01       		.byte	0x1
 7221 0149 03       		.uleb128 0x3
 7222 014a 0E       		.uleb128 0xe
 7223 014b 0B       		.uleb128 0xb
 7224 014c 05       		.uleb128 0x5
 7225 014d 3A       		.uleb128 0x3a
 7226 014e 0B       		.uleb128 0xb
 7227 014f 3B       		.uleb128 0x3b
 7228 0150 0B       		.uleb128 0xb
 7229 0151 01       		.uleb128 0x1
 7230 0152 13       		.uleb128 0x13
 7231 0153 00       		.byte	0
 7232 0154 00       		.byte	0
 7233 0155 1E       		.uleb128 0x1e
 7234 0156 15       		.uleb128 0x15
 7235 0157 01       		.byte	0x1
 7236 0158 27       		.uleb128 0x27
 7237 0159 19       		.uleb128 0x19
ARM GAS  C:\Users\dmula\AppData\Local\Temp\ccXnnfAd.s 			page 169


 7238 015a 49       		.uleb128 0x49
 7239 015b 13       		.uleb128 0x13
 7240 015c 01       		.uleb128 0x1
 7241 015d 13       		.uleb128 0x13
 7242 015e 00       		.byte	0
 7243 015f 00       		.byte	0
 7244 0160 1F       		.uleb128 0x1f
 7245 0161 13       		.uleb128 0x13
 7246 0162 01       		.byte	0x1
 7247 0163 03       		.uleb128 0x3
 7248 0164 0E       		.uleb128 0xe
 7249 0165 0B       		.uleb128 0xb
 7250 0166 05       		.uleb128 0x5
 7251 0167 3A       		.uleb128 0x3a
 7252 0168 0B       		.uleb128 0xb
 7253 0169 3B       		.uleb128 0x3b
 7254 016a 05       		.uleb128 0x5
 7255 016b 01       		.uleb128 0x1
 7256 016c 13       		.uleb128 0x13
 7257 016d 00       		.byte	0
 7258 016e 00       		.byte	0
 7259 016f 20       		.uleb128 0x20
 7260 0170 0D       		.uleb128 0xd
 7261 0171 00       		.byte	0
 7262 0172 03       		.uleb128 0x3
 7263 0173 0E       		.uleb128 0xe
 7264 0174 3A       		.uleb128 0x3a
 7265 0175 0B       		.uleb128 0xb
 7266 0176 3B       		.uleb128 0x3b
 7267 0177 05       		.uleb128 0x5
 7268 0178 49       		.uleb128 0x49
 7269 0179 13       		.uleb128 0x13
 7270 017a 38       		.uleb128 0x38
 7271 017b 05       		.uleb128 0x5
 7272 017c 00       		.byte	0
 7273 017d 00       		.byte	0
 7274 017e 21       		.uleb128 0x21
 7275 017f 17       		.uleb128 0x17
 7276 0180 01       		.byte	0x1
 7277 0181 0B       		.uleb128 0xb
 7278 0182 0B       		.uleb128 0xb
 7279 0183 3A       		.uleb128 0x3a
 7280 0184 0B       		.uleb128 0xb
 7281 0185 3B       		.uleb128 0x3b
 7282 0186 05       		.uleb128 0x5
 7283 0187 01       		.uleb128 0x1
 7284 0188 13       		.uleb128 0x13
 7285 0189 00       		.byte	0
 7286 018a 00       		.byte	0
 7287 018b 22       		.uleb128 0x22
 7288 018c 0D       		.uleb128 0xd
 7289 018d 00       		.byte	0
 7290 018e 03       		.uleb128 0x3
 7291 018f 0E       		.uleb128 0xe
 7292 0190 3A       		.uleb128 0x3a
 7293 0191 0B       		.uleb128 0xb
 7294 0192 3B       		.uleb128 0x3b
ARM GAS  C:\Users\dmula\AppData\Local\Temp\ccXnnfAd.s 			page 170


 7295 0193 05       		.uleb128 0x5
 7296 0194 49       		.uleb128 0x49
 7297 0195 13       		.uleb128 0x13
 7298 0196 00       		.byte	0
 7299 0197 00       		.byte	0
 7300 0198 23       		.uleb128 0x23
 7301 0199 2E       		.uleb128 0x2e
 7302 019a 01       		.byte	0x1
 7303 019b 03       		.uleb128 0x3
 7304 019c 0E       		.uleb128 0xe
 7305 019d 3A       		.uleb128 0x3a
 7306 019e 0B       		.uleb128 0xb
 7307 019f 3B       		.uleb128 0x3b
 7308 01a0 05       		.uleb128 0x5
 7309 01a1 27       		.uleb128 0x27
 7310 01a2 19       		.uleb128 0x19
 7311 01a3 20       		.uleb128 0x20
 7312 01a4 0B       		.uleb128 0xb
 7313 01a5 01       		.uleb128 0x1
 7314 01a6 13       		.uleb128 0x13
 7315 01a7 00       		.byte	0
 7316 01a8 00       		.byte	0
 7317 01a9 24       		.uleb128 0x24
 7318 01aa 05       		.uleb128 0x5
 7319 01ab 00       		.byte	0
 7320 01ac 03       		.uleb128 0x3
 7321 01ad 0E       		.uleb128 0xe
 7322 01ae 3A       		.uleb128 0x3a
 7323 01af 0B       		.uleb128 0xb
 7324 01b0 3B       		.uleb128 0x3b
 7325 01b1 05       		.uleb128 0x5
 7326 01b2 49       		.uleb128 0x49
 7327 01b3 13       		.uleb128 0x13
 7328 01b4 00       		.byte	0
 7329 01b5 00       		.byte	0
 7330 01b6 25       		.uleb128 0x25
 7331 01b7 2E       		.uleb128 0x2e
 7332 01b8 01       		.byte	0x1
 7333 01b9 03       		.uleb128 0x3
 7334 01ba 0E       		.uleb128 0xe
 7335 01bb 3A       		.uleb128 0x3a
 7336 01bc 0B       		.uleb128 0xb
 7337 01bd 3B       		.uleb128 0x3b
 7338 01be 05       		.uleb128 0x5
 7339 01bf 27       		.uleb128 0x27
 7340 01c0 19       		.uleb128 0x19
 7341 01c1 49       		.uleb128 0x49
 7342 01c2 13       		.uleb128 0x13
 7343 01c3 20       		.uleb128 0x20
 7344 01c4 0B       		.uleb128 0xb
 7345 01c5 01       		.uleb128 0x1
 7346 01c6 13       		.uleb128 0x13
 7347 01c7 00       		.byte	0
 7348 01c8 00       		.byte	0
 7349 01c9 26       		.uleb128 0x26
 7350 01ca 2E       		.uleb128 0x2e
 7351 01cb 00       		.byte	0
ARM GAS  C:\Users\dmula\AppData\Local\Temp\ccXnnfAd.s 			page 171


 7352 01cc 03       		.uleb128 0x3
 7353 01cd 0E       		.uleb128 0xe
 7354 01ce 3A       		.uleb128 0x3a
 7355 01cf 0B       		.uleb128 0xb
 7356 01d0 3B       		.uleb128 0x3b
 7357 01d1 0B       		.uleb128 0xb
 7358 01d2 27       		.uleb128 0x27
 7359 01d3 19       		.uleb128 0x19
 7360 01d4 20       		.uleb128 0x20
 7361 01d5 0B       		.uleb128 0xb
 7362 01d6 00       		.byte	0
 7363 01d7 00       		.byte	0
 7364 01d8 27       		.uleb128 0x27
 7365 01d9 2E       		.uleb128 0x2e
 7366 01da 01       		.byte	0x1
 7367 01db 3F       		.uleb128 0x3f
 7368 01dc 19       		.uleb128 0x19
 7369 01dd 03       		.uleb128 0x3
 7370 01de 0E       		.uleb128 0xe
 7371 01df 3A       		.uleb128 0x3a
 7372 01e0 0B       		.uleb128 0xb
 7373 01e1 3B       		.uleb128 0x3b
 7374 01e2 0B       		.uleb128 0xb
 7375 01e3 27       		.uleb128 0x27
 7376 01e4 19       		.uleb128 0x19
 7377 01e5 11       		.uleb128 0x11
 7378 01e6 01       		.uleb128 0x1
 7379 01e7 12       		.uleb128 0x12
 7380 01e8 06       		.uleb128 0x6
 7381 01e9 40       		.uleb128 0x40
 7382 01ea 18       		.uleb128 0x18
 7383 01eb 9742     		.uleb128 0x2117
 7384 01ed 19       		.uleb128 0x19
 7385 01ee 01       		.uleb128 0x1
 7386 01ef 13       		.uleb128 0x13
 7387 01f0 00       		.byte	0
 7388 01f1 00       		.byte	0
 7389 01f2 28       		.uleb128 0x28
 7390 01f3 05       		.uleb128 0x5
 7391 01f4 00       		.byte	0
 7392 01f5 03       		.uleb128 0x3
 7393 01f6 08       		.uleb128 0x8
 7394 01f7 3A       		.uleb128 0x3a
 7395 01f8 0B       		.uleb128 0xb
 7396 01f9 3B       		.uleb128 0x3b
 7397 01fa 0B       		.uleb128 0xb
 7398 01fb 49       		.uleb128 0x49
 7399 01fc 13       		.uleb128 0x13
 7400 01fd 02       		.uleb128 0x2
 7401 01fe 18       		.uleb128 0x18
 7402 01ff 00       		.byte	0
 7403 0200 00       		.byte	0
 7404 0201 29       		.uleb128 0x29
 7405 0202 1D       		.uleb128 0x1d
 7406 0203 01       		.byte	0x1
 7407 0204 31       		.uleb128 0x31
 7408 0205 13       		.uleb128 0x13
ARM GAS  C:\Users\dmula\AppData\Local\Temp\ccXnnfAd.s 			page 172


 7409 0206 11       		.uleb128 0x11
 7410 0207 01       		.uleb128 0x1
 7411 0208 12       		.uleb128 0x12
 7412 0209 06       		.uleb128 0x6
 7413 020a 58       		.uleb128 0x58
 7414 020b 0B       		.uleb128 0xb
 7415 020c 59       		.uleb128 0x59
 7416 020d 0B       		.uleb128 0xb
 7417 020e 01       		.uleb128 0x1
 7418 020f 13       		.uleb128 0x13
 7419 0210 00       		.byte	0
 7420 0211 00       		.byte	0
 7421 0212 2A       		.uleb128 0x2a
 7422 0213 05       		.uleb128 0x5
 7423 0214 00       		.byte	0
 7424 0215 31       		.uleb128 0x31
 7425 0216 13       		.uleb128 0x13
 7426 0217 02       		.uleb128 0x2
 7427 0218 17       		.uleb128 0x17
 7428 0219 00       		.byte	0
 7429 021a 00       		.byte	0
 7430 021b 2B       		.uleb128 0x2b
 7431 021c 1D       		.uleb128 0x1d
 7432 021d 01       		.byte	0x1
 7433 021e 31       		.uleb128 0x31
 7434 021f 13       		.uleb128 0x13
 7435 0220 11       		.uleb128 0x11
 7436 0221 01       		.uleb128 0x1
 7437 0222 12       		.uleb128 0x12
 7438 0223 06       		.uleb128 0x6
 7439 0224 58       		.uleb128 0x58
 7440 0225 0B       		.uleb128 0xb
 7441 0226 59       		.uleb128 0x59
 7442 0227 0B       		.uleb128 0xb
 7443 0228 00       		.byte	0
 7444 0229 00       		.byte	0
 7445 022a 2C       		.uleb128 0x2c
 7446 022b 2E       		.uleb128 0x2e
 7447 022c 01       		.byte	0x1
 7448 022d 3F       		.uleb128 0x3f
 7449 022e 19       		.uleb128 0x19
 7450 022f 03       		.uleb128 0x3
 7451 0230 0E       		.uleb128 0xe
 7452 0231 3A       		.uleb128 0x3a
 7453 0232 0B       		.uleb128 0xb
 7454 0233 3B       		.uleb128 0x3b
 7455 0234 0B       		.uleb128 0xb
 7456 0235 11       		.uleb128 0x11
 7457 0236 01       		.uleb128 0x1
 7458 0237 12       		.uleb128 0x12
 7459 0238 06       		.uleb128 0x6
 7460 0239 40       		.uleb128 0x40
 7461 023a 18       		.uleb128 0x18
 7462 023b 9742     		.uleb128 0x2117
 7463 023d 19       		.uleb128 0x19
 7464 023e 01       		.uleb128 0x1
 7465 023f 13       		.uleb128 0x13
ARM GAS  C:\Users\dmula\AppData\Local\Temp\ccXnnfAd.s 			page 173


 7466 0240 00       		.byte	0
 7467 0241 00       		.byte	0
 7468 0242 2D       		.uleb128 0x2d
 7469 0243 1D       		.uleb128 0x1d
 7470 0244 01       		.byte	0x1
 7471 0245 31       		.uleb128 0x31
 7472 0246 13       		.uleb128 0x13
 7473 0247 11       		.uleb128 0x11
 7474 0248 01       		.uleb128 0x1
 7475 0249 12       		.uleb128 0x12
 7476 024a 06       		.uleb128 0x6
 7477 024b 58       		.uleb128 0x58
 7478 024c 0B       		.uleb128 0xb
 7479 024d 59       		.uleb128 0x59
 7480 024e 05       		.uleb128 0x5
 7481 024f 01       		.uleb128 0x1
 7482 0250 13       		.uleb128 0x13
 7483 0251 00       		.byte	0
 7484 0252 00       		.byte	0
 7485 0253 2E       		.uleb128 0x2e
 7486 0254 1D       		.uleb128 0x1d
 7487 0255 01       		.byte	0x1
 7488 0256 31       		.uleb128 0x31
 7489 0257 13       		.uleb128 0x13
 7490 0258 11       		.uleb128 0x11
 7491 0259 01       		.uleb128 0x1
 7492 025a 12       		.uleb128 0x12
 7493 025b 06       		.uleb128 0x6
 7494 025c 58       		.uleb128 0x58
 7495 025d 0B       		.uleb128 0xb
 7496 025e 59       		.uleb128 0x59
 7497 025f 05       		.uleb128 0x5
 7498 0260 00       		.byte	0
 7499 0261 00       		.byte	0
 7500 0262 2F       		.uleb128 0x2f
 7501 0263 2E       		.uleb128 0x2e
 7502 0264 01       		.byte	0x1
 7503 0265 3F       		.uleb128 0x3f
 7504 0266 19       		.uleb128 0x19
 7505 0267 03       		.uleb128 0x3
 7506 0268 0E       		.uleb128 0xe
 7507 0269 3A       		.uleb128 0x3a
 7508 026a 0B       		.uleb128 0xb
 7509 026b 3B       		.uleb128 0x3b
 7510 026c 05       		.uleb128 0x5
 7511 026d 27       		.uleb128 0x27
 7512 026e 19       		.uleb128 0x19
 7513 026f 49       		.uleb128 0x49
 7514 0270 13       		.uleb128 0x13
 7515 0271 8701     		.uleb128 0x87
 7516 0273 19       		.uleb128 0x19
 7517 0274 11       		.uleb128 0x11
 7518 0275 01       		.uleb128 0x1
 7519 0276 12       		.uleb128 0x12
 7520 0277 06       		.uleb128 0x6
 7521 0278 40       		.uleb128 0x40
 7522 0279 18       		.uleb128 0x18
ARM GAS  C:\Users\dmula\AppData\Local\Temp\ccXnnfAd.s 			page 174


 7523 027a 9642     		.uleb128 0x2116
 7524 027c 19       		.uleb128 0x19
 7525 027d 01       		.uleb128 0x1
 7526 027e 13       		.uleb128 0x13
 7527 027f 00       		.byte	0
 7528 0280 00       		.byte	0
 7529 0281 30       		.uleb128 0x30
 7530 0282 34       		.uleb128 0x34
 7531 0283 00       		.byte	0
 7532 0284 03       		.uleb128 0x3
 7533 0285 0E       		.uleb128 0xe
 7534 0286 3A       		.uleb128 0x3a
 7535 0287 0B       		.uleb128 0xb
 7536 0288 3B       		.uleb128 0x3b
 7537 0289 05       		.uleb128 0x5
 7538 028a 49       		.uleb128 0x49
 7539 028b 13       		.uleb128 0x13
 7540 028c 00       		.byte	0
 7541 028d 00       		.byte	0
 7542 028e 31       		.uleb128 0x31
 7543 028f 34       		.uleb128 0x34
 7544 0290 00       		.byte	0
 7545 0291 03       		.uleb128 0x3
 7546 0292 0E       		.uleb128 0xe
 7547 0293 3A       		.uleb128 0x3a
 7548 0294 0B       		.uleb128 0xb
 7549 0295 3B       		.uleb128 0x3b
 7550 0296 05       		.uleb128 0x5
 7551 0297 49       		.uleb128 0x49
 7552 0298 13       		.uleb128 0x13
 7553 0299 02       		.uleb128 0x2
 7554 029a 17       		.uleb128 0x17
 7555 029b 00       		.byte	0
 7556 029c 00       		.byte	0
 7557 029d 32       		.uleb128 0x32
 7558 029e 34       		.uleb128 0x34
 7559 029f 00       		.byte	0
 7560 02a0 03       		.uleb128 0x3
 7561 02a1 08       		.uleb128 0x8
 7562 02a2 3A       		.uleb128 0x3a
 7563 02a3 0B       		.uleb128 0xb
 7564 02a4 3B       		.uleb128 0x3b
 7565 02a5 05       		.uleb128 0x5
 7566 02a6 49       		.uleb128 0x49
 7567 02a7 13       		.uleb128 0x13
 7568 02a8 1C       		.uleb128 0x1c
 7569 02a9 0B       		.uleb128 0xb
 7570 02aa 00       		.byte	0
 7571 02ab 00       		.byte	0
 7572 02ac 33       		.uleb128 0x33
 7573 02ad 34       		.uleb128 0x34
 7574 02ae 00       		.byte	0
 7575 02af 03       		.uleb128 0x3
 7576 02b0 0E       		.uleb128 0xe
 7577 02b1 3A       		.uleb128 0x3a
 7578 02b2 0B       		.uleb128 0xb
 7579 02b3 3B       		.uleb128 0x3b
ARM GAS  C:\Users\dmula\AppData\Local\Temp\ccXnnfAd.s 			page 175


 7580 02b4 05       		.uleb128 0x5
 7581 02b5 49       		.uleb128 0x49
 7582 02b6 13       		.uleb128 0x13
 7583 02b7 1C       		.uleb128 0x1c
 7584 02b8 0B       		.uleb128 0xb
 7585 02b9 00       		.byte	0
 7586 02ba 00       		.byte	0
 7587 02bb 34       		.uleb128 0x34
 7588 02bc 1D       		.uleb128 0x1d
 7589 02bd 00       		.byte	0
 7590 02be 31       		.uleb128 0x31
 7591 02bf 13       		.uleb128 0x13
 7592 02c0 11       		.uleb128 0x11
 7593 02c1 01       		.uleb128 0x1
 7594 02c2 12       		.uleb128 0x12
 7595 02c3 06       		.uleb128 0x6
 7596 02c4 58       		.uleb128 0x58
 7597 02c5 0B       		.uleb128 0xb
 7598 02c6 59       		.uleb128 0x59
 7599 02c7 05       		.uleb128 0x5
 7600 02c8 00       		.byte	0
 7601 02c9 00       		.byte	0
 7602 02ca 35       		.uleb128 0x35
 7603 02cb 0B       		.uleb128 0xb
 7604 02cc 01       		.byte	0x1
 7605 02cd 11       		.uleb128 0x11
 7606 02ce 01       		.uleb128 0x1
 7607 02cf 12       		.uleb128 0x12
 7608 02d0 06       		.uleb128 0x6
 7609 02d1 01       		.uleb128 0x1
 7610 02d2 13       		.uleb128 0x13
 7611 02d3 00       		.byte	0
 7612 02d4 00       		.byte	0
 7613 02d5 36       		.uleb128 0x36
 7614 02d6 34       		.uleb128 0x34
 7615 02d7 00       		.byte	0
 7616 02d8 03       		.uleb128 0x3
 7617 02d9 08       		.uleb128 0x8
 7618 02da 3A       		.uleb128 0x3a
 7619 02db 0B       		.uleb128 0xb
 7620 02dc 3B       		.uleb128 0x3b
 7621 02dd 05       		.uleb128 0x5
 7622 02de 49       		.uleb128 0x49
 7623 02df 13       		.uleb128 0x13
 7624 02e0 02       		.uleb128 0x2
 7625 02e1 17       		.uleb128 0x17
 7626 02e2 00       		.byte	0
 7627 02e3 00       		.byte	0
 7628 02e4 37       		.uleb128 0x37
 7629 02e5 898201   		.uleb128 0x4109
 7630 02e8 01       		.byte	0x1
 7631 02e9 11       		.uleb128 0x11
 7632 02ea 01       		.uleb128 0x1
 7633 02eb 31       		.uleb128 0x31
 7634 02ec 13       		.uleb128 0x13
 7635 02ed 01       		.uleb128 0x1
 7636 02ee 13       		.uleb128 0x13
ARM GAS  C:\Users\dmula\AppData\Local\Temp\ccXnnfAd.s 			page 176


 7637 02ef 00       		.byte	0
 7638 02f0 00       		.byte	0
 7639 02f1 38       		.uleb128 0x38
 7640 02f2 8A8201   		.uleb128 0x410a
 7641 02f5 00       		.byte	0
 7642 02f6 02       		.uleb128 0x2
 7643 02f7 18       		.uleb128 0x18
 7644 02f8 9142     		.uleb128 0x2111
 7645 02fa 18       		.uleb128 0x18
 7646 02fb 00       		.byte	0
 7647 02fc 00       		.byte	0
 7648 02fd 39       		.uleb128 0x39
 7649 02fe 898201   		.uleb128 0x4109
 7650 0301 01       		.byte	0x1
 7651 0302 11       		.uleb128 0x11
 7652 0303 01       		.uleb128 0x1
 7653 0304 31       		.uleb128 0x31
 7654 0305 13       		.uleb128 0x13
 7655 0306 00       		.byte	0
 7656 0307 00       		.byte	0
 7657 0308 3A       		.uleb128 0x3a
 7658 0309 898201   		.uleb128 0x4109
 7659 030c 00       		.byte	0
 7660 030d 11       		.uleb128 0x11
 7661 030e 01       		.uleb128 0x1
 7662 030f 31       		.uleb128 0x31
 7663 0310 13       		.uleb128 0x13
 7664 0311 00       		.byte	0
 7665 0312 00       		.byte	0
 7666 0313 3B       		.uleb128 0x3b
 7667 0314 34       		.uleb128 0x34
 7668 0315 00       		.byte	0
 7669 0316 03       		.uleb128 0x3
 7670 0317 0E       		.uleb128 0xe
 7671 0318 3A       		.uleb128 0x3a
 7672 0319 0B       		.uleb128 0xb
 7673 031a 3B       		.uleb128 0x3b
 7674 031b 05       		.uleb128 0x5
 7675 031c 49       		.uleb128 0x49
 7676 031d 13       		.uleb128 0x13
 7677 031e 3F       		.uleb128 0x3f
 7678 031f 19       		.uleb128 0x19
 7679 0320 3C       		.uleb128 0x3c
 7680 0321 19       		.uleb128 0x19
 7681 0322 00       		.byte	0
 7682 0323 00       		.byte	0
 7683 0324 3C       		.uleb128 0x3c
 7684 0325 34       		.uleb128 0x34
 7685 0326 00       		.byte	0
 7686 0327 03       		.uleb128 0x3
 7687 0328 0E       		.uleb128 0xe
 7688 0329 3A       		.uleb128 0x3a
 7689 032a 0B       		.uleb128 0xb
 7690 032b 3B       		.uleb128 0x3b
 7691 032c 0B       		.uleb128 0xb
 7692 032d 49       		.uleb128 0x49
 7693 032e 13       		.uleb128 0x13
ARM GAS  C:\Users\dmula\AppData\Local\Temp\ccXnnfAd.s 			page 177


 7694 032f 3F       		.uleb128 0x3f
 7695 0330 19       		.uleb128 0x19
 7696 0331 3C       		.uleb128 0x3c
 7697 0332 19       		.uleb128 0x19
 7698 0333 00       		.byte	0
 7699 0334 00       		.byte	0
 7700 0335 3D       		.uleb128 0x3d
 7701 0336 34       		.uleb128 0x34
 7702 0337 00       		.byte	0
 7703 0338 03       		.uleb128 0x3
 7704 0339 08       		.uleb128 0x8
 7705 033a 3A       		.uleb128 0x3a
 7706 033b 0B       		.uleb128 0xb
 7707 033c 3B       		.uleb128 0x3b
 7708 033d 0B       		.uleb128 0xb
 7709 033e 49       		.uleb128 0x49
 7710 033f 13       		.uleb128 0x13
 7711 0340 3F       		.uleb128 0x3f
 7712 0341 19       		.uleb128 0x19
 7713 0342 02       		.uleb128 0x2
 7714 0343 18       		.uleb128 0x18
 7715 0344 00       		.byte	0
 7716 0345 00       		.byte	0
 7717 0346 3E       		.uleb128 0x3e
 7718 0347 34       		.uleb128 0x34
 7719 0348 00       		.byte	0
 7720 0349 03       		.uleb128 0x3
 7721 034a 0E       		.uleb128 0xe
 7722 034b 3A       		.uleb128 0x3a
 7723 034c 0B       		.uleb128 0xb
 7724 034d 3B       		.uleb128 0x3b
 7725 034e 0B       		.uleb128 0xb
 7726 034f 49       		.uleb128 0x49
 7727 0350 13       		.uleb128 0x13
 7728 0351 3F       		.uleb128 0x3f
 7729 0352 19       		.uleb128 0x19
 7730 0353 02       		.uleb128 0x2
 7731 0354 18       		.uleb128 0x18
 7732 0355 00       		.byte	0
 7733 0356 00       		.byte	0
 7734 0357 3F       		.uleb128 0x3f
 7735 0358 2E       		.uleb128 0x2e
 7736 0359 00       		.byte	0
 7737 035a 3F       		.uleb128 0x3f
 7738 035b 19       		.uleb128 0x19
 7739 035c 3C       		.uleb128 0x3c
 7740 035d 19       		.uleb128 0x19
 7741 035e 6E       		.uleb128 0x6e
 7742 035f 0E       		.uleb128 0xe
 7743 0360 03       		.uleb128 0x3
 7744 0361 0E       		.uleb128 0xe
 7745 0362 3A       		.uleb128 0x3a
 7746 0363 0B       		.uleb128 0xb
 7747 0364 3B       		.uleb128 0x3b
 7748 0365 05       		.uleb128 0x5
 7749 0366 00       		.byte	0
 7750 0367 00       		.byte	0
ARM GAS  C:\Users\dmula\AppData\Local\Temp\ccXnnfAd.s 			page 178


 7751 0368 40       		.uleb128 0x40
 7752 0369 2E       		.uleb128 0x2e
 7753 036a 00       		.byte	0
 7754 036b 3F       		.uleb128 0x3f
 7755 036c 19       		.uleb128 0x19
 7756 036d 3C       		.uleb128 0x3c
 7757 036e 19       		.uleb128 0x19
 7758 036f 6E       		.uleb128 0x6e
 7759 0370 0E       		.uleb128 0xe
 7760 0371 03       		.uleb128 0x3
 7761 0372 0E       		.uleb128 0xe
 7762 0373 3A       		.uleb128 0x3a
 7763 0374 0B       		.uleb128 0xb
 7764 0375 3B       		.uleb128 0x3b
 7765 0376 0B       		.uleb128 0xb
 7766 0377 00       		.byte	0
 7767 0378 00       		.byte	0
 7768 0379 00       		.byte	0
 7769              		.section	.debug_loc,"",%progbits
 7770              	.Ldebug_loc0:
 7771              	.LLST0:
 7772 0000 1A000000 		.4byte	.LVL1
 7773 0004 20000000 		.4byte	.LVL2
 7774 0008 0200     		.2byte	0x2
 7775 000a 30       		.byte	0x30
 7776 000b 9F       		.byte	0x9f
 7777 000c 00000000 		.4byte	0
 7778 0010 00000000 		.4byte	0
 7779              	.LLST2:
 7780 0014 1A000000 		.4byte	.LVL1
 7781 0018 20000000 		.4byte	.LVL2
 7782 001c 0600     		.2byte	0x6
 7783 001e 0C       		.byte	0xc
 7784 001f 80043240 		.4byte	0x40320480
 7785 0023 9F       		.byte	0x9f
 7786 0024 00000000 		.4byte	0
 7787 0028 00000000 		.4byte	0
 7788              	.LLST3:
 7789 002c 20000000 		.4byte	.LVL2
 7790 0030 24000000 		.4byte	.LVL3
 7791 0034 0200     		.2byte	0x2
 7792 0036 30       		.byte	0x30
 7793 0037 9F       		.byte	0x9f
 7794 0038 00000000 		.4byte	0
 7795 003c 00000000 		.4byte	0
 7796              	.LLST4:
 7797 0040 20000000 		.4byte	.LVL2
 7798 0044 24000000 		.4byte	.LVL3
 7799 0048 0200     		.2byte	0x2
 7800 004a 31       		.byte	0x31
 7801 004b 9F       		.byte	0x9f
 7802 004c 00000000 		.4byte	0
 7803 0050 00000000 		.4byte	0
 7804              	.LLST5:
 7805 0054 20000000 		.4byte	.LVL2
 7806 0058 24000000 		.4byte	.LVL3
 7807 005c 0600     		.2byte	0x6
ARM GAS  C:\Users\dmula\AppData\Local\Temp\ccXnnfAd.s 			page 179


 7808 005e 0C       		.byte	0xc
 7809 005f 80043240 		.4byte	0x40320480
 7810 0063 9F       		.byte	0x9f
 7811 0064 00000000 		.4byte	0
 7812 0068 00000000 		.4byte	0
 7813              	.LLST6:
 7814 006c 24000000 		.4byte	.LVL3
 7815 0070 28000000 		.4byte	.LVL4
 7816 0074 0200     		.2byte	0x2
 7817 0076 30       		.byte	0x30
 7818 0077 9F       		.byte	0x9f
 7819 0078 00000000 		.4byte	0
 7820 007c 00000000 		.4byte	0
 7821              	.LLST7:
 7822 0080 24000000 		.4byte	.LVL3
 7823 0084 28000000 		.4byte	.LVL4
 7824 0088 0200     		.2byte	0x2
 7825 008a 32       		.byte	0x32
 7826 008b 9F       		.byte	0x9f
 7827 008c 00000000 		.4byte	0
 7828 0090 00000000 		.4byte	0
 7829              	.LLST8:
 7830 0094 24000000 		.4byte	.LVL3
 7831 0098 28000000 		.4byte	.LVL4
 7832 009c 0600     		.2byte	0x6
 7833 009e 0C       		.byte	0xc
 7834 009f 80043240 		.4byte	0x40320480
 7835 00a3 9F       		.byte	0x9f
 7836 00a4 00000000 		.4byte	0
 7837 00a8 00000000 		.4byte	0
 7838              	.LLST9:
 7839 00ac 28000000 		.4byte	.LVL4
 7840 00b0 2E000000 		.4byte	.LVL5
 7841 00b4 0200     		.2byte	0x2
 7842 00b6 30       		.byte	0x30
 7843 00b7 9F       		.byte	0x9f
 7844 00b8 00000000 		.4byte	0
 7845 00bc 00000000 		.4byte	0
 7846              	.LLST10:
 7847 00c0 28000000 		.4byte	.LVL4
 7848 00c4 2E000000 		.4byte	.LVL5
 7849 00c8 0200     		.2byte	0x2
 7850 00ca 33       		.byte	0x33
 7851 00cb 9F       		.byte	0x9f
 7852 00cc 00000000 		.4byte	0
 7853 00d0 00000000 		.4byte	0
 7854              	.LLST11:
 7855 00d4 28000000 		.4byte	.LVL4
 7856 00d8 2E000000 		.4byte	.LVL5
 7857 00dc 0600     		.2byte	0x6
 7858 00de 0C       		.byte	0xc
 7859 00df 80043240 		.4byte	0x40320480
 7860 00e3 9F       		.byte	0x9f
 7861 00e4 00000000 		.4byte	0
 7862 00e8 00000000 		.4byte	0
 7863              	.LLST12:
 7864 00ec 2E000000 		.4byte	.LVL5
ARM GAS  C:\Users\dmula\AppData\Local\Temp\ccXnnfAd.s 			page 180


 7865 00f0 34000000 		.4byte	.LVL6
 7866 00f4 0200     		.2byte	0x2
 7867 00f6 31       		.byte	0x31
 7868 00f7 9F       		.byte	0x9f
 7869 00f8 00000000 		.4byte	0
 7870 00fc 00000000 		.4byte	0
 7871              	.LLST13:
 7872 0100 2E000000 		.4byte	.LVL5
 7873 0104 34000000 		.4byte	.LVL6
 7874 0108 0200     		.2byte	0x2
 7875 010a 30       		.byte	0x30
 7876 010b 9F       		.byte	0x9f
 7877 010c 00000000 		.4byte	0
 7878 0110 00000000 		.4byte	0
 7879              	.LLST14:
 7880 0114 2E000000 		.4byte	.LVL5
 7881 0118 34000000 		.4byte	.LVL6
 7882 011c 0600     		.2byte	0x6
 7883 011e 0C       		.byte	0xc
 7884 011f 80043240 		.4byte	0x40320480
 7885 0123 9F       		.byte	0x9f
 7886 0124 00000000 		.4byte	0
 7887 0128 00000000 		.4byte	0
 7888              	.LLST15:
 7889 012c 34000000 		.4byte	.LVL6
 7890 0130 38000000 		.4byte	.LVL7
 7891 0134 0200     		.2byte	0x2
 7892 0136 30       		.byte	0x30
 7893 0137 9F       		.byte	0x9f
 7894 0138 00000000 		.4byte	0
 7895 013c 00000000 		.4byte	0
 7896              	.LLST16:
 7897 0140 34000000 		.4byte	.LVL6
 7898 0144 38000000 		.4byte	.LVL7
 7899 0148 0200     		.2byte	0x2
 7900 014a 31       		.byte	0x31
 7901 014b 9F       		.byte	0x9f
 7902 014c 00000000 		.4byte	0
 7903 0150 00000000 		.4byte	0
 7904              	.LLST17:
 7905 0154 34000000 		.4byte	.LVL6
 7906 0158 38000000 		.4byte	.LVL7
 7907 015c 0600     		.2byte	0x6
 7908 015e 0C       		.byte	0xc
 7909 015f 80043240 		.4byte	0x40320480
 7910 0163 9F       		.byte	0x9f
 7911 0164 00000000 		.4byte	0
 7912 0168 00000000 		.4byte	0
 7913              	.LLST18:
 7914 016c 38000000 		.4byte	.LVL7
 7915 0170 3C000000 		.4byte	.LVL8
 7916 0174 0200     		.2byte	0x2
 7917 0176 30       		.byte	0x30
 7918 0177 9F       		.byte	0x9f
 7919 0178 00000000 		.4byte	0
 7920 017c 00000000 		.4byte	0
 7921              	.LLST19:
ARM GAS  C:\Users\dmula\AppData\Local\Temp\ccXnnfAd.s 			page 181


 7922 0180 38000000 		.4byte	.LVL7
 7923 0184 3C000000 		.4byte	.LVL8
 7924 0188 0200     		.2byte	0x2
 7925 018a 32       		.byte	0x32
 7926 018b 9F       		.byte	0x9f
 7927 018c 00000000 		.4byte	0
 7928 0190 00000000 		.4byte	0
 7929              	.LLST20:
 7930 0194 38000000 		.4byte	.LVL7
 7931 0198 3C000000 		.4byte	.LVL8
 7932 019c 0600     		.2byte	0x6
 7933 019e 0C       		.byte	0xc
 7934 019f 80043240 		.4byte	0x40320480
 7935 01a3 9F       		.byte	0x9f
 7936 01a4 00000000 		.4byte	0
 7937 01a8 00000000 		.4byte	0
 7938              	.LLST21:
 7939 01ac 3C000000 		.4byte	.LVL8
 7940 01b0 42000000 		.4byte	.LVL9
 7941 01b4 0200     		.2byte	0x2
 7942 01b6 30       		.byte	0x30
 7943 01b7 9F       		.byte	0x9f
 7944 01b8 00000000 		.4byte	0
 7945 01bc 00000000 		.4byte	0
 7946              	.LLST22:
 7947 01c0 3C000000 		.4byte	.LVL8
 7948 01c4 42000000 		.4byte	.LVL9
 7949 01c8 0200     		.2byte	0x2
 7950 01ca 33       		.byte	0x33
 7951 01cb 9F       		.byte	0x9f
 7952 01cc 00000000 		.4byte	0
 7953 01d0 00000000 		.4byte	0
 7954              	.LLST23:
 7955 01d4 3C000000 		.4byte	.LVL8
 7956 01d8 42000000 		.4byte	.LVL9
 7957 01dc 0600     		.2byte	0x6
 7958 01de 0C       		.byte	0xc
 7959 01df 80043240 		.4byte	0x40320480
 7960 01e3 9F       		.byte	0x9f
 7961 01e4 00000000 		.4byte	0
 7962 01e8 00000000 		.4byte	0
 7963              	.LLST24:
 7964 01ec 42000000 		.4byte	.LVL9
 7965 01f0 48000000 		.4byte	.LVL10
 7966 01f4 0200     		.2byte	0x2
 7967 01f6 30       		.byte	0x30
 7968 01f7 9F       		.byte	0x9f
 7969 01f8 00000000 		.4byte	0
 7970 01fc 00000000 		.4byte	0
 7971              	.LLST26:
 7972 0200 42000000 		.4byte	.LVL9
 7973 0204 48000000 		.4byte	.LVL10
 7974 0208 0600     		.2byte	0x6
 7975 020a 0C       		.byte	0xc
 7976 020b 80043240 		.4byte	0x40320480
 7977 020f 9F       		.byte	0x9f
 7978 0210 00000000 		.4byte	0
ARM GAS  C:\Users\dmula\AppData\Local\Temp\ccXnnfAd.s 			page 182


 7979 0214 00000000 		.4byte	0
 7980              	.LLST27:
 7981 0218 48000000 		.4byte	.LVL10
 7982 021c 4C000000 		.4byte	.LVL11
 7983 0220 0200     		.2byte	0x2
 7984 0222 31       		.byte	0x31
 7985 0223 9F       		.byte	0x9f
 7986 0224 00000000 		.4byte	0
 7987 0228 00000000 		.4byte	0
 7988              	.LLST29:
 7989 022c 48000000 		.4byte	.LVL10
 7990 0230 4C000000 		.4byte	.LVL11
 7991 0234 0600     		.2byte	0x6
 7992 0236 0C       		.byte	0xc
 7993 0237 80043240 		.4byte	0x40320480
 7994 023b 9F       		.byte	0x9f
 7995 023c 00000000 		.4byte	0
 7996 0240 00000000 		.4byte	0
 7997              	.LLST30:
 7998 0244 4C000000 		.4byte	.LVL11
 7999 0248 50000000 		.4byte	.LVL12
 8000 024c 0200     		.2byte	0x2
 8001 024e 30       		.byte	0x30
 8002 024f 9F       		.byte	0x9f
 8003 0250 00000000 		.4byte	0
 8004 0254 00000000 		.4byte	0
 8005              	.LLST31:
 8006 0258 4C000000 		.4byte	.LVL11
 8007 025c 50000000 		.4byte	.LVL12
 8008 0260 0200     		.2byte	0x2
 8009 0262 32       		.byte	0x32
 8010 0263 9F       		.byte	0x9f
 8011 0264 00000000 		.4byte	0
 8012 0268 00000000 		.4byte	0
 8013              	.LLST32:
 8014 026c 4C000000 		.4byte	.LVL11
 8015 0270 50000000 		.4byte	.LVL12
 8016 0274 0600     		.2byte	0x6
 8017 0276 0C       		.byte	0xc
 8018 0277 80043240 		.4byte	0x40320480
 8019 027b 9F       		.byte	0x9f
 8020 027c 00000000 		.4byte	0
 8021 0280 00000000 		.4byte	0
 8022              	.LLST33:
 8023 0284 50000000 		.4byte	.LVL12
 8024 0288 56000000 		.4byte	.LVL13
 8025 028c 0200     		.2byte	0x2
 8026 028e 30       		.byte	0x30
 8027 028f 9F       		.byte	0x9f
 8028 0290 00000000 		.4byte	0
 8029 0294 00000000 		.4byte	0
 8030              	.LLST34:
 8031 0298 50000000 		.4byte	.LVL12
 8032 029c 56000000 		.4byte	.LVL13
 8033 02a0 0200     		.2byte	0x2
 8034 02a2 33       		.byte	0x33
 8035 02a3 9F       		.byte	0x9f
ARM GAS  C:\Users\dmula\AppData\Local\Temp\ccXnnfAd.s 			page 183


 8036 02a4 00000000 		.4byte	0
 8037 02a8 00000000 		.4byte	0
 8038              	.LLST35:
 8039 02ac 50000000 		.4byte	.LVL12
 8040 02b0 56000000 		.4byte	.LVL13
 8041 02b4 0600     		.2byte	0x6
 8042 02b6 0C       		.byte	0xc
 8043 02b7 80043240 		.4byte	0x40320480
 8044 02bb 9F       		.byte	0x9f
 8045 02bc 00000000 		.4byte	0
 8046 02c0 00000000 		.4byte	0
 8047              	.LLST36:
 8048 02c4 56000000 		.4byte	.LVL13
 8049 02c8 5C000000 		.4byte	.LVL14
 8050 02cc 0200     		.2byte	0x2
 8051 02ce 31       		.byte	0x31
 8052 02cf 9F       		.byte	0x9f
 8053 02d0 00000000 		.4byte	0
 8054 02d4 00000000 		.4byte	0
 8055              	.LLST37:
 8056 02d8 56000000 		.4byte	.LVL13
 8057 02dc 5C000000 		.4byte	.LVL14
 8058 02e0 0200     		.2byte	0x2
 8059 02e2 30       		.byte	0x30
 8060 02e3 9F       		.byte	0x9f
 8061 02e4 00000000 		.4byte	0
 8062 02e8 00000000 		.4byte	0
 8063              	.LLST38:
 8064 02ec 56000000 		.4byte	.LVL13
 8065 02f0 5C000000 		.4byte	.LVL14
 8066 02f4 0600     		.2byte	0x6
 8067 02f6 0C       		.byte	0xc
 8068 02f7 80043240 		.4byte	0x40320480
 8069 02fb 9F       		.byte	0x9f
 8070 02fc 00000000 		.4byte	0
 8071 0300 00000000 		.4byte	0
 8072              	.LLST39:
 8073 0304 5C000000 		.4byte	.LVL14
 8074 0308 60000000 		.4byte	.LVL15
 8075 030c 0200     		.2byte	0x2
 8076 030e 31       		.byte	0x31
 8077 030f 9F       		.byte	0x9f
 8078 0310 00000000 		.4byte	0
 8079 0314 00000000 		.4byte	0
 8080              	.LLST41:
 8081 0318 5C000000 		.4byte	.LVL14
 8082 031c 60000000 		.4byte	.LVL15
 8083 0320 0600     		.2byte	0x6
 8084 0322 0C       		.byte	0xc
 8085 0323 80043240 		.4byte	0x40320480
 8086 0327 9F       		.byte	0x9f
 8087 0328 00000000 		.4byte	0
 8088 032c 00000000 		.4byte	0
 8089              	.LLST42:
 8090 0330 60000000 		.4byte	.LVL15
 8091 0334 64000000 		.4byte	.LVL16
 8092 0338 0200     		.2byte	0x2
ARM GAS  C:\Users\dmula\AppData\Local\Temp\ccXnnfAd.s 			page 184


 8093 033a 30       		.byte	0x30
 8094 033b 9F       		.byte	0x9f
 8095 033c 00000000 		.4byte	0
 8096 0340 00000000 		.4byte	0
 8097              	.LLST43:
 8098 0344 60000000 		.4byte	.LVL15
 8099 0348 64000000 		.4byte	.LVL16
 8100 034c 0200     		.2byte	0x2
 8101 034e 32       		.byte	0x32
 8102 034f 9F       		.byte	0x9f
 8103 0350 00000000 		.4byte	0
 8104 0354 00000000 		.4byte	0
 8105              	.LLST44:
 8106 0358 60000000 		.4byte	.LVL15
 8107 035c 64000000 		.4byte	.LVL16
 8108 0360 0600     		.2byte	0x6
 8109 0362 0C       		.byte	0xc
 8110 0363 80043240 		.4byte	0x40320480
 8111 0367 9F       		.byte	0x9f
 8112 0368 00000000 		.4byte	0
 8113 036c 00000000 		.4byte	0
 8114              	.LLST45:
 8115 0370 64000000 		.4byte	.LVL16
 8116 0374 6A000000 		.4byte	.LVL17
 8117 0378 0200     		.2byte	0x2
 8118 037a 30       		.byte	0x30
 8119 037b 9F       		.byte	0x9f
 8120 037c 00000000 		.4byte	0
 8121 0380 00000000 		.4byte	0
 8122              	.LLST46:
 8123 0384 64000000 		.4byte	.LVL16
 8124 0388 6A000000 		.4byte	.LVL17
 8125 038c 0200     		.2byte	0x2
 8126 038e 33       		.byte	0x33
 8127 038f 9F       		.byte	0x9f
 8128 0390 00000000 		.4byte	0
 8129 0394 00000000 		.4byte	0
 8130              	.LLST47:
 8131 0398 64000000 		.4byte	.LVL16
 8132 039c 6A000000 		.4byte	.LVL17
 8133 03a0 0600     		.2byte	0x6
 8134 03a2 0C       		.byte	0xc
 8135 03a3 80043240 		.4byte	0x40320480
 8136 03a7 9F       		.byte	0x9f
 8137 03a8 00000000 		.4byte	0
 8138 03ac 00000000 		.4byte	0
 8139              	.LLST48:
 8140 03b0 6A000000 		.4byte	.LVL17
 8141 03b4 70000000 		.4byte	.LVL18
 8142 03b8 0200     		.2byte	0x2
 8143 03ba 30       		.byte	0x30
 8144 03bb 9F       		.byte	0x9f
 8145 03bc 00000000 		.4byte	0
 8146 03c0 00000000 		.4byte	0
 8147              	.LLST50:
 8148 03c4 6A000000 		.4byte	.LVL17
 8149 03c8 70000000 		.4byte	.LVL18
ARM GAS  C:\Users\dmula\AppData\Local\Temp\ccXnnfAd.s 			page 185


 8150 03cc 0600     		.2byte	0x6
 8151 03ce 0C       		.byte	0xc
 8152 03cf 80043240 		.4byte	0x40320480
 8153 03d3 9F       		.byte	0x9f
 8154 03d4 00000000 		.4byte	0
 8155 03d8 00000000 		.4byte	0
 8156              	.LLST51:
 8157 03dc 70000000 		.4byte	.LVL18
 8158 03e0 74000000 		.4byte	.LVL19
 8159 03e4 0200     		.2byte	0x2
 8160 03e6 30       		.byte	0x30
 8161 03e7 9F       		.byte	0x9f
 8162 03e8 00000000 		.4byte	0
 8163 03ec 00000000 		.4byte	0
 8164              	.LLST52:
 8165 03f0 70000000 		.4byte	.LVL18
 8166 03f4 74000000 		.4byte	.LVL19
 8167 03f8 0200     		.2byte	0x2
 8168 03fa 31       		.byte	0x31
 8169 03fb 9F       		.byte	0x9f
 8170 03fc 00000000 		.4byte	0
 8171 0400 00000000 		.4byte	0
 8172              	.LLST53:
 8173 0404 70000000 		.4byte	.LVL18
 8174 0408 74000000 		.4byte	.LVL19
 8175 040c 0600     		.2byte	0x6
 8176 040e 0C       		.byte	0xc
 8177 040f 80043240 		.4byte	0x40320480
 8178 0413 9F       		.byte	0x9f
 8179 0414 00000000 		.4byte	0
 8180 0418 00000000 		.4byte	0
 8181              	.LLST54:
 8182 041c 74000000 		.4byte	.LVL19
 8183 0420 78000000 		.4byte	.LVL20
 8184 0424 0200     		.2byte	0x2
 8185 0426 31       		.byte	0x31
 8186 0427 9F       		.byte	0x9f
 8187 0428 00000000 		.4byte	0
 8188 042c 00000000 		.4byte	0
 8189              	.LLST55:
 8190 0430 74000000 		.4byte	.LVL19
 8191 0434 78000000 		.4byte	.LVL20
 8192 0438 0200     		.2byte	0x2
 8193 043a 32       		.byte	0x32
 8194 043b 9F       		.byte	0x9f
 8195 043c 00000000 		.4byte	0
 8196 0440 00000000 		.4byte	0
 8197              	.LLST56:
 8198 0444 74000000 		.4byte	.LVL19
 8199 0448 78000000 		.4byte	.LVL20
 8200 044c 0600     		.2byte	0x6
 8201 044e 0C       		.byte	0xc
 8202 044f 80043240 		.4byte	0x40320480
 8203 0453 9F       		.byte	0x9f
 8204 0454 00000000 		.4byte	0
 8205 0458 00000000 		.4byte	0
 8206              	.LLST57:
ARM GAS  C:\Users\dmula\AppData\Local\Temp\ccXnnfAd.s 			page 186


 8207 045c 78000000 		.4byte	.LVL20
 8208 0460 7E000000 		.4byte	.LVL21
 8209 0464 0200     		.2byte	0x2
 8210 0466 30       		.byte	0x30
 8211 0467 9F       		.byte	0x9f
 8212 0468 00000000 		.4byte	0
 8213 046c 00000000 		.4byte	0
 8214              	.LLST58:
 8215 0470 78000000 		.4byte	.LVL20
 8216 0474 7E000000 		.4byte	.LVL21
 8217 0478 0200     		.2byte	0x2
 8218 047a 33       		.byte	0x33
 8219 047b 9F       		.byte	0x9f
 8220 047c 00000000 		.4byte	0
 8221 0480 00000000 		.4byte	0
 8222              	.LLST59:
 8223 0484 78000000 		.4byte	.LVL20
 8224 0488 7E000000 		.4byte	.LVL21
 8225 048c 0600     		.2byte	0x6
 8226 048e 0C       		.byte	0xc
 8227 048f 80043240 		.4byte	0x40320480
 8228 0493 9F       		.byte	0x9f
 8229 0494 00000000 		.4byte	0
 8230 0498 00000000 		.4byte	0
 8231              	.LLST60:
 8232 049c 7E000000 		.4byte	.LVL21
 8233 04a0 84000000 		.4byte	.LVL22
 8234 04a4 0200     		.2byte	0x2
 8235 04a6 31       		.byte	0x31
 8236 04a7 9F       		.byte	0x9f
 8237 04a8 00000000 		.4byte	0
 8238 04ac 00000000 		.4byte	0
 8239              	.LLST61:
 8240 04b0 7E000000 		.4byte	.LVL21
 8241 04b4 84000000 		.4byte	.LVL22
 8242 04b8 0200     		.2byte	0x2
 8243 04ba 30       		.byte	0x30
 8244 04bb 9F       		.byte	0x9f
 8245 04bc 00000000 		.4byte	0
 8246 04c0 00000000 		.4byte	0
 8247              	.LLST62:
 8248 04c4 7E000000 		.4byte	.LVL21
 8249 04c8 84000000 		.4byte	.LVL22
 8250 04cc 0600     		.2byte	0x6
 8251 04ce 0C       		.byte	0xc
 8252 04cf 80043240 		.4byte	0x40320480
 8253 04d3 9F       		.byte	0x9f
 8254 04d4 00000000 		.4byte	0
 8255 04d8 00000000 		.4byte	0
 8256              	.LLST63:
 8257 04dc 84000000 		.4byte	.LVL22
 8258 04e0 88000000 		.4byte	.LVL23
 8259 04e4 0200     		.2byte	0x2
 8260 04e6 30       		.byte	0x30
 8261 04e7 9F       		.byte	0x9f
 8262 04e8 00000000 		.4byte	0
 8263 04ec 00000000 		.4byte	0
ARM GAS  C:\Users\dmula\AppData\Local\Temp\ccXnnfAd.s 			page 187


 8264              	.LLST64:
 8265 04f0 84000000 		.4byte	.LVL22
 8266 04f4 88000000 		.4byte	.LVL23
 8267 04f8 0200     		.2byte	0x2
 8268 04fa 31       		.byte	0x31
 8269 04fb 9F       		.byte	0x9f
 8270 04fc 00000000 		.4byte	0
 8271 0500 00000000 		.4byte	0
 8272              	.LLST65:
 8273 0504 84000000 		.4byte	.LVL22
 8274 0508 88000000 		.4byte	.LVL23
 8275 050c 0600     		.2byte	0x6
 8276 050e 0C       		.byte	0xc
 8277 050f 80043240 		.4byte	0x40320480
 8278 0513 9F       		.byte	0x9f
 8279 0514 00000000 		.4byte	0
 8280 0518 00000000 		.4byte	0
 8281              	.LLST66:
 8282 051c 88000000 		.4byte	.LVL23
 8283 0520 8C000000 		.4byte	.LVL24
 8284 0524 0200     		.2byte	0x2
 8285 0526 31       		.byte	0x31
 8286 0527 9F       		.byte	0x9f
 8287 0528 00000000 		.4byte	0
 8288 052c 00000000 		.4byte	0
 8289              	.LLST67:
 8290 0530 88000000 		.4byte	.LVL23
 8291 0534 8C000000 		.4byte	.LVL24
 8292 0538 0200     		.2byte	0x2
 8293 053a 32       		.byte	0x32
 8294 053b 9F       		.byte	0x9f
 8295 053c 00000000 		.4byte	0
 8296 0540 00000000 		.4byte	0
 8297              	.LLST68:
 8298 0544 88000000 		.4byte	.LVL23
 8299 0548 8C000000 		.4byte	.LVL24
 8300 054c 0600     		.2byte	0x6
 8301 054e 0C       		.byte	0xc
 8302 054f 80043240 		.4byte	0x40320480
 8303 0553 9F       		.byte	0x9f
 8304 0554 00000000 		.4byte	0
 8305 0558 00000000 		.4byte	0
 8306              	.LLST69:
 8307 055c 8C000000 		.4byte	.LVL24
 8308 0560 92000000 		.4byte	.LVL25
 8309 0564 0200     		.2byte	0x2
 8310 0566 30       		.byte	0x30
 8311 0567 9F       		.byte	0x9f
 8312 0568 00000000 		.4byte	0
 8313 056c 00000000 		.4byte	0
 8314              	.LLST70:
 8315 0570 8C000000 		.4byte	.LVL24
 8316 0574 92000000 		.4byte	.LVL25
 8317 0578 0200     		.2byte	0x2
 8318 057a 33       		.byte	0x33
 8319 057b 9F       		.byte	0x9f
 8320 057c 00000000 		.4byte	0
ARM GAS  C:\Users\dmula\AppData\Local\Temp\ccXnnfAd.s 			page 188


 8321 0580 00000000 		.4byte	0
 8322              	.LLST71:
 8323 0584 8C000000 		.4byte	.LVL24
 8324 0588 92000000 		.4byte	.LVL25
 8325 058c 0600     		.2byte	0x6
 8326 058e 0C       		.byte	0xc
 8327 058f 80043240 		.4byte	0x40320480
 8328 0593 9F       		.byte	0x9f
 8329 0594 00000000 		.4byte	0
 8330 0598 00000000 		.4byte	0
 8331              	.LLST72:
 8332 059c 92000000 		.4byte	.LVL25
 8333 05a0 98000000 		.4byte	.LVL26
 8334 05a4 0200     		.2byte	0x2
 8335 05a6 30       		.byte	0x30
 8336 05a7 9F       		.byte	0x9f
 8337 05a8 00000000 		.4byte	0
 8338 05ac 00000000 		.4byte	0
 8339              	.LLST74:
 8340 05b0 92000000 		.4byte	.LVL25
 8341 05b4 98000000 		.4byte	.LVL26
 8342 05b8 0600     		.2byte	0x6
 8343 05ba 0C       		.byte	0xc
 8344 05bb 80043240 		.4byte	0x40320480
 8345 05bf 9F       		.byte	0x9f
 8346 05c0 00000000 		.4byte	0
 8347 05c4 00000000 		.4byte	0
 8348              	.LLST75:
 8349 05c8 98000000 		.4byte	.LVL26
 8350 05cc 9C000000 		.4byte	.LVL27
 8351 05d0 0200     		.2byte	0x2
 8352 05d2 31       		.byte	0x31
 8353 05d3 9F       		.byte	0x9f
 8354 05d4 00000000 		.4byte	0
 8355 05d8 00000000 		.4byte	0
 8356              	.LLST77:
 8357 05dc 98000000 		.4byte	.LVL26
 8358 05e0 9C000000 		.4byte	.LVL27
 8359 05e4 0600     		.2byte	0x6
 8360 05e6 0C       		.byte	0xc
 8361 05e7 80043240 		.4byte	0x40320480
 8362 05eb 9F       		.byte	0x9f
 8363 05ec 00000000 		.4byte	0
 8364 05f0 00000000 		.4byte	0
 8365              	.LLST78:
 8366 05f4 9C000000 		.4byte	.LVL27
 8367 05f8 A0000000 		.4byte	.LVL28
 8368 05fc 0200     		.2byte	0x2
 8369 05fe 31       		.byte	0x31
 8370 05ff 9F       		.byte	0x9f
 8371 0600 00000000 		.4byte	0
 8372 0604 00000000 		.4byte	0
 8373              	.LLST79:
 8374 0608 9C000000 		.4byte	.LVL27
 8375 060c A0000000 		.4byte	.LVL28
 8376 0610 0200     		.2byte	0x2
 8377 0612 32       		.byte	0x32
ARM GAS  C:\Users\dmula\AppData\Local\Temp\ccXnnfAd.s 			page 189


 8378 0613 9F       		.byte	0x9f
 8379 0614 00000000 		.4byte	0
 8380 0618 00000000 		.4byte	0
 8381              	.LLST80:
 8382 061c 9C000000 		.4byte	.LVL27
 8383 0620 A0000000 		.4byte	.LVL28
 8384 0624 0600     		.2byte	0x6
 8385 0626 0C       		.byte	0xc
 8386 0627 80043240 		.4byte	0x40320480
 8387 062b 9F       		.byte	0x9f
 8388 062c 00000000 		.4byte	0
 8389 0630 00000000 		.4byte	0
 8390              	.LLST81:
 8391 0634 A0000000 		.4byte	.LVL28
 8392 0638 A6000000 		.4byte	.LVL29
 8393 063c 0200     		.2byte	0x2
 8394 063e 30       		.byte	0x30
 8395 063f 9F       		.byte	0x9f
 8396 0640 00000000 		.4byte	0
 8397 0644 00000000 		.4byte	0
 8398              	.LLST82:
 8399 0648 A0000000 		.4byte	.LVL28
 8400 064c A6000000 		.4byte	.LVL29
 8401 0650 0200     		.2byte	0x2
 8402 0652 33       		.byte	0x33
 8403 0653 9F       		.byte	0x9f
 8404 0654 00000000 		.4byte	0
 8405 0658 00000000 		.4byte	0
 8406              	.LLST83:
 8407 065c A0000000 		.4byte	.LVL28
 8408 0660 A6000000 		.4byte	.LVL29
 8409 0664 0600     		.2byte	0x6
 8410 0666 0C       		.byte	0xc
 8411 0667 80043240 		.4byte	0x40320480
 8412 066b 9F       		.byte	0x9f
 8413 066c 00000000 		.4byte	0
 8414 0670 00000000 		.4byte	0
 8415              	.LLST84:
 8416 0674 A6000000 		.4byte	.LVL29
 8417 0678 AC000000 		.4byte	.LVL30
 8418 067c 0200     		.2byte	0x2
 8419 067e 31       		.byte	0x31
 8420 067f 9F       		.byte	0x9f
 8421 0680 00000000 		.4byte	0
 8422 0684 00000000 		.4byte	0
 8423              	.LLST85:
 8424 0688 A6000000 		.4byte	.LVL29
 8425 068c AC000000 		.4byte	.LVL30
 8426 0690 0200     		.2byte	0x2
 8427 0692 30       		.byte	0x30
 8428 0693 9F       		.byte	0x9f
 8429 0694 00000000 		.4byte	0
 8430 0698 00000000 		.4byte	0
 8431              	.LLST86:
 8432 069c A6000000 		.4byte	.LVL29
 8433 06a0 AC000000 		.4byte	.LVL30
 8434 06a4 0600     		.2byte	0x6
ARM GAS  C:\Users\dmula\AppData\Local\Temp\ccXnnfAd.s 			page 190


 8435 06a6 0C       		.byte	0xc
 8436 06a7 80043240 		.4byte	0x40320480
 8437 06ab 9F       		.byte	0x9f
 8438 06ac 00000000 		.4byte	0
 8439 06b0 00000000 		.4byte	0
 8440              	.LLST87:
 8441 06b4 AC000000 		.4byte	.LVL30
 8442 06b8 B0000000 		.4byte	.LVL31
 8443 06bc 0200     		.2byte	0x2
 8444 06be 31       		.byte	0x31
 8445 06bf 9F       		.byte	0x9f
 8446 06c0 00000000 		.4byte	0
 8447 06c4 00000000 		.4byte	0
 8448              	.LLST89:
 8449 06c8 AC000000 		.4byte	.LVL30
 8450 06cc B0000000 		.4byte	.LVL31
 8451 06d0 0600     		.2byte	0x6
 8452 06d2 0C       		.byte	0xc
 8453 06d3 80043240 		.4byte	0x40320480
 8454 06d7 9F       		.byte	0x9f
 8455 06d8 00000000 		.4byte	0
 8456 06dc 00000000 		.4byte	0
 8457              	.LLST90:
 8458 06e0 B0000000 		.4byte	.LVL31
 8459 06e4 B4000000 		.4byte	.LVL32
 8460 06e8 0200     		.2byte	0x2
 8461 06ea 31       		.byte	0x31
 8462 06eb 9F       		.byte	0x9f
 8463 06ec 00000000 		.4byte	0
 8464 06f0 00000000 		.4byte	0
 8465              	.LLST91:
 8466 06f4 B0000000 		.4byte	.LVL31
 8467 06f8 B4000000 		.4byte	.LVL32
 8468 06fc 0200     		.2byte	0x2
 8469 06fe 32       		.byte	0x32
 8470 06ff 9F       		.byte	0x9f
 8471 0700 00000000 		.4byte	0
 8472 0704 00000000 		.4byte	0
 8473              	.LLST92:
 8474 0708 B0000000 		.4byte	.LVL31
 8475 070c B4000000 		.4byte	.LVL32
 8476 0710 0600     		.2byte	0x6
 8477 0712 0C       		.byte	0xc
 8478 0713 80043240 		.4byte	0x40320480
 8479 0717 9F       		.byte	0x9f
 8480 0718 00000000 		.4byte	0
 8481 071c 00000000 		.4byte	0
 8482              	.LLST93:
 8483 0720 B4000000 		.4byte	.LVL32
 8484 0724 BA000000 		.4byte	.LVL33
 8485 0728 0200     		.2byte	0x2
 8486 072a 30       		.byte	0x30
 8487 072b 9F       		.byte	0x9f
 8488 072c 00000000 		.4byte	0
 8489 0730 00000000 		.4byte	0
 8490              	.LLST94:
 8491 0734 B4000000 		.4byte	.LVL32
ARM GAS  C:\Users\dmula\AppData\Local\Temp\ccXnnfAd.s 			page 191


 8492 0738 BA000000 		.4byte	.LVL33
 8493 073c 0200     		.2byte	0x2
 8494 073e 33       		.byte	0x33
 8495 073f 9F       		.byte	0x9f
 8496 0740 00000000 		.4byte	0
 8497 0744 00000000 		.4byte	0
 8498              	.LLST95:
 8499 0748 B4000000 		.4byte	.LVL32
 8500 074c BA000000 		.4byte	.LVL33
 8501 0750 0600     		.2byte	0x6
 8502 0752 0C       		.byte	0xc
 8503 0753 80043240 		.4byte	0x40320480
 8504 0757 9F       		.byte	0x9f
 8505 0758 00000000 		.4byte	0
 8506 075c 00000000 		.4byte	0
 8507              	.LLST96:
 8508 0760 BA000000 		.4byte	.LVL33
 8509 0764 C0000000 		.4byte	.LVL34
 8510 0768 0200     		.2byte	0x2
 8511 076a 30       		.byte	0x30
 8512 076b 9F       		.byte	0x9f
 8513 076c 00000000 		.4byte	0
 8514 0770 00000000 		.4byte	0
 8515              	.LLST98:
 8516 0774 BA000000 		.4byte	.LVL33
 8517 0778 C0000000 		.4byte	.LVL34
 8518 077c 0600     		.2byte	0x6
 8519 077e 0C       		.byte	0xc
 8520 077f 80043240 		.4byte	0x40320480
 8521 0783 9F       		.byte	0x9f
 8522 0784 00000000 		.4byte	0
 8523 0788 00000000 		.4byte	0
 8524              	.LLST99:
 8525 078c C0000000 		.4byte	.LVL34
 8526 0790 C4000000 		.4byte	.LVL35
 8527 0794 0200     		.2byte	0x2
 8528 0796 30       		.byte	0x30
 8529 0797 9F       		.byte	0x9f
 8530 0798 00000000 		.4byte	0
 8531 079c 00000000 		.4byte	0
 8532              	.LLST100:
 8533 07a0 C0000000 		.4byte	.LVL34
 8534 07a4 C4000000 		.4byte	.LVL35
 8535 07a8 0200     		.2byte	0x2
 8536 07aa 31       		.byte	0x31
 8537 07ab 9F       		.byte	0x9f
 8538 07ac 00000000 		.4byte	0
 8539 07b0 00000000 		.4byte	0
 8540              	.LLST101:
 8541 07b4 C0000000 		.4byte	.LVL34
 8542 07b8 C4000000 		.4byte	.LVL35
 8543 07bc 0600     		.2byte	0x6
 8544 07be 0C       		.byte	0xc
 8545 07bf 80043240 		.4byte	0x40320480
 8546 07c3 9F       		.byte	0x9f
 8547 07c4 00000000 		.4byte	0
 8548 07c8 00000000 		.4byte	0
ARM GAS  C:\Users\dmula\AppData\Local\Temp\ccXnnfAd.s 			page 192


 8549              	.LLST102:
 8550 07cc C4000000 		.4byte	.LVL35
 8551 07d0 C8000000 		.4byte	.LVL36
 8552 07d4 0200     		.2byte	0x2
 8553 07d6 30       		.byte	0x30
 8554 07d7 9F       		.byte	0x9f
 8555 07d8 00000000 		.4byte	0
 8556 07dc 00000000 		.4byte	0
 8557              	.LLST103:
 8558 07e0 C4000000 		.4byte	.LVL35
 8559 07e4 C8000000 		.4byte	.LVL36
 8560 07e8 0200     		.2byte	0x2
 8561 07ea 32       		.byte	0x32
 8562 07eb 9F       		.byte	0x9f
 8563 07ec 00000000 		.4byte	0
 8564 07f0 00000000 		.4byte	0
 8565              	.LLST104:
 8566 07f4 C4000000 		.4byte	.LVL35
 8567 07f8 C8000000 		.4byte	.LVL36
 8568 07fc 0600     		.2byte	0x6
 8569 07fe 0C       		.byte	0xc
 8570 07ff 80043240 		.4byte	0x40320480
 8571 0803 9F       		.byte	0x9f
 8572 0804 00000000 		.4byte	0
 8573 0808 00000000 		.4byte	0
 8574              	.LLST105:
 8575 080c C8000000 		.4byte	.LVL36
 8576 0810 CE000000 		.4byte	.LVL37
 8577 0814 0200     		.2byte	0x2
 8578 0816 31       		.byte	0x31
 8579 0817 9F       		.byte	0x9f
 8580 0818 00000000 		.4byte	0
 8581 081c 00000000 		.4byte	0
 8582              	.LLST106:
 8583 0820 C8000000 		.4byte	.LVL36
 8584 0824 CE000000 		.4byte	.LVL37
 8585 0828 0200     		.2byte	0x2
 8586 082a 33       		.byte	0x33
 8587 082b 9F       		.byte	0x9f
 8588 082c 00000000 		.4byte	0
 8589 0830 00000000 		.4byte	0
 8590              	.LLST107:
 8591 0834 C8000000 		.4byte	.LVL36
 8592 0838 CE000000 		.4byte	.LVL37
 8593 083c 0600     		.2byte	0x6
 8594 083e 0C       		.byte	0xc
 8595 083f 80043240 		.4byte	0x40320480
 8596 0843 9F       		.byte	0x9f
 8597 0844 00000000 		.4byte	0
 8598 0848 00000000 		.4byte	0
 8599              	.LLST108:
 8600 084c CE000000 		.4byte	.LVL37
 8601 0850 D4000000 		.4byte	.LVL38
 8602 0854 0200     		.2byte	0x2
 8603 0856 31       		.byte	0x31
 8604 0857 9F       		.byte	0x9f
 8605 0858 00000000 		.4byte	0
ARM GAS  C:\Users\dmula\AppData\Local\Temp\ccXnnfAd.s 			page 193


 8606 085c 00000000 		.4byte	0
 8607              	.LLST109:
 8608 0860 CE000000 		.4byte	.LVL37
 8609 0864 D4000000 		.4byte	.LVL38
 8610 0868 0200     		.2byte	0x2
 8611 086a 30       		.byte	0x30
 8612 086b 9F       		.byte	0x9f
 8613 086c 00000000 		.4byte	0
 8614 0870 00000000 		.4byte	0
 8615              	.LLST110:
 8616 0874 CE000000 		.4byte	.LVL37
 8617 0878 D4000000 		.4byte	.LVL38
 8618 087c 0600     		.2byte	0x6
 8619 087e 0C       		.byte	0xc
 8620 087f 80043240 		.4byte	0x40320480
 8621 0883 9F       		.byte	0x9f
 8622 0884 00000000 		.4byte	0
 8623 0888 00000000 		.4byte	0
 8624              	.LLST111:
 8625 088c D4000000 		.4byte	.LVL38
 8626 0890 D8000000 		.4byte	.LVL39
 8627 0894 0200     		.2byte	0x2
 8628 0896 30       		.byte	0x30
 8629 0897 9F       		.byte	0x9f
 8630 0898 00000000 		.4byte	0
 8631 089c 00000000 		.4byte	0
 8632              	.LLST112:
 8633 08a0 D4000000 		.4byte	.LVL38
 8634 08a4 D8000000 		.4byte	.LVL39
 8635 08a8 0200     		.2byte	0x2
 8636 08aa 31       		.byte	0x31
 8637 08ab 9F       		.byte	0x9f
 8638 08ac 00000000 		.4byte	0
 8639 08b0 00000000 		.4byte	0
 8640              	.LLST113:
 8641 08b4 D4000000 		.4byte	.LVL38
 8642 08b8 D8000000 		.4byte	.LVL39
 8643 08bc 0600     		.2byte	0x6
 8644 08be 0C       		.byte	0xc
 8645 08bf 80043240 		.4byte	0x40320480
 8646 08c3 9F       		.byte	0x9f
 8647 08c4 00000000 		.4byte	0
 8648 08c8 00000000 		.4byte	0
 8649              	.LLST114:
 8650 08cc D8000000 		.4byte	.LVL39
 8651 08d0 DC000000 		.4byte	.LVL40
 8652 08d4 0200     		.2byte	0x2
 8653 08d6 30       		.byte	0x30
 8654 08d7 9F       		.byte	0x9f
 8655 08d8 00000000 		.4byte	0
 8656 08dc 00000000 		.4byte	0
 8657              	.LLST115:
 8658 08e0 D8000000 		.4byte	.LVL39
 8659 08e4 DC000000 		.4byte	.LVL40
 8660 08e8 0200     		.2byte	0x2
 8661 08ea 32       		.byte	0x32
 8662 08eb 9F       		.byte	0x9f
ARM GAS  C:\Users\dmula\AppData\Local\Temp\ccXnnfAd.s 			page 194


 8663 08ec 00000000 		.4byte	0
 8664 08f0 00000000 		.4byte	0
 8665              	.LLST116:
 8666 08f4 D8000000 		.4byte	.LVL39
 8667 08f8 DC000000 		.4byte	.LVL40
 8668 08fc 0600     		.2byte	0x6
 8669 08fe 0C       		.byte	0xc
 8670 08ff 80043240 		.4byte	0x40320480
 8671 0903 9F       		.byte	0x9f
 8672 0904 00000000 		.4byte	0
 8673 0908 00000000 		.4byte	0
 8674              	.LLST117:
 8675 090c DC000000 		.4byte	.LVL40
 8676 0910 E2000000 		.4byte	.LVL41
 8677 0914 0200     		.2byte	0x2
 8678 0916 31       		.byte	0x31
 8679 0917 9F       		.byte	0x9f
 8680 0918 00000000 		.4byte	0
 8681 091c 00000000 		.4byte	0
 8682              	.LLST118:
 8683 0920 DC000000 		.4byte	.LVL40
 8684 0924 E2000000 		.4byte	.LVL41
 8685 0928 0200     		.2byte	0x2
 8686 092a 33       		.byte	0x33
 8687 092b 9F       		.byte	0x9f
 8688 092c 00000000 		.4byte	0
 8689 0930 00000000 		.4byte	0
 8690              	.LLST119:
 8691 0934 DC000000 		.4byte	.LVL40
 8692 0938 E2000000 		.4byte	.LVL41
 8693 093c 0600     		.2byte	0x6
 8694 093e 0C       		.byte	0xc
 8695 093f 80043240 		.4byte	0x40320480
 8696 0943 9F       		.byte	0x9f
 8697 0944 00000000 		.4byte	0
 8698 0948 00000000 		.4byte	0
 8699              	.LLST120:
 8700 094c E2000000 		.4byte	.LVL41
 8701 0950 E8000000 		.4byte	.LVL42
 8702 0954 0200     		.2byte	0x2
 8703 0956 30       		.byte	0x30
 8704 0957 9F       		.byte	0x9f
 8705 0958 00000000 		.4byte	0
 8706 095c 00000000 		.4byte	0
 8707              	.LLST122:
 8708 0960 E2000000 		.4byte	.LVL41
 8709 0964 E8000000 		.4byte	.LVL42
 8710 0968 0600     		.2byte	0x6
 8711 096a 0C       		.byte	0xc
 8712 096b 80043240 		.4byte	0x40320480
 8713 096f 9F       		.byte	0x9f
 8714 0970 00000000 		.4byte	0
 8715 0974 00000000 		.4byte	0
 8716              	.LLST123:
 8717 0978 E8000000 		.4byte	.LVL42
 8718 097c EC000000 		.4byte	.LVL43
 8719 0980 0200     		.2byte	0x2
ARM GAS  C:\Users\dmula\AppData\Local\Temp\ccXnnfAd.s 			page 195


 8720 0982 31       		.byte	0x31
 8721 0983 9F       		.byte	0x9f
 8722 0984 00000000 		.4byte	0
 8723 0988 00000000 		.4byte	0
 8724              	.LLST125:
 8725 098c E8000000 		.4byte	.LVL42
 8726 0990 EC000000 		.4byte	.LVL43
 8727 0994 0600     		.2byte	0x6
 8728 0996 0C       		.byte	0xc
 8729 0997 80043240 		.4byte	0x40320480
 8730 099b 9F       		.byte	0x9f
 8731 099c 00000000 		.4byte	0
 8732 09a0 00000000 		.4byte	0
 8733              	.LLST126:
 8734 09a4 EC000000 		.4byte	.LVL43
 8735 09a8 F0000000 		.4byte	.LVL44
 8736 09ac 0200     		.2byte	0x2
 8737 09ae 30       		.byte	0x30
 8738 09af 9F       		.byte	0x9f
 8739 09b0 00000000 		.4byte	0
 8740 09b4 00000000 		.4byte	0
 8741              	.LLST127:
 8742 09b8 EC000000 		.4byte	.LVL43
 8743 09bc F0000000 		.4byte	.LVL44
 8744 09c0 0200     		.2byte	0x2
 8745 09c2 32       		.byte	0x32
 8746 09c3 9F       		.byte	0x9f
 8747 09c4 00000000 		.4byte	0
 8748 09c8 00000000 		.4byte	0
 8749              	.LLST128:
 8750 09cc EC000000 		.4byte	.LVL43
 8751 09d0 F0000000 		.4byte	.LVL44
 8752 09d4 0600     		.2byte	0x6
 8753 09d6 0C       		.byte	0xc
 8754 09d7 80043240 		.4byte	0x40320480
 8755 09db 9F       		.byte	0x9f
 8756 09dc 00000000 		.4byte	0
 8757 09e0 00000000 		.4byte	0
 8758              	.LLST129:
 8759 09e4 F0000000 		.4byte	.LVL44
 8760 09e8 F6000000 		.4byte	.LVL45
 8761 09ec 0200     		.2byte	0x2
 8762 09ee 31       		.byte	0x31
 8763 09ef 9F       		.byte	0x9f
 8764 09f0 00000000 		.4byte	0
 8765 09f4 00000000 		.4byte	0
 8766              	.LLST130:
 8767 09f8 F0000000 		.4byte	.LVL44
 8768 09fc F6000000 		.4byte	.LVL45
 8769 0a00 0200     		.2byte	0x2
 8770 0a02 33       		.byte	0x33
 8771 0a03 9F       		.byte	0x9f
 8772 0a04 00000000 		.4byte	0
 8773 0a08 00000000 		.4byte	0
 8774              	.LLST131:
 8775 0a0c F0000000 		.4byte	.LVL44
 8776 0a10 F6000000 		.4byte	.LVL45
ARM GAS  C:\Users\dmula\AppData\Local\Temp\ccXnnfAd.s 			page 196


 8777 0a14 0600     		.2byte	0x6
 8778 0a16 0C       		.byte	0xc
 8779 0a17 80043240 		.4byte	0x40320480
 8780 0a1b 9F       		.byte	0x9f
 8781 0a1c 00000000 		.4byte	0
 8782 0a20 00000000 		.4byte	0
 8783              	.LLST132:
 8784 0a24 F6000000 		.4byte	.LVL45
 8785 0a28 FC000000 		.4byte	.LVL46
 8786 0a2c 0200     		.2byte	0x2
 8787 0a2e 31       		.byte	0x31
 8788 0a2f 9F       		.byte	0x9f
 8789 0a30 00000000 		.4byte	0
 8790 0a34 00000000 		.4byte	0
 8791              	.LLST133:
 8792 0a38 F6000000 		.4byte	.LVL45
 8793 0a3c FC000000 		.4byte	.LVL46
 8794 0a40 0200     		.2byte	0x2
 8795 0a42 30       		.byte	0x30
 8796 0a43 9F       		.byte	0x9f
 8797 0a44 00000000 		.4byte	0
 8798 0a48 00000000 		.4byte	0
 8799              	.LLST134:
 8800 0a4c F6000000 		.4byte	.LVL45
 8801 0a50 FC000000 		.4byte	.LVL46
 8802 0a54 0600     		.2byte	0x6
 8803 0a56 0C       		.byte	0xc
 8804 0a57 80043240 		.4byte	0x40320480
 8805 0a5b 9F       		.byte	0x9f
 8806 0a5c 00000000 		.4byte	0
 8807 0a60 00000000 		.4byte	0
 8808              	.LLST135:
 8809 0a64 FC000000 		.4byte	.LVL46
 8810 0a68 00010000 		.4byte	.LVL47
 8811 0a6c 0200     		.2byte	0x2
 8812 0a6e 31       		.byte	0x31
 8813 0a6f 9F       		.byte	0x9f
 8814 0a70 00000000 		.4byte	0
 8815 0a74 00000000 		.4byte	0
 8816              	.LLST137:
 8817 0a78 FC000000 		.4byte	.LVL46
 8818 0a7c 00010000 		.4byte	.LVL47
 8819 0a80 0600     		.2byte	0x6
 8820 0a82 0C       		.byte	0xc
 8821 0a83 80043240 		.4byte	0x40320480
 8822 0a87 9F       		.byte	0x9f
 8823 0a88 00000000 		.4byte	0
 8824 0a8c 00000000 		.4byte	0
 8825              	.LLST138:
 8826 0a90 00010000 		.4byte	.LVL47
 8827 0a94 04010000 		.4byte	.LVL48
 8828 0a98 0200     		.2byte	0x2
 8829 0a9a 30       		.byte	0x30
 8830 0a9b 9F       		.byte	0x9f
 8831 0a9c 00000000 		.4byte	0
 8832 0aa0 00000000 		.4byte	0
 8833              	.LLST139:
ARM GAS  C:\Users\dmula\AppData\Local\Temp\ccXnnfAd.s 			page 197


 8834 0aa4 00010000 		.4byte	.LVL47
 8835 0aa8 04010000 		.4byte	.LVL48
 8836 0aac 0200     		.2byte	0x2
 8837 0aae 32       		.byte	0x32
 8838 0aaf 9F       		.byte	0x9f
 8839 0ab0 00000000 		.4byte	0
 8840 0ab4 00000000 		.4byte	0
 8841              	.LLST140:
 8842 0ab8 00010000 		.4byte	.LVL47
 8843 0abc 04010000 		.4byte	.LVL48
 8844 0ac0 0600     		.2byte	0x6
 8845 0ac2 0C       		.byte	0xc
 8846 0ac3 80043240 		.4byte	0x40320480
 8847 0ac7 9F       		.byte	0x9f
 8848 0ac8 00000000 		.4byte	0
 8849 0acc 00000000 		.4byte	0
 8850              	.LLST141:
 8851 0ad0 04010000 		.4byte	.LVL48
 8852 0ad4 0A010000 		.4byte	.LVL49
 8853 0ad8 0200     		.2byte	0x2
 8854 0ada 31       		.byte	0x31
 8855 0adb 9F       		.byte	0x9f
 8856 0adc 00000000 		.4byte	0
 8857 0ae0 00000000 		.4byte	0
 8858              	.LLST142:
 8859 0ae4 04010000 		.4byte	.LVL48
 8860 0ae8 0A010000 		.4byte	.LVL49
 8861 0aec 0200     		.2byte	0x2
 8862 0aee 33       		.byte	0x33
 8863 0aef 9F       		.byte	0x9f
 8864 0af0 00000000 		.4byte	0
 8865 0af4 00000000 		.4byte	0
 8866              	.LLST143:
 8867 0af8 04010000 		.4byte	.LVL48
 8868 0afc 0A010000 		.4byte	.LVL49
 8869 0b00 0600     		.2byte	0x6
 8870 0b02 0C       		.byte	0xc
 8871 0b03 80043240 		.4byte	0x40320480
 8872 0b07 9F       		.byte	0x9f
 8873 0b08 00000000 		.4byte	0
 8874 0b0c 00000000 		.4byte	0
 8875              	.LLST144:
 8876 0b10 0A010000 		.4byte	.LVL49
 8877 0b14 10010000 		.4byte	.LVL50
 8878 0b18 0200     		.2byte	0x2
 8879 0b1a 30       		.byte	0x30
 8880 0b1b 9F       		.byte	0x9f
 8881 0b1c 00000000 		.4byte	0
 8882 0b20 00000000 		.4byte	0
 8883              	.LLST146:
 8884 0b24 0A010000 		.4byte	.LVL49
 8885 0b28 10010000 		.4byte	.LVL50
 8886 0b2c 0600     		.2byte	0x6
 8887 0b2e 0C       		.byte	0xc
 8888 0b2f 80043240 		.4byte	0x40320480
 8889 0b33 9F       		.byte	0x9f
 8890 0b34 00000000 		.4byte	0
ARM GAS  C:\Users\dmula\AppData\Local\Temp\ccXnnfAd.s 			page 198


 8891 0b38 00000000 		.4byte	0
 8892              	.LLST147:
 8893 0b3c 10010000 		.4byte	.LVL50
 8894 0b40 14010000 		.4byte	.LVL51
 8895 0b44 0200     		.2byte	0x2
 8896 0b46 30       		.byte	0x30
 8897 0b47 9F       		.byte	0x9f
 8898 0b48 00000000 		.4byte	0
 8899 0b4c 00000000 		.4byte	0
 8900              	.LLST148:
 8901 0b50 10010000 		.4byte	.LVL50
 8902 0b54 14010000 		.4byte	.LVL51
 8903 0b58 0200     		.2byte	0x2
 8904 0b5a 31       		.byte	0x31
 8905 0b5b 9F       		.byte	0x9f
 8906 0b5c 00000000 		.4byte	0
 8907 0b60 00000000 		.4byte	0
 8908              	.LLST149:
 8909 0b64 10010000 		.4byte	.LVL50
 8910 0b68 14010000 		.4byte	.LVL51
 8911 0b6c 0600     		.2byte	0x6
 8912 0b6e 0C       		.byte	0xc
 8913 0b6f 80043240 		.4byte	0x40320480
 8914 0b73 9F       		.byte	0x9f
 8915 0b74 00000000 		.4byte	0
 8916 0b78 00000000 		.4byte	0
 8917              	.LLST150:
 8918 0b7c 14010000 		.4byte	.LVL51
 8919 0b80 18010000 		.4byte	.LVL52
 8920 0b84 0200     		.2byte	0x2
 8921 0b86 31       		.byte	0x31
 8922 0b87 9F       		.byte	0x9f
 8923 0b88 00000000 		.4byte	0
 8924 0b8c 00000000 		.4byte	0
 8925              	.LLST151:
 8926 0b90 14010000 		.4byte	.LVL51
 8927 0b94 18010000 		.4byte	.LVL52
 8928 0b98 0200     		.2byte	0x2
 8929 0b9a 32       		.byte	0x32
 8930 0b9b 9F       		.byte	0x9f
 8931 0b9c 00000000 		.4byte	0
 8932 0ba0 00000000 		.4byte	0
 8933              	.LLST152:
 8934 0ba4 14010000 		.4byte	.LVL51
 8935 0ba8 18010000 		.4byte	.LVL52
 8936 0bac 0600     		.2byte	0x6
 8937 0bae 0C       		.byte	0xc
 8938 0baf 80043240 		.4byte	0x40320480
 8939 0bb3 9F       		.byte	0x9f
 8940 0bb4 00000000 		.4byte	0
 8941 0bb8 00000000 		.4byte	0
 8942              	.LLST153:
 8943 0bbc 18010000 		.4byte	.LVL52
 8944 0bc0 1E010000 		.4byte	.LVL53
 8945 0bc4 0200     		.2byte	0x2
 8946 0bc6 31       		.byte	0x31
 8947 0bc7 9F       		.byte	0x9f
ARM GAS  C:\Users\dmula\AppData\Local\Temp\ccXnnfAd.s 			page 199


 8948 0bc8 00000000 		.4byte	0
 8949 0bcc 00000000 		.4byte	0
 8950              	.LLST154:
 8951 0bd0 18010000 		.4byte	.LVL52
 8952 0bd4 1E010000 		.4byte	.LVL53
 8953 0bd8 0200     		.2byte	0x2
 8954 0bda 33       		.byte	0x33
 8955 0bdb 9F       		.byte	0x9f
 8956 0bdc 00000000 		.4byte	0
 8957 0be0 00000000 		.4byte	0
 8958              	.LLST155:
 8959 0be4 18010000 		.4byte	.LVL52
 8960 0be8 1E010000 		.4byte	.LVL53
 8961 0bec 0600     		.2byte	0x6
 8962 0bee 0C       		.byte	0xc
 8963 0bef 80043240 		.4byte	0x40320480
 8964 0bf3 9F       		.byte	0x9f
 8965 0bf4 00000000 		.4byte	0
 8966 0bf8 00000000 		.4byte	0
 8967              	.LLST156:
 8968 0bfc 1E010000 		.4byte	.LVL53
 8969 0c00 24010000 		.4byte	.LVL54
 8970 0c04 0200     		.2byte	0x2
 8971 0c06 31       		.byte	0x31
 8972 0c07 9F       		.byte	0x9f
 8973 0c08 00000000 		.4byte	0
 8974 0c0c 00000000 		.4byte	0
 8975              	.LLST157:
 8976 0c10 1E010000 		.4byte	.LVL53
 8977 0c14 24010000 		.4byte	.LVL54
 8978 0c18 0200     		.2byte	0x2
 8979 0c1a 30       		.byte	0x30
 8980 0c1b 9F       		.byte	0x9f
 8981 0c1c 00000000 		.4byte	0
 8982 0c20 00000000 		.4byte	0
 8983              	.LLST158:
 8984 0c24 1E010000 		.4byte	.LVL53
 8985 0c28 24010000 		.4byte	.LVL54
 8986 0c2c 0600     		.2byte	0x6
 8987 0c2e 0C       		.byte	0xc
 8988 0c2f 80043240 		.4byte	0x40320480
 8989 0c33 9F       		.byte	0x9f
 8990 0c34 00000000 		.4byte	0
 8991 0c38 00000000 		.4byte	0
 8992              	.LLST159:
 8993 0c3c 24010000 		.4byte	.LVL54
 8994 0c40 28010000 		.4byte	.LVL55
 8995 0c44 0200     		.2byte	0x2
 8996 0c46 30       		.byte	0x30
 8997 0c47 9F       		.byte	0x9f
 8998 0c48 00000000 		.4byte	0
 8999 0c4c 00000000 		.4byte	0
 9000              	.LLST160:
 9001 0c50 24010000 		.4byte	.LVL54
 9002 0c54 28010000 		.4byte	.LVL55
 9003 0c58 0200     		.2byte	0x2
 9004 0c5a 31       		.byte	0x31
ARM GAS  C:\Users\dmula\AppData\Local\Temp\ccXnnfAd.s 			page 200


 9005 0c5b 9F       		.byte	0x9f
 9006 0c5c 00000000 		.4byte	0
 9007 0c60 00000000 		.4byte	0
 9008              	.LLST161:
 9009 0c64 24010000 		.4byte	.LVL54
 9010 0c68 28010000 		.4byte	.LVL55
 9011 0c6c 0600     		.2byte	0x6
 9012 0c6e 0C       		.byte	0xc
 9013 0c6f 80043240 		.4byte	0x40320480
 9014 0c73 9F       		.byte	0x9f
 9015 0c74 00000000 		.4byte	0
 9016 0c78 00000000 		.4byte	0
 9017              	.LLST162:
 9018 0c7c 28010000 		.4byte	.LVL55
 9019 0c80 2C010000 		.4byte	.LVL56
 9020 0c84 0200     		.2byte	0x2
 9021 0c86 31       		.byte	0x31
 9022 0c87 9F       		.byte	0x9f
 9023 0c88 00000000 		.4byte	0
 9024 0c8c 00000000 		.4byte	0
 9025              	.LLST163:
 9026 0c90 28010000 		.4byte	.LVL55
 9027 0c94 2C010000 		.4byte	.LVL56
 9028 0c98 0200     		.2byte	0x2
 9029 0c9a 32       		.byte	0x32
 9030 0c9b 9F       		.byte	0x9f
 9031 0c9c 00000000 		.4byte	0
 9032 0ca0 00000000 		.4byte	0
 9033              	.LLST164:
 9034 0ca4 28010000 		.4byte	.LVL55
 9035 0ca8 2C010000 		.4byte	.LVL56
 9036 0cac 0600     		.2byte	0x6
 9037 0cae 0C       		.byte	0xc
 9038 0caf 80043240 		.4byte	0x40320480
 9039 0cb3 9F       		.byte	0x9f
 9040 0cb4 00000000 		.4byte	0
 9041 0cb8 00000000 		.4byte	0
 9042              	.LLST165:
 9043 0cbc 2C010000 		.4byte	.LVL56
 9044 0cc0 32010000 		.4byte	.LVL57
 9045 0cc4 0200     		.2byte	0x2
 9046 0cc6 31       		.byte	0x31
 9047 0cc7 9F       		.byte	0x9f
 9048 0cc8 00000000 		.4byte	0
 9049 0ccc 00000000 		.4byte	0
 9050              	.LLST166:
 9051 0cd0 2C010000 		.4byte	.LVL56
 9052 0cd4 32010000 		.4byte	.LVL57
 9053 0cd8 0200     		.2byte	0x2
 9054 0cda 33       		.byte	0x33
 9055 0cdb 9F       		.byte	0x9f
 9056 0cdc 00000000 		.4byte	0
 9057 0ce0 00000000 		.4byte	0
 9058              	.LLST167:
 9059 0ce4 2C010000 		.4byte	.LVL56
 9060 0ce8 32010000 		.4byte	.LVL57
 9061 0cec 0600     		.2byte	0x6
ARM GAS  C:\Users\dmula\AppData\Local\Temp\ccXnnfAd.s 			page 201


 9062 0cee 0C       		.byte	0xc
 9063 0cef 80043240 		.4byte	0x40320480
 9064 0cf3 9F       		.byte	0x9f
 9065 0cf4 00000000 		.4byte	0
 9066 0cf8 00000000 		.4byte	0
 9067              	.LLST168:
 9068 0cfc 32010000 		.4byte	.LVL57
 9069 0d00 38010000 		.4byte	.LVL58
 9070 0d04 0200     		.2byte	0x2
 9071 0d06 30       		.byte	0x30
 9072 0d07 9F       		.byte	0x9f
 9073 0d08 00000000 		.4byte	0
 9074 0d0c 00000000 		.4byte	0
 9075              	.LLST170:
 9076 0d10 32010000 		.4byte	.LVL57
 9077 0d14 38010000 		.4byte	.LVL58
 9078 0d18 0600     		.2byte	0x6
 9079 0d1a 0C       		.byte	0xc
 9080 0d1b 80043240 		.4byte	0x40320480
 9081 0d1f 9F       		.byte	0x9f
 9082 0d20 00000000 		.4byte	0
 9083 0d24 00000000 		.4byte	0
 9084              	.LLST171:
 9085 0d28 38010000 		.4byte	.LVL58
 9086 0d2c 3C010000 		.4byte	.LVL59
 9087 0d30 0200     		.2byte	0x2
 9088 0d32 31       		.byte	0x31
 9089 0d33 9F       		.byte	0x9f
 9090 0d34 00000000 		.4byte	0
 9091 0d38 00000000 		.4byte	0
 9092              	.LLST173:
 9093 0d3c 38010000 		.4byte	.LVL58
 9094 0d40 3C010000 		.4byte	.LVL59
 9095 0d44 0600     		.2byte	0x6
 9096 0d46 0C       		.byte	0xc
 9097 0d47 80043240 		.4byte	0x40320480
 9098 0d4b 9F       		.byte	0x9f
 9099 0d4c 00000000 		.4byte	0
 9100 0d50 00000000 		.4byte	0
 9101              	.LLST174:
 9102 0d54 3C010000 		.4byte	.LVL59
 9103 0d58 40010000 		.4byte	.LVL60
 9104 0d5c 0200     		.2byte	0x2
 9105 0d5e 31       		.byte	0x31
 9106 0d5f 9F       		.byte	0x9f
 9107 0d60 00000000 		.4byte	0
 9108 0d64 00000000 		.4byte	0
 9109              	.LLST175:
 9110 0d68 3C010000 		.4byte	.LVL59
 9111 0d6c 40010000 		.4byte	.LVL60
 9112 0d70 0200     		.2byte	0x2
 9113 0d72 32       		.byte	0x32
 9114 0d73 9F       		.byte	0x9f
 9115 0d74 00000000 		.4byte	0
 9116 0d78 00000000 		.4byte	0
 9117              	.LLST176:
 9118 0d7c 3C010000 		.4byte	.LVL59
ARM GAS  C:\Users\dmula\AppData\Local\Temp\ccXnnfAd.s 			page 202


 9119 0d80 40010000 		.4byte	.LVL60
 9120 0d84 0600     		.2byte	0x6
 9121 0d86 0C       		.byte	0xc
 9122 0d87 80043240 		.4byte	0x40320480
 9123 0d8b 9F       		.byte	0x9f
 9124 0d8c 00000000 		.4byte	0
 9125 0d90 00000000 		.4byte	0
 9126              	.LLST177:
 9127 0d94 40010000 		.4byte	.LVL60
 9128 0d98 46010000 		.4byte	.LVL61
 9129 0d9c 0200     		.2byte	0x2
 9130 0d9e 31       		.byte	0x31
 9131 0d9f 9F       		.byte	0x9f
 9132 0da0 00000000 		.4byte	0
 9133 0da4 00000000 		.4byte	0
 9134              	.LLST178:
 9135 0da8 40010000 		.4byte	.LVL60
 9136 0dac 46010000 		.4byte	.LVL61
 9137 0db0 0200     		.2byte	0x2
 9138 0db2 33       		.byte	0x33
 9139 0db3 9F       		.byte	0x9f
 9140 0db4 00000000 		.4byte	0
 9141 0db8 00000000 		.4byte	0
 9142              	.LLST179:
 9143 0dbc 40010000 		.4byte	.LVL60
 9144 0dc0 46010000 		.4byte	.LVL61
 9145 0dc4 0600     		.2byte	0x6
 9146 0dc6 0C       		.byte	0xc
 9147 0dc7 80043240 		.4byte	0x40320480
 9148 0dcb 9F       		.byte	0x9f
 9149 0dcc 00000000 		.4byte	0
 9150 0dd0 00000000 		.4byte	0
 9151              	.LLST180:
 9152 0dd4 46010000 		.4byte	.LVL61
 9153 0dd8 4C010000 		.4byte	.LVL62
 9154 0ddc 0200     		.2byte	0x2
 9155 0dde 31       		.byte	0x31
 9156 0ddf 9F       		.byte	0x9f
 9157 0de0 00000000 		.4byte	0
 9158 0de4 00000000 		.4byte	0
 9159              	.LLST181:
 9160 0de8 46010000 		.4byte	.LVL61
 9161 0dec 4C010000 		.4byte	.LVL62
 9162 0df0 0200     		.2byte	0x2
 9163 0df2 30       		.byte	0x30
 9164 0df3 9F       		.byte	0x9f
 9165 0df4 00000000 		.4byte	0
 9166 0df8 00000000 		.4byte	0
 9167              	.LLST182:
 9168 0dfc 46010000 		.4byte	.LVL61
 9169 0e00 4C010000 		.4byte	.LVL62
 9170 0e04 0600     		.2byte	0x6
 9171 0e06 0C       		.byte	0xc
 9172 0e07 80043240 		.4byte	0x40320480
 9173 0e0b 9F       		.byte	0x9f
 9174 0e0c 00000000 		.4byte	0
 9175 0e10 00000000 		.4byte	0
ARM GAS  C:\Users\dmula\AppData\Local\Temp\ccXnnfAd.s 			page 203


 9176              	.LLST183:
 9177 0e14 4C010000 		.4byte	.LVL62
 9178 0e18 50010000 		.4byte	.LVL63
 9179 0e1c 0200     		.2byte	0x2
 9180 0e1e 31       		.byte	0x31
 9181 0e1f 9F       		.byte	0x9f
 9182 0e20 00000000 		.4byte	0
 9183 0e24 00000000 		.4byte	0
 9184              	.LLST185:
 9185 0e28 4C010000 		.4byte	.LVL62
 9186 0e2c 50010000 		.4byte	.LVL63
 9187 0e30 0600     		.2byte	0x6
 9188 0e32 0C       		.byte	0xc
 9189 0e33 80043240 		.4byte	0x40320480
 9190 0e37 9F       		.byte	0x9f
 9191 0e38 00000000 		.4byte	0
 9192 0e3c 00000000 		.4byte	0
 9193              	.LLST186:
 9194 0e40 50010000 		.4byte	.LVL63
 9195 0e44 54010000 		.4byte	.LVL64
 9196 0e48 0200     		.2byte	0x2
 9197 0e4a 31       		.byte	0x31
 9198 0e4b 9F       		.byte	0x9f
 9199 0e4c 00000000 		.4byte	0
 9200 0e50 00000000 		.4byte	0
 9201              	.LLST187:
 9202 0e54 50010000 		.4byte	.LVL63
 9203 0e58 54010000 		.4byte	.LVL64
 9204 0e5c 0200     		.2byte	0x2
 9205 0e5e 32       		.byte	0x32
 9206 0e5f 9F       		.byte	0x9f
 9207 0e60 00000000 		.4byte	0
 9208 0e64 00000000 		.4byte	0
 9209              	.LLST188:
 9210 0e68 50010000 		.4byte	.LVL63
 9211 0e6c 54010000 		.4byte	.LVL64
 9212 0e70 0600     		.2byte	0x6
 9213 0e72 0C       		.byte	0xc
 9214 0e73 80043240 		.4byte	0x40320480
 9215 0e77 9F       		.byte	0x9f
 9216 0e78 00000000 		.4byte	0
 9217 0e7c 00000000 		.4byte	0
 9218              	.LLST189:
 9219 0e80 54010000 		.4byte	.LVL64
 9220 0e84 58010000 		.4byte	.LVL65
 9221 0e88 0200     		.2byte	0x2
 9222 0e8a 31       		.byte	0x31
 9223 0e8b 9F       		.byte	0x9f
 9224 0e8c 00000000 		.4byte	0
 9225 0e90 00000000 		.4byte	0
 9226              	.LLST190:
 9227 0e94 54010000 		.4byte	.LVL64
 9228 0e98 58010000 		.4byte	.LVL65
 9229 0e9c 0200     		.2byte	0x2
 9230 0e9e 33       		.byte	0x33
 9231 0e9f 9F       		.byte	0x9f
 9232 0ea0 00000000 		.4byte	0
ARM GAS  C:\Users\dmula\AppData\Local\Temp\ccXnnfAd.s 			page 204


 9233 0ea4 00000000 		.4byte	0
 9234              	.LLST191:
 9235 0ea8 54010000 		.4byte	.LVL64
 9236 0eac 58010000 		.4byte	.LVL65
 9237 0eb0 0600     		.2byte	0x6
 9238 0eb2 0C       		.byte	0xc
 9239 0eb3 80043240 		.4byte	0x40320480
 9240 0eb7 9F       		.byte	0x9f
 9241 0eb8 00000000 		.4byte	0
 9242 0ebc 00000000 		.4byte	0
 9243              	.LLST192:
 9244 0ec0 2A000000 		.4byte	.LVL67
 9245 0ec4 30000000 		.4byte	.LVL68
 9246 0ec8 0200     		.2byte	0x2
 9247 0eca 30       		.byte	0x30
 9248 0ecb 9F       		.byte	0x9f
 9249 0ecc 00000000 		.4byte	0
 9250 0ed0 00000000 		.4byte	0
 9251              	.LLST193:
 9252 0ed4 2A000000 		.4byte	.LVL67
 9253 0ed8 30000000 		.4byte	.LVL68
 9254 0edc 0200     		.2byte	0x2
 9255 0ede 35       		.byte	0x35
 9256 0edf 9F       		.byte	0x9f
 9257 0ee0 00000000 		.4byte	0
 9258 0ee4 00000000 		.4byte	0
 9259              	.LLST194:
 9260 0ee8 2A000000 		.4byte	.LVL67
 9261 0eec 30000000 		.4byte	.LVL68
 9262 0ef0 0600     		.2byte	0x6
 9263 0ef2 0C       		.byte	0xc
 9264 0ef3 80043240 		.4byte	0x40320480
 9265 0ef7 9F       		.byte	0x9f
 9266 0ef8 00000000 		.4byte	0
 9267 0efc 00000000 		.4byte	0
 9268              	.LLST195:
 9269 0f00 30000000 		.4byte	.LVL68
 9270 0f04 34000000 		.4byte	.LVL69
 9271 0f08 0200     		.2byte	0x2
 9272 0f0a 30       		.byte	0x30
 9273 0f0b 9F       		.byte	0x9f
 9274 0f0c 00000000 		.4byte	0
 9275 0f10 00000000 		.4byte	0
 9276              	.LLST196:
 9277 0f14 30000000 		.4byte	.LVL68
 9278 0f18 34000000 		.4byte	.LVL69
 9279 0f1c 0200     		.2byte	0x2
 9280 0f1e 36       		.byte	0x36
 9281 0f1f 9F       		.byte	0x9f
 9282 0f20 00000000 		.4byte	0
 9283 0f24 00000000 		.4byte	0
 9284              	.LLST197:
 9285 0f28 30000000 		.4byte	.LVL68
 9286 0f2c 34000000 		.4byte	.LVL69
 9287 0f30 0600     		.2byte	0x6
 9288 0f32 0C       		.byte	0xc
 9289 0f33 80043240 		.4byte	0x40320480
ARM GAS  C:\Users\dmula\AppData\Local\Temp\ccXnnfAd.s 			page 205


 9290 0f37 9F       		.byte	0x9f
 9291 0f38 00000000 		.4byte	0
 9292 0f3c 00000000 		.4byte	0
 9293              	.LLST198:
 9294 0f40 34000000 		.4byte	.LVL69
 9295 0f44 3C000000 		.4byte	.LVL70
 9296 0f48 0200     		.2byte	0x2
 9297 0f4a 30       		.byte	0x30
 9298 0f4b 9F       		.byte	0x9f
 9299 0f4c 00000000 		.4byte	0
 9300 0f50 00000000 		.4byte	0
 9301              	.LLST199:
 9302 0f54 34000000 		.4byte	.LVL69
 9303 0f58 3C000000 		.4byte	.LVL70
 9304 0f5c 0200     		.2byte	0x2
 9305 0f5e 32       		.byte	0x32
 9306 0f5f 9F       		.byte	0x9f
 9307 0f60 00000000 		.4byte	0
 9308 0f64 00000000 		.4byte	0
 9309              	.LLST200:
 9310 0f68 34000000 		.4byte	.LVL69
 9311 0f6c 3C000000 		.4byte	.LVL70
 9312 0f70 0600     		.2byte	0x6
 9313 0f72 0C       		.byte	0xc
 9314 0f73 00033240 		.4byte	0x40320300
 9315 0f77 9F       		.byte	0x9f
 9316 0f78 00000000 		.4byte	0
 9317 0f7c 00000000 		.4byte	0
 9318              	.LLST201:
 9319 0f80 3C000000 		.4byte	.LVL70
 9320 0f84 42000000 		.4byte	.LVL71
 9321 0f88 0200     		.2byte	0x2
 9322 0f8a 30       		.byte	0x30
 9323 0f8b 9F       		.byte	0x9f
 9324 0f8c 00000000 		.4byte	0
 9325 0f90 00000000 		.4byte	0
 9326              	.LLST202:
 9327 0f94 3C000000 		.4byte	.LVL70
 9328 0f98 42000000 		.4byte	.LVL71
 9329 0f9c 0200     		.2byte	0x2
 9330 0f9e 33       		.byte	0x33
 9331 0f9f 9F       		.byte	0x9f
 9332 0fa0 00000000 		.4byte	0
 9333 0fa4 00000000 		.4byte	0
 9334              	.LLST203:
 9335 0fa8 3C000000 		.4byte	.LVL70
 9336 0fac 42000000 		.4byte	.LVL71
 9337 0fb0 0600     		.2byte	0x6
 9338 0fb2 0C       		.byte	0xc
 9339 0fb3 00033240 		.4byte	0x40320300
 9340 0fb7 9F       		.byte	0x9f
 9341 0fb8 00000000 		.4byte	0
 9342 0fbc 00000000 		.4byte	0
 9343              	.LLST204:
 9344 0fc0 42000000 		.4byte	.LVL71
 9345 0fc4 48000000 		.4byte	.LVL72
 9346 0fc8 0200     		.2byte	0x2
ARM GAS  C:\Users\dmula\AppData\Local\Temp\ccXnnfAd.s 			page 206


 9347 0fca 31       		.byte	0x31
 9348 0fcb 9F       		.byte	0x9f
 9349 0fcc 00000000 		.4byte	0
 9350 0fd0 00000000 		.4byte	0
 9351              	.LLST205:
 9352 0fd4 42000000 		.4byte	.LVL71
 9353 0fd8 48000000 		.4byte	.LVL72
 9354 0fdc 0200     		.2byte	0x2
 9355 0fde 35       		.byte	0x35
 9356 0fdf 9F       		.byte	0x9f
 9357 0fe0 00000000 		.4byte	0
 9358 0fe4 00000000 		.4byte	0
 9359              	.LLST206:
 9360 0fe8 42000000 		.4byte	.LVL71
 9361 0fec 48000000 		.4byte	.LVL72
 9362 0ff0 0600     		.2byte	0x6
 9363 0ff2 0C       		.byte	0xc
 9364 0ff3 80043240 		.4byte	0x40320480
 9365 0ff7 9F       		.byte	0x9f
 9366 0ff8 00000000 		.4byte	0
 9367 0ffc 00000000 		.4byte	0
 9368              	.LLST207:
 9369 1000 48000000 		.4byte	.LVL72
 9370 1004 4C000000 		.4byte	.LVL73
 9371 1008 0200     		.2byte	0x2
 9372 100a 30       		.byte	0x30
 9373 100b 9F       		.byte	0x9f
 9374 100c 00000000 		.4byte	0
 9375 1010 00000000 		.4byte	0
 9376              	.LLST208:
 9377 1014 48000000 		.4byte	.LVL72
 9378 1018 4C000000 		.4byte	.LVL73
 9379 101c 0200     		.2byte	0x2
 9380 101e 36       		.byte	0x36
 9381 101f 9F       		.byte	0x9f
 9382 1020 00000000 		.4byte	0
 9383 1024 00000000 		.4byte	0
 9384              	.LLST209:
 9385 1028 48000000 		.4byte	.LVL72
 9386 102c 4C000000 		.4byte	.LVL73
 9387 1030 0600     		.2byte	0x6
 9388 1032 0C       		.byte	0xc
 9389 1033 80043240 		.4byte	0x40320480
 9390 1037 9F       		.byte	0x9f
 9391 1038 00000000 		.4byte	0
 9392 103c 00000000 		.4byte	0
 9393              	.LLST210:
 9394 1040 4C000000 		.4byte	.LVL73
 9395 1044 54000000 		.4byte	.LVL74
 9396 1048 0200     		.2byte	0x2
 9397 104a 30       		.byte	0x30
 9398 104b 9F       		.byte	0x9f
 9399 104c 00000000 		.4byte	0
 9400 1050 00000000 		.4byte	0
 9401              	.LLST211:
 9402 1054 4C000000 		.4byte	.LVL73
 9403 1058 54000000 		.4byte	.LVL74
ARM GAS  C:\Users\dmula\AppData\Local\Temp\ccXnnfAd.s 			page 207


 9404 105c 0200     		.2byte	0x2
 9405 105e 32       		.byte	0x32
 9406 105f 9F       		.byte	0x9f
 9407 1060 00000000 		.4byte	0
 9408 1064 00000000 		.4byte	0
 9409              	.LLST212:
 9410 1068 4C000000 		.4byte	.LVL73
 9411 106c 54000000 		.4byte	.LVL74
 9412 1070 0600     		.2byte	0x6
 9413 1072 0C       		.byte	0xc
 9414 1073 00033240 		.4byte	0x40320300
 9415 1077 9F       		.byte	0x9f
 9416 1078 00000000 		.4byte	0
 9417 107c 00000000 		.4byte	0
 9418              	.LLST213:
 9419 1080 54000000 		.4byte	.LVL74
 9420 1084 5A000000 		.4byte	.LVL75
 9421 1088 0200     		.2byte	0x2
 9422 108a 30       		.byte	0x30
 9423 108b 9F       		.byte	0x9f
 9424 108c 00000000 		.4byte	0
 9425 1090 00000000 		.4byte	0
 9426              	.LLST214:
 9427 1094 54000000 		.4byte	.LVL74
 9428 1098 5A000000 		.4byte	.LVL75
 9429 109c 0200     		.2byte	0x2
 9430 109e 33       		.byte	0x33
 9431 109f 9F       		.byte	0x9f
 9432 10a0 00000000 		.4byte	0
 9433 10a4 00000000 		.4byte	0
 9434              	.LLST215:
 9435 10a8 54000000 		.4byte	.LVL74
 9436 10ac 5A000000 		.4byte	.LVL75
 9437 10b0 0600     		.2byte	0x6
 9438 10b2 0C       		.byte	0xc
 9439 10b3 00033240 		.4byte	0x40320300
 9440 10b7 9F       		.byte	0x9f
 9441 10b8 00000000 		.4byte	0
 9442 10bc 00000000 		.4byte	0
 9443              	.LLST216:
 9444 10c0 5A000000 		.4byte	.LVL75
 9445 10c4 60000000 		.4byte	.LVL76
 9446 10c8 0200     		.2byte	0x2
 9447 10ca 30       		.byte	0x30
 9448 10cb 9F       		.byte	0x9f
 9449 10cc 00000000 		.4byte	0
 9450 10d0 00000000 		.4byte	0
 9451              	.LLST217:
 9452 10d4 5A000000 		.4byte	.LVL75
 9453 10d8 60000000 		.4byte	.LVL76
 9454 10dc 0200     		.2byte	0x2
 9455 10de 35       		.byte	0x35
 9456 10df 9F       		.byte	0x9f
 9457 10e0 00000000 		.4byte	0
 9458 10e4 00000000 		.4byte	0
 9459              	.LLST218:
 9460 10e8 5A000000 		.4byte	.LVL75
ARM GAS  C:\Users\dmula\AppData\Local\Temp\ccXnnfAd.s 			page 208


 9461 10ec 60000000 		.4byte	.LVL76
 9462 10f0 0600     		.2byte	0x6
 9463 10f2 0C       		.byte	0xc
 9464 10f3 80043240 		.4byte	0x40320480
 9465 10f7 9F       		.byte	0x9f
 9466 10f8 00000000 		.4byte	0
 9467 10fc 00000000 		.4byte	0
 9468              	.LLST219:
 9469 1100 60000000 		.4byte	.LVL76
 9470 1104 64000000 		.4byte	.LVL77
 9471 1108 0200     		.2byte	0x2
 9472 110a 31       		.byte	0x31
 9473 110b 9F       		.byte	0x9f
 9474 110c 00000000 		.4byte	0
 9475 1110 00000000 		.4byte	0
 9476              	.LLST220:
 9477 1114 60000000 		.4byte	.LVL76
 9478 1118 64000000 		.4byte	.LVL77
 9479 111c 0200     		.2byte	0x2
 9480 111e 36       		.byte	0x36
 9481 111f 9F       		.byte	0x9f
 9482 1120 00000000 		.4byte	0
 9483 1124 00000000 		.4byte	0
 9484              	.LLST221:
 9485 1128 60000000 		.4byte	.LVL76
 9486 112c 64000000 		.4byte	.LVL77
 9487 1130 0600     		.2byte	0x6
 9488 1132 0C       		.byte	0xc
 9489 1133 80043240 		.4byte	0x40320480
 9490 1137 9F       		.byte	0x9f
 9491 1138 00000000 		.4byte	0
 9492 113c 00000000 		.4byte	0
 9493              	.LLST222:
 9494 1140 64000000 		.4byte	.LVL77
 9495 1144 6C000000 		.4byte	.LVL78
 9496 1148 0200     		.2byte	0x2
 9497 114a 30       		.byte	0x30
 9498 114b 9F       		.byte	0x9f
 9499 114c 00000000 		.4byte	0
 9500 1150 00000000 		.4byte	0
 9501              	.LLST223:
 9502 1154 64000000 		.4byte	.LVL77
 9503 1158 6C000000 		.4byte	.LVL78
 9504 115c 0200     		.2byte	0x2
 9505 115e 32       		.byte	0x32
 9506 115f 9F       		.byte	0x9f
 9507 1160 00000000 		.4byte	0
 9508 1164 00000000 		.4byte	0
 9509              	.LLST224:
 9510 1168 64000000 		.4byte	.LVL77
 9511 116c 6C000000 		.4byte	.LVL78
 9512 1170 0600     		.2byte	0x6
 9513 1172 0C       		.byte	0xc
 9514 1173 00033240 		.4byte	0x40320300
 9515 1177 9F       		.byte	0x9f
 9516 1178 00000000 		.4byte	0
 9517 117c 00000000 		.4byte	0
ARM GAS  C:\Users\dmula\AppData\Local\Temp\ccXnnfAd.s 			page 209


 9518              	.LLST225:
 9519 1180 6C000000 		.4byte	.LVL78
 9520 1184 72000000 		.4byte	.LVL79
 9521 1188 0200     		.2byte	0x2
 9522 118a 30       		.byte	0x30
 9523 118b 9F       		.byte	0x9f
 9524 118c 00000000 		.4byte	0
 9525 1190 00000000 		.4byte	0
 9526              	.LLST226:
 9527 1194 6C000000 		.4byte	.LVL78
 9528 1198 72000000 		.4byte	.LVL79
 9529 119c 0200     		.2byte	0x2
 9530 119e 33       		.byte	0x33
 9531 119f 9F       		.byte	0x9f
 9532 11a0 00000000 		.4byte	0
 9533 11a4 00000000 		.4byte	0
 9534              	.LLST227:
 9535 11a8 6C000000 		.4byte	.LVL78
 9536 11ac 72000000 		.4byte	.LVL79
 9537 11b0 0600     		.2byte	0x6
 9538 11b2 0C       		.byte	0xc
 9539 11b3 00033240 		.4byte	0x40320300
 9540 11b7 9F       		.byte	0x9f
 9541 11b8 00000000 		.4byte	0
 9542 11bc 00000000 		.4byte	0
 9543              	.LLST228:
 9544 11c0 72000000 		.4byte	.LVL79
 9545 11c4 78000000 		.4byte	.LVL80
 9546 11c8 0200     		.2byte	0x2
 9547 11ca 31       		.byte	0x31
 9548 11cb 9F       		.byte	0x9f
 9549 11cc 00000000 		.4byte	0
 9550 11d0 00000000 		.4byte	0
 9551              	.LLST229:
 9552 11d4 72000000 		.4byte	.LVL79
 9553 11d8 78000000 		.4byte	.LVL80
 9554 11dc 0200     		.2byte	0x2
 9555 11de 35       		.byte	0x35
 9556 11df 9F       		.byte	0x9f
 9557 11e0 00000000 		.4byte	0
 9558 11e4 00000000 		.4byte	0
 9559              	.LLST230:
 9560 11e8 72000000 		.4byte	.LVL79
 9561 11ec 78000000 		.4byte	.LVL80
 9562 11f0 0600     		.2byte	0x6
 9563 11f2 0C       		.byte	0xc
 9564 11f3 80043240 		.4byte	0x40320480
 9565 11f7 9F       		.byte	0x9f
 9566 11f8 00000000 		.4byte	0
 9567 11fc 00000000 		.4byte	0
 9568              	.LLST231:
 9569 1200 78000000 		.4byte	.LVL80
 9570 1204 7C000000 		.4byte	.LVL81
 9571 1208 0200     		.2byte	0x2
 9572 120a 31       		.byte	0x31
 9573 120b 9F       		.byte	0x9f
 9574 120c 00000000 		.4byte	0
ARM GAS  C:\Users\dmula\AppData\Local\Temp\ccXnnfAd.s 			page 210


 9575 1210 00000000 		.4byte	0
 9576              	.LLST232:
 9577 1214 78000000 		.4byte	.LVL80
 9578 1218 7C000000 		.4byte	.LVL81
 9579 121c 0200     		.2byte	0x2
 9580 121e 36       		.byte	0x36
 9581 121f 9F       		.byte	0x9f
 9582 1220 00000000 		.4byte	0
 9583 1224 00000000 		.4byte	0
 9584              	.LLST233:
 9585 1228 78000000 		.4byte	.LVL80
 9586 122c 7C000000 		.4byte	.LVL81
 9587 1230 0600     		.2byte	0x6
 9588 1232 0C       		.byte	0xc
 9589 1233 80043240 		.4byte	0x40320480
 9590 1237 9F       		.byte	0x9f
 9591 1238 00000000 		.4byte	0
 9592 123c 00000000 		.4byte	0
 9593              	.LLST234:
 9594 1240 7C000000 		.4byte	.LVL81
 9595 1244 84000000 		.4byte	.LVL82
 9596 1248 0200     		.2byte	0x2
 9597 124a 30       		.byte	0x30
 9598 124b 9F       		.byte	0x9f
 9599 124c 00000000 		.4byte	0
 9600 1250 00000000 		.4byte	0
 9601              	.LLST235:
 9602 1254 7C000000 		.4byte	.LVL81
 9603 1258 84000000 		.4byte	.LVL82
 9604 125c 0200     		.2byte	0x2
 9605 125e 32       		.byte	0x32
 9606 125f 9F       		.byte	0x9f
 9607 1260 00000000 		.4byte	0
 9608 1264 00000000 		.4byte	0
 9609              	.LLST236:
 9610 1268 7C000000 		.4byte	.LVL81
 9611 126c 84000000 		.4byte	.LVL82
 9612 1270 0600     		.2byte	0x6
 9613 1272 0C       		.byte	0xc
 9614 1273 00033240 		.4byte	0x40320300
 9615 1277 9F       		.byte	0x9f
 9616 1278 00000000 		.4byte	0
 9617 127c 00000000 		.4byte	0
 9618              	.LLST237:
 9619 1280 84000000 		.4byte	.LVL82
 9620 1284 8A000000 		.4byte	.LVL83
 9621 1288 0200     		.2byte	0x2
 9622 128a 30       		.byte	0x30
 9623 128b 9F       		.byte	0x9f
 9624 128c 00000000 		.4byte	0
 9625 1290 00000000 		.4byte	0
 9626              	.LLST238:
 9627 1294 84000000 		.4byte	.LVL82
 9628 1298 8A000000 		.4byte	.LVL83
 9629 129c 0200     		.2byte	0x2
 9630 129e 33       		.byte	0x33
 9631 129f 9F       		.byte	0x9f
ARM GAS  C:\Users\dmula\AppData\Local\Temp\ccXnnfAd.s 			page 211


 9632 12a0 00000000 		.4byte	0
 9633 12a4 00000000 		.4byte	0
 9634              	.LLST239:
 9635 12a8 84000000 		.4byte	.LVL82
 9636 12ac 8A000000 		.4byte	.LVL83
 9637 12b0 0600     		.2byte	0x6
 9638 12b2 0C       		.byte	0xc
 9639 12b3 00033240 		.4byte	0x40320300
 9640 12b7 9F       		.byte	0x9f
 9641 12b8 00000000 		.4byte	0
 9642 12bc 00000000 		.4byte	0
 9643              	.LLST240:
 9644 12c0 8A000000 		.4byte	.LVL83
 9645 12c4 90000000 		.4byte	.LVL84
 9646 12c8 0200     		.2byte	0x2
 9647 12ca 30       		.byte	0x30
 9648 12cb 9F       		.byte	0x9f
 9649 12cc 00000000 		.4byte	0
 9650 12d0 00000000 		.4byte	0
 9651              	.LLST241:
 9652 12d4 8A000000 		.4byte	.LVL83
 9653 12d8 90000000 		.4byte	.LVL84
 9654 12dc 0200     		.2byte	0x2
 9655 12de 35       		.byte	0x35
 9656 12df 9F       		.byte	0x9f
 9657 12e0 00000000 		.4byte	0
 9658 12e4 00000000 		.4byte	0
 9659              	.LLST242:
 9660 12e8 8A000000 		.4byte	.LVL83
 9661 12ec 90000000 		.4byte	.LVL84
 9662 12f0 0600     		.2byte	0x6
 9663 12f2 0C       		.byte	0xc
 9664 12f3 80043240 		.4byte	0x40320480
 9665 12f7 9F       		.byte	0x9f
 9666 12f8 00000000 		.4byte	0
 9667 12fc 00000000 		.4byte	0
 9668              	.LLST243:
 9669 1300 90000000 		.4byte	.LVL84
 9670 1304 94000000 		.4byte	.LVL85
 9671 1308 0200     		.2byte	0x2
 9672 130a 30       		.byte	0x30
 9673 130b 9F       		.byte	0x9f
 9674 130c 00000000 		.4byte	0
 9675 1310 00000000 		.4byte	0
 9676              	.LLST244:
 9677 1314 90000000 		.4byte	.LVL84
 9678 1318 94000000 		.4byte	.LVL85
 9679 131c 0200     		.2byte	0x2
 9680 131e 36       		.byte	0x36
 9681 131f 9F       		.byte	0x9f
 9682 1320 00000000 		.4byte	0
 9683 1324 00000000 		.4byte	0
 9684              	.LLST245:
 9685 1328 90000000 		.4byte	.LVL84
 9686 132c 94000000 		.4byte	.LVL85
 9687 1330 0600     		.2byte	0x6
 9688 1332 0C       		.byte	0xc
ARM GAS  C:\Users\dmula\AppData\Local\Temp\ccXnnfAd.s 			page 212


 9689 1333 80043240 		.4byte	0x40320480
 9690 1337 9F       		.byte	0x9f
 9691 1338 00000000 		.4byte	0
 9692 133c 00000000 		.4byte	0
 9693              	.LLST246:
 9694 1340 94000000 		.4byte	.LVL85
 9695 1344 9C000000 		.4byte	.LVL86
 9696 1348 0200     		.2byte	0x2
 9697 134a 31       		.byte	0x31
 9698 134b 9F       		.byte	0x9f
 9699 134c 00000000 		.4byte	0
 9700 1350 00000000 		.4byte	0
 9701              	.LLST247:
 9702 1354 94000000 		.4byte	.LVL85
 9703 1358 9C000000 		.4byte	.LVL86
 9704 135c 0200     		.2byte	0x2
 9705 135e 32       		.byte	0x32
 9706 135f 9F       		.byte	0x9f
 9707 1360 00000000 		.4byte	0
 9708 1364 00000000 		.4byte	0
 9709              	.LLST248:
 9710 1368 94000000 		.4byte	.LVL85
 9711 136c 9C000000 		.4byte	.LVL86
 9712 1370 0600     		.2byte	0x6
 9713 1372 0C       		.byte	0xc
 9714 1373 00033240 		.4byte	0x40320300
 9715 1377 9F       		.byte	0x9f
 9716 1378 00000000 		.4byte	0
 9717 137c 00000000 		.4byte	0
 9718              	.LLST249:
 9719 1380 9C000000 		.4byte	.LVL86
 9720 1384 A2000000 		.4byte	.LVL87
 9721 1388 0200     		.2byte	0x2
 9722 138a 30       		.byte	0x30
 9723 138b 9F       		.byte	0x9f
 9724 138c 00000000 		.4byte	0
 9725 1390 00000000 		.4byte	0
 9726              	.LLST250:
 9727 1394 9C000000 		.4byte	.LVL86
 9728 1398 A2000000 		.4byte	.LVL87
 9729 139c 0200     		.2byte	0x2
 9730 139e 33       		.byte	0x33
 9731 139f 9F       		.byte	0x9f
 9732 13a0 00000000 		.4byte	0
 9733 13a4 00000000 		.4byte	0
 9734              	.LLST251:
 9735 13a8 9C000000 		.4byte	.LVL86
 9736 13ac A2000000 		.4byte	.LVL87
 9737 13b0 0600     		.2byte	0x6
 9738 13b2 0C       		.byte	0xc
 9739 13b3 00033240 		.4byte	0x40320300
 9740 13b7 9F       		.byte	0x9f
 9741 13b8 00000000 		.4byte	0
 9742 13bc 00000000 		.4byte	0
 9743              	.LLST252:
 9744 13c0 A2000000 		.4byte	.LVL87
 9745 13c4 A8000000 		.4byte	.LVL88
ARM GAS  C:\Users\dmula\AppData\Local\Temp\ccXnnfAd.s 			page 213


 9746 13c8 0200     		.2byte	0x2
 9747 13ca 31       		.byte	0x31
 9748 13cb 9F       		.byte	0x9f
 9749 13cc 00000000 		.4byte	0
 9750 13d0 00000000 		.4byte	0
 9751              	.LLST253:
 9752 13d4 A2000000 		.4byte	.LVL87
 9753 13d8 A8000000 		.4byte	.LVL88
 9754 13dc 0200     		.2byte	0x2
 9755 13de 35       		.byte	0x35
 9756 13df 9F       		.byte	0x9f
 9757 13e0 00000000 		.4byte	0
 9758 13e4 00000000 		.4byte	0
 9759              	.LLST254:
 9760 13e8 A2000000 		.4byte	.LVL87
 9761 13ec A8000000 		.4byte	.LVL88
 9762 13f0 0600     		.2byte	0x6
 9763 13f2 0C       		.byte	0xc
 9764 13f3 80043240 		.4byte	0x40320480
 9765 13f7 9F       		.byte	0x9f
 9766 13f8 00000000 		.4byte	0
 9767 13fc 00000000 		.4byte	0
 9768              	.LLST255:
 9769 1400 A8000000 		.4byte	.LVL88
 9770 1404 AC000000 		.4byte	.LVL89
 9771 1408 0200     		.2byte	0x2
 9772 140a 30       		.byte	0x30
 9773 140b 9F       		.byte	0x9f
 9774 140c 00000000 		.4byte	0
 9775 1410 00000000 		.4byte	0
 9776              	.LLST256:
 9777 1414 A8000000 		.4byte	.LVL88
 9778 1418 AC000000 		.4byte	.LVL89
 9779 141c 0200     		.2byte	0x2
 9780 141e 36       		.byte	0x36
 9781 141f 9F       		.byte	0x9f
 9782 1420 00000000 		.4byte	0
 9783 1424 00000000 		.4byte	0
 9784              	.LLST257:
 9785 1428 A8000000 		.4byte	.LVL88
 9786 142c AC000000 		.4byte	.LVL89
 9787 1430 0600     		.2byte	0x6
 9788 1432 0C       		.byte	0xc
 9789 1433 80043240 		.4byte	0x40320480
 9790 1437 9F       		.byte	0x9f
 9791 1438 00000000 		.4byte	0
 9792 143c 00000000 		.4byte	0
 9793              	.LLST258:
 9794 1440 AC000000 		.4byte	.LVL89
 9795 1444 B4000000 		.4byte	.LVL90
 9796 1448 0200     		.2byte	0x2
 9797 144a 31       		.byte	0x31
 9798 144b 9F       		.byte	0x9f
 9799 144c 00000000 		.4byte	0
 9800 1450 00000000 		.4byte	0
 9801              	.LLST259:
 9802 1454 AC000000 		.4byte	.LVL89
ARM GAS  C:\Users\dmula\AppData\Local\Temp\ccXnnfAd.s 			page 214


 9803 1458 B4000000 		.4byte	.LVL90
 9804 145c 0200     		.2byte	0x2
 9805 145e 32       		.byte	0x32
 9806 145f 9F       		.byte	0x9f
 9807 1460 00000000 		.4byte	0
 9808 1464 00000000 		.4byte	0
 9809              	.LLST260:
 9810 1468 AC000000 		.4byte	.LVL89
 9811 146c B4000000 		.4byte	.LVL90
 9812 1470 0600     		.2byte	0x6
 9813 1472 0C       		.byte	0xc
 9814 1473 00033240 		.4byte	0x40320300
 9815 1477 9F       		.byte	0x9f
 9816 1478 00000000 		.4byte	0
 9817 147c 00000000 		.4byte	0
 9818              	.LLST261:
 9819 1480 B4000000 		.4byte	.LVL90
 9820 1484 BA000000 		.4byte	.LVL91
 9821 1488 0200     		.2byte	0x2
 9822 148a 30       		.byte	0x30
 9823 148b 9F       		.byte	0x9f
 9824 148c 00000000 		.4byte	0
 9825 1490 00000000 		.4byte	0
 9826              	.LLST262:
 9827 1494 B4000000 		.4byte	.LVL90
 9828 1498 BA000000 		.4byte	.LVL91
 9829 149c 0200     		.2byte	0x2
 9830 149e 33       		.byte	0x33
 9831 149f 9F       		.byte	0x9f
 9832 14a0 00000000 		.4byte	0
 9833 14a4 00000000 		.4byte	0
 9834              	.LLST263:
 9835 14a8 B4000000 		.4byte	.LVL90
 9836 14ac BA000000 		.4byte	.LVL91
 9837 14b0 0600     		.2byte	0x6
 9838 14b2 0C       		.byte	0xc
 9839 14b3 00033240 		.4byte	0x40320300
 9840 14b7 9F       		.byte	0x9f
 9841 14b8 00000000 		.4byte	0
 9842 14bc 00000000 		.4byte	0
 9843              	.LLST264:
 9844 14c0 BA000000 		.4byte	.LVL91
 9845 14c4 C0000000 		.4byte	.LVL92
 9846 14c8 0200     		.2byte	0x2
 9847 14ca 30       		.byte	0x30
 9848 14cb 9F       		.byte	0x9f
 9849 14cc 00000000 		.4byte	0
 9850 14d0 00000000 		.4byte	0
 9851              	.LLST265:
 9852 14d4 BA000000 		.4byte	.LVL91
 9853 14d8 C0000000 		.4byte	.LVL92
 9854 14dc 0200     		.2byte	0x2
 9855 14de 35       		.byte	0x35
 9856 14df 9F       		.byte	0x9f
 9857 14e0 00000000 		.4byte	0
 9858 14e4 00000000 		.4byte	0
 9859              	.LLST266:
ARM GAS  C:\Users\dmula\AppData\Local\Temp\ccXnnfAd.s 			page 215


 9860 14e8 BA000000 		.4byte	.LVL91
 9861 14ec C0000000 		.4byte	.LVL92
 9862 14f0 0600     		.2byte	0x6
 9863 14f2 0C       		.byte	0xc
 9864 14f3 80043240 		.4byte	0x40320480
 9865 14f7 9F       		.byte	0x9f
 9866 14f8 00000000 		.4byte	0
 9867 14fc 00000000 		.4byte	0
 9868              	.LLST267:
 9869 1500 C0000000 		.4byte	.LVL92
 9870 1504 C4000000 		.4byte	.LVL93
 9871 1508 0200     		.2byte	0x2
 9872 150a 31       		.byte	0x31
 9873 150b 9F       		.byte	0x9f
 9874 150c 00000000 		.4byte	0
 9875 1510 00000000 		.4byte	0
 9876              	.LLST268:
 9877 1514 C0000000 		.4byte	.LVL92
 9878 1518 C4000000 		.4byte	.LVL93
 9879 151c 0200     		.2byte	0x2
 9880 151e 36       		.byte	0x36
 9881 151f 9F       		.byte	0x9f
 9882 1520 00000000 		.4byte	0
 9883 1524 00000000 		.4byte	0
 9884              	.LLST269:
 9885 1528 C0000000 		.4byte	.LVL92
 9886 152c C4000000 		.4byte	.LVL93
 9887 1530 0600     		.2byte	0x6
 9888 1532 0C       		.byte	0xc
 9889 1533 80043240 		.4byte	0x40320480
 9890 1537 9F       		.byte	0x9f
 9891 1538 00000000 		.4byte	0
 9892 153c 00000000 		.4byte	0
 9893              	.LLST270:
 9894 1540 C4000000 		.4byte	.LVL93
 9895 1544 CC000000 		.4byte	.LVL94
 9896 1548 0200     		.2byte	0x2
 9897 154a 31       		.byte	0x31
 9898 154b 9F       		.byte	0x9f
 9899 154c 00000000 		.4byte	0
 9900 1550 00000000 		.4byte	0
 9901              	.LLST271:
 9902 1554 C4000000 		.4byte	.LVL93
 9903 1558 CC000000 		.4byte	.LVL94
 9904 155c 0200     		.2byte	0x2
 9905 155e 32       		.byte	0x32
 9906 155f 9F       		.byte	0x9f
 9907 1560 00000000 		.4byte	0
 9908 1564 00000000 		.4byte	0
 9909              	.LLST272:
 9910 1568 C4000000 		.4byte	.LVL93
 9911 156c CC000000 		.4byte	.LVL94
 9912 1570 0600     		.2byte	0x6
 9913 1572 0C       		.byte	0xc
 9914 1573 00033240 		.4byte	0x40320300
 9915 1577 9F       		.byte	0x9f
 9916 1578 00000000 		.4byte	0
ARM GAS  C:\Users\dmula\AppData\Local\Temp\ccXnnfAd.s 			page 216


 9917 157c 00000000 		.4byte	0
 9918              	.LLST273:
 9919 1580 CC000000 		.4byte	.LVL94
 9920 1584 D2000000 		.4byte	.LVL95
 9921 1588 0200     		.2byte	0x2
 9922 158a 30       		.byte	0x30
 9923 158b 9F       		.byte	0x9f
 9924 158c 00000000 		.4byte	0
 9925 1590 00000000 		.4byte	0
 9926              	.LLST274:
 9927 1594 CC000000 		.4byte	.LVL94
 9928 1598 D2000000 		.4byte	.LVL95
 9929 159c 0200     		.2byte	0x2
 9930 159e 33       		.byte	0x33
 9931 159f 9F       		.byte	0x9f
 9932 15a0 00000000 		.4byte	0
 9933 15a4 00000000 		.4byte	0
 9934              	.LLST275:
 9935 15a8 CC000000 		.4byte	.LVL94
 9936 15ac D2000000 		.4byte	.LVL95
 9937 15b0 0600     		.2byte	0x6
 9938 15b2 0C       		.byte	0xc
 9939 15b3 00033240 		.4byte	0x40320300
 9940 15b7 9F       		.byte	0x9f
 9941 15b8 00000000 		.4byte	0
 9942 15bc 00000000 		.4byte	0
 9943              	.LLST276:
 9944 15c0 D2000000 		.4byte	.LVL95
 9945 15c4 D8000000 		.4byte	.LVL96
 9946 15c8 0200     		.2byte	0x2
 9947 15ca 31       		.byte	0x31
 9948 15cb 9F       		.byte	0x9f
 9949 15cc 00000000 		.4byte	0
 9950 15d0 00000000 		.4byte	0
 9951              	.LLST277:
 9952 15d4 D2000000 		.4byte	.LVL95
 9953 15d8 D8000000 		.4byte	.LVL96
 9954 15dc 0200     		.2byte	0x2
 9955 15de 35       		.byte	0x35
 9956 15df 9F       		.byte	0x9f
 9957 15e0 00000000 		.4byte	0
 9958 15e4 00000000 		.4byte	0
 9959              	.LLST278:
 9960 15e8 D2000000 		.4byte	.LVL95
 9961 15ec D8000000 		.4byte	.LVL96
 9962 15f0 0600     		.2byte	0x6
 9963 15f2 0C       		.byte	0xc
 9964 15f3 80043240 		.4byte	0x40320480
 9965 15f7 9F       		.byte	0x9f
 9966 15f8 00000000 		.4byte	0
 9967 15fc 00000000 		.4byte	0
 9968              	.LLST279:
 9969 1600 D8000000 		.4byte	.LVL96
 9970 1604 DC000000 		.4byte	.LVL97
 9971 1608 0200     		.2byte	0x2
 9972 160a 31       		.byte	0x31
 9973 160b 9F       		.byte	0x9f
ARM GAS  C:\Users\dmula\AppData\Local\Temp\ccXnnfAd.s 			page 217


 9974 160c 00000000 		.4byte	0
 9975 1610 00000000 		.4byte	0
 9976              	.LLST280:
 9977 1614 D8000000 		.4byte	.LVL96
 9978 1618 DC000000 		.4byte	.LVL97
 9979 161c 0200     		.2byte	0x2
 9980 161e 36       		.byte	0x36
 9981 161f 9F       		.byte	0x9f
 9982 1620 00000000 		.4byte	0
 9983 1624 00000000 		.4byte	0
 9984              	.LLST281:
 9985 1628 D8000000 		.4byte	.LVL96
 9986 162c DC000000 		.4byte	.LVL97
 9987 1630 0600     		.2byte	0x6
 9988 1632 0C       		.byte	0xc
 9989 1633 80043240 		.4byte	0x40320480
 9990 1637 9F       		.byte	0x9f
 9991 1638 00000000 		.4byte	0
 9992 163c 00000000 		.4byte	0
 9993              	.LLST282:
 9994 1640 DC000000 		.4byte	.LVL97
 9995 1644 E4000000 		.4byte	.LVL98
 9996 1648 0200     		.2byte	0x2
 9997 164a 31       		.byte	0x31
 9998 164b 9F       		.byte	0x9f
 9999 164c 00000000 		.4byte	0
 10000 1650 00000000 		.4byte	0
 10001              	.LLST283:
 10002 1654 DC000000 		.4byte	.LVL97
 10003 1658 E4000000 		.4byte	.LVL98
 10004 165c 0200     		.2byte	0x2
 10005 165e 32       		.byte	0x32
 10006 165f 9F       		.byte	0x9f
 10007 1660 00000000 		.4byte	0
 10008 1664 00000000 		.4byte	0
 10009              	.LLST284:
 10010 1668 DC000000 		.4byte	.LVL97
 10011 166c E4000000 		.4byte	.LVL98
 10012 1670 0600     		.2byte	0x6
 10013 1672 0C       		.byte	0xc
 10014 1673 00033240 		.4byte	0x40320300
 10015 1677 9F       		.byte	0x9f
 10016 1678 00000000 		.4byte	0
 10017 167c 00000000 		.4byte	0
 10018              	.LLST285:
 10019 1680 E4000000 		.4byte	.LVL98
 10020 1684 EA000000 		.4byte	.LVL99
 10021 1688 0200     		.2byte	0x2
 10022 168a 30       		.byte	0x30
 10023 168b 9F       		.byte	0x9f
 10024 168c 00000000 		.4byte	0
 10025 1690 00000000 		.4byte	0
 10026              	.LLST286:
 10027 1694 E4000000 		.4byte	.LVL98
 10028 1698 EA000000 		.4byte	.LVL99
 10029 169c 0200     		.2byte	0x2
 10030 169e 33       		.byte	0x33
ARM GAS  C:\Users\dmula\AppData\Local\Temp\ccXnnfAd.s 			page 218


 10031 169f 9F       		.byte	0x9f
 10032 16a0 00000000 		.4byte	0
 10033 16a4 00000000 		.4byte	0
 10034              	.LLST287:
 10035 16a8 E4000000 		.4byte	.LVL98
 10036 16ac EA000000 		.4byte	.LVL99
 10037 16b0 0600     		.2byte	0x6
 10038 16b2 0C       		.byte	0xc
 10039 16b3 00033240 		.4byte	0x40320300
 10040 16b7 9F       		.byte	0x9f
 10041 16b8 00000000 		.4byte	0
 10042 16bc 00000000 		.4byte	0
 10043              	.LLST288:
 10044 16c0 EA000000 		.4byte	.LVL99
 10045 16c4 F0000000 		.4byte	.LVL100
 10046 16c8 0200     		.2byte	0x2
 10047 16ca 30       		.byte	0x30
 10048 16cb 9F       		.byte	0x9f
 10049 16cc 00000000 		.4byte	0
 10050 16d0 00000000 		.4byte	0
 10051              	.LLST289:
 10052 16d4 EA000000 		.4byte	.LVL99
 10053 16d8 F0000000 		.4byte	.LVL100
 10054 16dc 0200     		.2byte	0x2
 10055 16de 35       		.byte	0x35
 10056 16df 9F       		.byte	0x9f
 10057 16e0 00000000 		.4byte	0
 10058 16e4 00000000 		.4byte	0
 10059              	.LLST290:
 10060 16e8 EA000000 		.4byte	.LVL99
 10061 16ec F0000000 		.4byte	.LVL100
 10062 16f0 0600     		.2byte	0x6
 10063 16f2 0C       		.byte	0xc
 10064 16f3 80043240 		.4byte	0x40320480
 10065 16f7 9F       		.byte	0x9f
 10066 16f8 00000000 		.4byte	0
 10067 16fc 00000000 		.4byte	0
 10068              	.LLST291:
 10069 1700 F0000000 		.4byte	.LVL100
 10070 1704 F4000000 		.4byte	.LVL101
 10071 1708 0200     		.2byte	0x2
 10072 170a 30       		.byte	0x30
 10073 170b 9F       		.byte	0x9f
 10074 170c 00000000 		.4byte	0
 10075 1710 00000000 		.4byte	0
 10076              	.LLST292:
 10077 1714 F0000000 		.4byte	.LVL100
 10078 1718 F4000000 		.4byte	.LVL101
 10079 171c 0200     		.2byte	0x2
 10080 171e 36       		.byte	0x36
 10081 171f 9F       		.byte	0x9f
 10082 1720 00000000 		.4byte	0
 10083 1724 00000000 		.4byte	0
 10084              	.LLST293:
 10085 1728 F0000000 		.4byte	.LVL100
 10086 172c F4000000 		.4byte	.LVL101
 10087 1730 0600     		.2byte	0x6
ARM GAS  C:\Users\dmula\AppData\Local\Temp\ccXnnfAd.s 			page 219


 10088 1732 0C       		.byte	0xc
 10089 1733 80043240 		.4byte	0x40320480
 10090 1737 9F       		.byte	0x9f
 10091 1738 00000000 		.4byte	0
 10092 173c 00000000 		.4byte	0
 10093              	.LLST294:
 10094 1740 F4000000 		.4byte	.LVL101
 10095 1744 FC000000 		.4byte	.LVL102
 10096 1748 0200     		.2byte	0x2
 10097 174a 30       		.byte	0x30
 10098 174b 9F       		.byte	0x9f
 10099 174c 00000000 		.4byte	0
 10100 1750 00000000 		.4byte	0
 10101              	.LLST295:
 10102 1754 F4000000 		.4byte	.LVL101
 10103 1758 FC000000 		.4byte	.LVL102
 10104 175c 0200     		.2byte	0x2
 10105 175e 32       		.byte	0x32
 10106 175f 9F       		.byte	0x9f
 10107 1760 00000000 		.4byte	0
 10108 1764 00000000 		.4byte	0
 10109              	.LLST296:
 10110 1768 F4000000 		.4byte	.LVL101
 10111 176c FC000000 		.4byte	.LVL102
 10112 1770 0600     		.2byte	0x6
 10113 1772 0C       		.byte	0xc
 10114 1773 00033240 		.4byte	0x40320300
 10115 1777 9F       		.byte	0x9f
 10116 1778 00000000 		.4byte	0
 10117 177c 00000000 		.4byte	0
 10118              	.LLST297:
 10119 1780 FC000000 		.4byte	.LVL102
 10120 1784 02010000 		.4byte	.LVL103
 10121 1788 0200     		.2byte	0x2
 10122 178a 31       		.byte	0x31
 10123 178b 9F       		.byte	0x9f
 10124 178c 00000000 		.4byte	0
 10125 1790 00000000 		.4byte	0
 10126              	.LLST298:
 10127 1794 FC000000 		.4byte	.LVL102
 10128 1798 02010000 		.4byte	.LVL103
 10129 179c 0200     		.2byte	0x2
 10130 179e 33       		.byte	0x33
 10131 179f 9F       		.byte	0x9f
 10132 17a0 00000000 		.4byte	0
 10133 17a4 00000000 		.4byte	0
 10134              	.LLST299:
 10135 17a8 FC000000 		.4byte	.LVL102
 10136 17ac 02010000 		.4byte	.LVL103
 10137 17b0 0600     		.2byte	0x6
 10138 17b2 0C       		.byte	0xc
 10139 17b3 00033240 		.4byte	0x40320300
 10140 17b7 9F       		.byte	0x9f
 10141 17b8 00000000 		.4byte	0
 10142 17bc 00000000 		.4byte	0
 10143              	.LLST300:
 10144 17c0 02010000 		.4byte	.LVL103
ARM GAS  C:\Users\dmula\AppData\Local\Temp\ccXnnfAd.s 			page 220


 10145 17c4 08010000 		.4byte	.LVL104
 10146 17c8 0200     		.2byte	0x2
 10147 17ca 31       		.byte	0x31
 10148 17cb 9F       		.byte	0x9f
 10149 17cc 00000000 		.4byte	0
 10150 17d0 00000000 		.4byte	0
 10151              	.LLST301:
 10152 17d4 02010000 		.4byte	.LVL103
 10153 17d8 08010000 		.4byte	.LVL104
 10154 17dc 0200     		.2byte	0x2
 10155 17de 35       		.byte	0x35
 10156 17df 9F       		.byte	0x9f
 10157 17e0 00000000 		.4byte	0
 10158 17e4 00000000 		.4byte	0
 10159              	.LLST302:
 10160 17e8 02010000 		.4byte	.LVL103
 10161 17ec 08010000 		.4byte	.LVL104
 10162 17f0 0600     		.2byte	0x6
 10163 17f2 0C       		.byte	0xc
 10164 17f3 80043240 		.4byte	0x40320480
 10165 17f7 9F       		.byte	0x9f
 10166 17f8 00000000 		.4byte	0
 10167 17fc 00000000 		.4byte	0
 10168              	.LLST303:
 10169 1800 08010000 		.4byte	.LVL104
 10170 1804 0C010000 		.4byte	.LVL105
 10171 1808 0200     		.2byte	0x2
 10172 180a 30       		.byte	0x30
 10173 180b 9F       		.byte	0x9f
 10174 180c 00000000 		.4byte	0
 10175 1810 00000000 		.4byte	0
 10176              	.LLST304:
 10177 1814 08010000 		.4byte	.LVL104
 10178 1818 0C010000 		.4byte	.LVL105
 10179 181c 0200     		.2byte	0x2
 10180 181e 36       		.byte	0x36
 10181 181f 9F       		.byte	0x9f
 10182 1820 00000000 		.4byte	0
 10183 1824 00000000 		.4byte	0
 10184              	.LLST305:
 10185 1828 08010000 		.4byte	.LVL104
 10186 182c 0C010000 		.4byte	.LVL105
 10187 1830 0600     		.2byte	0x6
 10188 1832 0C       		.byte	0xc
 10189 1833 80043240 		.4byte	0x40320480
 10190 1837 9F       		.byte	0x9f
 10191 1838 00000000 		.4byte	0
 10192 183c 00000000 		.4byte	0
 10193              	.LLST306:
 10194 1840 0C010000 		.4byte	.LVL105
 10195 1844 14010000 		.4byte	.LVL106
 10196 1848 0200     		.2byte	0x2
 10197 184a 30       		.byte	0x30
 10198 184b 9F       		.byte	0x9f
 10199 184c 00000000 		.4byte	0
 10200 1850 00000000 		.4byte	0
 10201              	.LLST307:
ARM GAS  C:\Users\dmula\AppData\Local\Temp\ccXnnfAd.s 			page 221


 10202 1854 0C010000 		.4byte	.LVL105
 10203 1858 14010000 		.4byte	.LVL106
 10204 185c 0200     		.2byte	0x2
 10205 185e 32       		.byte	0x32
 10206 185f 9F       		.byte	0x9f
 10207 1860 00000000 		.4byte	0
 10208 1864 00000000 		.4byte	0
 10209              	.LLST308:
 10210 1868 0C010000 		.4byte	.LVL105
 10211 186c 14010000 		.4byte	.LVL106
 10212 1870 0600     		.2byte	0x6
 10213 1872 0C       		.byte	0xc
 10214 1873 00033240 		.4byte	0x40320300
 10215 1877 9F       		.byte	0x9f
 10216 1878 00000000 		.4byte	0
 10217 187c 00000000 		.4byte	0
 10218              	.LLST309:
 10219 1880 14010000 		.4byte	.LVL106
 10220 1884 1A010000 		.4byte	.LVL107
 10221 1888 0200     		.2byte	0x2
 10222 188a 31       		.byte	0x31
 10223 188b 9F       		.byte	0x9f
 10224 188c 00000000 		.4byte	0
 10225 1890 00000000 		.4byte	0
 10226              	.LLST310:
 10227 1894 14010000 		.4byte	.LVL106
 10228 1898 1A010000 		.4byte	.LVL107
 10229 189c 0200     		.2byte	0x2
 10230 189e 33       		.byte	0x33
 10231 189f 9F       		.byte	0x9f
 10232 18a0 00000000 		.4byte	0
 10233 18a4 00000000 		.4byte	0
 10234              	.LLST311:
 10235 18a8 14010000 		.4byte	.LVL106
 10236 18ac 1A010000 		.4byte	.LVL107
 10237 18b0 0600     		.2byte	0x6
 10238 18b2 0C       		.byte	0xc
 10239 18b3 00033240 		.4byte	0x40320300
 10240 18b7 9F       		.byte	0x9f
 10241 18b8 00000000 		.4byte	0
 10242 18bc 00000000 		.4byte	0
 10243              	.LLST312:
 10244 18c0 1A010000 		.4byte	.LVL107
 10245 18c4 20010000 		.4byte	.LVL108
 10246 18c8 0200     		.2byte	0x2
 10247 18ca 30       		.byte	0x30
 10248 18cb 9F       		.byte	0x9f
 10249 18cc 00000000 		.4byte	0
 10250 18d0 00000000 		.4byte	0
 10251              	.LLST313:
 10252 18d4 1A010000 		.4byte	.LVL107
 10253 18d8 20010000 		.4byte	.LVL108
 10254 18dc 0200     		.2byte	0x2
 10255 18de 35       		.byte	0x35
 10256 18df 9F       		.byte	0x9f
 10257 18e0 00000000 		.4byte	0
 10258 18e4 00000000 		.4byte	0
ARM GAS  C:\Users\dmula\AppData\Local\Temp\ccXnnfAd.s 			page 222


 10259              	.LLST314:
 10260 18e8 1A010000 		.4byte	.LVL107
 10261 18ec 20010000 		.4byte	.LVL108
 10262 18f0 0600     		.2byte	0x6
 10263 18f2 0C       		.byte	0xc
 10264 18f3 80043240 		.4byte	0x40320480
 10265 18f7 9F       		.byte	0x9f
 10266 18f8 00000000 		.4byte	0
 10267 18fc 00000000 		.4byte	0
 10268              	.LLST315:
 10269 1900 20010000 		.4byte	.LVL108
 10270 1904 24010000 		.4byte	.LVL109
 10271 1908 0200     		.2byte	0x2
 10272 190a 31       		.byte	0x31
 10273 190b 9F       		.byte	0x9f
 10274 190c 00000000 		.4byte	0
 10275 1910 00000000 		.4byte	0
 10276              	.LLST316:
 10277 1914 20010000 		.4byte	.LVL108
 10278 1918 24010000 		.4byte	.LVL109
 10279 191c 0200     		.2byte	0x2
 10280 191e 36       		.byte	0x36
 10281 191f 9F       		.byte	0x9f
 10282 1920 00000000 		.4byte	0
 10283 1924 00000000 		.4byte	0
 10284              	.LLST317:
 10285 1928 20010000 		.4byte	.LVL108
 10286 192c 24010000 		.4byte	.LVL109
 10287 1930 0600     		.2byte	0x6
 10288 1932 0C       		.byte	0xc
 10289 1933 80043240 		.4byte	0x40320480
 10290 1937 9F       		.byte	0x9f
 10291 1938 00000000 		.4byte	0
 10292 193c 00000000 		.4byte	0
 10293              	.LLST318:
 10294 1940 24010000 		.4byte	.LVL109
 10295 1944 2C010000 		.4byte	.LVL110
 10296 1948 0200     		.2byte	0x2
 10297 194a 30       		.byte	0x30
 10298 194b 9F       		.byte	0x9f
 10299 194c 00000000 		.4byte	0
 10300 1950 00000000 		.4byte	0
 10301              	.LLST319:
 10302 1954 24010000 		.4byte	.LVL109
 10303 1958 2C010000 		.4byte	.LVL110
 10304 195c 0200     		.2byte	0x2
 10305 195e 32       		.byte	0x32
 10306 195f 9F       		.byte	0x9f
 10307 1960 00000000 		.4byte	0
 10308 1964 00000000 		.4byte	0
 10309              	.LLST320:
 10310 1968 24010000 		.4byte	.LVL109
 10311 196c 2C010000 		.4byte	.LVL110
 10312 1970 0600     		.2byte	0x6
 10313 1972 0C       		.byte	0xc
 10314 1973 00033240 		.4byte	0x40320300
 10315 1977 9F       		.byte	0x9f
ARM GAS  C:\Users\dmula\AppData\Local\Temp\ccXnnfAd.s 			page 223


 10316 1978 00000000 		.4byte	0
 10317 197c 00000000 		.4byte	0
 10318              	.LLST321:
 10319 1980 2C010000 		.4byte	.LVL110
 10320 1984 32010000 		.4byte	.LVL111
 10321 1988 0200     		.2byte	0x2
 10322 198a 31       		.byte	0x31
 10323 198b 9F       		.byte	0x9f
 10324 198c 00000000 		.4byte	0
 10325 1990 00000000 		.4byte	0
 10326              	.LLST322:
 10327 1994 2C010000 		.4byte	.LVL110
 10328 1998 32010000 		.4byte	.LVL111
 10329 199c 0200     		.2byte	0x2
 10330 199e 33       		.byte	0x33
 10331 199f 9F       		.byte	0x9f
 10332 19a0 00000000 		.4byte	0
 10333 19a4 00000000 		.4byte	0
 10334              	.LLST323:
 10335 19a8 2C010000 		.4byte	.LVL110
 10336 19ac 32010000 		.4byte	.LVL111
 10337 19b0 0600     		.2byte	0x6
 10338 19b2 0C       		.byte	0xc
 10339 19b3 00033240 		.4byte	0x40320300
 10340 19b7 9F       		.byte	0x9f
 10341 19b8 00000000 		.4byte	0
 10342 19bc 00000000 		.4byte	0
 10343              	.LLST324:
 10344 19c0 32010000 		.4byte	.LVL111
 10345 19c4 38010000 		.4byte	.LVL112
 10346 19c8 0200     		.2byte	0x2
 10347 19ca 31       		.byte	0x31
 10348 19cb 9F       		.byte	0x9f
 10349 19cc 00000000 		.4byte	0
 10350 19d0 00000000 		.4byte	0
 10351              	.LLST325:
 10352 19d4 32010000 		.4byte	.LVL111
 10353 19d8 38010000 		.4byte	.LVL112
 10354 19dc 0200     		.2byte	0x2
 10355 19de 35       		.byte	0x35
 10356 19df 9F       		.byte	0x9f
 10357 19e0 00000000 		.4byte	0
 10358 19e4 00000000 		.4byte	0
 10359              	.LLST326:
 10360 19e8 32010000 		.4byte	.LVL111
 10361 19ec 38010000 		.4byte	.LVL112
 10362 19f0 0600     		.2byte	0x6
 10363 19f2 0C       		.byte	0xc
 10364 19f3 80043240 		.4byte	0x40320480
 10365 19f7 9F       		.byte	0x9f
 10366 19f8 00000000 		.4byte	0
 10367 19fc 00000000 		.4byte	0
 10368              	.LLST327:
 10369 1a00 38010000 		.4byte	.LVL112
 10370 1a04 3C010000 		.4byte	.LVL113
 10371 1a08 0200     		.2byte	0x2
 10372 1a0a 31       		.byte	0x31
ARM GAS  C:\Users\dmula\AppData\Local\Temp\ccXnnfAd.s 			page 224


 10373 1a0b 9F       		.byte	0x9f
 10374 1a0c 00000000 		.4byte	0
 10375 1a10 00000000 		.4byte	0
 10376              	.LLST328:
 10377 1a14 38010000 		.4byte	.LVL112
 10378 1a18 3C010000 		.4byte	.LVL113
 10379 1a1c 0200     		.2byte	0x2
 10380 1a1e 36       		.byte	0x36
 10381 1a1f 9F       		.byte	0x9f
 10382 1a20 00000000 		.4byte	0
 10383 1a24 00000000 		.4byte	0
 10384              	.LLST329:
 10385 1a28 38010000 		.4byte	.LVL112
 10386 1a2c 3C010000 		.4byte	.LVL113
 10387 1a30 0600     		.2byte	0x6
 10388 1a32 0C       		.byte	0xc
 10389 1a33 80043240 		.4byte	0x40320480
 10390 1a37 9F       		.byte	0x9f
 10391 1a38 00000000 		.4byte	0
 10392 1a3c 00000000 		.4byte	0
 10393              	.LLST330:
 10394 1a40 3C010000 		.4byte	.LVL113
 10395 1a44 44010000 		.4byte	.LVL114
 10396 1a48 0200     		.2byte	0x2
 10397 1a4a 30       		.byte	0x30
 10398 1a4b 9F       		.byte	0x9f
 10399 1a4c 00000000 		.4byte	0
 10400 1a50 00000000 		.4byte	0
 10401              	.LLST331:
 10402 1a54 3C010000 		.4byte	.LVL113
 10403 1a58 44010000 		.4byte	.LVL114
 10404 1a5c 0200     		.2byte	0x2
 10405 1a5e 32       		.byte	0x32
 10406 1a5f 9F       		.byte	0x9f
 10407 1a60 00000000 		.4byte	0
 10408 1a64 00000000 		.4byte	0
 10409              	.LLST332:
 10410 1a68 3C010000 		.4byte	.LVL113
 10411 1a6c 44010000 		.4byte	.LVL114
 10412 1a70 0600     		.2byte	0x6
 10413 1a72 0C       		.byte	0xc
 10414 1a73 00033240 		.4byte	0x40320300
 10415 1a77 9F       		.byte	0x9f
 10416 1a78 00000000 		.4byte	0
 10417 1a7c 00000000 		.4byte	0
 10418              	.LLST333:
 10419 1a80 44010000 		.4byte	.LVL114
 10420 1a84 4A010000 		.4byte	.LVL115
 10421 1a88 0200     		.2byte	0x2
 10422 1a8a 31       		.byte	0x31
 10423 1a8b 9F       		.byte	0x9f
 10424 1a8c 00000000 		.4byte	0
 10425 1a90 00000000 		.4byte	0
 10426              	.LLST334:
 10427 1a94 44010000 		.4byte	.LVL114
 10428 1a98 4A010000 		.4byte	.LVL115
 10429 1a9c 0200     		.2byte	0x2
ARM GAS  C:\Users\dmula\AppData\Local\Temp\ccXnnfAd.s 			page 225


 10430 1a9e 33       		.byte	0x33
 10431 1a9f 9F       		.byte	0x9f
 10432 1aa0 00000000 		.4byte	0
 10433 1aa4 00000000 		.4byte	0
 10434              	.LLST335:
 10435 1aa8 44010000 		.4byte	.LVL114
 10436 1aac 4A010000 		.4byte	.LVL115
 10437 1ab0 0600     		.2byte	0x6
 10438 1ab2 0C       		.byte	0xc
 10439 1ab3 00033240 		.4byte	0x40320300
 10440 1ab7 9F       		.byte	0x9f
 10441 1ab8 00000000 		.4byte	0
 10442 1abc 00000000 		.4byte	0
 10443              	.LLST336:
 10444 1ac0 4A010000 		.4byte	.LVL115
 10445 1ac4 50010000 		.4byte	.LVL116
 10446 1ac8 0200     		.2byte	0x2
 10447 1aca 30       		.byte	0x30
 10448 1acb 9F       		.byte	0x9f
 10449 1acc 00000000 		.4byte	0
 10450 1ad0 00000000 		.4byte	0
 10451              	.LLST337:
 10452 1ad4 4A010000 		.4byte	.LVL115
 10453 1ad8 50010000 		.4byte	.LVL116
 10454 1adc 0200     		.2byte	0x2
 10455 1ade 35       		.byte	0x35
 10456 1adf 9F       		.byte	0x9f
 10457 1ae0 00000000 		.4byte	0
 10458 1ae4 00000000 		.4byte	0
 10459              	.LLST338:
 10460 1ae8 4A010000 		.4byte	.LVL115
 10461 1aec 50010000 		.4byte	.LVL116
 10462 1af0 0600     		.2byte	0x6
 10463 1af2 0C       		.byte	0xc
 10464 1af3 80043240 		.4byte	0x40320480
 10465 1af7 9F       		.byte	0x9f
 10466 1af8 00000000 		.4byte	0
 10467 1afc 00000000 		.4byte	0
 10468              	.LLST339:
 10469 1b00 50010000 		.4byte	.LVL116
 10470 1b04 54010000 		.4byte	.LVL117
 10471 1b08 0200     		.2byte	0x2
 10472 1b0a 30       		.byte	0x30
 10473 1b0b 9F       		.byte	0x9f
 10474 1b0c 00000000 		.4byte	0
 10475 1b10 00000000 		.4byte	0
 10476              	.LLST340:
 10477 1b14 50010000 		.4byte	.LVL116
 10478 1b18 54010000 		.4byte	.LVL117
 10479 1b1c 0200     		.2byte	0x2
 10480 1b1e 36       		.byte	0x36
 10481 1b1f 9F       		.byte	0x9f
 10482 1b20 00000000 		.4byte	0
 10483 1b24 00000000 		.4byte	0
 10484              	.LLST341:
 10485 1b28 50010000 		.4byte	.LVL116
 10486 1b2c 54010000 		.4byte	.LVL117
ARM GAS  C:\Users\dmula\AppData\Local\Temp\ccXnnfAd.s 			page 226


 10487 1b30 0600     		.2byte	0x6
 10488 1b32 0C       		.byte	0xc
 10489 1b33 80043240 		.4byte	0x40320480
 10490 1b37 9F       		.byte	0x9f
 10491 1b38 00000000 		.4byte	0
 10492 1b3c 00000000 		.4byte	0
 10493              	.LLST342:
 10494 1b40 54010000 		.4byte	.LVL117
 10495 1b44 5C010000 		.4byte	.LVL118
 10496 1b48 0200     		.2byte	0x2
 10497 1b4a 31       		.byte	0x31
 10498 1b4b 9F       		.byte	0x9f
 10499 1b4c 00000000 		.4byte	0
 10500 1b50 00000000 		.4byte	0
 10501              	.LLST343:
 10502 1b54 54010000 		.4byte	.LVL117
 10503 1b58 5C010000 		.4byte	.LVL118
 10504 1b5c 0200     		.2byte	0x2
 10505 1b5e 32       		.byte	0x32
 10506 1b5f 9F       		.byte	0x9f
 10507 1b60 00000000 		.4byte	0
 10508 1b64 00000000 		.4byte	0
 10509              	.LLST344:
 10510 1b68 54010000 		.4byte	.LVL117
 10511 1b6c 5C010000 		.4byte	.LVL118
 10512 1b70 0600     		.2byte	0x6
 10513 1b72 0C       		.byte	0xc
 10514 1b73 00033240 		.4byte	0x40320300
 10515 1b77 9F       		.byte	0x9f
 10516 1b78 00000000 		.4byte	0
 10517 1b7c 00000000 		.4byte	0
 10518              	.LLST345:
 10519 1b80 5C010000 		.4byte	.LVL118
 10520 1b84 62010000 		.4byte	.LVL119
 10521 1b88 0200     		.2byte	0x2
 10522 1b8a 31       		.byte	0x31
 10523 1b8b 9F       		.byte	0x9f
 10524 1b8c 00000000 		.4byte	0
 10525 1b90 00000000 		.4byte	0
 10526              	.LLST346:
 10527 1b94 5C010000 		.4byte	.LVL118
 10528 1b98 62010000 		.4byte	.LVL119
 10529 1b9c 0200     		.2byte	0x2
 10530 1b9e 33       		.byte	0x33
 10531 1b9f 9F       		.byte	0x9f
 10532 1ba0 00000000 		.4byte	0
 10533 1ba4 00000000 		.4byte	0
 10534              	.LLST347:
 10535 1ba8 5C010000 		.4byte	.LVL118
 10536 1bac 62010000 		.4byte	.LVL119
 10537 1bb0 0600     		.2byte	0x6
 10538 1bb2 0C       		.byte	0xc
 10539 1bb3 00033240 		.4byte	0x40320300
 10540 1bb7 9F       		.byte	0x9f
 10541 1bb8 00000000 		.4byte	0
 10542 1bbc 00000000 		.4byte	0
 10543              	.LLST348:
ARM GAS  C:\Users\dmula\AppData\Local\Temp\ccXnnfAd.s 			page 227


 10544 1bc0 62010000 		.4byte	.LVL119
 10545 1bc4 68010000 		.4byte	.LVL120
 10546 1bc8 0200     		.2byte	0x2
 10547 1bca 31       		.byte	0x31
 10548 1bcb 9F       		.byte	0x9f
 10549 1bcc 00000000 		.4byte	0
 10550 1bd0 00000000 		.4byte	0
 10551              	.LLST349:
 10552 1bd4 62010000 		.4byte	.LVL119
 10553 1bd8 68010000 		.4byte	.LVL120
 10554 1bdc 0200     		.2byte	0x2
 10555 1bde 35       		.byte	0x35
 10556 1bdf 9F       		.byte	0x9f
 10557 1be0 00000000 		.4byte	0
 10558 1be4 00000000 		.4byte	0
 10559              	.LLST350:
 10560 1be8 62010000 		.4byte	.LVL119
 10561 1bec 68010000 		.4byte	.LVL120
 10562 1bf0 0600     		.2byte	0x6
 10563 1bf2 0C       		.byte	0xc
 10564 1bf3 80043240 		.4byte	0x40320480
 10565 1bf7 9F       		.byte	0x9f
 10566 1bf8 00000000 		.4byte	0
 10567 1bfc 00000000 		.4byte	0
 10568              	.LLST351:
 10569 1c00 68010000 		.4byte	.LVL120
 10570 1c04 6C010000 		.4byte	.LVL121
 10571 1c08 0200     		.2byte	0x2
 10572 1c0a 30       		.byte	0x30
 10573 1c0b 9F       		.byte	0x9f
 10574 1c0c 00000000 		.4byte	0
 10575 1c10 00000000 		.4byte	0
 10576              	.LLST352:
 10577 1c14 68010000 		.4byte	.LVL120
 10578 1c18 6C010000 		.4byte	.LVL121
 10579 1c1c 0200     		.2byte	0x2
 10580 1c1e 36       		.byte	0x36
 10581 1c1f 9F       		.byte	0x9f
 10582 1c20 00000000 		.4byte	0
 10583 1c24 00000000 		.4byte	0
 10584              	.LLST353:
 10585 1c28 68010000 		.4byte	.LVL120
 10586 1c2c 6C010000 		.4byte	.LVL121
 10587 1c30 0600     		.2byte	0x6
 10588 1c32 0C       		.byte	0xc
 10589 1c33 80043240 		.4byte	0x40320480
 10590 1c37 9F       		.byte	0x9f
 10591 1c38 00000000 		.4byte	0
 10592 1c3c 00000000 		.4byte	0
 10593              	.LLST354:
 10594 1c40 6C010000 		.4byte	.LVL121
 10595 1c44 74010000 		.4byte	.LVL122
 10596 1c48 0200     		.2byte	0x2
 10597 1c4a 31       		.byte	0x31
 10598 1c4b 9F       		.byte	0x9f
 10599 1c4c 00000000 		.4byte	0
 10600 1c50 00000000 		.4byte	0
ARM GAS  C:\Users\dmula\AppData\Local\Temp\ccXnnfAd.s 			page 228


 10601              	.LLST355:
 10602 1c54 6C010000 		.4byte	.LVL121
 10603 1c58 74010000 		.4byte	.LVL122
 10604 1c5c 0200     		.2byte	0x2
 10605 1c5e 32       		.byte	0x32
 10606 1c5f 9F       		.byte	0x9f
 10607 1c60 00000000 		.4byte	0
 10608 1c64 00000000 		.4byte	0
 10609              	.LLST356:
 10610 1c68 6C010000 		.4byte	.LVL121
 10611 1c6c 74010000 		.4byte	.LVL122
 10612 1c70 0600     		.2byte	0x6
 10613 1c72 0C       		.byte	0xc
 10614 1c73 00033240 		.4byte	0x40320300
 10615 1c77 9F       		.byte	0x9f
 10616 1c78 00000000 		.4byte	0
 10617 1c7c 00000000 		.4byte	0
 10618              	.LLST357:
 10619 1c80 74010000 		.4byte	.LVL122
 10620 1c84 7A010000 		.4byte	.LVL123
 10621 1c88 0200     		.2byte	0x2
 10622 1c8a 31       		.byte	0x31
 10623 1c8b 9F       		.byte	0x9f
 10624 1c8c 00000000 		.4byte	0
 10625 1c90 00000000 		.4byte	0
 10626              	.LLST358:
 10627 1c94 74010000 		.4byte	.LVL122
 10628 1c98 7A010000 		.4byte	.LVL123
 10629 1c9c 0200     		.2byte	0x2
 10630 1c9e 33       		.byte	0x33
 10631 1c9f 9F       		.byte	0x9f
 10632 1ca0 00000000 		.4byte	0
 10633 1ca4 00000000 		.4byte	0
 10634              	.LLST359:
 10635 1ca8 74010000 		.4byte	.LVL122
 10636 1cac 7A010000 		.4byte	.LVL123
 10637 1cb0 0600     		.2byte	0x6
 10638 1cb2 0C       		.byte	0xc
 10639 1cb3 00033240 		.4byte	0x40320300
 10640 1cb7 9F       		.byte	0x9f
 10641 1cb8 00000000 		.4byte	0
 10642 1cbc 00000000 		.4byte	0
 10643              	.LLST360:
 10644 1cc0 7A010000 		.4byte	.LVL123
 10645 1cc4 80010000 		.4byte	.LVL124
 10646 1cc8 0200     		.2byte	0x2
 10647 1cca 30       		.byte	0x30
 10648 1ccb 9F       		.byte	0x9f
 10649 1ccc 00000000 		.4byte	0
 10650 1cd0 00000000 		.4byte	0
 10651              	.LLST361:
 10652 1cd4 7A010000 		.4byte	.LVL123
 10653 1cd8 80010000 		.4byte	.LVL124
 10654 1cdc 0200     		.2byte	0x2
 10655 1cde 35       		.byte	0x35
 10656 1cdf 9F       		.byte	0x9f
 10657 1ce0 00000000 		.4byte	0
ARM GAS  C:\Users\dmula\AppData\Local\Temp\ccXnnfAd.s 			page 229


 10658 1ce4 00000000 		.4byte	0
 10659              	.LLST362:
 10660 1ce8 7A010000 		.4byte	.LVL123
 10661 1cec 80010000 		.4byte	.LVL124
 10662 1cf0 0600     		.2byte	0x6
 10663 1cf2 0C       		.byte	0xc
 10664 1cf3 80043240 		.4byte	0x40320480
 10665 1cf7 9F       		.byte	0x9f
 10666 1cf8 00000000 		.4byte	0
 10667 1cfc 00000000 		.4byte	0
 10668              	.LLST363:
 10669 1d00 80010000 		.4byte	.LVL124
 10670 1d04 84010000 		.4byte	.LVL125
 10671 1d08 0200     		.2byte	0x2
 10672 1d0a 31       		.byte	0x31
 10673 1d0b 9F       		.byte	0x9f
 10674 1d0c 00000000 		.4byte	0
 10675 1d10 00000000 		.4byte	0
 10676              	.LLST364:
 10677 1d14 80010000 		.4byte	.LVL124
 10678 1d18 84010000 		.4byte	.LVL125
 10679 1d1c 0200     		.2byte	0x2
 10680 1d1e 36       		.byte	0x36
 10681 1d1f 9F       		.byte	0x9f
 10682 1d20 00000000 		.4byte	0
 10683 1d24 00000000 		.4byte	0
 10684              	.LLST365:
 10685 1d28 80010000 		.4byte	.LVL124
 10686 1d2c 84010000 		.4byte	.LVL125
 10687 1d30 0600     		.2byte	0x6
 10688 1d32 0C       		.byte	0xc
 10689 1d33 80043240 		.4byte	0x40320480
 10690 1d37 9F       		.byte	0x9f
 10691 1d38 00000000 		.4byte	0
 10692 1d3c 00000000 		.4byte	0
 10693              	.LLST366:
 10694 1d40 84010000 		.4byte	.LVL125
 10695 1d44 8C010000 		.4byte	.LVL126
 10696 1d48 0200     		.2byte	0x2
 10697 1d4a 31       		.byte	0x31
 10698 1d4b 9F       		.byte	0x9f
 10699 1d4c 00000000 		.4byte	0
 10700 1d50 00000000 		.4byte	0
 10701              	.LLST367:
 10702 1d54 84010000 		.4byte	.LVL125
 10703 1d58 8C010000 		.4byte	.LVL126
 10704 1d5c 0200     		.2byte	0x2
 10705 1d5e 32       		.byte	0x32
 10706 1d5f 9F       		.byte	0x9f
 10707 1d60 00000000 		.4byte	0
 10708 1d64 00000000 		.4byte	0
 10709              	.LLST368:
 10710 1d68 84010000 		.4byte	.LVL125
 10711 1d6c 8C010000 		.4byte	.LVL126
 10712 1d70 0600     		.2byte	0x6
 10713 1d72 0C       		.byte	0xc
 10714 1d73 00033240 		.4byte	0x40320300
ARM GAS  C:\Users\dmula\AppData\Local\Temp\ccXnnfAd.s 			page 230


 10715 1d77 9F       		.byte	0x9f
 10716 1d78 00000000 		.4byte	0
 10717 1d7c 00000000 		.4byte	0
 10718              	.LLST369:
 10719 1d80 8C010000 		.4byte	.LVL126
 10720 1d84 92010000 		.4byte	.LVL127
 10721 1d88 0200     		.2byte	0x2
 10722 1d8a 31       		.byte	0x31
 10723 1d8b 9F       		.byte	0x9f
 10724 1d8c 00000000 		.4byte	0
 10725 1d90 00000000 		.4byte	0
 10726              	.LLST370:
 10727 1d94 8C010000 		.4byte	.LVL126
 10728 1d98 92010000 		.4byte	.LVL127
 10729 1d9c 0200     		.2byte	0x2
 10730 1d9e 33       		.byte	0x33
 10731 1d9f 9F       		.byte	0x9f
 10732 1da0 00000000 		.4byte	0
 10733 1da4 00000000 		.4byte	0
 10734              	.LLST371:
 10735 1da8 8C010000 		.4byte	.LVL126
 10736 1dac 92010000 		.4byte	.LVL127
 10737 1db0 0600     		.2byte	0x6
 10738 1db2 0C       		.byte	0xc
 10739 1db3 00033240 		.4byte	0x40320300
 10740 1db7 9F       		.byte	0x9f
 10741 1db8 00000000 		.4byte	0
 10742 1dbc 00000000 		.4byte	0
 10743              	.LLST372:
 10744 1dc0 92010000 		.4byte	.LVL127
 10745 1dc4 98010000 		.4byte	.LVL128
 10746 1dc8 0200     		.2byte	0x2
 10747 1dca 31       		.byte	0x31
 10748 1dcb 9F       		.byte	0x9f
 10749 1dcc 00000000 		.4byte	0
 10750 1dd0 00000000 		.4byte	0
 10751              	.LLST373:
 10752 1dd4 92010000 		.4byte	.LVL127
 10753 1dd8 98010000 		.4byte	.LVL128
 10754 1ddc 0200     		.2byte	0x2
 10755 1dde 35       		.byte	0x35
 10756 1ddf 9F       		.byte	0x9f
 10757 1de0 00000000 		.4byte	0
 10758 1de4 00000000 		.4byte	0
 10759              	.LLST374:
 10760 1de8 92010000 		.4byte	.LVL127
 10761 1dec 98010000 		.4byte	.LVL128
 10762 1df0 0600     		.2byte	0x6
 10763 1df2 0C       		.byte	0xc
 10764 1df3 80043240 		.4byte	0x40320480
 10765 1df7 9F       		.byte	0x9f
 10766 1df8 00000000 		.4byte	0
 10767 1dfc 00000000 		.4byte	0
 10768              	.LLST375:
 10769 1e00 98010000 		.4byte	.LVL128
 10770 1e04 9C010000 		.4byte	.LVL129
 10771 1e08 0200     		.2byte	0x2
ARM GAS  C:\Users\dmula\AppData\Local\Temp\ccXnnfAd.s 			page 231


 10772 1e0a 31       		.byte	0x31
 10773 1e0b 9F       		.byte	0x9f
 10774 1e0c 00000000 		.4byte	0
 10775 1e10 00000000 		.4byte	0
 10776              	.LLST376:
 10777 1e14 98010000 		.4byte	.LVL128
 10778 1e18 9C010000 		.4byte	.LVL129
 10779 1e1c 0200     		.2byte	0x2
 10780 1e1e 36       		.byte	0x36
 10781 1e1f 9F       		.byte	0x9f
 10782 1e20 00000000 		.4byte	0
 10783 1e24 00000000 		.4byte	0
 10784              	.LLST377:
 10785 1e28 98010000 		.4byte	.LVL128
 10786 1e2c 9C010000 		.4byte	.LVL129
 10787 1e30 0600     		.2byte	0x6
 10788 1e32 0C       		.byte	0xc
 10789 1e33 80043240 		.4byte	0x40320480
 10790 1e37 9F       		.byte	0x9f
 10791 1e38 00000000 		.4byte	0
 10792 1e3c 00000000 		.4byte	0
 10793              	.LLST378:
 10794 1e40 9C010000 		.4byte	.LVL129
 10795 1e44 A4010000 		.4byte	.LVL130
 10796 1e48 0200     		.2byte	0x2
 10797 1e4a 31       		.byte	0x31
 10798 1e4b 9F       		.byte	0x9f
 10799 1e4c 00000000 		.4byte	0
 10800 1e50 00000000 		.4byte	0
 10801              	.LLST379:
 10802 1e54 9C010000 		.4byte	.LVL129
 10803 1e58 A4010000 		.4byte	.LVL130
 10804 1e5c 0200     		.2byte	0x2
 10805 1e5e 32       		.byte	0x32
 10806 1e5f 9F       		.byte	0x9f
 10807 1e60 00000000 		.4byte	0
 10808 1e64 00000000 		.4byte	0
 10809              	.LLST380:
 10810 1e68 9C010000 		.4byte	.LVL129
 10811 1e6c A4010000 		.4byte	.LVL130
 10812 1e70 0600     		.2byte	0x6
 10813 1e72 0C       		.byte	0xc
 10814 1e73 00033240 		.4byte	0x40320300
 10815 1e77 9F       		.byte	0x9f
 10816 1e78 00000000 		.4byte	0
 10817 1e7c 00000000 		.4byte	0
 10818              	.LLST381:
 10819 1e80 A4010000 		.4byte	.LVL130
 10820 1e84 A8010000 		.4byte	.LVL131
 10821 1e88 0200     		.2byte	0x2
 10822 1e8a 31       		.byte	0x31
 10823 1e8b 9F       		.byte	0x9f
 10824 1e8c 00000000 		.4byte	0
 10825 1e90 00000000 		.4byte	0
 10826              	.LLST382:
 10827 1e94 A4010000 		.4byte	.LVL130
 10828 1e98 A8010000 		.4byte	.LVL131
ARM GAS  C:\Users\dmula\AppData\Local\Temp\ccXnnfAd.s 			page 232


 10829 1e9c 0200     		.2byte	0x2
 10830 1e9e 33       		.byte	0x33
 10831 1e9f 9F       		.byte	0x9f
 10832 1ea0 00000000 		.4byte	0
 10833 1ea4 00000000 		.4byte	0
 10834              	.LLST383:
 10835 1ea8 A4010000 		.4byte	.LVL130
 10836 1eac A8010000 		.4byte	.LVL131
 10837 1eb0 0600     		.2byte	0x6
 10838 1eb2 0C       		.byte	0xc
 10839 1eb3 00033240 		.4byte	0x40320300
 10840 1eb7 9F       		.byte	0x9f
 10841 1eb8 00000000 		.4byte	0
 10842 1ebc 00000000 		.4byte	0
 10843              	.LLST384:
 10844 1ec0 00000000 		.4byte	.LVL132
 10845 1ec4 08000000 		.4byte	.LVL133
 10846 1ec8 0200     		.2byte	0x2
 10847 1eca 30       		.byte	0x30
 10848 1ecb 9F       		.byte	0x9f
 10849 1ecc 00000000 		.4byte	0
 10850 1ed0 00000000 		.4byte	0
 10851              	.LLST385:
 10852 1ed4 00000000 		.4byte	.LVL132
 10853 1ed8 08000000 		.4byte	.LVL133
 10854 1edc 0600     		.2byte	0x6
 10855 1ede 0C       		.byte	0xc
 10856 1edf 80043240 		.4byte	0x40320480
 10857 1ee3 9F       		.byte	0x9f
 10858 1ee4 00000000 		.4byte	0
 10859 1ee8 00000000 		.4byte	0
 10860              	.LLST386:
 10861 1eec 0C000000 		.4byte	.LVL134
 10862 1ef0 12000000 		.4byte	.LVL135
 10863 1ef4 0200     		.2byte	0x2
 10864 1ef6 31       		.byte	0x31
 10865 1ef7 9F       		.byte	0x9f
 10866 1ef8 00000000 		.4byte	0
 10867 1efc 00000000 		.4byte	0
 10868              	.LLST387:
 10869 1f00 0C000000 		.4byte	.LVL134
 10870 1f04 12000000 		.4byte	.LVL135
 10871 1f08 0600     		.2byte	0x6
 10872 1f0a 0C       		.byte	0xc
 10873 1f0b 80043240 		.4byte	0x40320480
 10874 1f0f 9F       		.byte	0x9f
 10875 1f10 00000000 		.4byte	0
 10876 1f14 00000000 		.4byte	0
 10877              	.LLST388:
 10878 1f18 14000000 		.4byte	.LVL136
 10879 1f1c 1A000000 		.4byte	.LVL137
 10880 1f20 0200     		.2byte	0x2
 10881 1f22 32       		.byte	0x32
 10882 1f23 9F       		.byte	0x9f
 10883 1f24 00000000 		.4byte	0
 10884 1f28 00000000 		.4byte	0
 10885              	.LLST389:
ARM GAS  C:\Users\dmula\AppData\Local\Temp\ccXnnfAd.s 			page 233


 10886 1f2c 14000000 		.4byte	.LVL136
 10887 1f30 1A000000 		.4byte	.LVL137
 10888 1f34 0600     		.2byte	0x6
 10889 1f36 0C       		.byte	0xc
 10890 1f37 80043240 		.4byte	0x40320480
 10891 1f3b 9F       		.byte	0x9f
 10892 1f3c 00000000 		.4byte	0
 10893 1f40 00000000 		.4byte	0
 10894              	.LLST390:
 10895 1f44 1C000000 		.4byte	.LVL138
 10896 1f48 22000000 		.4byte	.LVL139
 10897 1f4c 0200     		.2byte	0x2
 10898 1f4e 33       		.byte	0x33
 10899 1f4f 9F       		.byte	0x9f
 10900 1f50 00000000 		.4byte	0
 10901 1f54 00000000 		.4byte	0
 10902              	.LLST391:
 10903 1f58 1C000000 		.4byte	.LVL138
 10904 1f5c 22000000 		.4byte	.LVL139
 10905 1f60 0600     		.2byte	0x6
 10906 1f62 0C       		.byte	0xc
 10907 1f63 80043240 		.4byte	0x40320480
 10908 1f67 9F       		.byte	0x9f
 10909 1f68 00000000 		.4byte	0
 10910 1f6c 00000000 		.4byte	0
 10911              	.LLST392:
 10912 1f70 24000000 		.4byte	.LVL140
 10913 1f74 2A000000 		.4byte	.LVL141
 10914 1f78 0200     		.2byte	0x2
 10915 1f7a 30       		.byte	0x30
 10916 1f7b 9F       		.byte	0x9f
 10917 1f7c 00000000 		.4byte	0
 10918 1f80 00000000 		.4byte	0
 10919              	.LLST393:
 10920 1f84 24000000 		.4byte	.LVL140
 10921 1f88 2A000000 		.4byte	.LVL141
 10922 1f8c 0600     		.2byte	0x6
 10923 1f8e 0C       		.byte	0xc
 10924 1f8f 80043240 		.4byte	0x40320480
 10925 1f93 9F       		.byte	0x9f
 10926 1f94 00000000 		.4byte	0
 10927 1f98 00000000 		.4byte	0
 10928              	.LLST394:
 10929 1f9c 2E000000 		.4byte	.LVL142
 10930 1fa0 34000000 		.4byte	.LVL143
 10931 1fa4 0200     		.2byte	0x2
 10932 1fa6 31       		.byte	0x31
 10933 1fa7 9F       		.byte	0x9f
 10934 1fa8 00000000 		.4byte	0
 10935 1fac 00000000 		.4byte	0
 10936              	.LLST395:
 10937 1fb0 2E000000 		.4byte	.LVL142
 10938 1fb4 34000000 		.4byte	.LVL143
 10939 1fb8 0600     		.2byte	0x6
 10940 1fba 0C       		.byte	0xc
 10941 1fbb 80043240 		.4byte	0x40320480
 10942 1fbf 9F       		.byte	0x9f
ARM GAS  C:\Users\dmula\AppData\Local\Temp\ccXnnfAd.s 			page 234


 10943 1fc0 00000000 		.4byte	0
 10944 1fc4 00000000 		.4byte	0
 10945              	.LLST396:
 10946 1fc8 36000000 		.4byte	.LVL144
 10947 1fcc 3E000000 		.4byte	.LVL145
 10948 1fd0 0200     		.2byte	0x2
 10949 1fd2 32       		.byte	0x32
 10950 1fd3 9F       		.byte	0x9f
 10951 1fd4 00000000 		.4byte	0
 10952 1fd8 00000000 		.4byte	0
 10953              	.LLST397:
 10954 1fdc 36000000 		.4byte	.LVL144
 10955 1fe0 3E000000 		.4byte	.LVL145
 10956 1fe4 0600     		.2byte	0x6
 10957 1fe6 0C       		.byte	0xc
 10958 1fe7 00033240 		.4byte	0x40320300
 10959 1feb 9F       		.byte	0x9f
 10960 1fec 00000000 		.4byte	0
 10961 1ff0 00000000 		.4byte	0
 10962              	.LLST398:
 10963 1ff4 40000000 		.4byte	.LVL146
 10964 1ff8 46000000 		.4byte	.LVL147
 10965 1ffc 0200     		.2byte	0x2
 10966 1ffe 33       		.byte	0x33
 10967 1fff 9F       		.byte	0x9f
 10968 2000 00000000 		.4byte	0
 10969 2004 00000000 		.4byte	0
 10970              	.LLST399:
 10971 2008 40000000 		.4byte	.LVL146
 10972 200c 46000000 		.4byte	.LVL147
 10973 2010 0600     		.2byte	0x6
 10974 2012 0C       		.byte	0xc
 10975 2013 00033240 		.4byte	0x40320300
 10976 2017 9F       		.byte	0x9f
 10977 2018 00000000 		.4byte	0
 10978 201c 00000000 		.4byte	0
 10979              	.LLST400:
 10980 2020 9A000000 		.4byte	.LVL167
 10981 2024 A2000000 		.4byte	.LVL168
 10982 2028 0700     		.2byte	0x7
 10983 202a 70       		.byte	0x70
 10984 202b 00       		.sleb128 0
 10985 202c F7       		.byte	0xf7
 10986 202d 25       		.uleb128 0x25
 10987 202e F7       		.byte	0xf7
 10988 202f 2C       		.uleb128 0x2c
 10989 2030 9F       		.byte	0x9f
 10990 2031 A2000000 		.4byte	.LVL168
 10991 2035 A9000000 		.4byte	.LVL169-1
 10992 2039 0200     		.2byte	0x2
 10993 203b 90       		.byte	0x90
 10994 203c 4F       		.uleb128 0x4f
 10995 203d 00000000 		.4byte	0
 10996 2041 00000000 		.4byte	0
 10997              	.LLST401:
 10998 2045 2C000000 		.4byte	.LVL153
 10999 2049 30000000 		.4byte	.LVL154
ARM GAS  C:\Users\dmula\AppData\Local\Temp\ccXnnfAd.s 			page 235


 11000 204d 0200     		.2byte	0x2
 11001 204f 34       		.byte	0x34
 11002 2050 9F       		.byte	0x9f
 11003 2051 00000000 		.4byte	0
 11004 2055 00000000 		.4byte	0
 11005              	.LLST402:
 11006 2059 2C000000 		.4byte	.LVL153
 11007 205d 30000000 		.4byte	.LVL154
 11008 2061 0600     		.2byte	0x6
 11009 2063 0C       		.byte	0xc
 11010 2064 00003240 		.4byte	0x40320000
 11011 2068 9F       		.byte	0x9f
 11012 2069 00000000 		.4byte	0
 11013 206d 00000000 		.4byte	0
 11014              	.LLST403:
 11015 2071 4C000000 		.4byte	.LVL157
 11016 2075 50000000 		.4byte	.LVL158
 11017 2079 0200     		.2byte	0x2
 11018 207b 30       		.byte	0x30
 11019 207c 9F       		.byte	0x9f
 11020 207d 50000000 		.4byte	.LVL158
 11021 2081 F4000000 		.4byte	.LFE532
 11022 2085 0100     		.2byte	0x1
 11023 2087 55       		.byte	0x55
 11024 2088 00000000 		.4byte	0
 11025 208c 00000000 		.4byte	0
 11026              	.LLST404:
 11027 2090 5C000000 		.4byte	.LVL160
 11028 2094 60000000 		.4byte	.LVL161
 11029 2098 0200     		.2byte	0x2
 11030 209a 30       		.byte	0x30
 11031 209b 9F       		.byte	0x9f
 11032 209c 60000000 		.4byte	.LVL161
 11033 20a0 C0000000 		.4byte	.LVL172
 11034 20a4 0100     		.2byte	0x1
 11035 20a6 54       		.byte	0x54
 11036 20a7 00000000 		.4byte	0
 11037 20ab 00000000 		.4byte	0
 11038              	.LLST405:
 11039 20af 76000000 		.4byte	.LVL165
 11040 20b3 9A000000 		.4byte	.LVL167
 11041 20b7 0200     		.2byte	0x2
 11042 20b9 30       		.byte	0x30
 11043 20ba 9F       		.byte	0x9f
 11044 20bb 00000000 		.4byte	0
 11045 20bf 00000000 		.4byte	0
 11046              		.section	.debug_aranges,"",%progbits
 11047 0000 34000000 		.4byte	0x34
 11048 0004 0200     		.2byte	0x2
 11049 0006 00000000 		.4byte	.Ldebug_info0
 11050 000a 04       		.byte	0x4
 11051 000b 00       		.byte	0
 11052 000c 0000     		.2byte	0
 11053 000e 0000     		.2byte	0
 11054 0010 00000000 		.4byte	.LFB529
 11055 0014 60010000 		.4byte	.LFE529-.LFB529
 11056 0018 00000000 		.4byte	.LFB530
ARM GAS  C:\Users\dmula\AppData\Local\Temp\ccXnnfAd.s 			page 236


 11057 001c B0010000 		.4byte	.LFE530-.LFB530
 11058 0020 00000000 		.4byte	.LFB531
 11059 0024 5C000000 		.4byte	.LFE531-.LFB531
 11060 0028 00000000 		.4byte	.LFB532
 11061 002c F4000000 		.4byte	.LFE532-.LFB532
 11062 0030 00000000 		.4byte	0
 11063 0034 00000000 		.4byte	0
 11064              		.section	.debug_ranges,"",%progbits
 11065              	.Ldebug_ranges0:
 11066 0000 00000000 		.4byte	.LFB529
 11067 0004 60010000 		.4byte	.LFE529
 11068 0008 00000000 		.4byte	.LFB530
 11069 000c B0010000 		.4byte	.LFE530
 11070 0010 00000000 		.4byte	.LFB531
 11071 0014 5C000000 		.4byte	.LFE531
 11072 0018 00000000 		.4byte	.LFB532
 11073 001c F4000000 		.4byte	.LFE532
 11074 0020 00000000 		.4byte	0
 11075 0024 00000000 		.4byte	0
 11076              		.section	.debug_line,"",%progbits
 11077              	.Ldebug_line0:
 11078 0000 DF050000 		.section	.debug_str,"MS",%progbits,1
 11078      02008604 
 11078      00000201 
 11078      FB0E0D00 
 11078      01010101 
 11079              	.LASF238:
 11080 0000 5F666C6F 		.ascii	"_flock_t\000"
 11080      636B5F74 
 11080      00
 11081              	.LASF32:
 11082 0009 52455345 		.ascii	"RESERVED\000"
 11082      52564544 
 11082      00
 11083              	.LASF40:
 11084 0012 5644445F 		.ascii	"VDD_ACTIVE\000"
 11084      41435449 
 11084      564500
 11085              	.LASF36:
 11086 001d 494E5452 		.ascii	"INTR_CAUSE0\000"
 11086      5F434155 
 11086      53453000 
 11087              	.LASF37:
 11088 0029 494E5452 		.ascii	"INTR_CAUSE1\000"
 11088      5F434155 
 11088      53453100 
 11089              	.LASF38:
 11090 0035 494E5452 		.ascii	"INTR_CAUSE2\000"
 11090      5F434155 
 11090      53453200 
 11091              	.LASF39:
 11092 0041 494E5452 		.ascii	"INTR_CAUSE3\000"
 11092      5F434155 
 11092      53453300 
 11093              	.LASF60:
 11094 004d 4348414E 		.ascii	"CHAN_WORK_UPDATED\000"
 11094      5F574F52 
ARM GAS  C:\Users\dmula\AppData\Local\Temp\ccXnnfAd.s 			page 237


 11094      4B5F5550 
 11094      44415445 
 11094      4400
 11095              	.LASF240:
 11096 005f 63795F73 		.ascii	"cy_stc_scb_uart_context\000"
 11096      74635F73 
 11096      63625F75 
 11096      6172745F 
 11096      636F6E74 
 11097              	.LASF366:
 11098 0077 6D61696E 		.ascii	"main_cm4.c\000"
 11098      5F636D34 
 11098      2E6300
 11099              	.LASF349:
 11100 0082 63795F64 		.ascii	"cy_device\000"
 11100      65766963 
 11100      6500
 11101              	.LASF344:
 11102 008c 6368616E 		.ascii	"chan\000"
 11102      00
 11103              	.LASF364:
 11104 0091 73657476 		.ascii	"setvbuf\000"
 11104      62756600 
 11105              	.LASF165:
 11106 0099 63707573 		.ascii	"cpussCm0ClockCtlOffset\000"
 11106      73436D30 
 11106      436C6F63 
 11106      6B43746C 
 11106      4F666673 
 11107              	.LASF124:
 11108 00b0 70657269 		.ascii	"periClockNr\000"
 11108      436C6F63 
 11108      6B4E7200 
 11109              	.LASF199:
 11110 00bc 696E7472 		.ascii	"intrMask\000"
 11110      4D61736B 
 11110      00
 11111              	.LASF285:
 11112 00c5 5F657272 		.ascii	"_errno\000"
 11112      6E6F00
 11113              	.LASF256:
 11114 00cc 5F6F6E5F 		.ascii	"_on_exit_args\000"
 11114      65786974 
 11114      5F617267 
 11114      7300
 11115              	.LASF98:
 11116 00da 75646242 		.ascii	"udbBase\000"
 11116      61736500 
 11117              	.LASF273:
 11118 00e2 5F777269 		.ascii	"_write\000"
 11118      746500
 11119              	.LASF52:
 11120 00e9 4348414E 		.ascii	"CHAN_EN\000"
 11120      5F454E00 
 11121              	.LASF208:
 11122 00f1 74785374 		.ascii	"txStatus\000"
 11122      61747573 
ARM GAS  C:\Users\dmula\AppData\Local\Temp\ccXnnfAd.s 			page 238


 11122      00
 11123              	.LASF97:
 11124 00fa 70657269 		.ascii	"periBase\000"
 11124      42617365 
 11124      00
 11125              	.LASF323:
 11126 0103 5F776374 		.ascii	"_wctomb_state\000"
 11126      6F6D625F 
 11126      73746174 
 11126      6500
 11127              	.LASF320:
 11128 0111 5F723438 		.ascii	"_r48\000"
 11128      00
 11129              	.LASF143:
 11130 0116 64774368 		.ascii	"dwChSize\000"
 11130      53697A65 
 11130      00
 11131              	.LASF70:
 11132 011f 52414E47 		.ascii	"RANGE_INTR_MASK\000"
 11132      455F494E 
 11132      54525F4D 
 11132      41534B00 
 11133              	.LASF247:
 11134 012f 5F5F746D 		.ascii	"__tm_sec\000"
 11134      5F736563 
 11134      00
 11135              	.LASF325:
 11136 0138 5F736967 		.ascii	"_signal_buf\000"
 11136      6E616C5F 
 11136      62756600 
 11137              	.LASF340:
 11138 0144 43795F47 		.ascii	"Cy_GPIO_Read\000"
 11138      50494F5F 
 11138      52656164 
 11138      00
 11139              	.LASF362:
 11140 0151 4144435F 		.ascii	"ADC_1_Init\000"
 11140      315F496E 
 11140      697400
 11141              	.LASF72:
 11142 015c 494E5452 		.ascii	"INTR_CAUSE\000"
 11142      5F434155 
 11142      534500
 11143              	.LASF125:
 11144 0167 736D6966 		.ascii	"smifDeviceNr\000"
 11144      44657669 
 11144      63654E72 
 11144      00
 11145              	.LASF189:
 11146 0174 43595F53 		.ascii	"CY_SAR_RANGE_COND_OUTSIDE\000"
 11146      41525F52 
 11146      414E4745 
 11146      5F434F4E 
 11146      445F4F55 
 11147              	.LASF155:
 11148 018e 70657269 		.ascii	"periDivCmdPaTypeSelPos\000"
 11148      44697643 
ARM GAS  C:\Users\dmula\AppData\Local\Temp\ccXnnfAd.s 			page 239


 11148      6D645061 
 11148      54797065 
 11148      53656C50 
 11149              	.LASF270:
 11150 01a5 5F6C6266 		.ascii	"_lbfsize\000"
 11150      73697A65 
 11150      00
 11151              	.LASF268:
 11152 01ae 5F666C61 		.ascii	"_flags\000"
 11152      677300
 11153              	.LASF8:
 11154 01b5 5F5F696E 		.ascii	"__int32_t\000"
 11154      7433325F 
 11154      7400
 11155              	.LASF62:
 11156 01bf 4348414E 		.ascii	"CHAN_WORK_NEWVALUE\000"
 11156      5F574F52 
 11156      4B5F4E45 
 11156      5756414C 
 11156      554500
 11157              	.LASF230:
 11158 01d2 5F6F6666 		.ascii	"_off_t\000"
 11158      5F7400
 11159              	.LASF95:
 11160 01d9 63707573 		.ascii	"cpussBase\000"
 11160      73426173 
 11160      6500
 11161              	.LASF360:
 11162 01e3 4144435F 		.ascii	"ADC_1_IsEndConversion\000"
 11162      315F4973 
 11162      456E6443 
 11162      6F6E7665 
 11162      7273696F 
 11163              	.LASF119:
 11164 01f9 63707573 		.ascii	"cpussFmIrq\000"
 11164      73466D49 
 11164      727100
 11165              	.LASF225:
 11166 0204 6877436F 		.ascii	"hwConfigStc\000"
 11166      6E666967 
 11166      53746300 
 11167              	.LASF293:
 11168 0210 5F5F7364 		.ascii	"__sdidinit\000"
 11168      6964696E 
 11168      697400
 11169              	.LASF359:
 11170 021b 4144435F 		.ascii	"ADC_1_StartConvert\000"
 11170      315F5374 
 11170      61727443 
 11170      6F6E7665 
 11170      727400
 11171              	.LASF1:
 11172 022e 73686F72 		.ascii	"short int\000"
 11172      7420696E 
 11172      7400
 11173              	.LASF211:
 11174 0238 72785269 		.ascii	"rxRingBufSize\000"
ARM GAS  C:\Users\dmula\AppData\Local\Temp\ccXnnfAd.s 			page 240


 11174      6E674275 
 11174      6653697A 
 11174      6500
 11175              	.LASF64:
 11176 0246 53415455 		.ascii	"SATURATE_INTR\000"
 11176      52415445 
 11176      5F494E54 
 11176      5200
 11177              	.LASF14:
 11178 0254 756E7369 		.ascii	"unsigned int\000"
 11178      676E6564 
 11178      20696E74 
 11178      00
 11179              	.LASF229:
 11180 0261 5F4C4F43 		.ascii	"_LOCK_RECURSIVE_T\000"
 11180      4B5F5245 
 11180      43555253 
 11180      4956455F 
 11180      5400
 11181              	.LASF48:
 11182 0273 53414D50 		.ascii	"SAMPLE_TIME01\000"
 11182      4C455F54 
 11182      494D4530 
 11182      3100
 11183              	.LASF76:
 11184 0281 494E4A5F 		.ascii	"INJ_RESULT\000"
 11184      52455355 
 11184      4C5400
 11185              	.LASF154:
 11186 028c 70657269 		.ascii	"periDivCmdPaDivSelPos\000"
 11186      44697643 
 11186      6D645061 
 11186      44697653 
 11186      656C506F 
 11187              	.LASF272:
 11188 02a2 5F726561 		.ascii	"_read\000"
 11188      6400
 11189              	.LASF27:
 11190 02a8 494E5452 		.ascii	"INTR_SET\000"
 11190      5F534554 
 11190      00
 11191              	.LASF131:
 11192 02b1 63727970 		.ascii	"cryptoMemSize\000"
 11192      746F4D65 
 11192      6D53697A 
 11192      6500
 11193              	.LASF327:
 11194 02bf 5F6D6272 		.ascii	"_mbrlen_state\000"
 11194      6C656E5F 
 11194      73746174 
 11194      6500
 11195              	.LASF177:
 11196 02cd 63707573 		.ascii	"cpussRam1Ctl0\000"
 11196      7352616D 
 11196      3143746C 
 11196      3000
 11197              	.LASF151:
ARM GAS  C:\Users\dmula\AppData\Local\Temp\ccXnnfAd.s 			page 241


 11198 02db 70657269 		.ascii	"periTrGrSize\000"
 11198      54724772 
 11198      53697A65 
 11198      00
 11199              	.LASF122:
 11200 02e8 73727373 		.ascii	"srssNumPll\000"
 11200      4E756D50 
 11200      6C6C00
 11201              	.LASF179:
 11202 02f3 69706353 		.ascii	"ipcStructSize\000"
 11202      74727563 
 11202      7453697A 
 11202      6500
 11203              	.LASF345:
 11204 0301 61637475 		.ascii	"actualValue\000"
 11204      616C5661 
 11204      6C756500 
 11205              	.LASF314:
 11206 030d 5F756E75 		.ascii	"_unused_rand\000"
 11206      7365645F 
 11206      72616E64 
 11206      00
 11207              	.LASF287:
 11208 031a 5F737464 		.ascii	"_stdout\000"
 11208      6F757400 
 11209              	.LASF365:
 11210 0322 474E5520 		.ascii	"GNU C11 5.4.1 20160609 (release) [ARM/embedded-5-br"
 11210      43313120 
 11210      352E342E 
 11210      31203230 
 11210      31363036 
 11211 0355 616E6368 		.ascii	"anch revision 237715] -mcpu=cortex-m4 -mfloat-abi=s"
 11211      20726576 
 11211      6973696F 
 11211      6E203233 
 11211      37373135 
 11212 0388 6F667466 		.ascii	"oftfp -mfpu=fpv4-sp-d16 -mthumb -g -Og -ffunction-s"
 11212      70202D6D 
 11212      6670753D 
 11212      66707634 
 11212      2D73702D 
 11213 03bb 65637469 		.ascii	"ections -ffat-lto-objects\000"
 11213      6F6E7320 
 11213      2D666661 
 11213      742D6C74 
 11213      6F2D6F62 
 11214              	.LASF113:
 11215 03d5 70726F74 		.ascii	"protVersion\000"
 11215      56657273 
 11215      696F6E00 
 11216              	.LASF186:
 11217 03e1 43595F53 		.ascii	"CY_SAR_RANGE_COND_BELOW\000"
 11217      41525F52 
 11217      414E4745 
 11217      5F434F4E 
 11217      445F4245 
 11218              	.LASF231:
ARM GAS  C:\Users\dmula\AppData\Local\Temp\ccXnnfAd.s 			page 242


 11219 03f9 5F66706F 		.ascii	"_fpos_t\000"
 11219      735F7400 
 11220              	.LASF353:
 11221 0401 5F696D70 		.ascii	"_impure_ptr\000"
 11221      7572655F 
 11221      70747200 
 11222              	.LASF263:
 11223 040d 5F666E73 		.ascii	"_fns\000"
 11223      00
 11224              	.LASF271:
 11225 0412 5F636F6F 		.ascii	"_cookie\000"
 11225      6B696500 
 11226              	.LASF153:
 11227 041a 70657269 		.ascii	"periDivCmdTypeSelPos\000"
 11227      44697643 
 11227      6D645479 
 11227      70655365 
 11227      6C506F73 
 11228              	.LASF170:
 11229 042f 63707573 		.ascii	"cpussTrimRamCtlOffset\000"
 11229      73547269 
 11229      6D52616D 
 11229      43746C4F 
 11229      66667365 
 11230              	.LASF29:
 11231 0445 4346475F 		.ascii	"CFG_IN\000"
 11231      494E00
 11232              	.LASF241:
 11233 044c 5F426967 		.ascii	"_Bigint\000"
 11233      696E7400 
 11234              	.LASF253:
 11235 0454 5F5F746D 		.ascii	"__tm_wday\000"
 11235      5F776461 
 11235      7900
 11236              	.LASF342:
 11237 045e 636F6C75 		.ascii	"columnselect\000"
 11237      6D6E7365 
 11237      6C656374 
 11237      00
 11238              	.LASF232:
 11239 046b 77696E74 		.ascii	"wint_t\000"
 11239      5F7400
 11240              	.LASF295:
 11241 0472 5F726573 		.ascii	"_result\000"
 11241      756C7400 
 11242              	.LASF19:
 11243 047a 75696E74 		.ascii	"uint32_t\000"
 11243      33325F74 
 11243      00
 11244              	.LASF249:
 11245 0483 5F5F746D 		.ascii	"__tm_hour\000"
 11245      5F686F75 
 11245      7200
 11246              	.LASF45:
 11247 048d 4750494F 		.ascii	"GPIO_V1_Type\000"
 11247      5F56315F 
 11247      54797065 
ARM GAS  C:\Users\dmula\AppData\Local\Temp\ccXnnfAd.s 			page 243


 11247      00
 11248              	.LASF163:
 11249 049a 6770696F 		.ascii	"gpioPrtCfgOutOffset\000"
 11249      50727443 
 11249      66674F75 
 11249      744F6666 
 11249      73657400 
 11250              	.LASF235:
 11251 04ae 5F5F636F 		.ascii	"__count\000"
 11251      756E7400 
 11252              	.LASF13:
 11253 04b6 6C6F6E67 		.ascii	"long long unsigned int\000"
 11253      206C6F6E 
 11253      6720756E 
 11253      7369676E 
 11253      65642069 
 11254              	.LASF0:
 11255 04cd 666C6F61 		.ascii	"float\000"
 11255      7400
 11256              	.LASF106:
 11257 04d3 63727970 		.ascii	"cryptoVersion\000"
 11257      746F5665 
 11257      7273696F 
 11257      6E00
 11258              	.LASF310:
 11259 04e1 5F72616E 		.ascii	"_rand48\000"
 11259      64343800 
 11260              	.LASF222:
 11261 04e9 63795F73 		.ascii	"cy_stc_scb_uart_context_t\000"
 11261      74635F73 
 11261      63625F75 
 11261      6172745F 
 11261      636F6E74 
 11262              	.LASF135:
 11263 0503 666C6173 		.ascii	"flashProgramDelay\000"
 11263      6850726F 
 11263      6772616D 
 11263      44656C61 
 11263      7900
 11264              	.LASF336:
 11265 0515 62617365 		.ascii	"base\000"
 11265      00
 11266              	.LASF333:
 11267 051a 5F6E6578 		.ascii	"_nextf\000"
 11267      746600
 11268              	.LASF21:
 11269 0521 4F55545F 		.ascii	"OUT_CLR\000"
 11269      434C5200 
 11270              	.LASF96:
 11271 0529 666C6173 		.ascii	"flashcBase\000"
 11271      68634261 
 11271      736500
 11272              	.LASF16:
 11273 0534 696E7431 		.ascii	"int16_t\000"
 11273      365F7400 
 11274              	.LASF329:
 11275 053c 5F6D6273 		.ascii	"_mbsrtowcs_state\000"
ARM GAS  C:\Users\dmula\AppData\Local\Temp\ccXnnfAd.s 			page 244


 11275      72746F77 
 11275      63735F73 
 11275      74617465 
 11275      00
 11276              	.LASF162:
 11277 054d 6770696F 		.ascii	"gpioPrtCfgInOffset\000"
 11277      50727443 
 11277      6667496E 
 11277      4F666673 
 11277      657400
 11278              	.LASF224:
 11279 0560 6E756D43 		.ascii	"numChannels\000"
 11279      68616E6E 
 11279      656C7300 
 11280              	.LASF361:
 11281 056c 55415254 		.ascii	"UART_Start\000"
 11281      5F537461 
 11281      727400
 11282              	.LASF159:
 11283 0577 70657269 		.ascii	"periDiv24_5CtlOffset\000"
 11283      44697632 
 11283      345F3543 
 11283      746C4F66 
 11283      66736574 
 11284              	.LASF164:
 11285 058c 6770696F 		.ascii	"gpioPrtCfgSioOffset\000"
 11285      50727443 
 11285      66675369 
 11285      6F4F6666 
 11285      73657400 
 11286              	.LASF368:
 11287 05a0 43795F47 		.ascii	"Cy_GPIO_Write\000"
 11287      50494F5F 
 11287      57726974 
 11287      6500
 11288              	.LASF267:
 11289 05ae 5F5F7346 		.ascii	"__sFILE\000"
 11289      494C4500 
 11290              	.LASF245:
 11291 05b6 5F776473 		.ascii	"_wds\000"
 11291      00
 11292              	.LASF197:
 11293 05bb 6368616E 		.ascii	"chanEn\000"
 11293      456E00
 11294              	.LASF49:
 11295 05c2 53414D50 		.ascii	"SAMPLE_TIME23\000"
 11295      4C455F54 
 11295      494D4532 
 11295      3300
 11296              	.LASF195:
 11297 05d0 72616E67 		.ascii	"rangeThres\000"
 11297      65546872 
 11297      657300
 11298              	.LASF299:
 11299 05db 5F637674 		.ascii	"_cvtlen\000"
 11299      6C656E00 
 11300              	.LASF306:
ARM GAS  C:\Users\dmula\AppData\Local\Temp\ccXnnfAd.s 			page 245


 11301 05e3 5F5F4649 		.ascii	"__FILE\000"
 11301      4C4500
 11302              	.LASF187:
 11303 05ea 43595F53 		.ascii	"CY_SAR_RANGE_COND_INSIDE\000"
 11303      41525F52 
 11303      414E4745 
 11303      5F434F4E 
 11303      445F494E 
 11304              	.LASF206:
 11305 0603 63795F73 		.ascii	"cy_stc_sar_config_t\000"
 11305      74635F73 
 11305      61725F63 
 11305      6F6E6669 
 11305      675F7400 
 11306              	.LASF191:
 11307 0617 6374726C 		.ascii	"ctrl\000"
 11307      00
 11308              	.LASF339:
 11309 061c 43795F47 		.ascii	"Cy_GPIO_ReadOut\000"
 11309      50494F5F 
 11309      52656164 
 11309      4F757400 
 11310              	.LASF338:
 11311 062c 76616C75 		.ascii	"value\000"
 11311      6500
 11312              	.LASF30:
 11313 0632 4346475F 		.ascii	"CFG_OUT\000"
 11313      4F555400 
 11314              	.LASF209:
 11315 063a 72785374 		.ascii	"rxStatus\000"
 11315      61747573 
 11315      00
 11316              	.LASF290:
 11317 0643 5F656D65 		.ascii	"_emergency\000"
 11317      7267656E 
 11317      637900
 11318              	.LASF140:
 11319 064e 666C6173 		.ascii	"flashCtlMainWs3Freq\000"
 11319      6843746C 
 11319      4D61696E 
 11319      57733346 
 11319      72657100 
 11320              	.LASF228:
 11321 0662 4144435F 		.ascii	"ADC_1_CONFIG_STRUCT\000"
 11321      315F434F 
 11321      4E464947 
 11321      5F535452 
 11321      55435400 
 11322              	.LASF93:
 11323 0676 5341525F 		.ascii	"SAR_Type\000"
 11323      54797065 
 11323      00
 11324              	.LASF22:
 11325 067f 4F55545F 		.ascii	"OUT_SET\000"
 11325      53455400 
 11326              	.LASF133:
 11327 0687 666C6173 		.ascii	"flashPipeRequired\000"
ARM GAS  C:\Users\dmula\AppData\Local\Temp\ccXnnfAd.s 			page 246


 11327      68506970 
 11327      65526571 
 11327      75697265 
 11327      6400
 11328              	.LASF220:
 11329 0699 63624576 		.ascii	"cbEvents\000"
 11329      656E7473 
 11329      00
 11330              	.LASF262:
 11331 06a2 5F696E64 		.ascii	"_ind\000"
 11331      00
 11332              	.LASF316:
 11333 06a7 5F617363 		.ascii	"_asctime_buf\000"
 11333      74696D65 
 11333      5F627566 
 11333      00
 11334              	.LASF184:
 11335 06b4 646F7562 		.ascii	"double\000"
 11335      6C6500
 11336              	.LASF312:
 11337 06bb 5F6D756C 		.ascii	"_mult\000"
 11337      7400
 11338              	.LASF363:
 11339 06c1 4144435F 		.ascii	"ADC_1_Start\000"
 11339      315F5374 
 11339      61727400 
 11340              	.LASF289:
 11341 06cd 5F696E63 		.ascii	"_inc\000"
 11341      00
 11342              	.LASF185:
 11343 06d2 5F426F6F 		.ascii	"_Bool\000"
 11343      6C00
 11344              	.LASF237:
 11345 06d8 5F6D6273 		.ascii	"_mbstate_t\000"
 11345      74617465 
 11345      5F7400
 11346              	.LASF90:
 11347 06e3 5341525F 		.ascii	"SAR_V1_Type\000"
 11347      56315F54 
 11347      79706500 
 11348              	.LASF51:
 11349 06ef 52414E47 		.ascii	"RANGE_COND\000"
 11349      455F434F 
 11349      4E4400
 11350              	.LASF137:
 11351 06fa 666C6173 		.ascii	"flashCtlMainWs0Freq\000"
 11351      6843746C 
 11351      4D61696E 
 11351      57733046 
 11351      72657100 
 11352              	.LASF41:
 11353 070e 5644445F 		.ascii	"VDD_INTR\000"
 11353      494E5452 
 11353      00
 11354              	.LASF101:
 11355 0717 6770696F 		.ascii	"gpioBase\000"
 11355      42617365 
ARM GAS  C:\Users\dmula\AppData\Local\Temp\ccXnnfAd.s 			page 247


 11355      00
 11356              	.LASF277:
 11357 0720 5F6E6275 		.ascii	"_nbuf\000"
 11357      6600
 11358              	.LASF254:
 11359 0726 5F5F746D 		.ascii	"__tm_yday\000"
 11359      5F796461 
 11359      7900
 11360              	.LASF172:
 11361 0730 63707573 		.ascii	"cpussSysTickCtlOffset\000"
 11361      73537973 
 11361      5469636B 
 11361      43746C4F 
 11361      66667365 
 11362              	.LASF24:
 11363 0746 494E5452 		.ascii	"INTR\000"
 11363      00
 11364              	.LASF91:
 11365 074b 4750494F 		.ascii	"GPIO_PRT_Type\000"
 11365      5F505254 
 11365      5F547970 
 11365      6500
 11366              	.LASF236:
 11367 0759 5F5F7661 		.ascii	"__value\000"
 11367      6C756500 
 11368              	.LASF146:
 11369 0761 64775374 		.ascii	"dwStatusChIdxPos\000"
 11369      61747573 
 11369      43684964 
 11369      78506F73 
 11369      00
 11370              	.LASF6:
 11371 0772 5F5F7569 		.ascii	"__uint16_t\000"
 11371      6E743136 
 11371      5F7400
 11372              	.LASF114:
 11373 077d 63707573 		.ascii	"cpussIpcNr\000"
 11373      73497063 
 11373      4E7200
 11374              	.LASF297:
 11375 0788 5F703573 		.ascii	"_p5s\000"
 11375      00
 11376              	.LASF205:
 11377 078d 76726566 		.ascii	"vrefMvValue\000"
 11377      4D765661 
 11377      6C756500 
 11378              	.LASF346:
 11379 0799 636F756E 		.ascii	"count\000"
 11379      7400
 11380              	.LASF239:
 11381 079f 5F5F554C 		.ascii	"__ULong\000"
 11381      6F6E6700 
 11382              	.LASF67:
 11383 07a7 53415455 		.ascii	"SATURATE_INTR_MASKED\000"
 11383      52415445 
 11383      5F494E54 
 11383      525F4D41 
ARM GAS  C:\Users\dmula\AppData\Local\Temp\ccXnnfAd.s 			page 248


 11383      534B4544 
 11384              	.LASF321:
 11385 07bc 5F6D626C 		.ascii	"_mblen_state\000"
 11385      656E5F73 
 11385      74617465 
 11385      00
 11386              	.LASF370:
 11387 07c9 73746174 		.ascii	"states\000"
 11387      657300
 11388              	.LASF65:
 11389 07d0 53415455 		.ascii	"SATURATE_INTR_SET\000"
 11389      52415445 
 11389      5F494E54 
 11389      525F5345 
 11389      5400
 11390              	.LASF188:
 11391 07e2 43595F53 		.ascii	"CY_SAR_RANGE_COND_ABOVE\000"
 11391      41525F52 
 11391      414E4745 
 11391      5F434F4E 
 11391      445F4142 
 11392              	.LASF183:
 11393 07fa 63686172 		.ascii	"char\000"
 11393      00
 11394              	.LASF355:
 11395 07ff 43795F53 		.ascii	"Cy_SysLib_AssertFailed\000"
 11395      79734C69 
 11395      625F4173 
 11395      73657274 
 11395      4661696C 
 11396              	.LASF250:
 11397 0816 5F5F746D 		.ascii	"__tm_mday\000"
 11397      5F6D6461 
 11397      7900
 11398              	.LASF303:
 11399 0820 5F736967 		.ascii	"_sig_func\000"
 11399      5F66756E 
 11399      6300
 11400              	.LASF328:
 11401 082a 5F6D6272 		.ascii	"_mbrtowc_state\000"
 11401      746F7763 
 11401      5F737461 
 11401      746500
 11402              	.LASF343:
 11403 0839 4144435F 		.ascii	"ADC_1_GetResult16\000"
 11403      315F4765 
 11403      74526573 
 11403      756C7431 
 11403      3600
 11404              	.LASF213:
 11405 084b 72785269 		.ascii	"rxRingBufTail\000"
 11405      6E674275 
 11405      66546169 
 11405      6C00
 11406              	.LASF158:
 11407 0859 70657269 		.ascii	"periDiv16_5CtlOffset\000"
 11407      44697631 
ARM GAS  C:\Users\dmula\AppData\Local\Temp\ccXnnfAd.s 			page 249


 11407      365F3543 
 11407      746C4F66 
 11407      66736574 
 11408              	.LASF128:
 11409 086e 75646250 		.ascii	"udbPresent\000"
 11409      72657365 
 11409      6E7400
 11410              	.LASF129:
 11411 0879 73797350 		.ascii	"sysPmSimoPresent\000"
 11411      6D53696D 
 11411      6F507265 
 11411      73656E74 
 11411      00
 11412              	.LASF278:
 11413 088a 5F626C6B 		.ascii	"_blksize\000"
 11413      73697A65 
 11413      00
 11414              	.LASF63:
 11415 0893 4348414E 		.ascii	"CHAN_RESULT_NEWVALUE\000"
 11415      5F524553 
 11415      554C545F 
 11415      4E455756 
 11415      414C5545 
 11416              	.LASF296:
 11417 08a8 5F726573 		.ascii	"_result_k\000"
 11417      756C745F 
 11417      6B00
 11418              	.LASF216:
 11419 08b2 72784275 		.ascii	"rxBufIdx\000"
 11419      66496478 
 11419      00
 11420              	.LASF74:
 11421 08bb 494E4A5F 		.ascii	"INJ_CHAN_CONFIG\000"
 11421      4348414E 
 11421      5F434F4E 
 11421      46494700 
 11422              	.LASF221:
 11423 08cb 696E6974 		.ascii	"initKey\000"
 11423      4B657900 
 11424              	.LASF79:
 11425 08d3 4156475F 		.ascii	"AVG_STAT\000"
 11425      53544154 
 11425      00
 11426              	.LASF147:
 11427 08dc 64775374 		.ascii	"dwStatusChIdxMsk\000"
 11427      61747573 
 11427      43684964 
 11427      784D736B 
 11427      00
 11428              	.LASF15:
 11429 08ed 75696E74 		.ascii	"uint8_t\000"
 11429      385F7400 
 11430              	.LASF275:
 11431 08f5 5F636C6F 		.ascii	"_close\000"
 11431      736500
 11432              	.LASF152:
 11433 08fc 70657269 		.ascii	"periDivCmdDivSelMsk\000"
ARM GAS  C:\Users\dmula\AppData\Local\Temp\ccXnnfAd.s 			page 250


 11433      44697643 
 11433      6D644469 
 11433      7653656C 
 11433      4D736B00 
 11434              	.LASF118:
 11435 0910 63707573 		.ascii	"cpussIpc0Irq\000"
 11435      73497063 
 11435      30497271 
 11435      00
 11436              	.LASF69:
 11437 091d 52414E47 		.ascii	"RANGE_INTR_SET\000"
 11437      455F494E 
 11437      54525F53 
 11437      455400
 11438              	.LASF203:
 11439 092c 6D757853 		.ascii	"muxSwitchSqCtrl\000"
 11439      77697463 
 11439      68537143 
 11439      74726C00 
 11440              	.LASF207:
 11441 093c 63795F63 		.ascii	"cy_cb_scb_uart_handle_events_t\000"
 11441      625F7363 
 11441      625F7561 
 11441      72745F68 
 11441      616E646C 
 11442              	.LASF196:
 11443 095b 72616E67 		.ascii	"rangeCond\000"
 11443      65436F6E 
 11443      6400
 11444              	.LASF286:
 11445 0965 5F737464 		.ascii	"_stdin\000"
 11445      696E00
 11446              	.LASF318:
 11447 096c 5F67616D 		.ascii	"_gamma_signgam\000"
 11447      6D615F73 
 11447      69676E67 
 11447      616D00
 11448              	.LASF176:
 11449 097b 63707573 		.ascii	"cpussRam0Ctl0\000"
 11449      7352616D 
 11449      3043746C 
 11449      3000
 11450              	.LASF12:
 11451 0989 6C6F6E67 		.ascii	"long long int\000"
 11451      206C6F6E 
 11451      6720696E 
 11451      7400
 11452              	.LASF103:
 11453 0997 69706342 		.ascii	"ipcBase\000"
 11453      61736500 
 11454              	.LASF144:
 11455 099f 64774368 		.ascii	"dwChCtlPrioPos\000"
 11455      43746C50 
 11455      72696F50 
 11455      6F7300
 11456              	.LASF104:
 11457 09ae 63727970 		.ascii	"cryptoBase\000"
ARM GAS  C:\Users\dmula\AppData\Local\Temp\ccXnnfAd.s 			page 251


 11457      746F4261 
 11457      736500
 11458              	.LASF357:
 11459 09b9 7072696E 		.ascii	"printf\000"
 11459      746600
 11460              	.LASF265:
 11461 09c0 5F626173 		.ascii	"_base\000"
 11461      6500
 11462              	.LASF298:
 11463 09c6 5F667265 		.ascii	"_freelist\000"
 11463      656C6973 
 11463      7400
 11464              	.LASF71:
 11465 09d0 52414E47 		.ascii	"RANGE_INTR_MASKED\000"
 11465      455F494E 
 11465      54525F4D 
 11465      41534B45 
 11465      4400
 11466              	.LASF313:
 11467 09e2 5F616464 		.ascii	"_add\000"
 11467      00
 11468              	.LASF134:
 11469 09e7 666C6173 		.ascii	"flashWriteDelay\000"
 11469      68577269 
 11469      74654465 
 11469      6C617900 
 11470              	.LASF330:
 11471 09f7 5F776372 		.ascii	"_wcrtomb_state\000"
 11471      746F6D62 
 11471      5F737461 
 11471      746500
 11472              	.LASF269:
 11473 0a06 5F66696C 		.ascii	"_file\000"
 11473      6500
 11474              	.LASF5:
 11475 0a0c 5F5F696E 		.ascii	"__int16_t\000"
 11475      7431365F 
 11475      7400
 11476              	.LASF100:
 11477 0a16 6873696F 		.ascii	"hsiomBase\000"
 11477      6D426173 
 11477      6500
 11478              	.LASF58:
 11479 0a20 4348414E 		.ascii	"CHAN_RESULT\000"
 11479      5F524553 
 11479      554C5400 
 11480              	.LASF150:
 11481 0a2c 70657269 		.ascii	"periTrGrOffset\000"
 11481      54724772 
 11481      4F666673 
 11481      657400
 11482              	.LASF294:
 11483 0a3b 5F5F636C 		.ascii	"__cleanup\000"
 11483      65616E75 
 11483      7000
 11484              	.LASF120:
 11485 0a45 63707573 		.ascii	"cpussNotConnectedIrq\000"
ARM GAS  C:\Users\dmula\AppData\Local\Temp\ccXnnfAd.s 			page 252


 11485      734E6F74 
 11485      436F6E6E 
 11485      65637465 
 11485      64497271 
 11486              	.LASF68:
 11487 0a5a 52414E47 		.ascii	"RANGE_INTR\000"
 11487      455F494E 
 11487      545200
 11488              	.LASF212:
 11489 0a65 72785269 		.ascii	"rxRingBufHead\000"
 11489      6E674275 
 11489      66486561 
 11489      6400
 11490              	.LASF116:
 11491 0a73 63707573 		.ascii	"cpussDwChNr\000"
 11491      73447743 
 11491      684E7200 
 11492              	.LASF25:
 11493 0a7f 494E5452 		.ascii	"INTR_MASK\000"
 11493      5F4D4153 
 11493      4B00
 11494              	.LASF47:
 11495 0a89 53414D50 		.ascii	"SAMPLE_CTRL\000"
 11495      4C455F43 
 11495      54524C00 
 11496              	.LASF347:
 11497 0a95 73697A65 		.ascii	"size\000"
 11497      00
 11498              	.LASF218:
 11499 0a9a 74784275 		.ascii	"txBufSize\000"
 11499      6653697A 
 11499      6500
 11500              	.LASF255:
 11501 0aa4 5F5F746D 		.ascii	"__tm_isdst\000"
 11501      5F697364 
 11501      737400
 11502              	.LASF276:
 11503 0aaf 5F756275 		.ascii	"_ubuf\000"
 11503      6600
 11504              	.LASF82:
 11505 0ab5 4D55585F 		.ascii	"MUX_SWITCH_CLEAR0\000"
 11505      53574954 
 11505      43485F43 
 11505      4C454152 
 11505      3000
 11506              	.LASF331:
 11507 0ac7 5F776373 		.ascii	"_wcsrtombs_state\000"
 11507      72746F6D 
 11507      62735F73 
 11507      74617465 
 11507      00
 11508              	.LASF126:
 11509 0ad8 70617373 		.ascii	"passSarChannels\000"
 11509      53617243 
 11509      68616E6E 
 11509      656C7300 
 11510              	.LASF178:
ARM GAS  C:\Users\dmula\AppData\Local\Temp\ccXnnfAd.s 			page 253


 11511 0ae8 63707573 		.ascii	"cpussRam2Ctl0\000"
 11511      7352616D 
 11511      3243746C 
 11511      3000
 11512              	.LASF332:
 11513 0af6 5F685F65 		.ascii	"_h_errno\000"
 11513      72726E6F 
 11513      00
 11514              	.LASF53:
 11515 0aff 53544152 		.ascii	"START_CTRL\000"
 11515      545F4354 
 11515      524C00
 11516              	.LASF217:
 11517 0b0a 74784275 		.ascii	"txBuf\000"
 11517      6600
 11518              	.LASF43:
 11519 0b10 5644445F 		.ascii	"VDD_INTR_MASKED\000"
 11519      494E5452 
 11519      5F4D4153 
 11519      4B454400 
 11520              	.LASF157:
 11521 0b20 70657269 		.ascii	"periDiv16CtlOffset\000"
 11521      44697631 
 11521      3643746C 
 11521      4F666673 
 11521      657400
 11522              	.LASF138:
 11523 0b33 666C6173 		.ascii	"flashCtlMainWs1Freq\000"
 11523      6843746C 
 11523      4D61696E 
 11523      57733146 
 11523      72657100 
 11524              	.LASF251:
 11525 0b47 5F5F746D 		.ascii	"__tm_mon\000"
 11525      5F6D6F6E 
 11525      00
 11526              	.LASF202:
 11527 0b50 6D757853 		.ascii	"muxSwitch\000"
 11527      77697463 
 11527      6800
 11528              	.LASF7:
 11529 0b5a 73686F72 		.ascii	"short unsigned int\000"
 11529      7420756E 
 11529      7369676E 
 11529      65642069 
 11529      6E7400
 11530              	.LASF210:
 11531 0b6d 72785269 		.ascii	"rxRingBuf\000"
 11531      6E674275 
 11531      6600
 11532              	.LASF94:
 11533 0b77 6C6F6E67 		.ascii	"long double\000"
 11533      20646F75 
 11533      626C6500 
 11534              	.LASF17:
 11535 0b83 75696E74 		.ascii	"uint16_t\000"
 11535      31365F74 
ARM GAS  C:\Users\dmula\AppData\Local\Temp\ccXnnfAd.s 			page 254


 11535      00
 11536              	.LASF99:
 11537 0b8c 70726F74 		.ascii	"protBase\000"
 11537      42617365 
 11537      00
 11538              	.LASF44:
 11539 0b95 5644445F 		.ascii	"VDD_INTR_SET\000"
 11539      494E5452 
 11539      5F534554 
 11539      00
 11540              	.LASF149:
 11541 0ba2 70657269 		.ascii	"periTrCmdGrSelMsk\000"
 11541      5472436D 
 11541      64477253 
 11541      656C4D73 
 11541      6B00
 11542              	.LASF302:
 11543 0bb4 5F617465 		.ascii	"_atexit0\000"
 11543      78697430 
 11543      00
 11544              	.LASF193:
 11545 0bbd 73616D70 		.ascii	"sampleTime01\000"
 11545      6C655469 
 11545      6D653031 
 11545      00
 11546              	.LASF123:
 11547 0bca 73727373 		.ascii	"srssNumHfroot\000"
 11547      4E756D48 
 11547      66726F6F 
 11547      7400
 11548              	.LASF107:
 11549 0bd8 64775665 		.ascii	"dwVersion\000"
 11549      7273696F 
 11549      6E00
 11550              	.LASF139:
 11551 0be2 666C6173 		.ascii	"flashCtlMainWs2Freq\000"
 11551      6843746C 
 11551      4D61696E 
 11551      57733246 
 11551      72657100 
 11552              	.LASF148:
 11553 0bf6 70657269 		.ascii	"periTrCmdOffset\000"
 11553      5472436D 
 11553      644F6666 
 11553      73657400 
 11554              	.LASF261:
 11555 0c06 5F617465 		.ascii	"_atexit\000"
 11555      78697400 
 11556              	.LASF282:
 11557 0c0e 5F6D6273 		.ascii	"_mbstate\000"
 11557      74617465 
 11557      00
 11558              	.LASF233:
 11559 0c17 5F5F7763 		.ascii	"__wch\000"
 11559      6800
 11560              	.LASF20:
 11561 0c1d 73697A65 		.ascii	"sizetype\000"
ARM GAS  C:\Users\dmula\AppData\Local\Temp\ccXnnfAd.s 			page 255


 11561      74797065 
 11561      00
 11562              	.LASF219:
 11563 0c26 74784C65 		.ascii	"txLeftToTransmit\000"
 11563      6674546F 
 11563      5472616E 
 11563      736D6974 
 11563      00
 11564              	.LASF174:
 11565 0c37 63707573 		.ascii	"cpussCm4NmiCtlOffset\000"
 11565      73436D34 
 11565      4E6D6943 
 11565      746C4F66 
 11565      66736574 
 11566              	.LASF168:
 11567 0c4c 63707573 		.ascii	"cpussCm0StatusOffset\000"
 11567      73436D30 
 11567      53746174 
 11567      75734F66 
 11567      66736574 
 11568              	.LASF156:
 11569 0c61 70657269 		.ascii	"periDiv8CtlOffset\000"
 11569      44697638 
 11569      43746C4F 
 11569      66667365 
 11569      7400
 11570              	.LASF55:
 11571 0c73 52455345 		.ascii	"RESERVED2\000"
 11571      52564544 
 11571      3200
 11572              	.LASF57:
 11573 0c7d 52455345 		.ascii	"RESERVED3\000"
 11573      52564544 
 11573      3300
 11574              	.LASF59:
 11575 0c87 52455345 		.ascii	"RESERVED4\000"
 11575      52564544 
 11575      3400
 11576              	.LASF73:
 11577 0c91 52455345 		.ascii	"RESERVED5\000"
 11577      52564544 
 11577      3500
 11578              	.LASF75:
 11579 0c9b 52455345 		.ascii	"RESERVED6\000"
 11579      52564544 
 11579      3600
 11580              	.LASF77:
 11581 0ca5 52455345 		.ascii	"RESERVED7\000"
 11581      52564544 
 11581      3700
 11582              	.LASF80:
 11583 0caf 52455345 		.ascii	"RESERVED8\000"
 11583      52564544 
 11583      3800
 11584              	.LASF83:
 11585 0cb9 52455345 		.ascii	"RESERVED9\000"
 11585      52564544 
ARM GAS  C:\Users\dmula\AppData\Local\Temp\ccXnnfAd.s 			page 256


 11585      3900
 11586              	.LASF85:
 11587 0cc3 4D55585F 		.ascii	"MUX_SWITCH_SQ_CTRL\000"
 11587      53574954 
 11587      43485F53 
 11587      515F4354 
 11587      524C00
 11588              	.LASF9:
 11589 0cd6 6C6F6E67 		.ascii	"long int\000"
 11589      20696E74 
 11589      00
 11590              	.LASF105:
 11591 0cdf 63707573 		.ascii	"cpussVersion\000"
 11591      73566572 
 11591      73696F6E 
 11591      00
 11592              	.LASF348:
 11593 0cec 49544D5F 		.ascii	"ITM_RxBuffer\000"
 11593      52784275 
 11593      66666572 
 11593      00
 11594              	.LASF109:
 11595 0cf9 6770696F 		.ascii	"gpioVersion\000"
 11595      56657273 
 11595      696F6E00 
 11596              	.LASF108:
 11597 0d05 666C6173 		.ascii	"flashcVersion\000"
 11597      68635665 
 11597      7273696F 
 11597      6E00
 11598              	.LASF130:
 11599 0d13 70726F74 		.ascii	"protBusMasterMask\000"
 11599      4275734D 
 11599      61737465 
 11599      724D6173 
 11599      6B00
 11600              	.LASF372:
 11601 0d25 766F6C74 		.ascii	"voltagereading\000"
 11601      61676572 
 11601      65616469 
 11601      6E6700
 11602              	.LASF244:
 11603 0d34 5F736967 		.ascii	"_sign\000"
 11603      6E00
 11604              	.LASF35:
 11605 0d3a 4750494F 		.ascii	"GPIO_PRT_V1_Type\000"
 11605      5F505254 
 11605      5F56315F 
 11605      54797065 
 11605      00
 11606              	.LASF367:
 11607 0d4b 433A5C55 		.ascii	"C:\\Users\\dmula\\Documents\\GitHub\\DigitalCamera\\"
 11607      73657273 
 11607      5C646D75 
 11607      6C615C44 
 11607      6F63756D 
 11608 0d79 436F6465 		.ascii	"Code\\Alpha_betterversion.cydsn\000"
ARM GAS  C:\Users\dmula\AppData\Local\Temp\ccXnnfAd.s 			page 257


 11608      5C416C70 
 11608      68615F62 
 11608      65747465 
 11608      72766572 
 11609              	.LASF351:
 11610 0d98 4144435F 		.ascii	"ADC_1_currentConfig\000"
 11610      315F6375 
 11610      7272656E 
 11610      74436F6E 
 11610      66696700 
 11611              	.LASF50:
 11612 0dac 52414E47 		.ascii	"RANGE_THRES\000"
 11612      455F5448 
 11612      52455300 
 11613              	.LASF292:
 11614 0db8 5F637572 		.ascii	"_current_locale\000"
 11614      72656E74 
 11614      5F6C6F63 
 11614      616C6500 
 11615              	.LASF182:
 11616 0dc8 63686172 		.ascii	"char_t\000"
 11616      5F7400
 11617              	.LASF280:
 11618 0dcf 5F646174 		.ascii	"_data\000"
 11618      6100
 11619              	.LASF56:
 11620 0dd5 4348414E 		.ascii	"CHAN_WORK\000"
 11620      5F574F52 
 11620      4B00
 11621              	.LASF234:
 11622 0ddf 5F5F7763 		.ascii	"__wchb\000"
 11622      686200
 11623              	.LASF354:
 11624 0de6 636F6C75 		.ascii	"column\000"
 11624      6D6E00
 11625              	.LASF33:
 11626 0ded 4346475F 		.ascii	"CFG_IN_GPIO5V\000"
 11626      494E5F47 
 11626      50494F35 
 11626      5600
 11627              	.LASF252:
 11628 0dfb 5F5F746D 		.ascii	"__tm_year\000"
 11628      5F796561 
 11628      7200
 11629              	.LASF279:
 11630 0e05 5F6F6666 		.ascii	"_offset\000"
 11630      73657400 
 11631              	.LASF317:
 11632 0e0d 5F6C6F63 		.ascii	"_localtime_buf\000"
 11632      616C7469 
 11632      6D655F62 
 11632      756600
 11633              	.LASF23:
 11634 0e1c 4F55545F 		.ascii	"OUT_INV\000"
 11634      494E5600 
 11635              	.LASF169:
 11636 0e24 63707573 		.ascii	"cpussCm4PwrCtlOffset\000"
ARM GAS  C:\Users\dmula\AppData\Local\Temp\ccXnnfAd.s 			page 258


 11636      73436D34 
 11636      50777243 
 11636      746C4F66 
 11636      66736574 
 11637              	.LASF4:
 11638 0e39 5F5F7569 		.ascii	"__uint8_t\000"
 11638      6E74385F 
 11638      7400
 11639              	.LASF301:
 11640 0e43 5F6E6577 		.ascii	"_new\000"
 11640      00
 11641              	.LASF226:
 11642 0e48 6D697363 		.ascii	"miscConfig\000"
 11642      436F6E66 
 11642      696700
 11643              	.LASF305:
 11644 0e53 5F5F7366 		.ascii	"__sf\000"
 11644      00
 11645              	.LASF243:
 11646 0e58 5F6D6178 		.ascii	"_maxwds\000"
 11646      77647300 
 11647              	.LASF324:
 11648 0e60 5F6C3634 		.ascii	"_l64a_buf\000"
 11648      615F6275 
 11648      6600
 11649              	.LASF160:
 11650 0e6a 6770696F 		.ascii	"gpioPrtIntrCfgOffset\000"
 11650      50727449 
 11650      6E747243 
 11650      66674F66 
 11650      66736574 
 11651              	.LASF173:
 11652 0e7f 63707573 		.ascii	"cpussCm0NmiCtlOffset\000"
 11652      73436D30 
 11652      4E6D6943 
 11652      746C4F66 
 11652      66736574 
 11653              	.LASF166:
 11654 0e94 63707573 		.ascii	"cpussCm4ClockCtlOffset\000"
 11654      73436D34 
 11654      436C6F63 
 11654      6B43746C 
 11654      4F666673 
 11655              	.LASF26:
 11656 0eab 494E5452 		.ascii	"INTR_MASKED\000"
 11656      5F4D4153 
 11656      4B454400 
 11657              	.LASF171:
 11658 0eb7 63707573 		.ascii	"cpussTrimRomCtlOffset\000"
 11658      73547269 
 11658      6D526F6D 
 11658      43746C4F 
 11658      66667365 
 11659              	.LASF194:
 11660 0ecd 73616D70 		.ascii	"sampleTime23\000"
 11660      6C655469 
 11660      6D653233 
ARM GAS  C:\Users\dmula\AppData\Local\Temp\ccXnnfAd.s 			page 259


 11660      00
 11661              	.LASF246:
 11662 0eda 5F5F746D 		.ascii	"__tm\000"
 11662      00
 11663              	.LASF117:
 11664 0edf 63707573 		.ascii	"cpussFlashPaSize\000"
 11664      73466C61 
 11664      73685061 
 11664      53697A65 
 11664      00
 11665              	.LASF281:
 11666 0ef0 5F6C6F63 		.ascii	"_lock\000"
 11666      6B00
 11667              	.LASF110:
 11668 0ef6 6873696F 		.ascii	"hsiomVersion\000"
 11668      6D566572 
 11668      73696F6E 
 11668      00
 11669              	.LASF11:
 11670 0f03 6C6F6E67 		.ascii	"long unsigned int\000"
 11670      20756E73 
 11670      69676E65 
 11670      6420696E 
 11670      7400
 11671              	.LASF175:
 11672 0f15 63707573 		.ascii	"cpussRomCtl\000"
 11672      73526F6D 
 11672      43746C00 
 11673              	.LASF308:
 11674 0f21 5F6E696F 		.ascii	"_niobs\000"
 11674      627300
 11675              	.LASF291:
 11676 0f28 5F637572 		.ascii	"_current_category\000"
 11676      72656E74 
 11676      5F636174 
 11676      65676F72 
 11676      7900
 11677              	.LASF356:
 11678 0f3a 43795F53 		.ascii	"Cy_SAR_GetResult16\000"
 11678      41525F47 
 11678      65745265 
 11678      73756C74 
 11678      313600
 11679              	.LASF18:
 11680 0f4d 696E7433 		.ascii	"int32_t\000"
 11680      325F7400 
 11681              	.LASF181:
 11682 0f55 63795F73 		.ascii	"cy_stc_device_t\000"
 11682      74635F64 
 11682      65766963 
 11682      655F7400 
 11683              	.LASF81:
 11684 0f65 4D55585F 		.ascii	"MUX_SWITCH0\000"
 11684      53574954 
 11684      43483000 
 11685              	.LASF248:
 11686 0f71 5F5F746D 		.ascii	"__tm_min\000"
ARM GAS  C:\Users\dmula\AppData\Local\Temp\ccXnnfAd.s 			page 260


 11686      5F6D696E 
 11686      00
 11687              	.LASF61:
 11688 0f7a 4348414E 		.ascii	"CHAN_RESULT_UPDATED\000"
 11688      5F524553 
 11688      554C545F 
 11688      55504441 
 11688      54454400 
 11689              	.LASF258:
 11690 0f8e 5F64736F 		.ascii	"_dso_handle\000"
 11690      5F68616E 
 11690      646C6500 
 11691              	.LASF54:
 11692 0f9a 4348414E 		.ascii	"CHAN_CONFIG\000"
 11692      5F434F4E 
 11692      46494700 
 11693              	.LASF192:
 11694 0fa6 73616D70 		.ascii	"sampleCtrl\000"
 11694      6C654374 
 11694      726C00
 11695              	.LASF341:
 11696 0fb1 726F7773 		.ascii	"rowselect\000"
 11696      656C6563 
 11696      7400
 11697              	.LASF300:
 11698 0fbb 5F637674 		.ascii	"_cvtbuf\000"
 11698      62756600 
 11699              	.LASF3:
 11700 0fc3 756E7369 		.ascii	"unsigned char\000"
 11700      676E6564 
 11700      20636861 
 11700      7200
 11701              	.LASF88:
 11702 0fd1 414E415F 		.ascii	"ANA_TRIM0\000"
 11702      5452494D 
 11702      3000
 11703              	.LASF89:
 11704 0fdb 414E415F 		.ascii	"ANA_TRIM1\000"
 11704      5452494D 
 11704      3100
 11705              	.LASF10:
 11706 0fe5 5F5F7569 		.ascii	"__uint32_t\000"
 11706      6E743332 
 11706      5F7400
 11707              	.LASF92:
 11708 0ff0 4750494F 		.ascii	"GPIO_Type\000"
 11708      5F547970 
 11708      6500
 11709              	.LASF180:
 11710 0ffa 6970634C 		.ascii	"ipcLockStatusOffset\000"
 11710      6F636B53 
 11710      74617475 
 11710      734F6666 
 11710      73657400 
 11711              	.LASF28:
 11712 100e 494E5452 		.ascii	"INTR_CFG\000"
 11712      5F434647 
ARM GAS  C:\Users\dmula\AppData\Local\Temp\ccXnnfAd.s 			page 261


 11712      00
 11713              	.LASF326:
 11714 1017 5F676574 		.ascii	"_getdate_err\000"
 11714      64617465 
 11714      5F657272 
 11714      00
 11715              	.LASF66:
 11716 1024 53415455 		.ascii	"SATURATE_INTR_MASK\000"
 11716      52415445 
 11716      5F494E54 
 11716      525F4D41 
 11716      534B00
 11717              	.LASF87:
 11718 1037 52455345 		.ascii	"RESERVED10\000"
 11718      52564544 
 11718      313000
 11719              	.LASF136:
 11720 1042 666C6173 		.ascii	"flashEraseDelay\000"
 11720      68457261 
 11720      73654465 
 11720      6C617900 
 11721              	.LASF335:
 11722 1052 5F756E75 		.ascii	"_unused\000"
 11722      73656400 
 11723              	.LASF227:
 11724 105a 636C6B44 		.ascii	"clkDivider\000"
 11724      69766964 
 11724      657200
 11725              	.LASF264:
 11726 1065 5F5F7362 		.ascii	"__sbuf\000"
 11726      756600
 11727              	.LASF307:
 11728 106c 5F676C75 		.ascii	"_glue\000"
 11728      6500
 11729              	.LASF304:
 11730 1072 5F5F7367 		.ascii	"__sglue\000"
 11730      6C756500 
 11731              	.LASF132:
 11732 107a 666C6173 		.ascii	"flashRwwRequired\000"
 11732      68527777 
 11732      52657175 
 11732      69726564 
 11732      00
 11733              	.LASF315:
 11734 108b 5F737472 		.ascii	"_strtok_last\000"
 11734      746F6B5F 
 11734      6C617374 
 11734      00
 11735              	.LASF322:
 11736 1098 5F6D6274 		.ascii	"_mbtowc_state\000"
 11736      6F77635F 
 11736      73746174 
 11736      6500
 11737              	.LASF161:
 11738 10a6 6770696F 		.ascii	"gpioPrtCfgOffset\000"
 11738      50727443 
 11738      66674F66 
ARM GAS  C:\Users\dmula\AppData\Local\Temp\ccXnnfAd.s 			page 262


 11738      66736574 
 11738      00
 11739              	.LASF337:
 11740 10b7 70696E4E 		.ascii	"pinNum\000"
 11740      756D00
 11741              	.LASF127:
 11742 10be 65704D6F 		.ascii	"epMonitorNr\000"
 11742      6E69746F 
 11742      724E7200 
 11743              	.LASF350:
 11744 10ca 55415254 		.ascii	"UART_context\000"
 11744      5F636F6E 
 11744      74657874 
 11744      00
 11745              	.LASF42:
 11746 10d7 5644445F 		.ascii	"VDD_INTR_MASK\000"
 11746      494E5452 
 11746      5F4D4153 
 11746      4B00
 11747              	.LASF257:
 11748 10e5 5F666E61 		.ascii	"_fnargs\000"
 11748      72677300 
 11749              	.LASF2:
 11750 10ed 7369676E 		.ascii	"signed char\000"
 11750      65642063 
 11750      68617200 
 11751              	.LASF142:
 11752 10f9 64774368 		.ascii	"dwChOffset\000"
 11752      4F666673 
 11752      657400
 11753              	.LASF284:
 11754 1104 5F726565 		.ascii	"_reent\000"
 11754      6E7400
 11755              	.LASF115:
 11756 110b 63707573 		.ascii	"cpussIpcIrqNr\000"
 11756      73497063 
 11756      4972714E 
 11756      7200
 11757              	.LASF145:
 11758 1119 64774368 		.ascii	"dwChCtlPreemptablePos\000"
 11758      43746C50 
 11758      7265656D 
 11758      70746162 
 11758      6C65506F 
 11759              	.LASF371:
 11760 112f 6D61696E 		.ascii	"main\000"
 11760      00
 11761              	.LASF84:
 11762 1134 4D55585F 		.ascii	"MUX_SWITCH_DS_CTRL\000"
 11762      53574954 
 11762      43485F44 
 11762      535F4354 
 11762      524C00
 11763              	.LASF167:
 11764 1147 63707573 		.ascii	"cpussCm4StatusOffset\000"
 11764      73436D34 
 11764      53746174 
ARM GAS  C:\Users\dmula\AppData\Local\Temp\ccXnnfAd.s 			page 263


 11764      75734F66 
 11764      66736574 
 11765              	.LASF198:
 11766 115c 6368616E 		.ascii	"chanConfig\000"
 11766      436F6E66 
 11766      696700
 11767              	.LASF200:
 11768 1167 73617449 		.ascii	"satIntrMask\000"
 11768      6E74724D 
 11768      61736B00 
 11769              	.LASF369:
 11770 1173 5F5F656E 		.ascii	"__enable_irq\000"
 11770      61626C65 
 11770      5F697271 
 11770      00
 11771              	.LASF86:
 11772 1180 4D55585F 		.ascii	"MUX_SWITCH_STATUS\000"
 11772      53574954 
 11772      43485F53 
 11772      54415455 
 11772      5300
 11773              	.LASF259:
 11774 1192 5F666E74 		.ascii	"_fntypes\000"
 11774      79706573 
 11774      00
 11775              	.LASF112:
 11776 119b 70657269 		.ascii	"periVersion\000"
 11776      56657273 
 11776      696F6E00 
 11777              	.LASF352:
 11778 11a7 4144435F 		.ascii	"ADC_1_allConfigs\000"
 11778      315F616C 
 11778      6C436F6E 
 11778      66696773 
 11778      00
 11779              	.LASF266:
 11780 11b8 5F73697A 		.ascii	"_size\000"
 11780      6500
 11781              	.LASF204:
 11782 11be 636F6E66 		.ascii	"configRouting\000"
 11782      6967526F 
 11782      7574696E 
 11782      6700
 11783              	.LASF102:
 11784 11cc 70617373 		.ascii	"passBase\000"
 11784      42617365 
 11784      00
 11785              	.LASF358:
 11786 11d5 43795F53 		.ascii	"Cy_SysLib_Delay\000"
 11786      79734C69 
 11786      625F4465 
 11786      6C617900 
 11787              	.LASF34:
 11788 11e5 52455345 		.ascii	"RESERVED1\000"
 11788      52564544 
 11788      3100
 11789              	.LASF121:
ARM GAS  C:\Users\dmula\AppData\Local\Temp\ccXnnfAd.s 			page 264


 11790 11ef 73727373 		.ascii	"srssNumClkpath\000"
 11790      4E756D43 
 11790      6C6B7061 
 11790      746800
 11791              	.LASF78:
 11792 11fe 53544154 		.ascii	"STATUS\000"
 11792      555300
 11793              	.LASF31:
 11794 1205 4346475F 		.ascii	"CFG_SIO\000"
 11794      53494F00 
 11795              	.LASF141:
 11796 120d 666C6173 		.ascii	"flashCtlMainWs4Freq\000"
 11796      6843746C 
 11796      4D61696E 
 11796      57733446 
 11796      72657100 
 11797              	.LASF201:
 11798 1221 72616E67 		.ascii	"rangeIntrMask\000"
 11798      65496E74 
 11798      724D6173 
 11798      6B00
 11799              	.LASF190:
 11800 122f 63795F65 		.ascii	"cy_en_sar_range_detect_condition_t\000"
 11800      6E5F7361 
 11800      725F7261 
 11800      6E67655F 
 11800      64657465 
 11801              	.LASF283:
 11802 1252 5F666C61 		.ascii	"_flags2\000"
 11802      67733200 
 11803              	.LASF260:
 11804 125a 5F69735F 		.ascii	"_is_cxa\000"
 11804      63786100 
 11805              	.LASF214:
 11806 1262 72784275 		.ascii	"rxBuf\000"
 11806      6600
 11807              	.LASF311:
 11808 1268 5F736565 		.ascii	"_seed\000"
 11808      6400
 11809              	.LASF319:
 11810 126e 5F72616E 		.ascii	"_rand_next\000"
 11810      645F6E65 
 11810      787400
 11811              	.LASF274:
 11812 1279 5F736565 		.ascii	"_seek\000"
 11812      6B00
 11813              	.LASF242:
 11814 127f 5F6E6578 		.ascii	"_next\000"
 11814      7400
 11815              	.LASF111:
 11816 1285 69706356 		.ascii	"ipcVersion\000"
 11816      65727369 
 11816      6F6E00
 11817              	.LASF288:
 11818 1290 5F737464 		.ascii	"_stderr\000"
 11818      65727200 
 11819              	.LASF334:
ARM GAS  C:\Users\dmula\AppData\Local\Temp\ccXnnfAd.s 			page 265


 11820 1298 5F6E6D61 		.ascii	"_nmalloc\000"
 11820      6C6C6F63 
 11820      00
 11821              	.LASF309:
 11822 12a1 5F696F62 		.ascii	"_iobs\000"
 11822      7300
 11823              	.LASF215:
 11824 12a7 72784275 		.ascii	"rxBufSize\000"
 11824      6653697A 
 11824      6500
 11825              	.LASF46:
 11826 12b1 4354524C 		.ascii	"CTRL\000"
 11826      00
 11827              	.LASF223:
 11828 12b6 6368616E 		.ascii	"channelBase\000"
 11828      6E656C42 
 11828      61736500 
 11829              		.ident	"GCC: (GNU Tools for ARM Embedded Processors) 5.4.1 20160609 (release) [ARM/embedded-5-bran
